
mecrisp-stellaris-stm32h745_CM4.elf:     file format elf32-littlearm


Disassembly of section .text:

081c0000 <CoreDictionaryAnfang-0x1e4>:
 81c0000:	38000b88 	stmdacc	r0, {r3, r7, r8, r9, fp}
 81c0004:	081c4e2f 	ldmdaeq	ip, {r0, r1, r2, r3, r5, r9, sl, fp, lr}
 81c0008:	081c4c6f 	ldmdaeq	ip, {r0, r1, r2, r3, r5, r6, sl, fp, lr}
 81c000c:	081c4c6f 	ldmdaeq	ip, {r0, r1, r2, r3, r5, r6, sl, fp, lr}
 81c0010:	081c4c6f 	ldmdaeq	ip, {r0, r1, r2, r3, r5, r6, sl, fp, lr}
 81c0014:	081c4c6f 	ldmdaeq	ip, {r0, r1, r2, r3, r5, r6, sl, fp, lr}
 81c0018:	081c4c6f 	ldmdaeq	ip, {r0, r1, r2, r3, r5, r6, sl, fp, lr}
	...
 81c002c:	081c4c9d 	ldmdaeq	ip, {r0, r2, r3, r4, r7, sl, fp, lr}
 81c0030:	081c4c9d 	ldmdaeq	ip, {r0, r2, r3, r4, r7, sl, fp, lr}
 81c0034:	00000000 	andeq	r0, r0, r0
 81c0038:	081c4c9d 	ldmdaeq	ip, {r0, r2, r3, r4, r7, sl, fp, lr}
 81c003c:	081c4c47 	ldmdaeq	ip, {r0, r1, r2, r6, sl, fp, lr}
 81c0040:	081c4c9d 	ldmdaeq	ip, {r0, r2, r3, r4, r7, sl, fp, lr}
 81c0044:	081c4c9d 	ldmdaeq	ip, {r0, r2, r3, r4, r7, sl, fp, lr}
 81c0048:	081c4c9d 	ldmdaeq	ip, {r0, r2, r3, r4, r7, sl, fp, lr}
 81c004c:	081c4c9d 	ldmdaeq	ip, {r0, r2, r3, r4, r7, sl, fp, lr}
 81c0050:	081c4c9d 	ldmdaeq	ip, {r0, r2, r3, r4, r7, sl, fp, lr}
 81c0054:	081c4c9d 	ldmdaeq	ip, {r0, r2, r3, r4, r7, sl, fp, lr}
 81c0058:	081c4cc5 	ldmdaeq	ip, {r0, r2, r6, r7, sl, fp, lr}
 81c005c:	081c4ced 	ldmdaeq	ip, {r0, r2, r3, r5, r6, r7, sl, fp, lr}
 81c0060:	081c4d15 	ldmdaeq	ip, {r0, r2, r4, r8, sl, fp, lr}
 81c0064:	081c4d3d 	ldmdaeq	ip, {r0, r2, r3, r4, r5, r8, sl, fp, lr}
 81c0068:	081c4d65 	ldmdaeq	ip, {r0, r2, r5, r6, r8, sl, fp, lr}
 81c006c:	081c4c9d 	ldmdaeq	ip, {r0, r2, r3, r4, r7, sl, fp, lr}
 81c0070:	081c4c9d 	ldmdaeq	ip, {r0, r2, r3, r4, r7, sl, fp, lr}
 81c0074:	081c4c9d 	ldmdaeq	ip, {r0, r2, r3, r4, r7, sl, fp, lr}
 81c0078:	081c4c9d 	ldmdaeq	ip, {r0, r2, r3, r4, r7, sl, fp, lr}
 81c007c:	081c4c9d 	ldmdaeq	ip, {r0, r2, r3, r4, r7, sl, fp, lr}
 81c0080:	081c4c9d 	ldmdaeq	ip, {r0, r2, r3, r4, r7, sl, fp, lr}
 81c0084:	081c4c9d 	ldmdaeq	ip, {r0, r2, r3, r4, r7, sl, fp, lr}
 81c0088:	081c4d8b 	ldmdaeq	ip, {r0, r1, r3, r7, r8, sl, fp, lr}
 81c008c:	081c4c9d 	ldmdaeq	ip, {r0, r2, r3, r4, r7, sl, fp, lr}
 81c0090:	081c4c9d 	ldmdaeq	ip, {r0, r2, r3, r4, r7, sl, fp, lr}
 81c0094:	081c4c9d 	ldmdaeq	ip, {r0, r2, r3, r4, r7, sl, fp, lr}
 81c0098:	081c4c9d 	ldmdaeq	ip, {r0, r2, r3, r4, r7, sl, fp, lr}
 81c009c:	081c4c9d 	ldmdaeq	ip, {r0, r2, r3, r4, r7, sl, fp, lr}
 81c00a0:	081c4c9d 	ldmdaeq	ip, {r0, r2, r3, r4, r7, sl, fp, lr}
 81c00a4:	081c4c9d 	ldmdaeq	ip, {r0, r2, r3, r4, r7, sl, fp, lr}
 81c00a8:	081c4c9d 	ldmdaeq	ip, {r0, r2, r3, r4, r7, sl, fp, lr}
 81c00ac:	081c4c9d 	ldmdaeq	ip, {r0, r2, r3, r4, r7, sl, fp, lr}
 81c00b0:	081c4db3 	ldmdaeq	ip, {r0, r1, r4, r5, r7, r8, sl, fp, lr}
 81c00b4:	081c4ddb 	ldmdaeq	ip, {r0, r1, r3, r4, r6, r7, r8, sl, fp, lr}
 81c00b8:	081c4e03 	ldmdaeq	ip, {r0, r1, r9, sl, fp, lr}
 81c00bc:	081c4c9d 	ldmdaeq	ip, {r0, r2, r3, r4, r7, sl, fp, lr}
 81c00c0:	081c4c9d 	ldmdaeq	ip, {r0, r2, r3, r4, r7, sl, fp, lr}
 81c00c4:	081c4c9d 	ldmdaeq	ip, {r0, r2, r3, r4, r7, sl, fp, lr}
 81c00c8:	081c4c9d 	ldmdaeq	ip, {r0, r2, r3, r4, r7, sl, fp, lr}
 81c00cc:	081c4c9d 	ldmdaeq	ip, {r0, r2, r3, r4, r7, sl, fp, lr}
 81c00d0:	081c4c9d 	ldmdaeq	ip, {r0, r2, r3, r4, r7, sl, fp, lr}
 81c00d4:	081c4c9d 	ldmdaeq	ip, {r0, r2, r3, r4, r7, sl, fp, lr}
 81c00d8:	081c4c9d 	ldmdaeq	ip, {r0, r2, r3, r4, r7, sl, fp, lr}
 81c00dc:	081c4c9d 	ldmdaeq	ip, {r0, r2, r3, r4, r7, sl, fp, lr}
 81c00e0:	081c4c9d 	ldmdaeq	ip, {r0, r2, r3, r4, r7, sl, fp, lr}
 81c00e4:	081c4c9d 	ldmdaeq	ip, {r0, r2, r3, r4, r7, sl, fp, lr}
 81c00e8:	081c4c9d 	ldmdaeq	ip, {r0, r2, r3, r4, r7, sl, fp, lr}
 81c00ec:	081c4c9d 	ldmdaeq	ip, {r0, r2, r3, r4, r7, sl, fp, lr}
 81c00f0:	081c4c9d 	ldmdaeq	ip, {r0, r2, r3, r4, r7, sl, fp, lr}
 81c00f4:	081c4c9d 	ldmdaeq	ip, {r0, r2, r3, r4, r7, sl, fp, lr}
 81c00f8:	081c4c9d 	ldmdaeq	ip, {r0, r2, r3, r4, r7, sl, fp, lr}
 81c00fc:	081c4c9d 	ldmdaeq	ip, {r0, r2, r3, r4, r7, sl, fp, lr}
 81c0100:	081c4c9d 	ldmdaeq	ip, {r0, r2, r3, r4, r7, sl, fp, lr}
 81c0104:	081c4c9d 	ldmdaeq	ip, {r0, r2, r3, r4, r7, sl, fp, lr}
 81c0108:	081c4c9d 	ldmdaeq	ip, {r0, r2, r3, r4, r7, sl, fp, lr}
 81c010c:	081c4c9d 	ldmdaeq	ip, {r0, r2, r3, r4, r7, sl, fp, lr}
 81c0110:	081c4c9d 	ldmdaeq	ip, {r0, r2, r3, r4, r7, sl, fp, lr}
 81c0114:	081c4c9d 	ldmdaeq	ip, {r0, r2, r3, r4, r7, sl, fp, lr}
 81c0118:	081c4c9d 	ldmdaeq	ip, {r0, r2, r3, r4, r7, sl, fp, lr}
 81c011c:	081c4c9d 	ldmdaeq	ip, {r0, r2, r3, r4, r7, sl, fp, lr}
 81c0120:	081c4c9d 	ldmdaeq	ip, {r0, r2, r3, r4, r7, sl, fp, lr}
 81c0124:	081c4c9d 	ldmdaeq	ip, {r0, r2, r3, r4, r7, sl, fp, lr}
 81c0128:	081c4c9d 	ldmdaeq	ip, {r0, r2, r3, r4, r7, sl, fp, lr}
 81c012c:	081c4c9d 	ldmdaeq	ip, {r0, r2, r3, r4, r7, sl, fp, lr}
 81c0130:	081c4c9d 	ldmdaeq	ip, {r0, r2, r3, r4, r7, sl, fp, lr}
 81c0134:	081c4c9d 	ldmdaeq	ip, {r0, r2, r3, r4, r7, sl, fp, lr}
 81c0138:	081c4c9d 	ldmdaeq	ip, {r0, r2, r3, r4, r7, sl, fp, lr}
 81c013c:	081c4c9d 	ldmdaeq	ip, {r0, r2, r3, r4, r7, sl, fp, lr}
 81c0140:	081c4c9d 	ldmdaeq	ip, {r0, r2, r3, r4, r7, sl, fp, lr}
 81c0144:	081c4c9d 	ldmdaeq	ip, {r0, r2, r3, r4, r7, sl, fp, lr}
 81c0148:	081c4c9d 	ldmdaeq	ip, {r0, r2, r3, r4, r7, sl, fp, lr}
 81c014c:	081c4c9d 	ldmdaeq	ip, {r0, r2, r3, r4, r7, sl, fp, lr}
 81c0150:	081c4c9d 	ldmdaeq	ip, {r0, r2, r3, r4, r7, sl, fp, lr}
 81c0154:	081c4c9d 	ldmdaeq	ip, {r0, r2, r3, r4, r7, sl, fp, lr}
 81c0158:	081c4c9d 	ldmdaeq	ip, {r0, r2, r3, r4, r7, sl, fp, lr}
 81c015c:	081c4c9d 	ldmdaeq	ip, {r0, r2, r3, r4, r7, sl, fp, lr}
 81c0160:	081c4c9d 	ldmdaeq	ip, {r0, r2, r3, r4, r7, sl, fp, lr}
 81c0164:	081c4c9d 	ldmdaeq	ip, {r0, r2, r3, r4, r7, sl, fp, lr}
 81c0168:	081c4c9d 	ldmdaeq	ip, {r0, r2, r3, r4, r7, sl, fp, lr}
 81c016c:	081c4c9d 	ldmdaeq	ip, {r0, r2, r3, r4, r7, sl, fp, lr}
 81c0170:	081c4c9d 	ldmdaeq	ip, {r0, r2, r3, r4, r7, sl, fp, lr}
 81c0174:	081c4c9d 	ldmdaeq	ip, {r0, r2, r3, r4, r7, sl, fp, lr}
 81c0178:	081c4c9d 	ldmdaeq	ip, {r0, r2, r3, r4, r7, sl, fp, lr}
 81c017c:	081c4c9d 	ldmdaeq	ip, {r0, r2, r3, r4, r7, sl, fp, lr}
 81c0180:	081c4c9d 	ldmdaeq	ip, {r0, r2, r3, r4, r7, sl, fp, lr}
 81c0184:	081c4c9d 	ldmdaeq	ip, {r0, r2, r3, r4, r7, sl, fp, lr}
 81c0188:	081c4c9d 	ldmdaeq	ip, {r0, r2, r3, r4, r7, sl, fp, lr}
 81c018c:	081c4c9d 	ldmdaeq	ip, {r0, r2, r3, r4, r7, sl, fp, lr}
 81c0190:	081c4c9d 	ldmdaeq	ip, {r0, r2, r3, r4, r7, sl, fp, lr}
 81c0194:	081c4c9d 	ldmdaeq	ip, {r0, r2, r3, r4, r7, sl, fp, lr}
 81c0198:	081c4c9d 	ldmdaeq	ip, {r0, r2, r3, r4, r7, sl, fp, lr}
 81c019c:	081c4c9d 	ldmdaeq	ip, {r0, r2, r3, r4, r7, sl, fp, lr}
 81c01a0:	081c4c9d 	ldmdaeq	ip, {r0, r2, r3, r4, r7, sl, fp, lr}
 81c01a4:	081c4c9d 	ldmdaeq	ip, {r0, r2, r3, r4, r7, sl, fp, lr}
 81c01a8:	081c4c9d 	ldmdaeq	ip, {r0, r2, r3, r4, r7, sl, fp, lr}
 81c01ac:	081c4c9d 	ldmdaeq	ip, {r0, r2, r3, r4, r7, sl, fp, lr}
 81c01b0:	081c4c9d 	ldmdaeq	ip, {r0, r2, r3, r4, r7, sl, fp, lr}
 81c01b4:	081c4c9d 	ldmdaeq	ip, {r0, r2, r3, r4, r7, sl, fp, lr}
 81c01b8:	081c4c9d 	ldmdaeq	ip, {r0, r2, r3, r4, r7, sl, fp, lr}
 81c01bc:	081c4c9d 	ldmdaeq	ip, {r0, r2, r3, r4, r7, sl, fp, lr}
 81c01c0:	081c4c9d 	ldmdaeq	ip, {r0, r2, r3, r4, r7, sl, fp, lr}
 81c01c4:	081c4c9d 	ldmdaeq	ip, {r0, r2, r3, r4, r7, sl, fp, lr}
 81c01c8:	081c4c9d 	ldmdaeq	ip, {r0, r2, r3, r4, r7, sl, fp, lr}
 81c01cc:	081c4c9d 	ldmdaeq	ip, {r0, r2, r3, r4, r7, sl, fp, lr}
 81c01d0:	081c4c9d 	ldmdaeq	ip, {r0, r2, r3, r4, r7, sl, fp, lr}
 81c01d4:	081c4c9d 	ldmdaeq	ip, {r0, r2, r3, r4, r7, sl, fp, lr}
 81c01d8:	081c4c9d 	ldmdaeq	ip, {r0, r2, r3, r4, r7, sl, fp, lr}
 81c01dc:	081c4c9d 	ldmdaeq	ip, {r0, r2, r3, r4, r7, sl, fp, lr}
 81c01e0:	081c4c9d 	ldmdaeq	ip, {r0, r2, r3, r4, r7, sl, fp, lr}

081c01e4 <CoreDictionaryAnfang>:
 81c01e4:	081c0620 	ldmdaeq	ip, {r5, r9, sl}
 81c01e8:	2d22ffff 	stccs	15, cr15, [r2, #-1020]!	; 0xfffffc04
 81c01ec:	4d202d2d 	stcmi	13, cr2, [r0, #-180]!	; 0xffffff4c
 81c01f0:	69726365 	ldmdbvs	r2!, {r0, r2, r5, r6, r8, r9, sp, lr}^
 81c01f4:	532d7073 			; <UNDEFINED> instruction: 0x532d7073
 81c01f8:	6c6c6574 	cfstr64vs	mvdx6, [ip], #-464	; 0xfffffe30
 81c01fc:	73697261 	cmnvc	r9, #268435462	; 0x10000006
 81c0200:	20415220 	subcs	r5, r1, r0, lsr #4
 81c0204:	2e302e33 	mrccs	14, 1, r2, cr0, cr3, {1}
 81c0208:	2d2d2030 	stccs	0, cr2, [sp, #-192]!	; 0xffffff40
 81c020c:	 	strlt	r0, [r7, #-45]	; 0xffffffd3

081c020e <Code_31>:
 81c020e:	b507      	push	{r0, r1, r2, lr}
 81c0210:	4890      	ldr	r0, [pc, #576]	; (81c0454 <r0_unfrei+0x18>)
 81c0212:	2b00      	cmp	r3, #0
 81c0214:	d009      	beq.n	81c022a <Code_31+0x1c>
 81c0216:	f000 f83d 	bl	81c0294 <free_5os_element>
 81c021a:	f000 f843 	bl	81c02a4 <elemente_einen_weiterrutschen_lassen>
 81c021e:	f000 f828 	bl	81c0272 <nget_faltkonstante>
 81c0222:	6042      	str	r2, [r0, #4]
 81c0224:	2128      	movs	r1, #40	; 0x28
 81c0226:	6001      	str	r1, [r0, #0]
 81c0228:	e7f3      	b.n	81c0212 <Code_31+0x4>
 81c022a:	bd07      	pop	{r0, r1, r2, pc}

081c022c <nfaltkonstanten_aufschwimmen>:
 81c022c:	b500      	push	{lr}
 81c022e:	4889      	ldr	r0, [pc, #548]	; (81c0454 <r0_unfrei+0x18>)
 81c0230:	2300      	movs	r3, #0
 81c0232:	6801      	ldr	r1, [r0, #0]
 81c0234:	2928      	cmp	r1, #40	; 0x28
 81c0236:	d105      	bne.n	81c0244 <nfaltkonstanten_aufschwimmen+0x18>
 81c0238:	6842      	ldr	r2, [r0, #4]
 81c023a:	f000 f804 	bl	81c0246 <npush_faltkonstante>
 81c023e:	f000 f84e 	bl	81c02de <eliminiere_tos>
 81c0242:	e7f6      	b.n	81c0232 <nfaltkonstanten_aufschwimmen+0x6>
 81c0244:	bd00      	pop	{pc}

081c0246 <npush_faltkonstante>:
 81c0246:	b503      	push	{r0, r1, lr}
 81c0248:	f847 6d04 	str.w	r6, [r7, #-4]!
 81c024c:	0016      	movs	r6, r2
 81c024e:	f847 6d04 	str.w	r6, [r7, #-4]!
 81c0252:	001e      	movs	r6, r3
 81c0254:	b408      	push	{r3}
 81c0256:	f000 ffa3 	bl	81c11a0 <Code_231>
 81c025a:	bc08      	pop	{r3}
 81c025c:	3301      	adds	r3, #1
 81c025e:	f847 6d04 	str.w	r6, [r7, #-4]!
 81c0262:	4e7d      	ldr	r6, [pc, #500]	; (81c0458 <r0_unfrei+0x1c>)
 81c0264:	f847 6d04 	str.w	r6, [r7, #-4]!
 81c0268:	f240 2661 	movw	r6, #609	; 0x261
 81c026c:	f004 fb34 	bl	81c48d8 <add_to_inline_cache>
 81c0270:	bd03      	pop	{r0, r1, pc}

081c0272 <nget_faltkonstante>:
 81c0272:	b503      	push	{r0, r1, lr}
 81c0274:	3b01      	subs	r3, #1
 81c0276:	f847 6d04 	str.w	r6, [r7, #-4]!
 81c027a:	001e      	movs	r6, r3
 81c027c:	b408      	push	{r3}
 81c027e:	f000 ff79 	bl	81c1174 <Code_229>
 81c0282:	bc08      	pop	{r3}
 81c0284:	0032      	movs	r2, r6
 81c0286:	f847 6d04 	str.w	r6, [r7, #-4]!
 81c028a:	f44f 5600 	mov.w	r6, #8192	; 0x2000
 81c028e:	f004 fb23 	bl	81c48d8 <add_to_inline_cache>
 81c0292:	bd03      	pop	{r0, r1, pc}

081c0294 <free_5os_element>:
 81c0294:	b503      	push	{r0, r1, lr}
 81c0296:	4871      	ldr	r0, [pc, #452]	; (81c045c <r0_unfrei+0x20>)
 81c0298:	6801      	ldr	r1, [r0, #0]
 81c029a:	291e      	cmp	r1, #30
 81c029c:	d001      	beq.n	81c02a2 <free_5os_element+0xe>
 81c029e:	f000 f834 	bl	81c030a <element_to_stack>
 81c02a2:	bd03      	pop	{r0, r1, pc}

081c02a4 <elemente_einen_weiterrutschen_lassen>:
 81c02a4:	6981      	ldr	r1, [r0, #24]
 81c02a6:	6201      	str	r1, [r0, #32]
 81c02a8:	6901      	ldr	r1, [r0, #16]
 81c02aa:	6181      	str	r1, [r0, #24]
 81c02ac:	6881      	ldr	r1, [r0, #8]
 81c02ae:	6101      	str	r1, [r0, #16]
 81c02b0:	6801      	ldr	r1, [r0, #0]
 81c02b2:	6081      	str	r1, [r0, #8]
 81c02b4:	69c1      	ldr	r1, [r0, #28]
 81c02b6:	6241      	str	r1, [r0, #36]	; 0x24
 81c02b8:	6941      	ldr	r1, [r0, #20]
 81c02ba:	61c1      	str	r1, [r0, #28]
 81c02bc:	68c1      	ldr	r1, [r0, #12]
 81c02be:	6141      	str	r1, [r0, #20]
 81c02c0:	6841      	ldr	r1, [r0, #4]
 81c02c2:	60c1      	str	r1, [r0, #12]
 81c02c4:	211e      	movs	r1, #30
 81c02c6:	6001      	str	r1, [r0, #0]
 81c02c8:	4770      	bx	lr

081c02ca <befreie_tos>:
 81c02ca:	b50f      	push	{r0, r1, r2, r3, lr}
 81c02cc:	4861      	ldr	r0, [pc, #388]	; (81c0454 <r0_unfrei+0x18>)
 81c02ce:	6801      	ldr	r1, [r0, #0]
 81c02d0:	291e      	cmp	r1, #30
 81c02d2:	d003      	beq.n	81c02dc <befreie_tos+0x12>
 81c02d4:	f7ff ffde 	bl	81c0294 <free_5os_element>
 81c02d8:	f7ff ffe4 	bl	81c02a4 <elemente_einen_weiterrutschen_lassen>
 81c02dc:	bd0f      	pop	{r0, r1, r2, r3, pc}

081c02de <eliminiere_tos>:
 81c02de:	b502      	push	{r1, lr}
 81c02e0:	6881      	ldr	r1, [r0, #8]
 81c02e2:	6001      	str	r1, [r0, #0]
 81c02e4:	68c1      	ldr	r1, [r0, #12]
 81c02e6:	6041      	str	r1, [r0, #4]
 81c02e8:	e000      	b.n	81c02ec <eliminiere_nos+0x2>

081c02ea <eliminiere_nos>:
 81c02ea:	b502      	push	{r1, lr}
 81c02ec:	6901      	ldr	r1, [r0, #16]
 81c02ee:	6081      	str	r1, [r0, #8]
 81c02f0:	6941      	ldr	r1, [r0, #20]
 81c02f2:	60c1      	str	r1, [r0, #12]
 81c02f4:	6981      	ldr	r1, [r0, #24]
 81c02f6:	6101      	str	r1, [r0, #16]
 81c02f8:	69c1      	ldr	r1, [r0, #28]
 81c02fa:	6141      	str	r1, [r0, #20]
 81c02fc:	6a01      	ldr	r1, [r0, #32]
 81c02fe:	6181      	str	r1, [r0, #24]
 81c0300:	6a41      	ldr	r1, [r0, #36]	; 0x24
 81c0302:	61c1      	str	r1, [r0, #28]
 81c0304:	211e      	movs	r1, #30
 81c0306:	6201      	str	r1, [r0, #32]
 81c0308:	bd02      	pop	{r1, pc}

081c030a <element_to_stack>:
 81c030a:	b508      	push	{r3, lr}
 81c030c:	6801      	ldr	r1, [r0, #0]
 81c030e:	221e      	movs	r2, #30
 81c0310:	6002      	str	r2, [r0, #0]
 81c0312:	2908      	cmp	r1, #8
 81c0314:	d201      	bcs.n	81c031a <element_to_stack+0x10>
 81c0316:	000b      	movs	r3, r1
 81c0318:	e004      	b.n	81c0324 <element_to_stack+0x1a>
 81c031a:	2928      	cmp	r1, #40	; 0x28
 81c031c:	d109      	bne.n	81c0332 <element_to_stack+0x28>
 81c031e:	6843      	ldr	r3, [r0, #4]
 81c0320:	f000 f85b 	bl	81c03da <generiere_konstante>
 81c0324:	f847 6d04 	str.w	r6, [r7, #-4]!
 81c0328:	4e4d      	ldr	r6, [pc, #308]	; (81c0460 <r0_unfrei+0x24>)
 81c032a:	ea56 3603 	orrs.w	r6, r6, r3, lsl #12
 81c032e:	f003 f99e 	bl	81c366e <Code_831>
 81c0332:	bd08      	pop	{r3, pc}

081c0334 <tidyup_register_allocator>:
 81c0334:	b500      	push	{lr}
 81c0336:	f000 f809 	bl	81c034c <tidyup_register_allocator_5os>
 81c033a:	f000 f80c 	bl	81c0356 <tidyup_register_allocator_4os>
 81c033e:	f000 f80f 	bl	81c0360 <tidyup_register_allocator_3os>
 81c0342:	f000 f812 	bl	81c036a <tidyup_register_allocator_nos>
 81c0346:	f000 f815 	bl	81c0374 <tidyup_register_allocator_tos>
 81c034a:	bd00      	pop	{pc}

081c034c <tidyup_register_allocator_5os>:
 81c034c:	b50f      	push	{r0, r1, r2, r3, lr}
 81c034e:	4843      	ldr	r0, [pc, #268]	; (81c045c <r0_unfrei+0x20>)
 81c0350:	f7ff ffdb 	bl	81c030a <element_to_stack>
 81c0354:	bd0f      	pop	{r0, r1, r2, r3, pc}

081c0356 <tidyup_register_allocator_4os>:
 81c0356:	b50f      	push	{r0, r1, r2, r3, lr}
 81c0358:	4842      	ldr	r0, [pc, #264]	; (81c0464 <r0_unfrei+0x28>)
 81c035a:	f7ff ffd6 	bl	81c030a <element_to_stack>
 81c035e:	bd0f      	pop	{r0, r1, r2, r3, pc}

081c0360 <tidyup_register_allocator_3os>:
 81c0360:	b50f      	push	{r0, r1, r2, r3, lr}
 81c0362:	4841      	ldr	r0, [pc, #260]	; (81c0468 <r0_unfrei+0x2c>)
 81c0364:	f7ff ffd1 	bl	81c030a <element_to_stack>
 81c0368:	bd0f      	pop	{r0, r1, r2, r3, pc}

081c036a <tidyup_register_allocator_nos>:
 81c036a:	b50f      	push	{r0, r1, r2, r3, lr}
 81c036c:	483f      	ldr	r0, [pc, #252]	; (81c046c <r0_unfrei+0x30>)
 81c036e:	f7ff ffcc 	bl	81c030a <element_to_stack>
 81c0372:	bd0f      	pop	{r0, r1, r2, r3, pc}

081c0374 <tidyup_register_allocator_tos>:
 81c0374:	b50f      	push	{r0, r1, r2, r3, lr}
 81c0376:	4837      	ldr	r0, [pc, #220]	; (81c0454 <r0_unfrei+0x18>)
 81c0378:	6801      	ldr	r1, [r0, #0]
 81c037a:	2206      	movs	r2, #6
 81c037c:	6002      	str	r2, [r0, #0]
 81c037e:	291e      	cmp	r1, #30
 81c0380:	d106      	bne.n	81c0390 <tidyup_register_allocator_tos+0x1c>
 81c0382:	f847 6d04 	str.w	r6, [r7, #-4]!
 81c0386:	f64c 7640 	movw	r6, #53056	; 0xcf40
 81c038a:	f003 f941 	bl	81c3610 <Code_822>
 81c038e:	e015      	b.n	81c03bc <tidyup_finish>
 81c0390:	2928      	cmp	r1, #40	; 0x28
 81c0392:	d109      	bne.n	81c03a8 <tidyup_register_allocator_tos+0x34>
 81c0394:	6843      	ldr	r3, [r0, #4]
 81c0396:	f847 6d04 	str.w	r6, [r7, #-4]!
 81c039a:	001e      	movs	r6, r3
 81c039c:	f847 6d04 	str.w	r6, [r7, #-4]!
 81c03a0:	2606      	movs	r6, #6
 81c03a2:	f002 fddb 	bl	81c2f5c <Code_720>
 81c03a6:	e009      	b.n	81c03bc <tidyup_finish>
 81c03a8:	2906      	cmp	r1, #6
 81c03aa:	d007      	beq.n	81c03bc <tidyup_finish>
 81c03ac:	f847 6d04 	str.w	r6, [r7, #-4]!
 81c03b0:	f244 6606 	movw	r6, #17926	; 0x4606
 81c03b4:	00c9      	lsls	r1, r1, #3
 81c03b6:	430e      	orrs	r6, r1
 81c03b8:	f003 f92a 	bl	81c3610 <Code_822>

081c03bc <tidyup_finish>:
 81c03bc:	f000 f801 	bl	81c03c2 <init_register_allocator>
 81c03c0:	bd0f      	pop	{r0, r1, r2, r3, pc}

081c03c2 <init_register_allocator>:
 81c03c2:	4824      	ldr	r0, [pc, #144]	; (81c0454 <r0_unfrei+0x18>)
 81c03c4:	211e      	movs	r1, #30
 81c03c6:	6201      	str	r1, [r0, #32]
 81c03c8:	6181      	str	r1, [r0, #24]
 81c03ca:	6101      	str	r1, [r0, #16]
 81c03cc:	6081      	str	r1, [r0, #8]
 81c03ce:	62c1      	str	r1, [r0, #44]	; 0x2c
 81c03d0:	2106      	movs	r1, #6
 81c03d2:	6001      	str	r1, [r0, #0]
 81c03d4:	2100      	movs	r1, #0
 81c03d6:	6281      	str	r1, [r0, #40]	; 0x28
 81c03d8:	4770      	bx	lr

081c03da <generiere_konstante>:
 81c03da:	b507      	push	{r0, r1, r2, lr}
 81c03dc:	f847 6d04 	str.w	r6, [r7, #-4]!
 81c03e0:	001e      	movs	r6, r3
 81c03e2:	f000 f845 	bl	81c0470 <get_free_register>
 81c03e6:	f847 6d04 	str.w	r6, [r7, #-4]!
 81c03ea:	001e      	movs	r6, r3
 81c03ec:	f002 fdb6 	bl	81c2f5c <Code_720>
 81c03f0:	bd07      	pop	{r0, r1, r2, pc}

081c03f2 <generiere_adresskonstante>:
 81c03f2:	b507      	push	{r0, r1, r2, lr}
 81c03f4:	6ac1      	ldr	r1, [r0, #44]	; 0x2c
 81c03f6:	2928      	cmp	r1, #40	; 0x28
 81c03f8:	d104      	bne.n	81c0404 <generiere_adresskonstante+0x12>
 81c03fa:	6b01      	ldr	r1, [r0, #48]	; 0x30
 81c03fc:	4299      	cmp	r1, r3
 81c03fe:	d101      	bne.n	81c0404 <generiere_adresskonstante+0x12>
 81c0400:	2300      	movs	r3, #0
 81c0402:	bd07      	pop	{r0, r1, r2, pc}
 81c0404:	6801      	ldr	r1, [r0, #0]
 81c0406:	2900      	cmp	r1, #0
 81c0408:	d018      	beq.n	81c043c <r0_unfrei>
 81c040a:	6881      	ldr	r1, [r0, #8]
 81c040c:	2900      	cmp	r1, #0
 81c040e:	d015      	beq.n	81c043c <r0_unfrei>
 81c0410:	6901      	ldr	r1, [r0, #16]
 81c0412:	2900      	cmp	r1, #0
 81c0414:	d012      	beq.n	81c043c <r0_unfrei>
 81c0416:	6981      	ldr	r1, [r0, #24]
 81c0418:	2900      	cmp	r1, #0
 81c041a:	d00f      	beq.n	81c043c <r0_unfrei>
 81c041c:	6a01      	ldr	r1, [r0, #32]
 81c041e:	2900      	cmp	r1, #0
 81c0420:	d00c      	beq.n	81c043c <r0_unfrei>
 81c0422:	6303      	str	r3, [r0, #48]	; 0x30
 81c0424:	f847 6d04 	str.w	r6, [r7, #-4]!
 81c0428:	001e      	movs	r6, r3
 81c042a:	f847 6d04 	str.w	r6, [r7, #-4]!
 81c042e:	2600      	movs	r6, #0
 81c0430:	f002 fd94 	bl	81c2f5c <Code_720>
 81c0434:	2128      	movs	r1, #40	; 0x28
 81c0436:	62c1      	str	r1, [r0, #44]	; 0x2c
 81c0438:	2300      	movs	r3, #0
 81c043a:	bd07      	pop	{r0, r1, r2, pc}

081c043c <r0_unfrei>:
 81c043c:	f847 6d04 	str.w	r6, [r7, #-4]!
 81c0440:	001e      	movs	r6, r3
 81c0442:	f000 f815 	bl	81c0470 <get_free_register>
 81c0446:	f847 6d04 	str.w	r6, [r7, #-4]!
 81c044a:	001e      	movs	r6, r3
 81c044c:	f002 fd86 	bl	81c2f5c <Code_720>
 81c0450:	bd07      	pop	{r0, r1, r2, pc}
 81c0452:	08200000 	stmdaeq	r0!, {}	; <UNPREDICTABLE>
 81c0456:	0f203800 	svceq	0x00203800
 81c045a:	0840081c 	stmdaeq	r0, {r2, r3, r4, fp}^
 81c045e:	0d043800 	stceq	8, cr3, [r4, #-0]
 81c0462:	0838f847 	ldmdaeq	r8!, {r0, r1, r2, r6, fp, ip, sp, lr, pc}
 81c0466:	08303800 	ldmdaeq	r0!, {fp, ip, sp}
 81c046a:	08283800 	stmdaeq	r8!, {fp, ip, sp}
 81c046e:	 	ldrlt	r3, [r7, #-2048]!	; 0xfffff800

081c0470 <get_free_register>:
 81c0470:	b537      	push	{r0, r1, r2, r4, r5, lr}
 81c0472:	4836      	ldr	r0, [pc, #216]	; (81c054c <expect_four_elements+0x26>)
 81c0474:	6801      	ldr	r1, [r0, #0]
 81c0476:	6882      	ldr	r2, [r0, #8]
 81c0478:	6903      	ldr	r3, [r0, #16]
 81c047a:	6984      	ldr	r4, [r0, #24]
 81c047c:	6a05      	ldr	r5, [r0, #32]
 81c047e:	2006      	movs	r0, #6
 81c0480:	f000 f80e 	bl	81c04a0 <get_free_register_intern>
 81c0484:	2003      	movs	r0, #3
 81c0486:	f000 f80b 	bl	81c04a0 <get_free_register_intern>
 81c048a:	2002      	movs	r0, #2
 81c048c:	f000 f808 	bl	81c04a0 <get_free_register_intern>
 81c0490:	2001      	movs	r0, #1
 81c0492:	f000 f805 	bl	81c04a0 <get_free_register_intern>
 81c0496:	2300      	movs	r3, #0
 81c0498:	482c      	ldr	r0, [pc, #176]	; (81c054c <expect_four_elements+0x26>)
 81c049a:	211e      	movs	r1, #30
 81c049c:	62c1      	str	r1, [r0, #44]	; 0x2c
 81c049e:	bd37      	pop	{r0, r1, r2, r4, r5, pc}

081c04a0 <get_free_register_intern>:
 81c04a0:	4281      	cmp	r1, r0
 81c04a2:	d009      	beq.n	81c04b8 <get_free_register_intern+0x18>
 81c04a4:	4282      	cmp	r2, r0
 81c04a6:	d007      	beq.n	81c04b8 <get_free_register_intern+0x18>
 81c04a8:	4283      	cmp	r3, r0
 81c04aa:	d005      	beq.n	81c04b8 <get_free_register_intern+0x18>
 81c04ac:	4284      	cmp	r4, r0
 81c04ae:	d003      	beq.n	81c04b8 <get_free_register_intern+0x18>
 81c04b0:	4285      	cmp	r5, r0
 81c04b2:	d001      	beq.n	81c04b8 <get_free_register_intern+0x18>
 81c04b4:	0003      	movs	r3, r0
 81c04b6:	bd37      	pop	{r0, r1, r2, r4, r5, pc}
 81c04b8:	4770      	bx	lr

081c04ba <erstes_element_belegen>:
 81c04ba:	f847 6d04 	str.w	r6, [r7, #-4]!
 81c04be:	f64c 7600 	movw	r6, #52992	; 0xcf00

081c04c2 <element_belegen>:
 81c04c2:	b500      	push	{lr}
 81c04c4:	5881      	ldr	r1, [r0, r2]
 81c04c6:	291e      	cmp	r1, #30
 81c04c8:	d105      	bne.n	81c04d6 <element_belegen+0x14>
 81c04ca:	f7ff ffd1 	bl	81c0470 <get_free_register>
 81c04ce:	5083      	str	r3, [r0, r2]
 81c04d0:	2101      	movs	r1, #1
 81c04d2:	4099      	lsls	r1, r3
 81c04d4:	430e      	orrs	r6, r1
 81c04d6:	bd00      	pop	{pc}

081c04d8 <expect_one_element>:
 81c04d8:	b500      	push	{lr}
 81c04da:	6801      	ldr	r1, [r0, #0]
 81c04dc:	291e      	cmp	r1, #30
 81c04de:	d104      	bne.n	81c04ea <expect_one_element+0x12>
 81c04e0:	2200      	movs	r2, #0
 81c04e2:	f7ff ffea 	bl	81c04ba <erstes_element_belegen>
 81c04e6:	f003 f893 	bl	81c3610 <Code_822>
 81c04ea:	bd00      	pop	{pc}

081c04ec <expect_two_elements>:
 81c04ec:	b500      	push	{lr}
 81c04ee:	6881      	ldr	r1, [r0, #8]
 81c04f0:	291e      	cmp	r1, #30
 81c04f2:	d107      	bne.n	81c0504 <expect_two_elements+0x18>
 81c04f4:	2208      	movs	r2, #8
 81c04f6:	f7ff ffe0 	bl	81c04ba <erstes_element_belegen>
 81c04fa:	2200      	movs	r2, #0
 81c04fc:	f7ff ffe1 	bl	81c04c2 <element_belegen>
 81c0500:	f003 f886 	bl	81c3610 <Code_822>
 81c0504:	bd00      	pop	{pc}

081c0506 <expect_three_elements>:
 81c0506:	b500      	push	{lr}
 81c0508:	6901      	ldr	r1, [r0, #16]
 81c050a:	291e      	cmp	r1, #30
 81c050c:	d10a      	bne.n	81c0524 <expect_three_elements+0x1e>
 81c050e:	2210      	movs	r2, #16
 81c0510:	f7ff ffd3 	bl	81c04ba <erstes_element_belegen>
 81c0514:	2208      	movs	r2, #8
 81c0516:	f7ff ffd4 	bl	81c04c2 <element_belegen>
 81c051a:	2200      	movs	r2, #0
 81c051c:	f7ff ffd1 	bl	81c04c2 <element_belegen>
 81c0520:	f003 f876 	bl	81c3610 <Code_822>
 81c0524:	bd00      	pop	{pc}

081c0526 <expect_four_elements>:
 81c0526:	b500      	push	{lr}
 81c0528:	6981      	ldr	r1, [r0, #24]
 81c052a:	291e      	cmp	r1, #30
 81c052c:	d10d      	bne.n	81c054a <expect_four_elements+0x24>
 81c052e:	2218      	movs	r2, #24
 81c0530:	f7ff ffc3 	bl	81c04ba <erstes_element_belegen>
 81c0534:	2210      	movs	r2, #16
 81c0536:	f7ff ffc4 	bl	81c04c2 <element_belegen>
 81c053a:	2208      	movs	r2, #8
 81c053c:	f7ff ffc1 	bl	81c04c2 <element_belegen>
 81c0540:	2200      	movs	r2, #0
 81c0542:	f7ff ffbe 	bl	81c04c2 <element_belegen>
 81c0546:	f003 f863 	bl	81c3610 <Code_822>
 81c054a:	bd00      	pop	{pc}
 81c054c:	38000820 	stmdacc	r0, {r5, fp}

081c0550 <expect_tos_in_register>:
 81c0550:	b500      	push	{lr}
 81c0552:	6801      	ldr	r1, [r0, #0]
 81c0554:	2928      	cmp	r1, #40	; 0x28
 81c0556:	d104      	bne.n	81c0562 <expect_tos_in_register+0x12>
 81c0558:	6843      	ldr	r3, [r0, #4]
 81c055a:	f7ff ff3e 	bl	81c03da <generiere_konstante>
 81c055e:	6003      	str	r3, [r0, #0]
 81c0560:	0019      	movs	r1, r3
 81c0562:	bd00      	pop	{pc}

081c0564 <expect_nos_in_register>:
 81c0564:	b500      	push	{lr}
 81c0566:	6881      	ldr	r1, [r0, #8]
 81c0568:	2928      	cmp	r1, #40	; 0x28
 81c056a:	d104      	bne.n	81c0576 <expect_nos_in_register+0x12>
 81c056c:	68c3      	ldr	r3, [r0, #12]
 81c056e:	f7ff ff34 	bl	81c03da <generiere_konstante>
 81c0572:	6083      	str	r3, [r0, #8]
 81c0574:	0019      	movs	r1, r3
 81c0576:	bd00      	pop	{pc}

081c0578 <expect_3os_in_register>:
 81c0578:	b500      	push	{lr}
 81c057a:	6901      	ldr	r1, [r0, #16]
 81c057c:	2928      	cmp	r1, #40	; 0x28
 81c057e:	d104      	bne.n	81c058a <expect_3os_in_register+0x12>
 81c0580:	6943      	ldr	r3, [r0, #20]
 81c0582:	f7ff ff2a 	bl	81c03da <generiere_konstante>
 81c0586:	6103      	str	r3, [r0, #16]
 81c0588:	0019      	movs	r1, r3
 81c058a:	bd00      	pop	{pc}

081c058c <nos_change_tos_away_later>:
 81c058c:	b53e      	push	{r1, r2, r3, r4, r5, lr}
 81c058e:	6882      	ldr	r2, [r0, #8]
 81c0590:	6903      	ldr	r3, [r0, #16]
 81c0592:	6984      	ldr	r4, [r0, #24]
 81c0594:	6a05      	ldr	r5, [r0, #32]
 81c0596:	429a      	cmp	r2, r3
 81c0598:	d003      	beq.n	81c05a2 <nos_change_tos_away_later+0x16>
 81c059a:	42a2      	cmp	r2, r4
 81c059c:	d001      	beq.n	81c05a2 <nos_change_tos_away_later+0x16>
 81c059e:	42aa      	cmp	r2, r5
 81c05a0:	d10a      	bne.n	81c05b8 <nos_change_tos_away_later+0x2c>
 81c05a2:	2a07      	cmp	r2, #7
 81c05a4:	d808      	bhi.n	81c05b8 <nos_change_tos_away_later+0x2c>
 81c05a6:	f847 6d04 	str.w	r6, [r7, #-4]!
 81c05aa:	00d6      	lsls	r6, r2, #3
 81c05ac:	f7ff ff60 	bl	81c0470 <get_free_register>
 81c05b0:	431e      	orrs	r6, r3
 81c05b2:	6083      	str	r3, [r0, #8]
 81c05b4:	f003 f82c 	bl	81c3610 <Code_822>
 81c05b8:	bd3e      	pop	{r1, r2, r3, r4, r5, pc}

081c05ba <make_tos_changeable>:
 81c05ba:	b53e      	push	{r1, r2, r3, r4, r5, lr}
 81c05bc:	6801      	ldr	r1, [r0, #0]
 81c05be:	6882      	ldr	r2, [r0, #8]
 81c05c0:	6903      	ldr	r3, [r0, #16]
 81c05c2:	6984      	ldr	r4, [r0, #24]
 81c05c4:	6a05      	ldr	r5, [r0, #32]
 81c05c6:	4291      	cmp	r1, r2
 81c05c8:	d006      	beq.n	81c05d8 <make_tos_changeable+0x1e>
 81c05ca:	4299      	cmp	r1, r3
 81c05cc:	d004      	beq.n	81c05d8 <make_tos_changeable+0x1e>
 81c05ce:	42a1      	cmp	r1, r4
 81c05d0:	d002      	beq.n	81c05d8 <make_tos_changeable+0x1e>
 81c05d2:	42a9      	cmp	r1, r5
 81c05d4:	d000      	beq.n	81c05d8 <make_tos_changeable+0x1e>
 81c05d6:	bd3e      	pop	{r1, r2, r3, r4, r5, pc}
 81c05d8:	f847 6d04 	str.w	r6, [r7, #-4]!
 81c05dc:	00ce      	lsls	r6, r1, #3
 81c05de:	f7ff ff47 	bl	81c0470 <get_free_register>
 81c05e2:	431e      	orrs	r6, r3
 81c05e4:	6003      	str	r3, [r0, #0]
 81c05e6:	f003 f813 	bl	81c3610 <Code_822>
 81c05ea:	bd3e      	pop	{r1, r2, r3, r4, r5, pc}

081c05ec <tos_registerwechsel>:
 81c05ec:	b500      	push	{lr}
 81c05ee:	f7ff fe76 	bl	81c02de <eliminiere_tos>
 81c05f2:	f7ff fe6a 	bl	81c02ca <befreie_tos>
 81c05f6:	f7ff ff3b 	bl	81c0470 <get_free_register>
 81c05fa:	6003      	str	r3, [r0, #0]
 81c05fc:	bd00      	pop	{pc}

081c05fe <push_lr_nachholen>:
 81c05fe:	b501      	push	{r0, lr}
 81c0600:	4806      	ldr	r0, [pc, #24]	; (81c061c <push_lr_nachholen+0x1e>)
 81c0602:	6803      	ldr	r3, [r0, #0]
 81c0604:	3301      	adds	r3, #1
 81c0606:	d008      	beq.n	81c061a <push_lr_nachholen+0x1c>
 81c0608:	2300      	movs	r3, #0
 81c060a:	43db      	mvns	r3, r3
 81c060c:	6003      	str	r3, [r0, #0]
 81c060e:	f847 6d04 	str.w	r6, [r7, #-4]!
 81c0612:	f24b 5600 	movw	r6, #46336	; 0xb500
 81c0616:	f002 fffb 	bl	81c3610 <Code_822>
 81c061a:	bd01      	pop	{r0, pc}
 81c061c:	380087d8 	stmdacc	r0, {r3, r4, r6, r7, r8, r9, sl, pc}

081c0620 <Dictionary_68>:
 81c0620:	081c0644 	ldmdaeq	ip, {r2, r6, r9, sl}
 81c0624:	32040242 	andcc	r0, r4, #536870916	; 0x20000004
 81c0628:	00707564 	rsbseq	r7, r0, r4, ror #10

081c062c <Code_68>:
 81c062c:	6838      	ldr	r0, [r7, #0]
 81c062e:	f847 6d04 	str.w	r6, [r7, #-4]!
 81c0632:	3f04      	subs	r7, #4
 81c0634:	6038      	str	r0, [r7, #0]
 81c0636:	4770      	bx	lr
 81c0638:	b500      	push	{lr}
 81c063a:	f000 fcc3 	bl	81c0fc4 <over_allocator>
 81c063e:	f000 fcc1 	bl	81c0fc4 <over_allocator>
 81c0642:	bd00      	pop	{pc}

081c0644 <Dictionary_70>:
 81c0644:	081c0662 	ldmdaeq	ip, {r1, r5, r6, r9, sl}
 81c0648:	32050262 	andcc	r0, r5, #536870918	; 0x20000006
 81c064c:	706f7264 	rsbvc	r7, pc, r4, ror #4

081c0650 <Code_70>:
 81c0650:	3704      	adds	r7, #4
 81c0652:	cf40      	ldmia	r7!, {r6}
 81c0654:	4770      	bx	lr
 81c0656:	b500      	push	{lr}
 81c0658:	f000 fc64 	bl	81c0f24 <drop_allocator>
 81c065c:	f000 fc62 	bl	81c0f24 <drop_allocator>
 81c0660:	bd00      	pop	{pc}

081c0662 <Dictionary_72>:
 81c0662:	081c06a8 	ldmdaeq	ip, {r3, r5, r7, r9, sl}
 81c0666:	32050244 	andcc	r0, r5, #68, 4	; 0x40000004
 81c066a:	70617773 	rsbvc	r7, r1, r3, ror r7

081c066e <Code_72>:
 81c066e:	cf07      	ldmia	r7!, {r0, r1, r2}
 81c0670:	3f04      	subs	r7, #4
 81c0672:	6038      	str	r0, [r7, #0]
 81c0674:	f847 6d04 	str.w	r6, [r7, #-4]!
 81c0678:	3f04      	subs	r7, #4
 81c067a:	603a      	str	r2, [r7, #0]
 81c067c:	000e      	movs	r6, r1
 81c067e:	4770      	bx	lr

081c0680 <dswap_allocator>:
 81c0680:	b500      	push	{lr}
 81c0682:	f7ff ff50 	bl	81c0526 <expect_four_elements>
 81c0686:	6802      	ldr	r2, [r0, #0]
 81c0688:	6903      	ldr	r3, [r0, #16]
 81c068a:	6003      	str	r3, [r0, #0]
 81c068c:	6102      	str	r2, [r0, #16]
 81c068e:	6842      	ldr	r2, [r0, #4]
 81c0690:	6943      	ldr	r3, [r0, #20]
 81c0692:	6043      	str	r3, [r0, #4]
 81c0694:	6142      	str	r2, [r0, #20]
 81c0696:	6882      	ldr	r2, [r0, #8]
 81c0698:	6983      	ldr	r3, [r0, #24]
 81c069a:	6083      	str	r3, [r0, #8]
 81c069c:	6182      	str	r2, [r0, #24]
 81c069e:	68c2      	ldr	r2, [r0, #12]
 81c06a0:	69c3      	ldr	r3, [r0, #28]
 81c06a2:	60c3      	str	r3, [r0, #12]
 81c06a4:	61c2      	str	r2, [r0, #28]
 81c06a6:	bd00      	pop	{pc}

081c06a8 <Dictionary_74>:
 81c06a8:	081c06d0 	ldmdaeq	ip, {r4, r6, r7, r9, sl}
 81c06ac:	32040262 	andcc	r0, r4, #536870918	; 0x20000006
 81c06b0:	0070696e 	rsbseq	r6, r0, lr, ror #18

081c06b4 <Code_74>:
 81c06b4:	cf07      	ldmia	r7!, {r0, r1, r2}
 81c06b6:	3f04      	subs	r7, #4
 81c06b8:	6038      	str	r0, [r7, #0]
 81c06ba:	4770      	bx	lr
 81c06bc:	b500      	push	{lr}
 81c06be:	f7ff ff32 	bl	81c0526 <expect_four_elements>
 81c06c2:	f7ff ffdd 	bl	81c0680 <dswap_allocator>
 81c06c6:	f7ff fe0a 	bl	81c02de <eliminiere_tos>
 81c06ca:	f7ff fe08 	bl	81c02de <eliminiere_tos>
 81c06ce:	bd00      	pop	{pc}

081c06d0 <Dictionary_75>:
 81c06d0:	081c06ea 	ldmdaeq	ip, {r1, r3, r5, r6, r7, r9, sl}
 81c06d4:	32050044 	andcc	r0, r5, #68	; 0x44
 81c06d8:	7265766f 	rsbvc	r7, r5, #116391936	; 0x6f00000

081c06dc <Code_75>:
 81c06dc:	68b8      	ldr	r0, [r7, #8]
 81c06de:	f847 6d04 	str.w	r6, [r7, #-4]!
 81c06e2:	3f04      	subs	r7, #4
 81c06e4:	6038      	str	r0, [r7, #0]
 81c06e6:	68fe      	ldr	r6, [r7, #12]
 81c06e8:	4770      	bx	lr

081c06ea <Dictionary_77>:
 81c06ea:	081c070e 	ldmdaeq	ip, {r1, r2, r3, r8, r9, sl}
 81c06ee:	32050044 	andcc	r0, r5, #68	; 0x44
 81c06f2:	6b637574 	blvs	9a9dcca <FlashDictionaryEnde+0x189dcca>

081c06f6 <Code_77>:
 81c06f6:	cf07      	ldmia	r7!, {r0, r1, r2}
 81c06f8:	3f04      	subs	r7, #4
 81c06fa:	6038      	str	r0, [r7, #0]
 81c06fc:	f847 6d04 	str.w	r6, [r7, #-4]!
 81c0700:	3f04      	subs	r7, #4
 81c0702:	603a      	str	r2, [r7, #0]
 81c0704:	3f04      	subs	r7, #4
 81c0706:	6039      	str	r1, [r7, #0]
 81c0708:	3f04      	subs	r7, #4
 81c070a:	6038      	str	r0, [r7, #0]
 81c070c:	4770      	bx	lr

081c070e <Dictionary_79>:
 81c070e:	081c0730 	ldmdaeq	ip, {r4, r5, r8, r9, sl}
 81c0712:	32040046 	andcc	r0, r4, #70	; 0x46
 81c0716:	00746f72 	rsbseq	r6, r4, r2, ror pc

081c071a <Code_79>:
 81c071a:	6838      	ldr	r0, [r7, #0]
 81c071c:	68b9      	ldr	r1, [r7, #8]
 81c071e:	693a      	ldr	r2, [r7, #16]
 81c0720:	60b8      	str	r0, [r7, #8]
 81c0722:	6139      	str	r1, [r7, #16]
 81c0724:	603a      	str	r2, [r7, #0]
 81c0726:	6879      	ldr	r1, [r7, #4]
 81c0728:	607e      	str	r6, [r7, #4]
 81c072a:	68fe      	ldr	r6, [r7, #12]
 81c072c:	60f9      	str	r1, [r7, #12]
 81c072e:	4770      	bx	lr

081c0730 <Dictionary_80>:
 81c0730:	081c0752 	ldmdaeq	ip, {r1, r4, r6, r8, r9, sl}
 81c0734:	32050046 	andcc	r0, r5, #70	; 0x46
 81c0738:	746f722d 	strbtvc	r7, [pc], #-557	; 81c0740 <Code_80+0x4>

081c073c <Code_80>:
 81c073c:	6838      	ldr	r0, [r7, #0]
 81c073e:	68b9      	ldr	r1, [r7, #8]
 81c0740:	693a      	ldr	r2, [r7, #16]
 81c0742:	6138      	str	r0, [r7, #16]
 81c0744:	6039      	str	r1, [r7, #0]
 81c0746:	60ba      	str	r2, [r7, #8]
 81c0748:	68f9      	ldr	r1, [r7, #12]
 81c074a:	60fe      	str	r6, [r7, #12]
 81c074c:	687e      	ldr	r6, [r7, #4]
 81c074e:	6079      	str	r1, [r7, #4]
 81c0750:	4770      	bx	lr

081c0752 <Dictionary_81>:
 81c0752:	081c077a 	ldmdaeq	ip, {r1, r3, r4, r5, r6, r8, r9, sl}
 81c0756:	32030220 	andcc	r0, r3, #32, 4
 81c075a:	 	svcgt	0x0001723e

081c075c <Code_81>:
 81c075c:	cf01      	ldmia	r7!, {r0}
 81c075e:	b401      	push	{r0}
 81c0760:	b440      	push	{r6}
 81c0762:	cf40      	ldmia	r7!, {r6}
 81c0764:	4770      	bx	lr
 81c0766:	b500      	push	{lr}
 81c0768:	f7ff ff49 	bl	81c05fe <push_lr_nachholen>
 81c076c:	f000 fbfd 	bl	81c0f6a <swap_allocator>
 81c0770:	f000 fc9d 	bl	81c10ae <allocator_to_r>
 81c0774:	f000 fc9b 	bl	81c10ae <allocator_to_r>
 81c0778:	bd00      	pop	{pc}

081c077a <Dictionary_82>:
 81c077a:	081c07a6 	ldmdaeq	ip, {r1, r2, r5, r7, r8, r9, sl}
 81c077e:	32030220 	andcc	r0, r3, #32, 4
 81c0782:	 			; <UNDEFINED> instruction: 0xf8473e72

081c0784 <Code_82>:
 81c0784:	f847 6d04 	str.w	r6, [r7, #-4]!
 81c0788:	bc40      	pop	{r6}
 81c078a:	bc01      	pop	{r0}
 81c078c:	3f04      	subs	r7, #4
 81c078e:	6038      	str	r0, [r7, #0]
 81c0790:	4770      	bx	lr
 81c0792:	b500      	push	{lr}
 81c0794:	f7ff ff33 	bl	81c05fe <push_lr_nachholen>
 81c0798:	f000 fca5 	bl	81c10e6 <allocator_r_from>
 81c079c:	f000 fca3 	bl	81c10e6 <allocator_r_from>
 81c07a0:	f000 fbe3 	bl	81c0f6a <swap_allocator>
 81c07a4:	bd00      	pop	{pc}

081c07a6 <Dictionary_84>:
 81c07a6:	081c07d6 	ldmdaeq	ip, {r1, r2, r4, r6, r7, r8, r9, sl}
 81c07aa:	32030220 	andcc	r0, r3, #32, 4
 81c07ae:	 			; <UNDEFINED> instruction: 0xf8474072

081c07b0 <Code_84>:
 81c07b0:	f847 6d04 	str.w	r6, [r7, #-4]!
 81c07b4:	9e01      	ldr	r6, [sp, #4]
 81c07b6:	f847 6d04 	str.w	r6, [r7, #-4]!
 81c07ba:	9e00      	ldr	r6, [sp, #0]
 81c07bc:	4770      	bx	lr
 81c07be:	b500      	push	{lr}
 81c07c0:	f7ff ff1d 	bl	81c05fe <push_lr_nachholen>
 81c07c4:	f847 6d04 	str.w	r6, [r7, #-4]!
 81c07c8:	f649 0601 	movw	r6, #38913	; 0x9801
 81c07cc:	f003 fc43 	bl	81c4056 <loop_j_allocator>
 81c07d0:	f003 fc3d 	bl	81c404e <rfetch_allocator>
 81c07d4:	bd00      	pop	{pc}

081c07d6 <Dictionary_89>:
 81c07d6:	081c07fc 	ldmdaeq	ip, {r2, r3, r4, r5, r6, r7, r8, r9, sl}
 81c07da:	32060220 	andcc	r0, r6, #32, 4
 81c07de:	6f726472 	svcvs	0x00726472
 81c07e2:	 	andlt	r0, r2, r0, ror r0

081c07e4 <Code_89>:
 81c07e4:	b002      	add	sp, #8
 81c07e6:	4770      	bx	lr
 81c07e8:	b500      	push	{lr}
 81c07ea:	f7ff ff08 	bl	81c05fe <push_lr_nachholen>
 81c07ee:	f847 6d04 	str.w	r6, [r7, #-4]!
 81c07f2:	f24b 0602 	movw	r6, #45058	; 0xb002
 81c07f6:	f002 ff0b 	bl	81c3610 <Code_822>
 81c07fa:	bd00      	pop	{pc}

081c07fc <Dictionary_92>:
 81c07fc:	081c0814 	ldmdaeq	ip, {r2, r4, fp}
 81c0800:	64030042 	strvs	r0, [r3], #-66	; 0xffffffbe
 81c0804:	 	ldmdavs	r8!, {r1, r4, r5, r8, r9, sl, fp, sp}

081c0806 <Code_92>:
 81c0806:	6838      	ldr	r0, [r7, #0]
 81c0808:	07f1      	lsls	r1, r6, #31
 81c080a:	1076      	asrs	r6, r6, #1
 81c080c:	0840      	lsrs	r0, r0, #1
 81c080e:	4308      	orrs	r0, r1
 81c0810:	6038      	str	r0, [r7, #0]
 81c0812:	4770      	bx	lr

081c0814 <Dictionary_93>:
 81c0814:	081c082a 	ldmdaeq	ip, {r1, r3, r5, fp}
 81c0818:	64030262 	strvs	r0, [r3], #-610	; 0xfffffd9e
 81c081c:	 	ldmdavs	r8!, {r1, r4, r5, r9, fp, sp}

081c081e <Code_93>:
 81c081e:	6838      	ldr	r0, [r7, #0]
 81c0820:	1800      	adds	r0, r0, r0
 81c0822:	4176      	adcs	r6, r6
 81c0824:	6038      	str	r0, [r7, #0]
 81c0826:	4770      	bx	lr
 81c0828:	e017      	b.n	81c085a <Code_95+0xa>

081c082a <Dictionary_94>:
 81c082a:	081c0844 	ldmdaeq	ip, {r2, r6, fp}
 81c082e:	64040042 	strvs	r0, [r4], #-66	; 0xffffffbe
 81c0832:	00726873 	rsbseq	r6, r2, r3, ror r8

081c0836 <Code_94>:
 81c0836:	6838      	ldr	r0, [r7, #0]
 81c0838:	07f1      	lsls	r1, r6, #31
 81c083a:	0876      	lsrs	r6, r6, #1
 81c083c:	0840      	lsrs	r0, r0, #1
 81c083e:	4308      	orrs	r0, r1
 81c0840:	6038      	str	r0, [r7, #0]
 81c0842:	4770      	bx	lr

081c0844 <Dictionary_95>:
 81c0844:	081c0890 	ldmdaeq	ip, {r4, r7, fp}
 81c0848:	64040262 	strvs	r0, [r4], #-610	; 0xfffffd9e
 81c084c:	006c6873 	rsbeq	r6, ip, r3, ror r8

081c0850 <Code_95>:
 81c0850:	6838      	ldr	r0, [r7, #0]
 81c0852:	1800      	adds	r0, r0, r0
 81c0854:	4176      	adcs	r6, r6
 81c0856:	6038      	str	r0, [r7, #0]
 81c0858:	4770      	bx	lr
 81c085a:	b500      	push	{lr}
 81c085c:	f7ff fe46 	bl	81c04ec <expect_two_elements>
 81c0860:	f7ff fe76 	bl	81c0550 <expect_tos_in_register>
 81c0864:	f7ff fea9 	bl	81c05ba <make_tos_changeable>
 81c0868:	f000 fb7f 	bl	81c0f6a <swap_allocator>
 81c086c:	f7ff fe70 	bl	81c0550 <expect_tos_in_register>
 81c0870:	f7ff fea3 	bl	81c05ba <make_tos_changeable>
 81c0874:	f847 6d04 	str.w	r6, [r7, #-4]!
 81c0878:	2640      	movs	r6, #64	; 0x40
 81c087a:	f001 fe0b 	bl	81c2494 <smalltworegisters>
 81c087e:	f000 fb74 	bl	81c0f6a <swap_allocator>
 81c0882:	f847 6d04 	str.w	r6, [r7, #-4]!
 81c0886:	f244 1640 	movw	r6, #16704	; 0x4140
 81c088a:	f001 fe03 	bl	81c2494 <smalltworegisters>
 81c088e:	bd00      	pop	{pc}

081c0890 <Dictionary_100>:
 81c0890:	081c08a2 	ldmdaeq	ip, {r1, r5, r7, fp}
 81c0894:	64040042 	strvs	r0, [r4], #-66	; 0xffffffbe
 81c0898:	00736261 	rsbseq	r6, r3, r1, ror #4

081c089c <Code_100>:
 81c089c:	2e00      	cmp	r6, #0
 81c089e:	d407      	bmi.n	81c08b0 <Code_101>
 81c08a0:	4770      	bx	lr

081c08a2 <Dictionary_101>:
 81c08a2:	081c08c0 	ldmdaeq	ip, {r6, r7, fp}
 81c08a6:	64070042 	strvs	r0, [r7], #-66	; 0xffffffbe
 81c08aa:	6167656e 	cmnvs	r7, lr, ror #10
 81c08ae:	 	ldmdavs	r8!, {r2, r4, r5, r6, r8, sl, sp, lr}

081c08b0 <Code_101>:
 81c08b0:	6838      	ldr	r0, [r7, #0]
 81c08b2:	2100      	movs	r1, #0
 81c08b4:	43c0      	mvns	r0, r0
 81c08b6:	43f6      	mvns	r6, r6
 81c08b8:	3001      	adds	r0, #1
 81c08ba:	414e      	adcs	r6, r1
 81c08bc:	6038      	str	r0, [r7, #0]
 81c08be:	4770      	bx	lr

081c08c0 <Dictionary_102>:
 81c08c0:	081c0910 	ldmdaeq	ip, {r4, r8, fp}
 81c08c4:	64020264 	strvs	r0, [r2], #-612	; 0xfffffd9c
 81c08c8:	 	svcgt	0x0007002d

081c08ca <Code_102>:
 81c08ca:	cf07      	ldmia	r7!, {r0, r1, r2}
 81c08cc:	1a12      	subs	r2, r2, r0
 81c08ce:	41b1      	sbcs	r1, r6
 81c08d0:	000e      	movs	r6, r1
 81c08d2:	3f04      	subs	r7, #4
 81c08d4:	603a      	str	r2, [r7, #0]
 81c08d6:	4770      	bx	lr
 81c08d8:	b500      	push	{lr}
 81c08da:	f7ff fe24 	bl	81c0526 <expect_four_elements>
 81c08de:	f000 fb99 	bl	81c1014 <rot_allocator>
 81c08e2:	f7ff fe35 	bl	81c0550 <expect_tos_in_register>
 81c08e6:	f7ff fe68 	bl	81c05ba <make_tos_changeable>
 81c08ea:	f000 fb3e 	bl	81c0f6a <swap_allocator>
 81c08ee:	f7ff fe2f 	bl	81c0550 <expect_tos_in_register>
 81c08f2:	f7ff fe62 	bl	81c05ba <make_tos_changeable>
 81c08f6:	f7ff fec3 	bl	81c0680 <dswap_allocator>
 81c08fa:	f001 fd35 	bl	81c2368 <minus_allocator>
 81c08fe:	f000 fba5 	bl	81c104c <minusrot_allocator>
 81c0902:	f847 6d04 	str.w	r6, [r7, #-4]!
 81c0906:	f244 1680 	movw	r6, #16768	; 0x4180
 81c090a:	f000 fd4e 	bl	81c13aa <alloc_unkommutativ>
 81c090e:	bd00      	pop	{pc}

081c0910 <Dictionary_105>:
 81c0910:	081c095e 	ldmdaeq	ip, {r1, r2, r3, r4, r6, r8, fp}
 81c0914:	64020264 	strvs	r0, [r2], #-612	; 0xfffffd9c
 81c0918:	 	svcgt	0x0007002b

081c091a <Code_105>:
 81c091a:	cf07      	ldmia	r7!, {r0, r1, r2}
 81c091c:	1812      	adds	r2, r2, r0
 81c091e:	414e      	adcs	r6, r1
 81c0920:	3f04      	subs	r7, #4
 81c0922:	603a      	str	r2, [r7, #0]
 81c0924:	4770      	bx	lr
 81c0926:	b500      	push	{lr}
 81c0928:	f7ff fdfd 	bl	81c0526 <expect_four_elements>
 81c092c:	f000 fb72 	bl	81c1014 <rot_allocator>
 81c0930:	f7ff fe0e 	bl	81c0550 <expect_tos_in_register>
 81c0934:	f7ff fe41 	bl	81c05ba <make_tos_changeable>
 81c0938:	f000 fb17 	bl	81c0f6a <swap_allocator>
 81c093c:	f7ff fe08 	bl	81c0550 <expect_tos_in_register>
 81c0940:	f7ff fe3b 	bl	81c05ba <make_tos_changeable>
 81c0944:	f7ff fe9c 	bl	81c0680 <dswap_allocator>
 81c0948:	f001 fcf3 	bl	81c2332 <plus_allocator>
 81c094c:	f000 fb7e 	bl	81c104c <minusrot_allocator>
 81c0950:	f847 6d04 	str.w	r6, [r7, #-4]!
 81c0954:	f244 1640 	movw	r6, #16704	; 0x4140
 81c0958:	f000 fd2b 	bl	81c13b2 <alloc_kommutativ>
 81c095c:	bd00      	pop	{pc}

081c095e <Dictionary_108>:
 81c095e:	081c0988 	ldmdaeq	ip, {r3, r7, r8, fp}
 81c0962:	73030261 	movwvc	r0, #12897	; 0x3261
 81c0966:	 			; <UNDEFINED> instruction: 0xf847643e

081c0968 <Code_108>:
 81c0968:	f847 6d04 	str.w	r6, [r7, #-4]!
 81c096c:	17f6      	asrs	r6, r6, #31
 81c096e:	4770      	bx	lr
 81c0970:	b500      	push	{lr}
 81c0972:	f000 fac5 	bl	81c0f00 <dup_allocator>
 81c0976:	f7ff fe20 	bl	81c05ba <make_tos_changeable>
 81c097a:	f847 6d04 	str.w	r6, [r7, #-4]!
 81c097e:	f241 76c0 	movw	r6, #6080	; 0x17c0
 81c0982:	f001 fd87 	bl	81c2494 <smalltworegisters>
 81c0986:	bd00      	pop	{pc}

081c0988 <Dictionary_112>:
 81c0988:	081c09e6 	ldmdaeq	ip, {r1, r2, r5, r6, r7, r8, fp}
 81c098c:	75030262 	strvc	r0, [r3, #-610]	; 0xfffffd9e
 81c0990:	 	ldmdavs	r8!, {r0, r2, r3, r5, r6, r9, fp, sp}

081c0992 <Code_112>:
 81c0992:	6838      	ldr	r0, [r7, #0]
 81c0994:	fba0 0606 	umull	r0, r6, r0, r6
 81c0998:	6038      	str	r0, [r7, #0]
 81c099a:	4770      	bx	lr
 81c099c:	f847 6d04 	str.w	r6, [r7, #-4]!
 81c09a0:	f8df 6500 	ldr.w	r6, [pc, #1280]	; 81c0ea4 <dgleichungleich_common+0x1c>

081c09a4 <alloc_multiplikation_m3>:
 81c09a4:	b500      	push	{lr}
 81c09a6:	f7ff fda1 	bl	81c04ec <expect_two_elements>
 81c09aa:	f7ff fdd1 	bl	81c0550 <expect_tos_in_register>
 81c09ae:	f7ff fdd9 	bl	81c0564 <expect_nos_in_register>
 81c09b2:	6801      	ldr	r1, [r0, #0]
 81c09b4:	430e      	orrs	r6, r1
 81c09b6:	6881      	ldr	r1, [r0, #8]
 81c09b8:	ea56 4601 	orrs.w	r6, r6, r1, lsl #16
 81c09bc:	f7ff fc8f 	bl	81c02de <eliminiere_tos>
 81c09c0:	f7ff fc8d 	bl	81c02de <eliminiere_tos>
 81c09c4:	f7ff fc81 	bl	81c02ca <befreie_tos>
 81c09c8:	f7ff fd52 	bl	81c0470 <get_free_register>
 81c09cc:	6003      	str	r3, [r0, #0]
 81c09ce:	ea56 3603 	orrs.w	r6, r6, r3, lsl #12
 81c09d2:	f7ff fc7a 	bl	81c02ca <befreie_tos>
 81c09d6:	f7ff fd4b 	bl	81c0470 <get_free_register>
 81c09da:	6003      	str	r3, [r0, #0]
 81c09dc:	ea56 2603 	orrs.w	r6, r6, r3, lsl #8
 81c09e0:	f002 fe45 	bl	81c366e <Code_831>
 81c09e4:	bd00      	pop	{pc}

081c09e6 <Dictionary_114>:
 81c09e6:	081c0a04 	ldmdaeq	ip, {r2, r9, fp}
 81c09ea:	6d020262 	sfmvs	f0, 4, [r2, #-392]	; 0xfffffe78
 81c09ee:	 	ldmdavs	r8!, {r1, r3, r5}

081c09f0 <Code_114>:
 81c09f0:	6838      	ldr	r0, [r7, #0]
 81c09f2:	fb80 0606 	smull	r0, r6, r0, r6
 81c09f6:	6038      	str	r0, [r7, #0]
 81c09f8:	4770      	bx	lr
 81c09fa:	f847 6d04 	str.w	r6, [r7, #-4]!
 81c09fe:	f8df 64a8 	ldr.w	r6, [pc, #1192]	; 81c0ea8 <dgleichungleich_common+0x20>
 81c0a02:	e7cf      	b.n	81c09a4 <alloc_multiplikation_m3>

081c0a04 <Dictionary_116>:
 81c0a04:	081c0a42 	ldmdaeq	ip, {r1, r6, r9, fp}
 81c0a08:	75030044 	strvc	r0, [r3, #-68]	; 0xffffffbc
 81c0a0c:	 	svcgt	0x00072a64

081c0a0e <Code_116>:
 81c0a0e:	cf07      	ldmia	r7!, {r0, r1, r2}

081c0a10 <ud_star_registers>:
 81c0a10:	4356      	muls	r6, r2
 81c0a12:	4341      	muls	r1, r0
 81c0a14:	1876      	adds	r6, r6, r1

081c0a16 <ud_star_late_entry>:
 81c0a16:	0c01      	lsrs	r1, r0, #16
 81c0a18:	0c13      	lsrs	r3, r2, #16
 81c0a1a:	4359      	muls	r1, r3
 81c0a1c:	1876      	adds	r6, r6, r1
 81c0a1e:	0c01      	lsrs	r1, r0, #16
 81c0a20:	b280      	uxth	r0, r0
 81c0a22:	b292      	uxth	r2, r2
 81c0a24:	4351      	muls	r1, r2
 81c0a26:	4343      	muls	r3, r0
 81c0a28:	4350      	muls	r0, r2
 81c0a2a:	2200      	movs	r2, #0
 81c0a2c:	18c9      	adds	r1, r1, r3
 81c0a2e:	4152      	adcs	r2, r2
 81c0a30:	0412      	lsls	r2, r2, #16
 81c0a32:	18b6      	adds	r6, r6, r2
 81c0a34:	040a      	lsls	r2, r1, #16
 81c0a36:	0c09      	lsrs	r1, r1, #16
 81c0a38:	1880      	adds	r0, r0, r2
 81c0a3a:	414e      	adcs	r6, r1
 81c0a3c:	3f04      	subs	r7, #4
 81c0a3e:	6038      	str	r0, [r7, #0]
 81c0a40:	4770      	bx	lr

081c0a42 <Dictionary_117>:
 81c0a42:	081c0ad4 	ldmdaeq	ip, {r2, r4, r6, r7, r9, fp}
 81c0a46:	75040044 	strvc	r0, [r4, #-68]	; 0xffffffbc
 81c0a4a:	002a6d64 	eoreq	r6, sl, r4, ror #26

081c0a4e <Code_117>:
 81c0a4e:	b510      	push	{r4, lr}
 81c0a50:	2400      	movs	r4, #0
 81c0a52:	f847 6d04 	str.w	r6, [r7, #-4]!
 81c0a56:	687e      	ldr	r6, [r7, #4]
 81c0a58:	f847 6d04 	str.w	r6, [r7, #-4]!
 81c0a5c:	693e      	ldr	r6, [r7, #16]
 81c0a5e:	f7ff ff98 	bl	81c0992 <Code_112>
 81c0a62:	0031      	movs	r1, r6
 81c0a64:	cf40      	ldmia	r7!, {r6}
 81c0a66:	0030      	movs	r0, r6
 81c0a68:	cf40      	ldmia	r7!, {r6}
 81c0a6a:	f847 6d04 	str.w	r6, [r7, #-4]!
 81c0a6e:	683e      	ldr	r6, [r7, #0]
 81c0a70:	f847 6d04 	str.w	r6, [r7, #-4]!
 81c0a74:	68fe      	ldr	r6, [r7, #12]
 81c0a76:	b403      	push	{r0, r1}
 81c0a78:	f7ff ff8b 	bl	81c0992 <Code_112>
 81c0a7c:	bc03      	pop	{r0, r1}
 81c0a7e:	0033      	movs	r3, r6
 81c0a80:	cf40      	ldmia	r7!, {r6}
 81c0a82:	0032      	movs	r2, r6
 81c0a84:	cf40      	ldmia	r7!, {r6}
 81c0a86:	f847 6d04 	str.w	r6, [r7, #-4]!
 81c0a8a:	683e      	ldr	r6, [r7, #0]
 81c0a8c:	f847 6d04 	str.w	r6, [r7, #-4]!
 81c0a90:	693e      	ldr	r6, [r7, #16]
 81c0a92:	b40f      	push	{r0, r1, r2, r3}
 81c0a94:	f7ff ff7d 	bl	81c0992 <Code_112>
 81c0a98:	bc0f      	pop	{r0, r1, r2, r3}
 81c0a9a:	1992      	adds	r2, r2, r6
 81c0a9c:	4163      	adcs	r3, r4
 81c0a9e:	cf40      	ldmia	r7!, {r6}
 81c0aa0:	1989      	adds	r1, r1, r6
 81c0aa2:	4162      	adcs	r2, r4
 81c0aa4:	4163      	adcs	r3, r4
 81c0aa6:	cf40      	ldmia	r7!, {r6}
 81c0aa8:	f847 6d04 	str.w	r6, [r7, #-4]!
 81c0aac:	687e      	ldr	r6, [r7, #4]
 81c0aae:	f847 6d04 	str.w	r6, [r7, #-4]!
 81c0ab2:	68fe      	ldr	r6, [r7, #12]
 81c0ab4:	b40f      	push	{r0, r1, r2, r3}
 81c0ab6:	f7ff ff6c 	bl	81c0992 <Code_112>
 81c0aba:	bc0f      	pop	{r0, r1, r2, r3}
 81c0abc:	1992      	adds	r2, r2, r6
 81c0abe:	4163      	adcs	r3, r4
 81c0ac0:	cf40      	ldmia	r7!, {r6}
 81c0ac2:	1989      	adds	r1, r1, r6
 81c0ac4:	4162      	adcs	r2, r4
 81c0ac6:	4163      	adcs	r3, r4
 81c0ac8:	cf40      	ldmia	r7!, {r6}
 81c0aca:	001e      	movs	r6, r3
 81c0acc:	603a      	str	r2, [r7, #0]
 81c0ace:	6079      	str	r1, [r7, #4]
 81c0ad0:	60b8      	str	r0, [r7, #8]
 81c0ad2:	bd10      	pop	{r4, pc}

081c0ad4 <Dictionary_134>:
 81c0ad4:	081c0af6 	ldmdaeq	ip, {r1, r2, r4, r5, r6, r7, r9, fp}
 81c0ad8:	2a020043 	bcs	8240bec <FlashDictionaryEnde+0x40bec>
 81c0adc:	 	strlt	r0, [r0, #-47]	; 0xffffffd1

081c0ade <Code_134>:
 81c0ade:	b500      	push	{lr}
 81c0ae0:	b440      	push	{r6}
 81c0ae2:	cf40      	ldmia	r7!, {r6}
 81c0ae4:	f7ff ff84 	bl	81c09f0 <Code_114>
 81c0ae8:	f847 6d04 	str.w	r6, [r7, #-4]!
 81c0aec:	bc40      	pop	{r6}
 81c0aee:	f000 f84c 	bl	81c0b8a <Code_157>
 81c0af2:	3704      	adds	r7, #4
 81c0af4:	bd00      	pop	{pc}

081c0af6 <Dictionary_139>:
 81c0af6:	081c0b18 	ldmdaeq	ip, {r3, r4, r8, r9, fp}
 81c0afa:	2a050043 	bcs	8300c0e <FlashDictionaryEnde+0x100c0e>
 81c0afe:	646f6d2f 	strbtvs	r6, [pc], #-3375	; 81c0b06 <Code_139+0x4>

081c0b02 <Code_139>:
 81c0b02:	b500      	push	{lr}
 81c0b04:	b440      	push	{r6}
 81c0b06:	cf40      	ldmia	r7!, {r6}
 81c0b08:	f7ff ff72 	bl	81c09f0 <Code_114>
 81c0b0c:	f847 6d04 	str.w	r6, [r7, #-4]!
 81c0b10:	bc40      	pop	{r6}
 81c0b12:	f000 f83a 	bl	81c0b8a <Code_157>
 81c0b16:	bd00      	pop	{pc}

081c0b18 <Dictionary_143>:
 81c0b18:	081c0b3a 	ldmdaeq	ip, {r1, r3, r4, r5, r8, r9, fp}
 81c0b1c:	75030043 	strvc	r0, [r3, #-67]	; 0xffffffbd
 81c0b20:	 	strlt	r2, [r0, #-3882]	; 0xfffff0d6

081c0b22 <Code_143>:
 81c0b22:	b500      	push	{lr}
 81c0b24:	b440      	push	{r6}
 81c0b26:	cf40      	ldmia	r7!, {r6}
 81c0b28:	f7ff ff33 	bl	81c0992 <Code_112>
 81c0b2c:	f847 6d04 	str.w	r6, [r7, #-4]!
 81c0b30:	bc40      	pop	{r6}
 81c0b32:	f000 f81b 	bl	81c0b6c <Code_152>
 81c0b36:	3704      	adds	r7, #4
 81c0b38:	bd00      	pop	{pc}

081c0b3a <Dictionary_148>:
 81c0b3a:	081c0b5e 	ldmdaeq	ip, {r1, r2, r3, r4, r6, r8, r9, fp}
 81c0b3e:	75060043 	strvc	r0, [r6, #-67]	; 0xffffffbd
 81c0b42:	6f6d2f2a 	svcvs	0x006d2f2a
 81c0b46:	 	strlt	r0, [r0, #-100]	; 0xffffff9c

081c0b48 <Code_148>:
 81c0b48:	b500      	push	{lr}
 81c0b4a:	b440      	push	{r6}
 81c0b4c:	cf40      	ldmia	r7!, {r6}
 81c0b4e:	f7ff ff20 	bl	81c0992 <Code_112>
 81c0b52:	f847 6d04 	str.w	r6, [r7, #-4]!
 81c0b56:	bc40      	pop	{r6}
 81c0b58:	f000 f808 	bl	81c0b6c <Code_152>
 81c0b5c:	bd00      	pop	{pc}

081c0b5e <Dictionary_152>:
 81c0b5e:	081c0b7e 	ldmdaeq	ip, {r1, r2, r3, r4, r5, r6, r8, r9, fp}
 81c0b62:	75060043 	strvc	r0, [r6, #-67]	; 0xffffffbd
 81c0b66:	6f6d2f6d 	svcvs	0x006d2f6d
 81c0b6a:	 	strlt	r0, [r0, #-100]	; 0xffffff9c

081c0b6c <Code_152>:
 81c0b6c:	b500      	push	{lr}
 81c0b6e:	f847 6d04 	str.w	r6, [r7, #-4]!
 81c0b72:	2600      	movs	r6, #0
 81c0b74:	f000 f819 	bl	81c0baa <Code_161>
 81c0b78:	cf40      	ldmia	r7!, {r6}
 81c0b7a:	3704      	adds	r7, #4
 81c0b7c:	bd00      	pop	{pc}

081c0b7e <Dictionary_157>:
 81c0b7e:	081c0b9c 	ldmdaeq	ip, {r2, r3, r4, r7, r8, r9, fp}
 81c0b82:	6d050043 	stcvs	0, cr0, [r5, #-268]	; 0xfffffef4
 81c0b86:	646f6d2f 	strbtvs	r6, [pc], #-3375	; 81c0b8e <Code_157+0x4>

081c0b8a <Code_157>:
 81c0b8a:	b500      	push	{lr}
 81c0b8c:	f847 6d04 	str.w	r6, [r7, #-4]!
 81c0b90:	17f6      	asrs	r6, r6, #31
 81c0b92:	f000 f832 	bl	81c0bfa <Code_163>
 81c0b96:	cf40      	ldmia	r7!, {r6}
 81c0b98:	3704      	adds	r7, #4
 81c0b9a:	bd00      	pop	{pc}

081c0b9c <Dictionary_161>:
 81c0b9c:	081c0bee 	ldmdaeq	ip, {r1, r2, r3, r5, r6, r7, r8, r9, fp}
 81c0ba0:	75060044 	strvc	r0, [r6, #-68]	; 0xffffffbc
 81c0ba4:	6f6d2f64 	svcvs	0x006d2f64
 81c0ba8:	 	ldrtlt	r0, [r0], #-100	; 0xffffff9c

081c0baa <Code_161>:
 81c0baa:	b430      	push	{r4, r5}
 81c0bac:	2300      	movs	r3, #0
 81c0bae:	2200      	movs	r2, #0
 81c0bb0:	6879      	ldr	r1, [r7, #4]
 81c0bb2:	68b8      	ldr	r0, [r7, #8]

081c0bb4 <ud_slash_mod_internal>:
 81c0bb4:	0035      	movs	r5, r6
 81c0bb6:	683c      	ldr	r4, [r7, #0]
 81c0bb8:	2640      	movs	r6, #64	; 0x40
 81c0bba:	0040      	lsls	r0, r0, #1
 81c0bbc:	4149      	adcs	r1, r1
 81c0bbe:	4152      	adcs	r2, r2
 81c0bc0:	415b      	adcs	r3, r3
 81c0bc2:	42ab      	cmp	r3, r5
 81c0bc4:	d802      	bhi.n	81c0bcc <ud_slash_mod_internal+0x18>
 81c0bc6:	d304      	bcc.n	81c0bd2 <ud_slash_mod_internal+0x1e>
 81c0bc8:	42a2      	cmp	r2, r4
 81c0bca:	d302      	bcc.n	81c0bd2 <ud_slash_mod_internal+0x1e>
 81c0bcc:	1b12      	subs	r2, r2, r4
 81c0bce:	41ab      	sbcs	r3, r5
 81c0bd0:	3001      	adds	r0, #1
 81c0bd2:	3e01      	subs	r6, #1
 81c0bd4:	d1f1      	bne.n	81c0bba <ud_slash_mod_internal+0x6>
 81c0bd6:	000e      	movs	r6, r1
 81c0bd8:	6038      	str	r0, [r7, #0]
 81c0bda:	607b      	str	r3, [r7, #4]
 81c0bdc:	60ba      	str	r2, [r7, #8]
 81c0bde:	bc30      	pop	{r4, r5}
 81c0be0:	4770      	bx	lr

081c0be2 <uf_slash_mod>:
 81c0be2:	b430      	push	{r4, r5}
 81c0be4:	2300      	movs	r3, #0
 81c0be6:	687a      	ldr	r2, [r7, #4]
 81c0be8:	68b9      	ldr	r1, [r7, #8]
 81c0bea:	2000      	movs	r0, #0
 81c0bec:	e7e2      	b.n	81c0bb4 <ud_slash_mod_internal>

081c0bee <Dictionary_163>:
 81c0bee:	081c0c64 	ldmdaeq	ip, {r2, r5, r6, sl, fp}
 81c0bf2:	64050044 	strvs	r0, [r5], #-68	; 0xffffffbc
 81c0bf6:	646f6d2f 	strbtvs	r6, [pc], #-3375	; 81c0bfe <Code_163+0x4>

081c0bfa <Code_163>:
 81c0bfa:	b500      	push	{lr}
 81c0bfc:	17f0      	asrs	r0, r6, #31
 81c0bfe:	d019      	beq.n	81c0c34 <Code_163+0x3a>
 81c0c00:	f7ff fe56 	bl	81c08b0 <Code_101>
 81c0c04:	f7ff fd33 	bl	81c066e <Code_72>
 81c0c08:	17f0      	asrs	r0, r6, #31
 81c0c0a:	d00c      	beq.n	81c0c26 <Code_163+0x2c>
 81c0c0c:	f7ff fe50 	bl	81c08b0 <Code_101>
 81c0c10:	f7ff fd2d 	bl	81c066e <Code_72>
 81c0c14:	f7ff ffc9 	bl	81c0baa <Code_161>
 81c0c18:	f7ff fd29 	bl	81c066e <Code_72>
 81c0c1c:	f7ff fe48 	bl	81c08b0 <Code_101>
 81c0c20:	f7ff fd25 	bl	81c066e <Code_72>
 81c0c24:	bd00      	pop	{pc}
 81c0c26:	f7ff fd22 	bl	81c066e <Code_72>
 81c0c2a:	f7ff ffbe 	bl	81c0baa <Code_161>
 81c0c2e:	f7ff fe3f 	bl	81c08b0 <Code_101>
 81c0c32:	bd00      	pop	{pc}
 81c0c34:	f7ff fd1b 	bl	81c066e <Code_72>
 81c0c38:	17f0      	asrs	r0, r6, #31
 81c0c3a:	d00e      	beq.n	81c0c5a <Code_163+0x60>
 81c0c3c:	f7ff fe38 	bl	81c08b0 <Code_101>
 81c0c40:	f7ff fd15 	bl	81c066e <Code_72>
 81c0c44:	f7ff ffb1 	bl	81c0baa <Code_161>
 81c0c48:	f7ff fe32 	bl	81c08b0 <Code_101>
 81c0c4c:	f7ff fd0f 	bl	81c066e <Code_72>
 81c0c50:	f7ff fe2e 	bl	81c08b0 <Code_101>
 81c0c54:	f7ff fd0b 	bl	81c066e <Code_72>
 81c0c58:	bd00      	pop	{pc}
 81c0c5a:	f7ff fd08 	bl	81c066e <Code_72>
 81c0c5e:	f7ff ffa4 	bl	81c0baa <Code_161>
 81c0c62:	bd00      	pop	{pc}

081c0c64 <Dictionary_164>:
 81c0c64:	081c0c7a 	ldmdaeq	ip, {r1, r3, r4, r5, r6, sl, fp}
 81c0c68:	64020044 	strvs	r0, [r2], #-68	; 0xffffffbc
 81c0c6c:	 	strlt	r0, [r0, #-47]	; 0xffffffd1

081c0c6e <Code_164>:
 81c0c6e:	b500      	push	{lr}
 81c0c70:	f7ff ffc3 	bl	81c0bfa <Code_163>
 81c0c74:	f7ff fd1e 	bl	81c06b4 <Code_74>
 81c0c78:	bd00      	pop	{pc}

081c0c7a <Dictionary_165>:
 81c0c7a:	081c0cc2 	ldmdaeq	ip, {r1, r6, r7, sl, fp}
 81c0c7e:	66020044 	strvs	r0, [r2], -r4, asr #32
 81c0c82:	 	strlt	r0, [r0, #-42]	; 0xffffffd6

081c0c84 <Code_165>:
 81c0c84:	b500      	push	{lr}
 81c0c86:	17f0      	asrs	r0, r6, #31
 81c0c88:	d00d      	beq.n	81c0ca6 <Code_165+0x22>
 81c0c8a:	f7ff fe11 	bl	81c08b0 <Code_101>
 81c0c8e:	f7ff fcee 	bl	81c066e <Code_72>
 81c0c92:	17f0      	asrs	r0, r6, #31
 81c0c94:	d00d      	beq.n	81c0cb2 <Code_165+0x2e>
 81c0c96:	f7ff fe0b 	bl	81c08b0 <Code_101>
 81c0c9a:	f7ff fed8 	bl	81c0a4e <Code_117>
 81c0c9e:	cf40      	ldmia	r7!, {r6}
 81c0ca0:	cf01      	ldmia	r7!, {r0}
 81c0ca2:	6038      	str	r0, [r7, #0]
 81c0ca4:	bd00      	pop	{pc}
 81c0ca6:	f7ff fce2 	bl	81c066e <Code_72>
 81c0caa:	17f0      	asrs	r0, r6, #31
 81c0cac:	d0f5      	beq.n	81c0c9a <Code_165+0x16>
 81c0cae:	f7ff fdff 	bl	81c08b0 <Code_101>
 81c0cb2:	f7ff fecc 	bl	81c0a4e <Code_117>
 81c0cb6:	cf40      	ldmia	r7!, {r6}
 81c0cb8:	cf01      	ldmia	r7!, {r0}
 81c0cba:	6038      	str	r0, [r7, #0]
 81c0cbc:	f7ff fdf8 	bl	81c08b0 <Code_101>
 81c0cc0:	bd00      	pop	{pc}

081c0cc2 <Dictionary_168>:
 81c0cc2:	081c0d0e 	ldmdaeq	ip, {r1, r2, r3, r8, sl, fp}
 81c0cc6:	66020044 	strvs	r0, [r2], -r4, asr #32
 81c0cca:	 	strlt	r0, [r0, #-47]	; 0xffffffd1

081c0ccc <Code_168>:
 81c0ccc:	b500      	push	{lr}
 81c0cce:	17f0      	asrs	r0, r6, #31
 81c0cd0:	d00e      	beq.n	81c0cf0 <Code_168+0x24>
 81c0cd2:	f7ff fded 	bl	81c08b0 <Code_101>
 81c0cd6:	f7ff fcca 	bl	81c066e <Code_72>
 81c0cda:	17f0      	asrs	r0, r6, #31
 81c0cdc:	d00e      	beq.n	81c0cfc <Code_168+0x30>
 81c0cde:	f7ff fde7 	bl	81c08b0 <Code_101>
 81c0ce2:	f7ff fcc4 	bl	81c066e <Code_72>
 81c0ce6:	f7ff ff7c 	bl	81c0be2 <uf_slash_mod>
 81c0cea:	f7ff fce3 	bl	81c06b4 <Code_74>
 81c0cee:	bd00      	pop	{pc}
 81c0cf0:	f7ff fcbd 	bl	81c066e <Code_72>
 81c0cf4:	17f0      	asrs	r0, r6, #31
 81c0cf6:	d0f4      	beq.n	81c0ce2 <Code_168+0x16>
 81c0cf8:	f7ff fdda 	bl	81c08b0 <Code_101>
 81c0cfc:	f7ff fcb7 	bl	81c066e <Code_72>
 81c0d00:	f7ff ff6f 	bl	81c0be2 <uf_slash_mod>
 81c0d04:	f7ff fdd4 	bl	81c08b0 <Code_101>
 81c0d08:	f7ff fcd4 	bl	81c06b4 <Code_74>
 81c0d0c:	bd00      	pop	{pc}

081c0d0e <Dictionary_169>:
 81c0d0e:	081c0d56 	ldmdaeq	ip, {r1, r2, r4, r6, r8, sl, fp}
 81c0d12:	32020220 	andcc	r0, r2, #32, 4
 81c0d16:	 	svcgt	0x00060021

081c0d18 <Code_169>:
 81c0d18:	cf06      	ldmia	r7!, {r1, r2}
 81c0d1a:	6031      	str	r1, [r6, #0]
 81c0d1c:	6072      	str	r2, [r6, #4]
 81c0d1e:	cf40      	ldmia	r7!, {r6}
 81c0d20:	4770      	bx	lr
 81c0d22:	b500      	push	{lr}
 81c0d24:	f7ff fbef 	bl	81c0506 <expect_three_elements>
 81c0d28:	6801      	ldr	r1, [r0, #0]
 81c0d2a:	6842      	ldr	r2, [r0, #4]
 81c0d2c:	b406      	push	{r1, r2}
 81c0d2e:	f000 fe0c 	bl	81c194a <allocator_4store>
 81c0d32:	f7ff faca 	bl	81c02ca <befreie_tos>
 81c0d36:	bc06      	pop	{r1, r2}
 81c0d38:	6001      	str	r1, [r0, #0]
 81c0d3a:	2928      	cmp	r1, #40	; 0x28
 81c0d3c:	d006      	beq.n	81c0d4c <Code_169+0x34>
 81c0d3e:	f847 6d04 	str.w	r6, [r7, #-4]!
 81c0d42:	f246 0640 	movw	r6, #24640	; 0x6040
 81c0d46:	f000 fe04 	bl	81c1952 <allocator_4store_anderer_opcode>
 81c0d4a:	bd00      	pop	{pc}
 81c0d4c:	3204      	adds	r2, #4
 81c0d4e:	6042      	str	r2, [r0, #4]
 81c0d50:	f000 fdfb 	bl	81c194a <allocator_4store>
 81c0d54:	bd00      	pop	{pc}

081c0d56 <Dictionary_173>:
 81c0d56:	081c0da0 	ldmdaeq	ip, {r5, r7, r8, sl, fp}
 81c0d5a:	32020220 	andcc	r0, r2, #32, 4
 81c0d5e:	 	svccc	0x00040040

081c0d60 <Code_173>:
 81c0d60:	3f04      	subs	r7, #4
 81c0d62:	6870      	ldr	r0, [r6, #4]
 81c0d64:	6038      	str	r0, [r7, #0]
 81c0d66:	6836      	ldr	r6, [r6, #0]
 81c0d68:	4770      	bx	lr
 81c0d6a:	b500      	push	{lr}
 81c0d6c:	f000 f8c8 	bl	81c0f00 <dup_allocator>
 81c0d70:	6801      	ldr	r1, [r0, #0]
 81c0d72:	2928      	cmp	r1, #40	; 0x28
 81c0d74:	d00a      	beq.n	81c0d8c <Code_173+0x2c>
 81c0d76:	f847 6d04 	str.w	r6, [r7, #-4]!
 81c0d7a:	f646 0640 	movw	r6, #26688	; 0x6840
 81c0d7e:	f000 fdc5 	bl	81c190c <allocator_4fetch_anderer_opcode>
 81c0d82:	f000 f8f2 	bl	81c0f6a <swap_allocator>
 81c0d86:	f000 fdbd 	bl	81c1904 <allocator_4fetch>
 81c0d8a:	bd00      	pop	{pc}
 81c0d8c:	6841      	ldr	r1, [r0, #4]
 81c0d8e:	3104      	adds	r1, #4
 81c0d90:	6041      	str	r1, [r0, #4]
 81c0d92:	f000 fdb7 	bl	81c1904 <allocator_4fetch>
 81c0d96:	f000 f8e8 	bl	81c0f6a <swap_allocator>
 81c0d9a:	f000 fdb3 	bl	81c1904 <allocator_4fetch>
 81c0d9e:	bd00      	pop	{pc}

081c0da0 <Dictionary_176>:
 81c0da0:	081c0db4 	ldmdaeq	ip, {r2, r4, r5, r7, r8, sl, fp}
 81c0da4:	64030044 	strvs	r0, [r3], #-68	; 0xffffffbc
 81c0da8:	 	svcgt	0x00073c75

081c0daa <Code_176>:
 81c0daa:	cf07      	ldmia	r7!, {r0, r1, r2}
 81c0dac:	1a12      	subs	r2, r2, r0
 81c0dae:	41b1      	sbcs	r1, r6
 81c0db0:	41b6      	sbcs	r6, r6
 81c0db2:	4770      	bx	lr

081c0db4 <Dictionary_177>:
 81c0db4:	081c0dc8 	ldmdaeq	ip, {r3, r6, r7, r8, sl, fp}
 81c0db8:	64030044 	strvs	r0, [r3], #-68	; 0xffffffbc
 81c0dbc:	 	svcgt	0x00073e75

081c0dbe <Code_177>:
 81c0dbe:	cf07      	ldmia	r7!, {r0, r1, r2}
 81c0dc0:	1a80      	subs	r0, r0, r2
 81c0dc2:	418e      	sbcs	r6, r1
 81c0dc4:	41b6      	sbcs	r6, r6
 81c0dc6:	4770      	bx	lr

081c0dc8 <Dictionary_178>:
 81c0dc8:	081c0dde 	ldmdaeq	ip, {r1, r2, r3, r4, r6, r7, r8, sl, fp}
 81c0dcc:	64020044 	strvs	r0, [r2], #-68	; 0xffffffbc
 81c0dd0:	 	svcgt	0x0007003c

081c0dd2 <Code_178>:
 81c0dd2:	cf07      	ldmia	r7!, {r0, r1, r2}
 81c0dd4:	1a12      	subs	r2, r2, r0
 81c0dd6:	41b1      	sbcs	r1, r6
 81c0dd8:	db0c      	blt.n	81c0df4 <Code_179+0xc>
 81c0dda:	2600      	movs	r6, #0
 81c0ddc:	4770      	bx	lr

081c0dde <Dictionary_179>:
 81c0dde:	081c0dfa 	ldmdaeq	ip, {r1, r3, r4, r5, r6, r7, r8, sl, fp}
 81c0de2:	64020044 	strvs	r0, [r2], #-68	; 0xffffffbc
 81c0de6:	 	svcgt	0x0007003e

081c0de8 <Code_179>:
 81c0de8:	cf07      	ldmia	r7!, {r0, r1, r2}
 81c0dea:	1a80      	subs	r0, r0, r2
 81c0dec:	418e      	sbcs	r6, r1
 81c0dee:	db01      	blt.n	81c0df4 <Code_179+0xc>
 81c0df0:	2600      	movs	r6, #0
 81c0df2:	4770      	bx	lr
 81c0df4:	2600      	movs	r6, #0
 81c0df6:	43f6      	mvns	r6, r6
 81c0df8:	4770      	bx	lr

081c0dfa <Dictionary_180>:
 81c0dfa:	081c0e16 	ldmdaeq	ip, {r1, r2, r4, r9, sl, fp}
 81c0dfe:	64030262 	strvs	r0, [r3], #-610	; 0xfffffd9e
 81c0e02:	 	smladxcc	r4, r0, ip, r3

081c0e04 <Code_180>:
 81c0e04:	3704      	adds	r7, #4
 81c0e06:	17f6      	asrs	r6, r6, #31
 81c0e08:	4770      	bx	lr
 81c0e0a:	b500      	push	{lr}
 81c0e0c:	f000 f8c0 	bl	81c0f90 <nip_allocator>
 81c0e10:	f000 fb58 	bl	81c14c4 <alloc_nullkleiner>
 81c0e14:	bd00      	pop	{pc}

081c0e16 <Dictionary_181>:
 81c0e16:	081c0e3e 	ldmdaeq	ip, {r1, r2, r3, r4, r5, r9, sl, fp}
 81c0e1a:	64030262 	strvs	r0, [r3], #-610	; 0xfffffd9e
 81c0e1e:	 	svcgt	0x00013d30

081c0e20 <Code_181>:
 81c0e20:	cf01      	ldmia	r7!, {r0}
 81c0e22:	4306      	orrs	r6, r0
 81c0e24:	3e01      	subs	r6, #1
 81c0e26:	41b6      	sbcs	r6, r6
 81c0e28:	4770      	bx	lr
 81c0e2a:	b500      	push	{lr}
 81c0e2c:	f847 6d04 	str.w	r6, [r7, #-4]!
 81c0e30:	f244 3600 	movw	r6, #17152	; 0x4300
 81c0e34:	f000 fabd 	bl	81c13b2 <alloc_kommutativ>
 81c0e38:	f000 fb1e 	bl	81c1478 <allocator_equal_zero>
 81c0e3c:	bd00      	pop	{pc}

081c0e3e <Dictionary_184>:
 81c0e3e:	081c0e64 	ldmdaeq	ip, {r2, r5, r6, r9, sl, fp}
 81c0e42:	64030244 	strvs	r0, [r3], #-580	; 0xfffffdbc
 81c0e46:	 	svcgt	0x00073e3c

081c0e48 <Code_184>:
 81c0e48:	cf07      	ldmia	r7!, {r0, r1, r2}
 81c0e4a:	4050      	eors	r0, r2
 81c0e4c:	404e      	eors	r6, r1
 81c0e4e:	4306      	orrs	r6, r0
 81c0e50:	3e01      	subs	r6, #1
 81c0e52:	41b6      	sbcs	r6, r6
 81c0e54:	43f6      	mvns	r6, r6
 81c0e56:	4770      	bx	lr
 81c0e58:	b500      	push	{lr}
 81c0e5a:	f000 f815 	bl	81c0e88 <dgleichungleich_common>
 81c0e5e:	f000 fb1f 	bl	81c14a0 <allocator_unequal_zero>
 81c0e62:	bd00      	pop	{pc}

081c0e64 <Dictionary_185>:
 81c0e64:	081c0eac 	ldmdaeq	ip, {r2, r3, r5, r7, r9, sl, fp}
 81c0e68:	64020244 	strvs	r0, [r2], #-580	; 0xfffffdbc
 81c0e6c:	 	svcgt	0x0007003d

081c0e6e <Code_185>:
 81c0e6e:	cf07      	ldmia	r7!, {r0, r1, r2}
 81c0e70:	4050      	eors	r0, r2
 81c0e72:	404e      	eors	r6, r1
 81c0e74:	4306      	orrs	r6, r0
 81c0e76:	3e01      	subs	r6, #1
 81c0e78:	41b6      	sbcs	r6, r6
 81c0e7a:	4770      	bx	lr
 81c0e7c:	b500      	push	{lr}
 81c0e7e:	f000 f803 	bl	81c0e88 <dgleichungleich_common>
 81c0e82:	f000 faf9 	bl	81c1478 <allocator_equal_zero>
 81c0e86:	bd00      	pop	{pc}

081c0e88 <dgleichungleich_common>:
 81c0e88:	b500      	push	{lr}
 81c0e8a:	f7ff fb4c 	bl	81c0526 <expect_four_elements>
 81c0e8e:	f000 f8c1 	bl	81c1014 <rot_allocator>
 81c0e92:	f000 f9c3 	bl	81c121c <xor_allocator>
 81c0e96:	f000 f8d9 	bl	81c104c <minusrot_allocator>
 81c0e9a:	f000 f9bf 	bl	81c121c <xor_allocator>
 81c0e9e:	f000 f9b0 	bl	81c1202 <or_allocator>
 81c0ea2:	bd00      	pop	{pc}
 81c0ea4:	fba00000 	blx	69c0eae <stack_canary+0x289f529>
 81c0ea8:	fb800000 	blx	61c0eb2 <stack_canary+0x209f52d>

081c0eac <Dictionary_186>:
 81c0eac:	081c0ebe 	ldmdaeq	ip, {r1, r2, r3, r4, r5, r7, r9, sl, fp}
 81c0eb0:	73030020 	movwvc	r0, #12320	; 0x3020
 81c0eb4:	 			; <UNDEFINED> instruction: 0xf8474070

081c0eb6 <Code_186>:
 81c0eb6:	f847 6d04 	str.w	r6, [r7, #-4]!
 81c0eba:	003e      	movs	r6, r7
 81c0ebc:	4770      	bx	lr

081c0ebe <Dictionary_188>:
 81c0ebe:	081c0ece 	ldmdaeq	ip, {r1, r2, r3, r6, r7, r9, sl, fp}
 81c0ec2:	73030020 	movwvc	r0, #12320	; 0x3020
 81c0ec6:	 	eorseq	r2, r7, r0, ror r1

081c0ec8 <Code_188>:
 81c0ec8:	0037      	movs	r7, r6
 81c0eca:	cf40      	ldmia	r7!, {r6}
 81c0ecc:	4770      	bx	lr

081c0ece <Dictionary_189>:
 81c0ece:	081c0ee0 	ldmdaeq	ip, {r5, r6, r7, r9, sl, fp}
 81c0ed2:	72030020 	andvc	r0, r3, #32
 81c0ed6:	 			; <UNDEFINED> instruction: 0xf8474070

081c0ed8 <Code_189>:
 81c0ed8:	f847 6d04 	str.w	r6, [r7, #-4]!
 81c0edc:	466e      	mov	r6, sp
 81c0ede:	4770      	bx	lr

081c0ee0 <Dictionary_191>:
 81c0ee0:	081c0ef0 	ldmdaeq	ip, {r4, r5, r6, r7, r9, sl, fp}
 81c0ee4:	72030020 	andvc	r0, r3, #32
 81c0ee8:	 			; <UNDEFINED> instruction: 0x46b52170

081c0eea <Code_191>:
 81c0eea:	46b5      	mov	sp, r6
 81c0eec:	cf40      	ldmia	r7!, {r6}
 81c0eee:	4770      	bx	lr

081c0ef0 <Dictionary_192>:
 81c0ef0:	081c0f14 	ldmdaeq	ip, {r2, r4, r8, r9, sl, fp}
 81c0ef4:	64030261 	strvs	r0, [r3], #-609	; 0xfffffd9f
 81c0ef8:	 			; <UNDEFINED> instruction: 0xf8477075

081c0efa <Code_192>:
 81c0efa:	f847 6d04 	str.w	r6, [r7, #-4]!
 81c0efe:	4770      	bx	lr

081c0f00 <dup_allocator>:
 81c0f00:	b506      	push	{r1, r2, lr}
 81c0f02:	f7ff fae9 	bl	81c04d8 <expect_one_element>
 81c0f06:	6801      	ldr	r1, [r0, #0]
 81c0f08:	6842      	ldr	r2, [r0, #4]
 81c0f0a:	f7ff f9de 	bl	81c02ca <befreie_tos>
 81c0f0e:	6001      	str	r1, [r0, #0]
 81c0f10:	6042      	str	r2, [r0, #4]
 81c0f12:	bd06      	pop	{r1, r2, pc}

081c0f14 <Dictionary_195>:
 81c0f14:	081c0f40 	ldmdaeq	ip, {r6, r8, r9, sl, fp}
 81c0f18:	64040261 	strvs	r0, [r4], #-609	; 0xfffffd9f
 81c0f1c:	00706f72 	rsbseq	r6, r0, r2, ror pc

081c0f20 <Code_195>:
 81c0f20:	cf40      	ldmia	r7!, {r6}
 81c0f22:	4770      	bx	lr

081c0f24 <drop_allocator>:
 81c0f24:	b500      	push	{lr}
 81c0f26:	6801      	ldr	r1, [r0, #0]
 81c0f28:	291e      	cmp	r1, #30
 81c0f2a:	d106      	bne.n	81c0f3a <drop_allocator+0x16>
 81c0f2c:	f847 6d04 	str.w	r6, [r7, #-4]!
 81c0f30:	f243 7604 	movw	r6, #14084	; 0x3704
 81c0f34:	f002 fb6c 	bl	81c3610 <Code_822>
 81c0f38:	bd00      	pop	{pc}
 81c0f3a:	f7ff f9d0 	bl	81c02de <eliminiere_tos>
 81c0f3e:	bd00      	pop	{pc}

081c0f40 <Dictionary_199>:
 81c0f40:	081c0f56 	ldmdaeq	ip, {r1, r2, r4, r6, r8, r9, sl, fp}
 81c0f44:	3f040061 	svccc	0x00040061
 81c0f48:	00707564 	rsbseq	r7, r0, r4, ror #10

081c0f4c <Code_199>:
 81c0f4c:	2e00      	cmp	r6, #0
 81c0f4e:	d001      	beq.n	81c0f54 <Code_199+0x8>
 81c0f50:	f847 6d04 	str.w	r6, [r7, #-4]!
 81c0f54:	4770      	bx	lr

081c0f56 <Dictionary_201>:
 81c0f56:	081c0f82 	ldmdaeq	ip, {r1, r7, r8, r9, sl, fp}
 81c0f5a:	73040262 	movwvc	r0, #16994	; 0x4262
 81c0f5e:	00706177 	rsbseq	r6, r0, r7, ror r1

081c0f62 <Code_201>:
 81c0f62:	6839      	ldr	r1, [r7, #0]
 81c0f64:	603e      	str	r6, [r7, #0]
 81c0f66:	000e      	movs	r6, r1
 81c0f68:	4770      	bx	lr

081c0f6a <swap_allocator>:
 81c0f6a:	b50c      	push	{r2, r3, lr}
 81c0f6c:	f7ff fabe 	bl	81c04ec <expect_two_elements>
 81c0f70:	6802      	ldr	r2, [r0, #0]
 81c0f72:	6883      	ldr	r3, [r0, #8]
 81c0f74:	6003      	str	r3, [r0, #0]
 81c0f76:	6082      	str	r2, [r0, #8]
 81c0f78:	6842      	ldr	r2, [r0, #4]
 81c0f7a:	68c3      	ldr	r3, [r0, #12]
 81c0f7c:	6043      	str	r3, [r0, #4]
 81c0f7e:	60c2      	str	r2, [r0, #12]
 81c0f80:	bd0c      	pop	{r2, r3, pc}

081c0f82 <Dictionary_202>:
 81c0f82:	081c0fb0 	ldmdaeq	ip, {r4, r5, r7, r8, r9, sl, fp}
 81c0f86:	6e030262 	cdpvs	2, 0, cr0, cr3, cr2, {3}
 81c0f8a:	 	strcc	r7, [r4, -r9, rrx]

081c0f8c <Code_202>:
 81c0f8c:	3704      	adds	r7, #4
 81c0f8e:	4770      	bx	lr

081c0f90 <nip_allocator>:
 81c0f90:	b500      	push	{lr}
 81c0f92:	f7ff faa1 	bl	81c04d8 <expect_one_element>
 81c0f96:	6881      	ldr	r1, [r0, #8]
 81c0f98:	291e      	cmp	r1, #30
 81c0f9a:	d002      	beq.n	81c0fa2 <nip_allocator+0x12>
 81c0f9c:	f7ff f9a5 	bl	81c02ea <eliminiere_nos>
 81c0fa0:	bd00      	pop	{pc}
 81c0fa2:	f847 6d04 	str.w	r6, [r7, #-4]!
 81c0fa6:	f243 7604 	movw	r6, #14084	; 0x3704
 81c0faa:	f002 fb31 	bl	81c3610 <Code_822>
 81c0fae:	bd00      	pop	{pc}

081c0fb0 <Dictionary_206>:
 81c0fb0:	081c0fd8 	ldmdaeq	ip, {r3, r4, r6, r7, r8, r9, sl, fp}
 81c0fb4:	6f040262 	svcvs	0x00040262
 81c0fb8:	00726576 	rsbseq	r6, r2, r6, ror r5

081c0fbc <Code_206>:
 81c0fbc:	f847 6d04 	str.w	r6, [r7, #-4]!
 81c0fc0:	687e      	ldr	r6, [r7, #4]
 81c0fc2:	4770      	bx	lr

081c0fc4 <over_allocator>:
 81c0fc4:	b500      	push	{lr}
 81c0fc6:	f7ff fa91 	bl	81c04ec <expect_two_elements>
 81c0fca:	6881      	ldr	r1, [r0, #8]
 81c0fcc:	68c2      	ldr	r2, [r0, #12]
 81c0fce:	f7ff f97c 	bl	81c02ca <befreie_tos>
 81c0fd2:	6001      	str	r1, [r0, #0]
 81c0fd4:	6042      	str	r2, [r0, #4]
 81c0fd6:	bd00      	pop	{pc}

081c0fd8 <Dictionary_208>:
 81c0fd8:	081c0ffe 	ldmdaeq	ip, {r1, r2, r3, r4, r5, r6, r7, r8, r9, sl, fp}
 81c0fdc:	74040262 	strvc	r0, [r4], #-610	; 0xfffffd9e
 81c0fe0:	006b6375 	rsbeq	r6, fp, r5, ror r3

081c0fe4 <Code_208>:
 81c0fe4:	cf01      	ldmia	r7!, {r0}
 81c0fe6:	3f08      	subs	r7, #8
 81c0fe8:	607e      	str	r6, [r7, #4]
 81c0fea:	6038      	str	r0, [r7, #0]
 81c0fec:	4770      	bx	lr
 81c0fee:	b500      	push	{lr}
 81c0ff0:	f7ff fa7c 	bl	81c04ec <expect_two_elements>
 81c0ff4:	f7ff ff84 	bl	81c0f00 <dup_allocator>
 81c0ff8:	f000 f828 	bl	81c104c <minusrot_allocator>
 81c0ffc:	bd00      	pop	{pc}

081c0ffe <Dictionary_209>:
 81c0ffe:	081c1034 	ldmdaeq	ip, {r2, r4, r5, ip}
 81c1002:	72030263 	andvc	r0, r3, #805306374	; 0x30000006
 81c1006:	 	svcgt	0x0003746f

081c1008 <Code_209>:
 81c1008:	cf03      	ldmia	r7!, {r0, r1}
 81c100a:	3f08      	subs	r7, #8
 81c100c:	6078      	str	r0, [r7, #4]
 81c100e:	603e      	str	r6, [r7, #0]
 81c1010:	000e      	movs	r6, r1
 81c1012:	4770      	bx	lr

081c1014 <rot_allocator>:
 81c1014:	b50e      	push	{r1, r2, r3, lr}
 81c1016:	f7ff fa76 	bl	81c0506 <expect_three_elements>
 81c101a:	6801      	ldr	r1, [r0, #0]
 81c101c:	6882      	ldr	r2, [r0, #8]
 81c101e:	6903      	ldr	r3, [r0, #16]
 81c1020:	6081      	str	r1, [r0, #8]
 81c1022:	6102      	str	r2, [r0, #16]
 81c1024:	6003      	str	r3, [r0, #0]
 81c1026:	6841      	ldr	r1, [r0, #4]
 81c1028:	68c2      	ldr	r2, [r0, #12]
 81c102a:	6943      	ldr	r3, [r0, #20]
 81c102c:	60c1      	str	r1, [r0, #12]
 81c102e:	6142      	str	r2, [r0, #20]
 81c1030:	6043      	str	r3, [r0, #4]
 81c1032:	bd0e      	pop	{r1, r2, r3, pc}

081c1034 <Dictionary_210>:
 81c1034:	081c1058 	ldmdaeq	ip, {r3, r4, r6, ip}
 81c1038:	2d040263 	sfmcs	f0, 4, [r4, #-396]	; 0xfffffe74
 81c103c:	00746f72 	rsbseq	r6, r4, r2, ror pc

081c1040 <Code_210>:
 81c1040:	cf03      	ldmia	r7!, {r0, r1}
 81c1042:	3f08      	subs	r7, #8
 81c1044:	607e      	str	r6, [r7, #4]
 81c1046:	6039      	str	r1, [r7, #0]
 81c1048:	0006      	movs	r6, r0
 81c104a:	4770      	bx	lr

081c104c <minusrot_allocator>:
 81c104c:	b500      	push	{lr}
 81c104e:	f7ff ffe1 	bl	81c1014 <rot_allocator>
 81c1052:	f7ff ffdf 	bl	81c1014 <rot_allocator>
 81c1056:	bd00      	pop	{pc}

081c1058 <Dictionary_211>:
 81c1058:	081c106a 	ldmdaeq	ip, {r1, r3, r5, r6, ip}
 81c105c:	70040020 	andvc	r0, r4, r0, lsr #32
 81c1060:	006b6369 	rsbeq	r6, fp, r9, ror #6

081c1064 <Code_211>:
 81c1064:	f857 6026 	ldr.w	r6, [r7, r6, lsl #2]
 81c1068:	4770      	bx	lr

081c106a <Dictionary_212>:
 81c106a:	081c1082 	ldmdaeq	ip, {r1, r7, ip}
 81c106e:	64050000 	strvs	r0, [r5], #-0
 81c1072:	68747065 	ldmdavs	r4!, {r0, r2, r5, r6, ip, sp, lr}^

081c1076 <Code_212>:
 81c1076:	493a      	ldr	r1, [pc, #232]	; (81c1160 <Code_228+0x8>)
 81c1078:	1bc9      	subs	r1, r1, r7
 81c107a:	f847 6d04 	str.w	r6, [r7, #-4]!
 81c107e:	108e      	asrs	r6, r1, #2
 81c1080:	4770      	bx	lr

081c1082 <Dictionary_214>:
 81c1082:	081c109e 	ldmdaeq	ip, {r1, r2, r3, r4, r7, ip}
 81c1086:	72060000 	andvc	r0, r6, #0
 81c108a:	74706564 	ldrbtvc	r6, [r0], #-1380	; 0xfffffa9c
 81c108e:	 			; <UNDEFINED> instruction: 0xf8470068

081c1090 <Code_214>:
 81c1090:	f847 6d04 	str.w	r6, [r7, #-4]!
 81c1094:	466e      	mov	r6, sp
 81c1096:	4933      	ldr	r1, [pc, #204]	; (81c1164 <Code_228+0xc>)
 81c1098:	1b89      	subs	r1, r1, r6
 81c109a:	108e      	asrs	r6, r1, #2
 81c109c:	4770      	bx	lr

081c109e <Dictionary_216>:
 81c109e:	081c10d4 	ldmdaeq	ip, {r2, r4, r6, r7, ip}
 81c10a2:	3e020220 	cdpcc	2, 0, cr0, cr2, cr0, {1}
 81c10a6:	 	strblt	r0, [r0], #-114	; 0xffffff8e

081c10a8 <Code_216>:
 81c10a8:	b440      	push	{r6}
 81c10aa:	cf40      	ldmia	r7!, {r6}
 81c10ac:	4770      	bx	lr

081c10ae <allocator_to_r>:
 81c10ae:	b500      	push	{lr}
 81c10b0:	f7ff faa5 	bl	81c05fe <push_lr_nachholen>
 81c10b4:	f7ff fa10 	bl	81c04d8 <expect_one_element>
 81c10b8:	f7ff fa4a 	bl	81c0550 <expect_tos_in_register>
 81c10bc:	f847 6d04 	str.w	r6, [r7, #-4]!
 81c10c0:	f24b 4600 	movw	r6, #46080	; 0xb400
 81c10c4:	2201      	movs	r2, #1
 81c10c6:	408a      	lsls	r2, r1
 81c10c8:	4316      	orrs	r6, r2
 81c10ca:	f002 faa1 	bl	81c3610 <Code_822>
 81c10ce:	f7ff f906 	bl	81c02de <eliminiere_tos>
 81c10d2:	bd00      	pop	{pc}

081c10d4 <Dictionary_219>:
 81c10d4:	081c110a 	ldmdaeq	ip, {r1, r3, r8, ip}
 81c10d8:	72020220 	andvc	r0, r2, #32, 4
 81c10dc:	 			; <UNDEFINED> instruction: 0xf847003e

081c10de <Code_219>:
 81c10de:	f847 6d04 	str.w	r6, [r7, #-4]!
 81c10e2:	bc40      	pop	{r6}
 81c10e4:	4770      	bx	lr

081c10e6 <allocator_r_from>:
 81c10e6:	b500      	push	{lr}
 81c10e8:	f7ff fa89 	bl	81c05fe <push_lr_nachholen>
 81c10ec:	f7ff f8ed 	bl	81c02ca <befreie_tos>
 81c10f0:	f7ff f9be 	bl	81c0470 <get_free_register>
 81c10f4:	6003      	str	r3, [r0, #0]
 81c10f6:	f847 6d04 	str.w	r6, [r7, #-4]!
 81c10fa:	f64b 4600 	movw	r6, #48128	; 0xbc00
 81c10fe:	2201      	movs	r2, #1
 81c1100:	409a      	lsls	r2, r3
 81c1102:	4316      	orrs	r6, r2
 81c1104:	f002 fa84 	bl	81c3610 <Code_822>
 81c1108:	bd00      	pop	{pc}

081c110a <Dictionary_223>:
 81c110a:	081c1128 	ldmdaeq	ip, {r3, r5, r8, ip}
 81c110e:	72020220 	andvc	r0, r2, #32, 4
 81c1112:	 			; <UNDEFINED> instruction: 0xf8470040

081c1114 <Code_223>:
 81c1114:	f847 6d04 	str.w	r6, [r7, #-4]!
 81c1118:	9e00      	ldr	r6, [sp, #0]
 81c111a:	4770      	bx	lr
 81c111c:	b500      	push	{lr}
 81c111e:	f7ff fa6e 	bl	81c05fe <push_lr_nachholen>
 81c1122:	f002 ff94 	bl	81c404e <rfetch_allocator>
 81c1126:	bd00      	pop	{pc}

081c1128 <Dictionary_225>:
 81c1128:	081c114c 	ldmdaeq	ip, {r2, r3, r6, r8, ip}
 81c112c:	72050220 	andvc	r0, r5, #32, 4
 81c1130:	706f7264 	rsbvc	r7, pc, r4, ror #4

081c1134 <Code_225>:
 81c1134:	b001      	add	sp, #4
 81c1136:	4770      	bx	lr
 81c1138:	b500      	push	{lr}
 81c113a:	f7ff fa60 	bl	81c05fe <push_lr_nachholen>
 81c113e:	f847 6d04 	str.w	r6, [r7, #-4]!
 81c1142:	f24b 0601 	movw	r6, #45057	; 0xb001
 81c1146:	f002 fa63 	bl	81c3610 <Code_822>
 81c114a:	bd00      	pop	{pc}

081c114c <Dictionary_228>:
 81c114c:	081c1168 	ldmdaeq	ip, {r3, r5, r6, r8, ip}
 81c1150:	72050020 	andvc	r0, r5, #32
 81c1154:	6b636970 	blvs	9a9b71c <FlashDictionaryEnde+0x189b71c>

081c1158 <Code_228>:
 81c1158:	00b6      	lsls	r6, r6, #2
 81c115a:	446e      	add	r6, sp
 81c115c:	6836      	ldr	r6, [r6, #0]
 81c115e:	4770      	bx	lr
 81c1160:	38000a88 	stmdacc	r0, {r3, r7, r9, fp}
 81c1164:	38000b88 	stmdacc	r0, {r3, r7, r8, r9, fp}

081c1168 <Dictionary_229>:
 81c1168:	081c1194 	ldmdaeq	ip, {r2, r4, r7, r8, ip}
 81c116c:	72040000 	andvc	r0, r4, #0
 81c1170:	006c6c6f 	rsbeq	r6, ip, pc, ror #24

081c1174 <Code_229>:
 81c1174:	2e00      	cmp	r6, #0
 81c1176:	d101      	bne.n	81c117c <Code_229+0x8>
 81c1178:	cf40      	ldmia	r7!, {r6}
 81c117a:	4770      	bx	lr
 81c117c:	00b0      	lsls	r0, r6, #2
 81c117e:	5839      	ldr	r1, [r7, r0]
 81c1180:	19c0      	adds	r0, r0, r7
 81c1182:	1f03      	subs	r3, r0, #4
 81c1184:	681a      	ldr	r2, [r3, #0]
 81c1186:	6002      	str	r2, [r0, #0]
 81c1188:	3804      	subs	r0, #4
 81c118a:	3e01      	subs	r6, #1
 81c118c:	d1f9      	bne.n	81c1182 <Code_229+0xe>
 81c118e:	3704      	adds	r7, #4
 81c1190:	000e      	movs	r6, r1
 81c1192:	4770      	bx	lr

081c1194 <Dictionary_231>:
 81c1194:	081c11bc 	ldmdaeq	ip, {r2, r3, r4, r5, r7, r8, ip}
 81c1198:	2d050000 	stccs	0, cr0, [r5, #-0]
 81c119c:	6c6c6f72 	stclvs	15, cr6, [ip], #-456	; 0xfffffe38

081c11a0 <Code_231>:
 81c11a0:	2e00      	cmp	r6, #0
 81c11a2:	d101      	bne.n	81c11a8 <Code_231+0x8>
 81c11a4:	cf40      	ldmia	r7!, {r6}
 81c11a6:	4770      	bx	lr
 81c11a8:	6838      	ldr	r0, [r7, #0]
 81c11aa:	4639      	mov	r1, r7
 81c11ac:	684a      	ldr	r2, [r1, #4]
 81c11ae:	600a      	str	r2, [r1, #0]
 81c11b0:	3104      	adds	r1, #4
 81c11b2:	3e01      	subs	r6, #1
 81c11b4:	d1fa      	bne.n	81c11ac <Code_231+0xc>
 81c11b6:	6008      	str	r0, [r1, #0]
 81c11b8:	cf40      	ldmia	r7!, {r6}
 81c11ba:	4770      	bx	lr

081c11bc <Dictionary_234>:
 81c11bc:	081c11d6 	ldmdaeq	ip, {r1, r2, r4, r6, r7, r8, ip}
 81c11c0:	61030262 	tstvs	r3, r2, ror #4
 81c11c4:	 	svcgt	0x0001646e

081c11c6 <Code_234>:
 81c11c6:	cf01      	ldmia	r7!, {r0}
 81c11c8:	4006      	ands	r6, r0
 81c11ca:	4770      	bx	lr
 81c11cc:	f847 6d04 	str.w	r6, [r7, #-4]!
 81c11d0:	f244 0600 	movw	r6, #16384	; 0x4000
 81c11d4:	e0ed      	b.n	81c13b2 <alloc_kommutativ>

081c11d6 <Dictionary_237>:
 81c11d6:	081c11f2 	ldmdaeq	ip, {r1, r4, r5, r6, r7, r8, ip}
 81c11da:	62030262 	andvs	r0, r3, #536870918	; 0x20000006
 81c11de:	 	svcgt	0x00016369

081c11e0 <Code_237>:
 81c11e0:	cf01      	ldmia	r7!, {r0}
 81c11e2:	43b0      	bics	r0, r6
 81c11e4:	0006      	movs	r6, r0
 81c11e6:	4770      	bx	lr
 81c11e8:	f847 6d04 	str.w	r6, [r7, #-4]!
 81c11ec:	f244 3680 	movw	r6, #17280	; 0x4380
 81c11f0:	e0db      	b.n	81c13aa <alloc_unkommutativ>

081c11f2 <Dictionary_240>:
 81c11f2:	081c120c 	ldmdaeq	ip, {r2, r3, r9, ip}
 81c11f6:	6f020262 	svcvs	0x00020262
 81c11fa:	 	svcgt	0x00010072

081c11fc <Code_240>:
 81c11fc:	cf01      	ldmia	r7!, {r0}
 81c11fe:	4306      	orrs	r6, r0
 81c1200:	4770      	bx	lr

081c1202 <or_allocator>:
 81c1202:	f847 6d04 	str.w	r6, [r7, #-4]!
 81c1206:	f244 3600 	movw	r6, #17152	; 0x4300
 81c120a:	e0d2      	b.n	81c13b2 <alloc_kommutativ>

081c120c <Dictionary_243>:
 81c120c:	081c1226 	ldmdaeq	ip, {r1, r2, r5, r9, ip}
 81c1210:	78030262 	stmdavc	r3, {r1, r5, r6, r9}
 81c1214:	 	svcgt	0x0001726f

081c1216 <Code_243>:
 81c1216:	cf01      	ldmia	r7!, {r0}
 81c1218:	4046      	eors	r6, r0
 81c121a:	4770      	bx	lr

081c121c <xor_allocator>:
 81c121c:	f847 6d04 	str.w	r6, [r7, #-4]!
 81c1220:	f244 0640 	movw	r6, #16448	; 0x4040
 81c1224:	e0c5      	b.n	81c13b2 <alloc_kommutativ>

081c1226 <Dictionary_246>:
 81c1226:	081c123e 	ldmdaeq	ip, {r1, r2, r3, r4, r5, r9, ip}
 81c122a:	2a010262 	bcs	8201bba <FlashDictionaryEnde+0x1bba>

081c122e <Code_246>:
 81c122e:	cf01      	ldmia	r7!, {r0}
 81c1230:	4346      	muls	r6, r0
 81c1232:	4770      	bx	lr
 81c1234:	f847 6d04 	str.w	r6, [r7, #-4]!
 81c1238:	f244 3640 	movw	r6, #17216	; 0x4340
 81c123c:	e0b9      	b.n	81c13b2 <alloc_kommutativ>

081c123e <Dictionary_249>:
 81c123e:	081c1272 	ldmdaeq	ip, {r1, r4, r5, r6, r9, ip}
 81c1242:	63030261 	movwvs	r0, #12897	; 0x3261
 81c1246:	 	blx	6f5fbfe <stack_canary+0x2e3e279>

081c1248 <Code_249>:
 81c1248:	fab6 f686 	clz	r6, r6
 81c124c:	4770      	bx	lr
 81c124e:	b500      	push	{lr}
 81c1250:	f7ff f942 	bl	81c04d8 <expect_one_element>
 81c1254:	f847 6d04 	str.w	r6, [r7, #-4]!
 81c1258:	4e7e      	ldr	r6, [pc, #504]	; (81c1454 <m3_opcodieren+0x24>)
 81c125a:	f7ff f979 	bl	81c0550 <expect_tos_in_register>
 81c125e:	430e      	orrs	r6, r1
 81c1260:	ea56 4601 	orrs.w	r6, r6, r1, lsl #16
 81c1264:	f7ff f9c2 	bl	81c05ec <tos_registerwechsel>
 81c1268:	ea56 2603 	orrs.w	r6, r6, r3, lsl #8
 81c126c:	f002 f9ff 	bl	81c366e <Code_831>
 81c1270:	bd00      	pop	{pc}

081c1272 <Dictionary_251>:
 81c1272:	081c1290 	ldmdaeq	ip, {r4, r7, r9, ip}
 81c1276:	72031861 	andvc	r1, r3, #6356992	; 0x610000
 81c127a:	 	andcs	r7, r1, pc, ror #4

081c127c <Code_251>:
 81c127c:	2001      	movs	r0, #1
 81c127e:	41c6      	rors	r6, r0
 81c1280:	4770      	bx	lr
 81c1282:	00010002 	andeq	r0, r1, r2
 81c1286:	20000000 	andcs	r0, r0, r0
 81c128a:	081c12bc 	ldmdaeq	ip, {r2, r3, r4, r5, r7, r9, ip}
 81c128e:	 	adcne	r0, lr, #536870918	; 0x20000006

081c1290 <Dictionary_252>:
 81c1290:	081c12ae 	ldmdaeq	ip, {r1, r2, r3, r5, r7, r9, ip}
 81c1294:	72031861 	andvc	r1, r3, #6356992	; 0x610000
 81c1298:	 	andscs	r6, pc, pc, ror #24

081c129a <Code_252>:
 81c129a:	201f      	movs	r0, #31
 81c129c:	41c6      	rors	r6, r0
 81c129e:	4770      	bx	lr
 81c12a0:	001f0002 	andseq	r0, pc, r2
 81c12a4:	20000000 	andcs	r0, r0, r0
 81c12a8:	081c12bc 	ldmdaeq	ip, {r2, r3, r4, r5, r7, r9, ip}
 81c12ac:	 	sbcne	r0, lr, #536870918	; 0x20000006

081c12ae <Dictionary_253>:
 81c12ae:	081c12ce 	ldmdaeq	ip, {r1, r2, r3, r6, r7, r9, ip}
 81c12b2:	72070262 	andvc	r0, r7, #536870918	; 0x20000006
 81c12b6:	61746f72 	cmnvs	r4, r2, ror pc
 81c12ba:	 	svcgt	0x00016574

081c12bc <Code_253>:
 81c12bc:	cf01      	ldmia	r7!, {r0}
 81c12be:	41f0      	rors	r0, r6
 81c12c0:	0006      	movs	r6, r0
 81c12c2:	4770      	bx	lr
 81c12c4:	f847 6d04 	str.w	r6, [r7, #-4]!
 81c12c8:	f244 16c0 	movw	r6, #16832	; 0x41c0
 81c12cc:	e06d      	b.n	81c13aa <alloc_unkommutativ>

081c12ce <Dictionary_256>:
 81c12ce:	081c1306 	ldmdaeq	ip, {r1, r2, r8, r9, ip}
 81c12d2:	61070262 	tstvs	r7, r2, ror #4
 81c12d6:	69687372 	stmdbvs	r8!, {r1, r4, r5, r6, r8, r9, ip, sp, lr}^
 81c12da:	 	svcgt	0x00017466

081c12dc <Code_256>:
 81c12dc:	cf01      	ldmia	r7!, {r0}
 81c12de:	4130      	asrs	r0, r6
 81c12e0:	0006      	movs	r6, r0
 81c12e2:	4770      	bx	lr
 81c12e4:	b500      	push	{lr}
 81c12e6:	f847 6d04 	str.w	r6, [r7, #-4]!
 81c12ea:	f244 1600 	movw	r6, #16640	; 0x4100
 81c12ee:	f847 6d04 	str.w	r6, [r7, #-4]!
 81c12f2:	f241 0600 	movw	r6, #4096	; 0x1000
 81c12f6:	f7ff f8f9 	bl	81c04ec <expect_two_elements>
 81c12fa:	6841      	ldr	r1, [r0, #4]
 81c12fc:	291f      	cmp	r1, #31
 81c12fe:	d92a      	bls.n	81c1356 <Code_266+0x18>
 81c1300:	211f      	movs	r1, #31
 81c1302:	6041      	str	r1, [r0, #4]
 81c1304:	e027      	b.n	81c1356 <Code_266+0x18>

081c1306 <Dictionary_261>:
 81c1306:	081c1330 	ldmdaeq	ip, {r4, r5, r8, r9, ip}
 81c130a:	72060262 	andvc	r0, r6, #536870918	; 0x20000006
 81c130e:	66696873 			; <UNDEFINED> instruction: 0x66696873
 81c1312:	 	svcgt	0x00010074

081c1314 <Code_261>:
 81c1314:	cf01      	ldmia	r7!, {r0}
 81c1316:	40f0      	lsrs	r0, r6
 81c1318:	0006      	movs	r6, r0
 81c131a:	4770      	bx	lr
 81c131c:	b500      	push	{lr}
 81c131e:	f847 6d04 	str.w	r6, [r7, #-4]!
 81c1322:	f244 06c0 	movw	r6, #16576	; 0x40c0
 81c1326:	f847 6d04 	str.w	r6, [r7, #-4]!
 81c132a:	f640 0600 	movw	r6, #2048	; 0x800
 81c132e:	e012      	b.n	81c1356 <Code_266+0x18>

081c1330 <Dictionary_266>:
 81c1330:	081c1468 	ldmdaeq	ip, {r3, r5, r6, sl, ip}
 81c1334:	6c060262 	sfmvs	f0, 4, [r6], {98}	; 0x62
 81c1338:	66696873 			; <UNDEFINED> instruction: 0x66696873
 81c133c:	 	svcgt	0x00010074

081c133e <Code_266>:
 81c133e:	cf01      	ldmia	r7!, {r0}
 81c1340:	40b0      	lsls	r0, r6
 81c1342:	0006      	movs	r6, r0
 81c1344:	4770      	bx	lr
 81c1346:	b500      	push	{lr}
 81c1348:	f847 6d04 	str.w	r6, [r7, #-4]!
 81c134c:	f244 0680 	movw	r6, #16512	; 0x4080
 81c1350:	f847 6d04 	str.w	r6, [r7, #-4]!
 81c1354:	2600      	movs	r6, #0
 81c1356:	f7ff f8c9 	bl	81c04ec <expect_two_elements>
 81c135a:	6801      	ldr	r1, [r0, #0]
 81c135c:	2928      	cmp	r1, #40	; 0x28
 81c135e:	d003      	beq.n	81c1368 <Code_266+0x2a>
 81c1360:	cf40      	ldmia	r7!, {r6}
 81c1362:	f000 f822 	bl	81c13aa <alloc_unkommutativ>
 81c1366:	bd00      	pop	{pc}
 81c1368:	3704      	adds	r7, #4
 81c136a:	6841      	ldr	r1, [r0, #4]
 81c136c:	f7fe ffb7 	bl	81c02de <eliminiere_tos>
 81c1370:	2900      	cmp	r1, #0
 81c1372:	d101      	bne.n	81c1378 <Code_266+0x3a>
 81c1374:	cf40      	ldmia	r7!, {r6}
 81c1376:	bd00      	pop	{pc}
 81c1378:	291f      	cmp	r1, #31
 81c137a:	d80a      	bhi.n	81c1392 <Code_266+0x54>
 81c137c:	0189      	lsls	r1, r1, #6
 81c137e:	430e      	orrs	r6, r1
 81c1380:	6802      	ldr	r2, [r0, #0]
 81c1382:	00d2      	lsls	r2, r2, #3
 81c1384:	4316      	orrs	r6, r2
 81c1386:	f7ff f931 	bl	81c05ec <tos_registerwechsel>
 81c138a:	431e      	orrs	r6, r3
 81c138c:	f002 f940 	bl	81c3610 <Code_822>
 81c1390:	bd00      	pop	{pc}
 81c1392:	cf40      	ldmia	r7!, {r6}
 81c1394:	f7ff f92a 	bl	81c05ec <tos_registerwechsel>
 81c1398:	f847 6d04 	str.w	r6, [r7, #-4]!
 81c139c:	f242 0600 	movw	r6, #8192	; 0x2000
 81c13a0:	021b      	lsls	r3, r3, #8
 81c13a2:	431e      	orrs	r6, r3
 81c13a4:	f002 f934 	bl	81c3610 <Code_822>
 81c13a8:	bd00      	pop	{pc}

081c13aa <alloc_unkommutativ>:
 81c13aa:	b50f      	push	{r0, r1, r2, r3, lr}

081c13ac <alloc_unkommutativ_ohneregister>:
 81c13ac:	f7ff f89e 	bl	81c04ec <expect_two_elements>
 81c13b0:	e00c      	b.n	81c13cc <alloc_logic_gemeinsam>

081c13b2 <alloc_kommutativ>:
 81c13b2:	b50f      	push	{r0, r1, r2, r3, lr}

081c13b4 <alloc_kommutativ_ohneregister>:
 81c13b4:	f7ff f89a 	bl	81c04ec <expect_two_elements>
 81c13b8:	6801      	ldr	r1, [r0, #0]
 81c13ba:	2906      	cmp	r1, #6
 81c13bc:	d101      	bne.n	81c13c2 <alloc_kommutativ_ohneregister+0xe>
 81c13be:	f7ff fdd4 	bl	81c0f6a <swap_allocator>
 81c13c2:	6882      	ldr	r2, [r0, #8]
 81c13c4:	2a28      	cmp	r2, #40	; 0x28
 81c13c6:	d101      	bne.n	81c13cc <alloc_logic_gemeinsam>
 81c13c8:	f7ff fdcf 	bl	81c0f6a <swap_allocator>

081c13cc <alloc_logic_gemeinsam>:
 81c13cc:	f7ff f8ca 	bl	81c0564 <expect_nos_in_register>
 81c13d0:	6801      	ldr	r1, [r0, #0]
 81c13d2:	2928      	cmp	r1, #40	; 0x28
 81c13d4:	d11e      	bne.n	81c1414 <alloc_logic_gemeinsam+0x48>
 81c13d6:	f847 6d04 	str.w	r6, [r7, #-4]!
 81c13da:	6846      	ldr	r6, [r0, #4]
 81c13dc:	f001 fd0a 	bl	81c2df4 <Code_711>
 81c13e0:	cf02      	ldmia	r7!, {r1}
 81c13e2:	2e00      	cmp	r6, #0
 81c13e4:	cf40      	ldmia	r7!, {r6}
 81c13e6:	d015      	beq.n	81c1414 <alloc_logic_gemeinsam+0x48>
 81c13e8:	f5b6 4f80 	cmp.w	r6, #16384	; 0x4000
 81c13ec:	d101      	bne.n	81c13f2 <alloc_logic_gemeinsam+0x26>
 81c13ee:	4e1a      	ldr	r6, [pc, #104]	; (81c1458 <m3_opcodieren+0x28>)
 81c13f0:	e01e      	b.n	81c1430 <m3_opcodieren>
 81c13f2:	f244 0240 	movw	r2, #16448	; 0x4040
 81c13f6:	4296      	cmp	r6, r2
 81c13f8:	d101      	bne.n	81c13fe <alloc_logic_gemeinsam+0x32>
 81c13fa:	4e18      	ldr	r6, [pc, #96]	; (81c145c <m3_opcodieren+0x2c>)
 81c13fc:	e018      	b.n	81c1430 <m3_opcodieren>
 81c13fe:	f5b6 4f86 	cmp.w	r6, #17152	; 0x4300
 81c1402:	d101      	bne.n	81c1408 <alloc_logic_gemeinsam+0x3c>
 81c1404:	4e16      	ldr	r6, [pc, #88]	; (81c1460 <m3_opcodieren+0x30>)
 81c1406:	e013      	b.n	81c1430 <m3_opcodieren>
 81c1408:	f44f 4287 	mov.w	r2, #17280	; 0x4380
 81c140c:	4296      	cmp	r6, r2
 81c140e:	d101      	bne.n	81c1414 <alloc_logic_gemeinsam+0x48>
 81c1410:	4e14      	ldr	r6, [pc, #80]	; (81c1464 <m3_opcodieren+0x34>)
 81c1412:	e00d      	b.n	81c1430 <m3_opcodieren>
 81c1414:	f7ff f8ba 	bl	81c058c <nos_change_tos_away_later>
 81c1418:	f7ff f89a 	bl	81c0550 <expect_tos_in_register>
 81c141c:	00c9      	lsls	r1, r1, #3
 81c141e:	6882      	ldr	r2, [r0, #8]
 81c1420:	430e      	orrs	r6, r1
 81c1422:	4316      	orrs	r6, r2
 81c1424:	f002 f8f4 	bl	81c3610 <Code_822>
 81c1428:	f7fe ff59 	bl	81c02de <eliminiere_tos>
 81c142c:	bd0f      	pop	{r0, r1, r2, r3, pc}

081c142e <m3_opcodieren_anderswo>:
 81c142e:	b50f      	push	{r0, r1, r2, r3, lr}

081c1430 <m3_opcodieren>:
 81c1430:	430e      	orrs	r6, r1
 81c1432:	6881      	ldr	r1, [r0, #8]
 81c1434:	ea56 4601 	orrs.w	r6, r6, r1, lsl #16
 81c1438:	f7fe ff51 	bl	81c02de <eliminiere_tos>
 81c143c:	f7fe ff4f 	bl	81c02de <eliminiere_tos>
 81c1440:	f7fe ff43 	bl	81c02ca <befreie_tos>
 81c1444:	f7ff f814 	bl	81c0470 <get_free_register>
 81c1448:	6003      	str	r3, [r0, #0]
 81c144a:	ea56 2603 	orrs.w	r6, r6, r3, lsl #8
 81c144e:	f002 f90e 	bl	81c366e <Code_831>
 81c1452:	bd0f      	pop	{r0, r1, r2, r3, pc}
 81c1454:	fab0f080 	blx	6dfd65c <stack_canary+0x2cdbcd7>
 81c1458:	f0100000 			; <UNDEFINED> instruction: 0xf0100000
 81c145c:	f0900000 			; <UNDEFINED> instruction: 0xf0900000
 81c1460:	f0500000 			; <UNDEFINED> instruction: 0xf0500000
 81c1464:	f0300000 			; <UNDEFINED> instruction: 0xf0300000

081c1468 <Dictionary_279>:
 81c1468:	081c148e 	ldmdaeq	ip, {r1, r2, r3, r7, sl, ip}
 81c146c:	30020261 	andcc	r0, r2, r1, ror #4
 81c1470:	 	mcrcc	0, 0, r0, cr1, cr13, {1}

081c1472 <Code_279>:
 81c1472:	3e01      	subs	r6, #1
 81c1474:	41b6      	sbcs	r6, r6
 81c1476:	4770      	bx	lr

081c1478 <allocator_equal_zero>:
 81c1478:	b500      	push	{lr}
 81c147a:	f000 f8fb 	bl	81c1674 <prepare_single_compare>
 81c147e:	f000 ffc6 	bl	81c240e <allocator_one_minus>
 81c1482:	f7fe ff2c 	bl	81c02de <eliminiere_tos>
 81c1486:	f44f 4152 	mov.w	r1, #53760	; 0xd200
 81c148a:	6281      	str	r1, [r0, #40]	; 0x28
 81c148c:	bd00      	pop	{pc}

081c148e <Dictionary_280>:
 81c148e:	081c14b6 	ldmdaeq	ip, {r1, r2, r4, r5, r7, sl, ip}
 81c1492:	30030261 	andcc	r0, r3, r1, ror #4
 81c1496:	 	mcrcc	14, 0, r3, cr1, cr12, {1}

081c1498 <Code_280>:
 81c1498:	3e01      	subs	r6, #1
 81c149a:	41b6      	sbcs	r6, r6
 81c149c:	43f6      	mvns	r6, r6
 81c149e:	4770      	bx	lr

081c14a0 <allocator_unequal_zero>:
 81c14a0:	b500      	push	{lr}
 81c14a2:	f000 f8e7 	bl	81c1674 <prepare_single_compare>
 81c14a6:	f000 ffb2 	bl	81c240e <allocator_one_minus>
 81c14aa:	f7fe ff18 	bl	81c02de <eliminiere_tos>
 81c14ae:	f44f 4153 	mov.w	r1, #54016	; 0xd300
 81c14b2:	6281      	str	r1, [r0, #40]	; 0x28
 81c14b4:	bd00      	pop	{pc}

081c14b6 <Dictionary_281>:
 81c14b6:	081c14de 	ldmdaeq	ip, {r1, r2, r3, r4, r6, r7, sl, ip}
 81c14ba:	30020261 	andcc	r0, r2, r1, ror #4
 81c14be:	 			; <UNDEFINED> instruction: 0x17f6003c

081c14c0 <Code_281>:
 81c14c0:	17f6      	asrs	r6, r6, #31
 81c14c2:	4770      	bx	lr

081c14c4 <alloc_nullkleiner>:
 81c14c4:	b500      	push	{lr}
 81c14c6:	f000 f8d5 	bl	81c1674 <prepare_single_compare>
 81c14ca:	f847 6d04 	str.w	r6, [r7, #-4]!
 81c14ce:	f241 76c0 	movw	r6, #6080	; 0x17c0
 81c14d2:	f000 ffdf 	bl	81c2494 <smalltworegisters>
 81c14d6:	f44f 4155 	mov.w	r1, #54528	; 0xd500
 81c14da:	6281      	str	r1, [r0, #40]	; 0x28
 81c14dc:	bd00      	pop	{pc}

081c14de <Dictionary_284>:
 81c14de:	081c14f4 	ldmdaeq	ip, {r2, r4, r5, r6, r7, sl, ip}
 81c14e2:	74040060 	strvc	r0, [r4], #-96	; 0xffffffa0
 81c14e6:	00657572 	rsbeq	r7, r5, r2, ror r5

081c14ea <Code_284>:
 81c14ea:	f847 6d04 	str.w	r6, [r7, #-4]!

081c14ee <generate_true>:
 81c14ee:	2600      	movs	r6, #0
 81c14f0:	43f6      	mvns	r6, r6
 81c14f2:	4770      	bx	lr

081c14f4 <Dictionary_286>:
 81c14f4:	081c1508 	ldmdaeq	ip, {r3, r8, sl, ip}
 81c14f8:	66050060 	strvs	r0, [r5], -r0, rrx
 81c14fc:	65736c61 	ldrbvs	r6, [r3, #-3169]!	; 0xfffff39f

081c1500 <Code_286>:
 81c1500:	f847 6d04 	str.w	r6, [r7, #-4]!
 81c1504:	2600      	movs	r6, #0
 81c1506:	4770      	bx	lr

081c1508 <Dictionary_288>:
 81c1508:	081c152e 	ldmdaeq	ip, {r1, r2, r3, r5, r8, sl, ip}
 81c150c:	3e020242 	cdpcc	2, 0, cr0, cr2, cr2, {2}
 81c1510:	 	svcgt	0x0001003d

081c1512 <Code_288>:
 81c1512:	cf01      	ldmia	r7!, {r0}
 81c1514:	42b0      	cmp	r0, r6
 81c1516:	daea      	bge.n	81c14ee <generate_true>
 81c1518:	2600      	movs	r6, #0
 81c151a:	4770      	bx	lr
 81c151c:	f847 6d04 	str.w	r6, [r7, #-4]!
 81c1520:	f64d 3600 	movw	r6, #56064	; 0xdb00
 81c1524:	f847 6d04 	str.w	r6, [r7, #-4]!
 81c1528:	f64d 2600 	movw	r6, #55808	; 0xda00
 81c152c:	e0ae      	b.n	81c168c <prepare_compare>

081c152e <Dictionary_293>:
 81c152e:	081c1554 	ldmdaeq	ip, {r2, r4, r6, r8, sl, ip}
 81c1532:	3c020242 	sfmcc	f0, 4, [r2], {66}	; 0x42
 81c1536:	 	svcgt	0x0001003d

081c1538 <Code_293>:
 81c1538:	cf01      	ldmia	r7!, {r0}
 81c153a:	42b0      	cmp	r0, r6
 81c153c:	ddd7      	ble.n	81c14ee <generate_true>
 81c153e:	2600      	movs	r6, #0
 81c1540:	4770      	bx	lr
 81c1542:	f847 6d04 	str.w	r6, [r7, #-4]!
 81c1546:	f64d 4600 	movw	r6, #56320	; 0xdc00
 81c154a:	f847 6d04 	str.w	r6, [r7, #-4]!
 81c154e:	f64d 5600 	movw	r6, #56576	; 0xdd00
 81c1552:	e09b      	b.n	81c168c <prepare_compare>

081c1554 <Dictionary_298>:
 81c1554:	081c1578 	ldmdaeq	ip, {r3, r4, r5, r6, r8, sl, ip}
 81c1558:	3c010242 	sfmcc	f0, 4, [r1], {66}	; 0x42

081c155c <Code_298>:
 81c155c:	cf01      	ldmia	r7!, {r0}
 81c155e:	42b0      	cmp	r0, r6
 81c1560:	dbc5      	blt.n	81c14ee <generate_true>
 81c1562:	2600      	movs	r6, #0
 81c1564:	4770      	bx	lr
 81c1566:	f847 6d04 	str.w	r6, [r7, #-4]!
 81c156a:	f64d 2600 	movw	r6, #55808	; 0xda00
 81c156e:	f847 6d04 	str.w	r6, [r7, #-4]!
 81c1572:	f64d 3600 	movw	r6, #56064	; 0xdb00
 81c1576:	e089      	b.n	81c168c <prepare_compare>

081c1578 <Dictionary_303>:
 81c1578:	081c159c 	ldmdaeq	ip, {r2, r3, r4, r7, r8, sl, ip}
 81c157c:	3e010242 	cdpcc	2, 0, cr0, cr1, cr2, {2}

081c1580 <Code_303>:
 81c1580:	cf01      	ldmia	r7!, {r0}
 81c1582:	42b0      	cmp	r0, r6
 81c1584:	dcb3      	bgt.n	81c14ee <generate_true>
 81c1586:	2600      	movs	r6, #0
 81c1588:	4770      	bx	lr
 81c158a:	f847 6d04 	str.w	r6, [r7, #-4]!
 81c158e:	f64d 5600 	movw	r6, #56576	; 0xdd00
 81c1592:	f847 6d04 	str.w	r6, [r7, #-4]!
 81c1596:	f64d 4600 	movw	r6, #56320	; 0xdc00
 81c159a:	e077      	b.n	81c168c <prepare_compare>

081c159c <Dictionary_308>:
 81c159c:	081c15c2 	ldmdaeq	ip, {r1, r6, r7, r8, sl, ip}
 81c15a0:	75030262 	strvc	r0, [r3, #-610]	; 0xfffffd9e
 81c15a4:	 	svcgt	0x00013d3e

081c15a6 <Code_308>:
 81c15a6:	cf01      	ldmia	r7!, {r0}
 81c15a8:	1b86      	subs	r6, r0, r6
 81c15aa:	41b6      	sbcs	r6, r6
 81c15ac:	43f6      	mvns	r6, r6
 81c15ae:	4770      	bx	lr
 81c15b0:	f847 6d04 	str.w	r6, [r7, #-4]!
 81c15b4:	f24d 3600 	movw	r6, #54016	; 0xd300
 81c15b8:	f847 6d04 	str.w	r6, [r7, #-4]!
 81c15bc:	f24d 2600 	movw	r6, #53760	; 0xd200
 81c15c0:	e064      	b.n	81c168c <prepare_compare>

081c15c2 <Dictionary_313>:
 81c15c2:	081c15e8 	ldmdaeq	ip, {r3, r5, r6, r7, r8, sl, ip}
 81c15c6:	75030262 	strvc	r0, [r3, #-610]	; 0xfffffd9e
 81c15ca:	 	svcgt	0x00013d3c

081c15cc <Code_313>:
 81c15cc:	cf01      	ldmia	r7!, {r0}
 81c15ce:	1a36      	subs	r6, r6, r0
 81c15d0:	41b6      	sbcs	r6, r6
 81c15d2:	43f6      	mvns	r6, r6
 81c15d4:	4770      	bx	lr
 81c15d6:	f847 6d04 	str.w	r6, [r7, #-4]!
 81c15da:	f64d 0600 	movw	r6, #55296	; 0xd800
 81c15de:	f847 6d04 	str.w	r6, [r7, #-4]!
 81c15e2:	f64d 1600 	movw	r6, #55552	; 0xd900
 81c15e6:	e051      	b.n	81c168c <prepare_compare>

081c15e8 <Dictionary_318>:
 81c15e8:	081c160c 	ldmdaeq	ip, {r2, r3, r9, sl, ip}
 81c15ec:	75020262 	strvc	r0, [r2, #-610]	; 0xfffffd9e
 81c15f0:	 	svcgt	0x0001003c

081c15f2 <Code_318>:
 81c15f2:	cf01      	ldmia	r7!, {r0}
 81c15f4:	1b86      	subs	r6, r0, r6
 81c15f6:	41b6      	sbcs	r6, r6
 81c15f8:	4770      	bx	lr
 81c15fa:	f847 6d04 	str.w	r6, [r7, #-4]!
 81c15fe:	f24d 2600 	movw	r6, #53760	; 0xd200
 81c1602:	f847 6d04 	str.w	r6, [r7, #-4]!
 81c1606:	f24d 3600 	movw	r6, #54016	; 0xd300
 81c160a:	e03f      	b.n	81c168c <prepare_compare>

081c160c <Dictionary_323>:
 81c160c:	081c1630 	ldmdaeq	ip, {r4, r5, r9, sl, ip}
 81c1610:	75020262 	strvc	r0, [r2, #-610]	; 0xfffffd9e
 81c1614:	 	svcgt	0x0001003e

081c1616 <Code_323>:
 81c1616:	cf01      	ldmia	r7!, {r0}
 81c1618:	1a36      	subs	r6, r6, r0
 81c161a:	41b6      	sbcs	r6, r6
 81c161c:	4770      	bx	lr
 81c161e:	f847 6d04 	str.w	r6, [r7, #-4]!
 81c1622:	f64d 1600 	movw	r6, #55552	; 0xd900
 81c1626:	f847 6d04 	str.w	r6, [r7, #-4]!
 81c162a:	f64d 0600 	movw	r6, #55296	; 0xd800
 81c162e:	e02d      	b.n	81c168c <prepare_compare>

081c1630 <Dictionary_328>:
 81c1630:	081c1654 	ldmdaeq	ip, {r2, r4, r6, r9, sl, ip}
 81c1634:	3c020262 	sfmcc	f0, 4, [r2], {98}	; 0x62
 81c1638:	 	svcgt	0x0001003e

081c163a <Code_328>:
 81c163a:	cf01      	ldmia	r7!, {r0}
 81c163c:	1a36      	subs	r6, r6, r0
 81c163e:	3e01      	subs	r6, #1
 81c1640:	41b6      	sbcs	r6, r6
 81c1642:	43f6      	mvns	r6, r6
 81c1644:	4770      	bx	lr
 81c1646:	f847 6d04 	str.w	r6, [r7, #-4]!
 81c164a:	f24d 0600 	movw	r6, #53248	; 0xd000
 81c164e:	f847 6d04 	str.w	r6, [r7, #-4]!
 81c1652:	e01b      	b.n	81c168c <prepare_compare>

081c1654 <Dictionary_333>:
 81c1654:	081c17b6 	ldmdaeq	ip, {r1, r2, r4, r5, r7, r8, r9, sl, ip}
 81c1658:	3d010262 	sfmcc	f0, 4, [r1, #-392]	; 0xfffffe78

081c165c <Code_333>:
 81c165c:	cf01      	ldmia	r7!, {r0}
 81c165e:	1a36      	subs	r6, r6, r0
 81c1660:	3e01      	subs	r6, #1
 81c1662:	41b6      	sbcs	r6, r6
 81c1664:	4770      	bx	lr
 81c1666:	f847 6d04 	str.w	r6, [r7, #-4]!
 81c166a:	f24d 1600 	movw	r6, #53504	; 0xd100
 81c166e:	f847 6d04 	str.w	r6, [r7, #-4]!
 81c1672:	e00b      	b.n	81c168c <prepare_compare>

081c1674 <prepare_single_compare>:
 81c1674:	b500      	push	{lr}
 81c1676:	f7fe ff2f 	bl	81c04d8 <expect_one_element>
 81c167a:	f7fe fe67 	bl	81c034c <tidyup_register_allocator_5os>
 81c167e:	f7fe fe6a 	bl	81c0356 <tidyup_register_allocator_4os>
 81c1682:	f7fe fe6d 	bl	81c0360 <tidyup_register_allocator_3os>
 81c1686:	f7fe ff6d 	bl	81c0564 <expect_nos_in_register>
 81c168a:	bd00      	pop	{pc}

081c168c <prepare_compare>:
 81c168c:	b500      	push	{lr}
 81c168e:	f7fe ff2d 	bl	81c04ec <expect_two_elements>
 81c1692:	f7fe fe5b 	bl	81c034c <tidyup_register_allocator_5os>
 81c1696:	f7fe fe5e 	bl	81c0356 <tidyup_register_allocator_4os>
 81c169a:	f7fe ff6d 	bl	81c0578 <expect_3os_in_register>
 81c169e:	6882      	ldr	r2, [r0, #8]
 81c16a0:	2a28      	cmp	r2, #40	; 0x28
 81c16a2:	d105      	bne.n	81c16b0 <prepare_compare+0x24>
 81c16a4:	f7ff fc61 	bl	81c0f6a <swap_allocator>
 81c16a8:	6839      	ldr	r1, [r7, #0]
 81c16aa:	603e      	str	r6, [r7, #0]
 81c16ac:	460e      	mov	r6, r1
 81c16ae:	6882      	ldr	r2, [r0, #8]
 81c16b0:	cf40      	ldmia	r7!, {r6}
 81c16b2:	6801      	ldr	r1, [r0, #0]
 81c16b4:	2928      	cmp	r1, #40	; 0x28
 81c16b6:	d11d      	bne.n	81c16f4 <prepare_compare+0x68>
 81c16b8:	6841      	ldr	r1, [r0, #4]
 81c16ba:	29ff      	cmp	r1, #255	; 0xff
 81c16bc:	d807      	bhi.n	81c16ce <prepare_compare+0x42>
 81c16be:	f847 6d04 	str.w	r6, [r7, #-4]!
 81c16c2:	f642 0600 	movw	r6, #10240	; 0x2800
 81c16c6:	430e      	orrs	r6, r1
 81c16c8:	6881      	ldr	r1, [r0, #8]
 81c16ca:	0209      	lsls	r1, r1, #8
 81c16cc:	e01a      	b.n	81c1704 <prepare_compare+0x78>
 81c16ce:	f847 6d04 	str.w	r6, [r7, #-4]!
 81c16d2:	6846      	ldr	r6, [r0, #4]
 81c16d4:	f001 fb8e 	bl	81c2df4 <Code_711>
 81c16d8:	cf02      	ldmia	r7!, {r1}
 81c16da:	2e00      	cmp	r6, #0
 81c16dc:	cf40      	ldmia	r7!, {r6}
 81c16de:	d009      	beq.n	81c16f4 <prepare_compare+0x68>
 81c16e0:	f847 6d04 	str.w	r6, [r7, #-4]!
 81c16e4:	4e6a      	ldr	r6, [pc, #424]	; (81c1890 <alloc_minmax+0x60>)
 81c16e6:	430e      	orrs	r6, r1
 81c16e8:	6881      	ldr	r1, [r0, #8]
 81c16ea:	ea56 4601 	orrs.w	r6, r6, r1, lsl #16
 81c16ee:	f001 ffbe 	bl	81c366e <Code_831>
 81c16f2:	e00a      	b.n	81c170a <prepare_compare+0x7e>
 81c16f4:	f7fe ff2c 	bl	81c0550 <expect_tos_in_register>
 81c16f8:	f847 6d04 	str.w	r6, [r7, #-4]!
 81c16fc:	f244 2680 	movw	r6, #17024	; 0x4280
 81c1700:	00c9      	lsls	r1, r1, #3
 81c1702:	4316      	orrs	r6, r2
 81c1704:	430e      	orrs	r6, r1
 81c1706:	f001 ff83 	bl	81c3610 <Code_822>
 81c170a:	f7fe fde8 	bl	81c02de <eliminiere_tos>
 81c170e:	f7fe fde6 	bl	81c02de <eliminiere_tos>
 81c1712:	6286      	str	r6, [r0, #40]	; 0x28
 81c1714:	cf40      	ldmia	r7!, {r6}
 81c1716:	bd00      	pop	{pc}

081c1718 <sprungschreiber_flaggenerator>:
 81c1718:	b50f      	push	{r0, r1, r2, r3, lr}
 81c171a:	485e      	ldr	r0, [pc, #376]	; (81c1894 <alloc_minmax+0x64>)
 81c171c:	6a81      	ldr	r1, [r0, #40]	; 0x28
 81c171e:	2900      	cmp	r1, #0
 81c1720:	d035      	beq.n	81c178e <sprungschreiber_flaggenerator+0x76>
 81c1722:	f847 6d04 	str.w	r6, [r7, #-4]!
 81c1726:	6a86      	ldr	r6, [r0, #40]	; 0x28
 81c1728:	2100      	movs	r1, #0
 81c172a:	6281      	str	r1, [r0, #40]	; 0x28
 81c172c:	0a31      	lsrs	r1, r6, #8
 81c172e:	29d5      	cmp	r1, #213	; 0xd5
 81c1730:	d101      	bne.n	81c1736 <sprungschreiber_flaggenerator+0x1e>
 81c1732:	cf40      	ldmia	r7!, {r6}
 81c1734:	bd0f      	pop	{r0, r1, r2, r3, pc}
 81c1736:	f7fe fdc8 	bl	81c02ca <befreie_tos>
 81c173a:	f7fe fe99 	bl	81c0470 <get_free_register>
 81c173e:	6003      	str	r3, [r0, #0]
 81c1740:	29d2      	cmp	r1, #210	; 0xd2
 81c1742:	d104      	bne.n	81c174e <sprungschreiber_flaggenerator+0x36>
 81c1744:	f44f 4683 	mov.w	r6, #16768	; 0x4180
 81c1748:	f000 fea4 	bl	81c2494 <smalltworegisters>
 81c174c:	bd0f      	pop	{r0, r1, r2, r3, pc}
 81c174e:	29d3      	cmp	r1, #211	; 0xd3
 81c1750:	d106      	bne.n	81c1760 <sprungschreiber_flaggenerator+0x48>
 81c1752:	f44f 4683 	mov.w	r6, #16768	; 0x4180
 81c1756:	f000 fe9d 	bl	81c2494 <smalltworegisters>
 81c175a:	f000 feae 	bl	81c24ba <allocator_not>
 81c175e:	bd0f      	pop	{r0, r1, r2, r3, pc}
 81c1760:	3602      	adds	r6, #2
 81c1762:	f001 ff55 	bl	81c3610 <Code_822>
 81c1766:	f847 6d04 	str.w	r6, [r7, #-4]!
 81c176a:	f242 0600 	movw	r6, #8192	; 0x2000
 81c176e:	f000 f80f 	bl	81c1790 <smallplusminus>
 81c1772:	f000 fea2 	bl	81c24ba <allocator_not>
 81c1776:	f847 6d04 	str.w	r6, [r7, #-4]!
 81c177a:	f24e 0600 	movw	r6, #57344	; 0xe000
 81c177e:	f001 ff47 	bl	81c3610 <Code_822>
 81c1782:	f847 6d04 	str.w	r6, [r7, #-4]!
 81c1786:	f242 0600 	movw	r6, #8192	; 0x2000
 81c178a:	f000 f801 	bl	81c1790 <smallplusminus>
 81c178e:	bd0f      	pop	{r0, r1, r2, r3, pc}

081c1790 <smallplusminus>:
 81c1790:	b500      	push	{lr}
 81c1792:	f7fe fea1 	bl	81c04d8 <expect_one_element>
 81c1796:	f7fe ff10 	bl	81c05ba <make_tos_changeable>
 81c179a:	6801      	ldr	r1, [r0, #0]
 81c179c:	0209      	lsls	r1, r1, #8
 81c179e:	430e      	orrs	r6, r1
 81c17a0:	f001 ff36 	bl	81c3610 <Code_822>
 81c17a4:	bd00      	pop	{pc}

081c17a6 <eliminiere_tos_wenn_bmi>:
 81c17a6:	b500      	push	{lr}
 81c17a8:	6a81      	ldr	r1, [r0, #40]	; 0x28
 81c17aa:	0a09      	lsrs	r1, r1, #8
 81c17ac:	29d5      	cmp	r1, #213	; 0xd5
 81c17ae:	d101      	bne.n	81c17b4 <eliminiere_tos_wenn_bmi+0xe>
 81c17b0:	f7fe fd95 	bl	81c02de <eliminiere_tos>
 81c17b4:	bd00      	pop	{pc}

081c17b6 <Dictionary_356>:
 81c17b6:	081c17d4 	ldmdaeq	ip, {r2, r4, r6, r7, r8, r9, sl, ip}
 81c17ba:	6d030262 	sfmvs	f0, 4, [r3, #-392]	; 0xfffffe78
 81c17be:	 	svcgt	0x00016e69

081c17c0 <Code_356>:
 81c17c0:	cf01      	ldmia	r7!, {r0}
 81c17c2:	42b0      	cmp	r0, r6
 81c17c4:	dc00      	bgt.n	81c17c8 <Code_356+0x8>
 81c17c6:	0006      	movs	r6, r0
 81c17c8:	4770      	bx	lr
 81c17ca:	f847 6d04 	str.w	r6, [r7, #-4]!
 81c17ce:	f64d 3600 	movw	r6, #56064	; 0xdb00
 81c17d2:	e02d      	b.n	81c1830 <alloc_minmax>

081c17d4 <Dictionary_359>:
 81c17d4:	081c17f2 	ldmdaeq	ip, {r1, r4, r5, r6, r7, r8, r9, sl, ip}
 81c17d8:	6d030262 	sfmvs	f0, 4, [r3, #-392]	; 0xfffffe78
 81c17dc:	 	svcgt	0x00017861

081c17de <Code_359>:
 81c17de:	cf01      	ldmia	r7!, {r0}
 81c17e0:	42b0      	cmp	r0, r6
 81c17e2:	db00      	blt.n	81c17e6 <Code_359+0x8>
 81c17e4:	0006      	movs	r6, r0
 81c17e6:	4770      	bx	lr
 81c17e8:	f847 6d04 	str.w	r6, [r7, #-4]!
 81c17ec:	f64d 4600 	movw	r6, #56320	; 0xdc00
 81c17f0:	e01e      	b.n	81c1830 <alloc_minmax>

081c17f2 <Dictionary_362>:
 81c17f2:	081c1812 	ldmdaeq	ip, {r1, r4, fp, ip}
 81c17f6:	75040262 	strvc	r0, [r4, #-610]	; 0xfffffd9e
 81c17fa:	0078616d 	rsbseq	r6, r8, sp, ror #2

081c17fe <Code_362>:
 81c17fe:	cf01      	ldmia	r7!, {r0}
 81c1800:	42b0      	cmp	r0, r6
 81c1802:	d300      	bcc.n	81c1806 <Code_362+0x8>
 81c1804:	0006      	movs	r6, r0
 81c1806:	4770      	bx	lr
 81c1808:	f847 6d04 	str.w	r6, [r7, #-4]!
 81c180c:	f64d 0600 	movw	r6, #55296	; 0xd800
 81c1810:	e00e      	b.n	81c1830 <alloc_minmax>

081c1812 <Dictionary_365>:
 81c1812:	081c1898 	ldmdaeq	ip, {r3, r4, r7, fp, ip}
 81c1816:	75040262 	strvc	r0, [r4, #-610]	; 0xfffffd9e
 81c181a:	006e696d 	rsbeq	r6, lr, sp, ror #18

081c181e <Code_365>:
 81c181e:	cf01      	ldmia	r7!, {r0}
 81c1820:	42b0      	cmp	r0, r6
 81c1822:	d800      	bhi.n	81c1826 <Code_365+0x8>
 81c1824:	0006      	movs	r6, r0
 81c1826:	4770      	bx	lr
 81c1828:	f847 6d04 	str.w	r6, [r7, #-4]!
 81c182c:	f24d 3600 	movw	r6, #54016	; 0xd300

081c1830 <alloc_minmax>:
 81c1830:	b500      	push	{lr}
 81c1832:	f7fe fe5b 	bl	81c04ec <expect_two_elements>
 81c1836:	6801      	ldr	r1, [r0, #0]
 81c1838:	6882      	ldr	r2, [r0, #8]
 81c183a:	4291      	cmp	r1, r2
 81c183c:	d103      	bne.n	81c1846 <alloc_minmax+0x16>
 81c183e:	cf40      	ldmia	r7!, {r6}
 81c1840:	f7fe fd53 	bl	81c02ea <eliminiere_nos>
 81c1844:	bd00      	pop	{pc}
 81c1846:	2a06      	cmp	r2, #6
 81c1848:	d101      	bne.n	81c184e <alloc_minmax+0x1e>
 81c184a:	f7ff fb8e 	bl	81c0f6a <swap_allocator>
 81c184e:	6801      	ldr	r1, [r0, #0]
 81c1850:	2928      	cmp	r1, #40	; 0x28
 81c1852:	d101      	bne.n	81c1858 <alloc_minmax+0x28>
 81c1854:	f7ff fb89 	bl	81c0f6a <swap_allocator>
 81c1858:	f7fe feaf 	bl	81c05ba <make_tos_changeable>
 81c185c:	f7fe fe82 	bl	81c0564 <expect_nos_in_register>
 81c1860:	00c9      	lsls	r1, r1, #3
 81c1862:	6802      	ldr	r2, [r0, #0]
 81c1864:	f847 6d04 	str.w	r6, [r7, #-4]!
 81c1868:	f244 2680 	movw	r6, #17024	; 0x4280
 81c186c:	430e      	orrs	r6, r1
 81c186e:	4316      	orrs	r6, r2
 81c1870:	f001 fece 	bl	81c3610 <Code_822>
 81c1874:	f001 fecc 	bl	81c3610 <Code_822>
 81c1878:	f847 6d04 	str.w	r6, [r7, #-4]!
 81c187c:	f244 6600 	movw	r6, #17920	; 0x4600
 81c1880:	430e      	orrs	r6, r1
 81c1882:	4316      	orrs	r6, r2
 81c1884:	f001 fec4 	bl	81c3610 <Code_822>
 81c1888:	f7fe fd2f 	bl	81c02ea <eliminiere_nos>
 81c188c:	bd00      	pop	{pc}
 81c188e:	0f000000 	svceq	0x00000000
 81c1892:	0820f1b0 	stmdaeq	r0!, {r4, r5, r7, r8, ip, sp, lr, pc}
 81c1896:	 	ldmne	r6, {fp, ip, sp}^

081c1898 <Dictionary_373>:
 81c1898:	081c18d6 	ldmdaeq	ip, {r1, r2, r4, r6, r7, fp, ip}
 81c189c:	6d040000 	stcvs	0, cr0, [r4, #-0]
 81c18a0:	0065766f 	rsbeq	r7, r5, pc, ror #12

081c18a4 <Code_373>:
 81c18a4:	b507      	push	{r0, r1, r2, lr}
 81c18a6:	0031      	movs	r1, r6
 81c18a8:	cf40      	ldmia	r7!, {r6}
 81c18aa:	0032      	movs	r2, r6
 81c18ac:	cf40      	ldmia	r7!, {r6}
 81c18ae:	2900      	cmp	r1, #0
 81c18b0:	d00f      	beq.n	81c18d2 <Code_373+0x2e>
 81c18b2:	42b2      	cmp	r2, r6
 81c18b4:	d00d      	beq.n	81c18d2 <Code_373+0x2e>
 81c18b6:	d306      	bcc.n	81c18c6 <Code_373+0x22>
 81c18b8:	3e01      	subs	r6, #1
 81c18ba:	3a01      	subs	r2, #1
 81c18bc:	5c70      	ldrb	r0, [r6, r1]
 81c18be:	5450      	strb	r0, [r2, r1]
 81c18c0:	3901      	subs	r1, #1
 81c18c2:	d1fb      	bne.n	81c18bc <Code_373+0x18>
 81c18c4:	e005      	b.n	81c18d2 <Code_373+0x2e>
 81c18c6:	7830      	ldrb	r0, [r6, #0]
 81c18c8:	7010      	strb	r0, [r2, #0]
 81c18ca:	3601      	adds	r6, #1
 81c18cc:	3201      	adds	r2, #1
 81c18ce:	3901      	subs	r1, #1
 81c18d0:	d1f9      	bne.n	81c18c6 <Code_373+0x22>
 81c18d2:	cf40      	ldmia	r7!, {r6}
 81c18d4:	bd07      	pop	{r0, r1, r2, pc}

081c18d6 <Dictionary_377>:
 81c18d6:	081c18f8 	ldmdaeq	ip, {r3, r4, r5, r6, r7, fp, ip}
 81c18da:	66040000 	strvs	r0, [r4], -r0
 81c18de:	006c6c69 	rsbeq	r6, ip, r9, ror #24

081c18e2 <Code_377>:
 81c18e2:	0030      	movs	r0, r6
 81c18e4:	cf40      	ldmia	r7!, {r6}
 81c18e6:	0031      	movs	r1, r6
 81c18e8:	cf40      	ldmia	r7!, {r6}
 81c18ea:	2900      	cmp	r1, #0
 81c18ec:	d002      	beq.n	81c18f4 <Code_377+0x12>
 81c18ee:	3901      	subs	r1, #1
 81c18f0:	5470      	strb	r0, [r6, r1]
 81c18f2:	d1fc      	bne.n	81c18ee <Code_377+0xc>
 81c18f4:	cf40      	ldmia	r7!, {r6}
 81c18f6:	4770      	bx	lr

081c18f8 <Dictionary_381>:
 81c18f8:	081c193a 	ldmdaeq	ip, {r1, r3, r4, r5, r8, fp, ip}
 81c18fc:	40010220 	andmi	r0, r1, r0, lsr #4

081c1900 <Code_381>:
 81c1900:	6836      	ldr	r6, [r6, #0]
 81c1902:	4770      	bx	lr

081c1904 <allocator_4fetch>:
 81c1904:	f847 6d04 	str.w	r6, [r7, #-4]!
 81c1908:	f646 0600 	movw	r6, #26624	; 0x6800

081c190c <allocator_4fetch_anderer_opcode>:
 81c190c:	b500      	push	{lr}
 81c190e:	f7fe fde3 	bl	81c04d8 <expect_one_element>
 81c1912:	6803      	ldr	r3, [r0, #0]
 81c1914:	2b28      	cmp	r3, #40	; 0x28
 81c1916:	d108      	bne.n	81c192a <allocator_4fetch_anderer_opcode+0x1e>
 81c1918:	6843      	ldr	r3, [r0, #4]
 81c191a:	217c      	movs	r1, #124	; 0x7c
 81c191c:	4019      	ands	r1, r3
 81c191e:	0109      	lsls	r1, r1, #4
 81c1920:	430e      	orrs	r6, r1
 81c1922:	217c      	movs	r1, #124	; 0x7c
 81c1924:	438b      	bics	r3, r1
 81c1926:	f7fe fd64 	bl	81c03f2 <generiere_adresskonstante>
 81c192a:	00db      	lsls	r3, r3, #3
 81c192c:	431e      	orrs	r6, r3
 81c192e:	f7fe fe5d 	bl	81c05ec <tos_registerwechsel>
 81c1932:	431e      	orrs	r6, r3
 81c1934:	f001 fe6c 	bl	81c3610 <Code_822>
 81c1938:	bd00      	pop	{pc}

081c193a <Dictionary_384>:
 81c193a:	081c1992 	ldmdaeq	ip, {r1, r4, r7, r8, fp, ip}
 81c193e:	21010220 	tstcs	r1, r0, lsr #4

081c1942 <Code_384>:
 81c1942:	cf03      	ldmia	r7!, {r0, r1}
 81c1944:	6030      	str	r0, [r6, #0]
 81c1946:	000e      	movs	r6, r1
 81c1948:	4770      	bx	lr

081c194a <allocator_4store>:
 81c194a:	f847 6d04 	str.w	r6, [r7, #-4]!
 81c194e:	f246 0600 	movw	r6, #24576	; 0x6000

081c1952 <allocator_4store_anderer_opcode>:
 81c1952:	b500      	push	{lr}
 81c1954:	f7fe fdca 	bl	81c04ec <expect_two_elements>
 81c1958:	6803      	ldr	r3, [r0, #0]
 81c195a:	2b28      	cmp	r3, #40	; 0x28
 81c195c:	d109      	bne.n	81c1972 <allocator_4store_anderer_opcode+0x20>
 81c195e:	6843      	ldr	r3, [r0, #4]
 81c1960:	217c      	movs	r1, #124	; 0x7c
 81c1962:	4019      	ands	r1, r3
 81c1964:	0109      	lsls	r1, r1, #4
 81c1966:	430e      	orrs	r6, r1
 81c1968:	217c      	movs	r1, #124	; 0x7c
 81c196a:	438b      	bics	r3, r1
 81c196c:	f7fe fd41 	bl	81c03f2 <generiere_adresskonstante>
 81c1970:	6003      	str	r3, [r0, #0]
 81c1972:	00db      	lsls	r3, r3, #3
 81c1974:	431e      	orrs	r6, r3
 81c1976:	6883      	ldr	r3, [r0, #8]
 81c1978:	2b28      	cmp	r3, #40	; 0x28
 81c197a:	d102      	bne.n	81c1982 <allocator_4store_anderer_opcode+0x30>
 81c197c:	68c3      	ldr	r3, [r0, #12]
 81c197e:	f7fe fd2c 	bl	81c03da <generiere_konstante>
 81c1982:	431e      	orrs	r6, r3
 81c1984:	f001 fe44 	bl	81c3610 <Code_822>
 81c1988:	f7fe fca9 	bl	81c02de <eliminiere_tos>
 81c198c:	f7fe fca7 	bl	81c02de <eliminiere_tos>
 81c1990:	bd00      	pop	{pc}

081c1992 <Dictionary_387>:
 81c1992:	081c19c8 	ldmdaeq	ip, {r3, r6, r7, r8, fp, ip}
 81c1996:	2b020220 	blcs	824221e <FlashDictionaryEnde+0x4221e>
 81c199a:	 	svcgt	0x00030021

081c199c <Code_387>:
 81c199c:	cf03      	ldmia	r7!, {r0, r1}
 81c199e:	6832      	ldr	r2, [r6, #0]
 81c19a0:	1812      	adds	r2, r2, r0
 81c19a2:	6032      	str	r2, [r6, #0]
 81c19a4:	000e      	movs	r6, r1
 81c19a6:	4770      	bx	lr
 81c19a8:	b500      	push	{lr}
 81c19aa:	f7fe fd9f 	bl	81c04ec <expect_two_elements>
 81c19ae:	f7ff faa7 	bl	81c0f00 <dup_allocator>
 81c19b2:	f7ff ffa7 	bl	81c1904 <allocator_4fetch>
 81c19b6:	f7ff fb2d 	bl	81c1014 <rot_allocator>
 81c19ba:	f000 fcba 	bl	81c2332 <plus_allocator>
 81c19be:	f7ff fad4 	bl	81c0f6a <swap_allocator>
 81c19c2:	f7ff ffc2 	bl	81c194a <allocator_4store>
 81c19c6:	bd00      	pop	{pc}

081c19c8 <Dictionary_388>:
 81c19c8:	081c1a0c 	ldmdaeq	ip, {r2, r3, r9, fp, ip}
 81c19cc:	68020220 	stmdavs	r2, {r5, r9}
 81c19d0:	 	ldmdahi	r6!, {r6}

081c19d2 <Code_388>:
 81c19d2:	8836      	ldrh	r6, [r6, #0]
 81c19d4:	4770      	bx	lr

081c19d6 <allocator_2fetch>:
 81c19d6:	b500      	push	{lr}
 81c19d8:	f7fe fd7e 	bl	81c04d8 <expect_one_element>
 81c19dc:	f847 6d04 	str.w	r6, [r7, #-4]!
 81c19e0:	f648 0600 	movw	r6, #34816	; 0x8800
 81c19e4:	6803      	ldr	r3, [r0, #0]
 81c19e6:	2b28      	cmp	r3, #40	; 0x28
 81c19e8:	d108      	bne.n	81c19fc <allocator_2fetch+0x26>
 81c19ea:	6843      	ldr	r3, [r0, #4]
 81c19ec:	213e      	movs	r1, #62	; 0x3e
 81c19ee:	4019      	ands	r1, r3
 81c19f0:	0149      	lsls	r1, r1, #5
 81c19f2:	430e      	orrs	r6, r1
 81c19f4:	213e      	movs	r1, #62	; 0x3e
 81c19f6:	438b      	bics	r3, r1
 81c19f8:	f7fe fcfb 	bl	81c03f2 <generiere_adresskonstante>
 81c19fc:	00db      	lsls	r3, r3, #3
 81c19fe:	431e      	orrs	r6, r3
 81c1a00:	f7fe fdf4 	bl	81c05ec <tos_registerwechsel>
 81c1a04:	431e      	orrs	r6, r3
 81c1a06:	f001 fe03 	bl	81c3610 <Code_822>
 81c1a0a:	bd00      	pop	{pc}

081c1a0c <Dictionary_391>:
 81c1a0c:	081c1a66 	ldmdaeq	ip, {r1, r2, r5, r6, r9, fp, ip}
 81c1a10:	68020220 	stmdavs	r2, {r5, r9}
 81c1a14:	 	svcgt	0x00030021

081c1a16 <Code_391>:
 81c1a16:	cf03      	ldmia	r7!, {r0, r1}
 81c1a18:	8030      	strh	r0, [r6, #0]
 81c1a1a:	000e      	movs	r6, r1
 81c1a1c:	4770      	bx	lr

081c1a1e <allocator_2store>:
 81c1a1e:	b500      	push	{lr}
 81c1a20:	f7fe fd64 	bl	81c04ec <expect_two_elements>
 81c1a24:	f847 6d04 	str.w	r6, [r7, #-4]!
 81c1a28:	f248 0600 	movw	r6, #32768	; 0x8000
 81c1a2c:	6803      	ldr	r3, [r0, #0]
 81c1a2e:	2b28      	cmp	r3, #40	; 0x28
 81c1a30:	d109      	bne.n	81c1a46 <allocator_2store+0x28>
 81c1a32:	6843      	ldr	r3, [r0, #4]
 81c1a34:	213e      	movs	r1, #62	; 0x3e
 81c1a36:	4019      	ands	r1, r3
 81c1a38:	0149      	lsls	r1, r1, #5
 81c1a3a:	430e      	orrs	r6, r1
 81c1a3c:	213e      	movs	r1, #62	; 0x3e
 81c1a3e:	438b      	bics	r3, r1
 81c1a40:	f7fe fcd7 	bl	81c03f2 <generiere_adresskonstante>
 81c1a44:	6003      	str	r3, [r0, #0]
 81c1a46:	00db      	lsls	r3, r3, #3
 81c1a48:	431e      	orrs	r6, r3
 81c1a4a:	6883      	ldr	r3, [r0, #8]
 81c1a4c:	2b28      	cmp	r3, #40	; 0x28
 81c1a4e:	d102      	bne.n	81c1a56 <allocator_2store+0x38>
 81c1a50:	68c3      	ldr	r3, [r0, #12]
 81c1a52:	f7fe fcc2 	bl	81c03da <generiere_konstante>
 81c1a56:	431e      	orrs	r6, r3
 81c1a58:	f001 fdda 	bl	81c3610 <Code_822>
 81c1a5c:	f7fe fc3f 	bl	81c02de <eliminiere_tos>
 81c1a60:	f7fe fc3d 	bl	81c02de <eliminiere_tos>
 81c1a64:	bd00      	pop	{pc}

081c1a66 <Dictionary_394>:
 81c1a66:	081c1a9c 	ldmdaeq	ip, {r2, r3, r4, r7, r9, fp, ip}
 81c1a6a:	68030220 	stmdavs	r3, {r5, r9}
 81c1a6e:	 	svcgt	0x0003212b

081c1a70 <Code_394>:
 81c1a70:	cf03      	ldmia	r7!, {r0, r1}
 81c1a72:	8832      	ldrh	r2, [r6, #0]
 81c1a74:	1812      	adds	r2, r2, r0
 81c1a76:	8032      	strh	r2, [r6, #0]
 81c1a78:	000e      	movs	r6, r1
 81c1a7a:	4770      	bx	lr
 81c1a7c:	b500      	push	{lr}
 81c1a7e:	f7fe fd35 	bl	81c04ec <expect_two_elements>
 81c1a82:	f7ff fa3d 	bl	81c0f00 <dup_allocator>
 81c1a86:	f7ff ffa6 	bl	81c19d6 <allocator_2fetch>
 81c1a8a:	f7ff fac3 	bl	81c1014 <rot_allocator>
 81c1a8e:	f000 fc50 	bl	81c2332 <plus_allocator>
 81c1a92:	f7ff fa6a 	bl	81c0f6a <swap_allocator>
 81c1a96:	f7ff ffc2 	bl	81c1a1e <allocator_2store>
 81c1a9a:	bd00      	pop	{pc}

081c1a9c <Dictionary_395>:
 81c1a9c:	081c1ae0 	ldmdaeq	ip, {r5, r6, r7, r9, fp, ip}
 81c1aa0:	63020220 	movwvs	r0, #8736	; 0x2220
 81c1aa4:	 	ldmdavc	r6!, {r6}

081c1aa6 <Code_395>:
 81c1aa6:	7836      	ldrb	r6, [r6, #0]
 81c1aa8:	4770      	bx	lr

081c1aaa <allocator_1fetch>:
 81c1aaa:	b500      	push	{lr}
 81c1aac:	f7fe fd14 	bl	81c04d8 <expect_one_element>
 81c1ab0:	f847 6d04 	str.w	r6, [r7, #-4]!
 81c1ab4:	f647 0600 	movw	r6, #30720	; 0x7800
 81c1ab8:	6803      	ldr	r3, [r0, #0]
 81c1aba:	2b28      	cmp	r3, #40	; 0x28
 81c1abc:	d108      	bne.n	81c1ad0 <allocator_1fetch+0x26>
 81c1abe:	6843      	ldr	r3, [r0, #4]
 81c1ac0:	211f      	movs	r1, #31
 81c1ac2:	4019      	ands	r1, r3
 81c1ac4:	0189      	lsls	r1, r1, #6
 81c1ac6:	430e      	orrs	r6, r1
 81c1ac8:	211f      	movs	r1, #31
 81c1aca:	438b      	bics	r3, r1
 81c1acc:	f7fe fc91 	bl	81c03f2 <generiere_adresskonstante>
 81c1ad0:	00db      	lsls	r3, r3, #3
 81c1ad2:	431e      	orrs	r6, r3
 81c1ad4:	f7fe fd8a 	bl	81c05ec <tos_registerwechsel>
 81c1ad8:	431e      	orrs	r6, r3
 81c1ada:	f001 fd99 	bl	81c3610 <Code_822>
 81c1ade:	bd00      	pop	{pc}

081c1ae0 <Dictionary_398>:
 81c1ae0:	081c1b3a 	ldmdaeq	ip, {r1, r3, r4, r5, r8, r9, fp, ip}
 81c1ae4:	63020220 	movwvs	r0, #8736	; 0x2220
 81c1ae8:	 	svcgt	0x00030021

081c1aea <Code_398>:
 81c1aea:	cf03      	ldmia	r7!, {r0, r1}
 81c1aec:	7030      	strb	r0, [r6, #0]
 81c1aee:	000e      	movs	r6, r1
 81c1af0:	4770      	bx	lr

081c1af2 <allocator_1store>:
 81c1af2:	b500      	push	{lr}
 81c1af4:	f7fe fcfa 	bl	81c04ec <expect_two_elements>
 81c1af8:	f847 6d04 	str.w	r6, [r7, #-4]!
 81c1afc:	f247 0600 	movw	r6, #28672	; 0x7000
 81c1b00:	6803      	ldr	r3, [r0, #0]
 81c1b02:	2b28      	cmp	r3, #40	; 0x28
 81c1b04:	d109      	bne.n	81c1b1a <allocator_1store+0x28>
 81c1b06:	6843      	ldr	r3, [r0, #4]
 81c1b08:	211f      	movs	r1, #31
 81c1b0a:	4019      	ands	r1, r3
 81c1b0c:	0189      	lsls	r1, r1, #6
 81c1b0e:	430e      	orrs	r6, r1
 81c1b10:	211f      	movs	r1, #31
 81c1b12:	438b      	bics	r3, r1
 81c1b14:	f7fe fc6d 	bl	81c03f2 <generiere_adresskonstante>
 81c1b18:	6003      	str	r3, [r0, #0]
 81c1b1a:	00db      	lsls	r3, r3, #3
 81c1b1c:	431e      	orrs	r6, r3
 81c1b1e:	6883      	ldr	r3, [r0, #8]
 81c1b20:	2b28      	cmp	r3, #40	; 0x28
 81c1b22:	d102      	bne.n	81c1b2a <allocator_1store+0x38>
 81c1b24:	68c3      	ldr	r3, [r0, #12]
 81c1b26:	f7fe fc58 	bl	81c03da <generiere_konstante>
 81c1b2a:	431e      	orrs	r6, r3
 81c1b2c:	f001 fd70 	bl	81c3610 <Code_822>
 81c1b30:	f7fe fbd5 	bl	81c02de <eliminiere_tos>
 81c1b34:	f7fe fbd3 	bl	81c02de <eliminiere_tos>
 81c1b38:	bd00      	pop	{pc}

081c1b3a <Dictionary_401>:
 81c1b3a:	081c1b70 	ldmdaeq	ip, {r4, r5, r6, r8, r9, fp, ip}
 81c1b3e:	63030220 	movwvs	r0, #12832	; 0x3220
 81c1b42:	 	svcgt	0x0003212b

081c1b44 <Code_401>:
 81c1b44:	cf03      	ldmia	r7!, {r0, r1}
 81c1b46:	7832      	ldrb	r2, [r6, #0]
 81c1b48:	1812      	adds	r2, r2, r0
 81c1b4a:	7032      	strb	r2, [r6, #0]
 81c1b4c:	000e      	movs	r6, r1
 81c1b4e:	4770      	bx	lr
 81c1b50:	b500      	push	{lr}
 81c1b52:	f7fe fccb 	bl	81c04ec <expect_two_elements>
 81c1b56:	f7ff f9d3 	bl	81c0f00 <dup_allocator>
 81c1b5a:	f7ff ffa6 	bl	81c1aaa <allocator_1fetch>
 81c1b5e:	f7ff fa59 	bl	81c1014 <rot_allocator>
 81c1b62:	f000 fbe6 	bl	81c2332 <plus_allocator>
 81c1b66:	f7ff fa00 	bl	81c0f6a <swap_allocator>
 81c1b6a:	f7ff ffc2 	bl	81c1af2 <allocator_1store>
 81c1b6e:	bd00      	pop	{pc}

081c1b70 <Dictionary_402>:
 81c1b70:	081c1b94 	ldmdaeq	ip, {r2, r4, r7, r8, r9, fp, ip}
 81c1b74:	62040220 	andvs	r0, r4, #32, 4
 81c1b78:	00217369 	eoreq	r7, r1, r9, ror #6

081c1b7c <Code_402>:
 81c1b7c:	cf03      	ldmia	r7!, {r0, r1}
 81c1b7e:	6832      	ldr	r2, [r6, #0]
 81c1b80:	4302      	orrs	r2, r0
 81c1b82:	6032      	str	r2, [r6, #0]
 81c1b84:	000e      	movs	r6, r1
 81c1b86:	4770      	bx	lr
 81c1b88:	b500      	push	{lr}
 81c1b8a:	f847 6d04 	str.w	r6, [r7, #-4]!
 81c1b8e:	f244 3600 	movw	r6, #17152	; 0x4300
 81c1b92:	e030      	b.n	81c1bf6 <allocator_xorstore_intern>

081c1b94 <Dictionary_405>:
 81c1b94:	081c1bd4 	ldmdaeq	ip, {r2, r4, r6, r7, r8, r9, fp, ip}
 81c1b98:	62040220 	andvs	r0, r4, #32, 4
 81c1b9c:	00216369 	eoreq	r6, r1, r9, ror #6

081c1ba0 <Code_405>:
 81c1ba0:	cf03      	ldmia	r7!, {r0, r1}
 81c1ba2:	6832      	ldr	r2, [r6, #0]
 81c1ba4:	4382      	bics	r2, r0
 81c1ba6:	6032      	str	r2, [r6, #0]
 81c1ba8:	000e      	movs	r6, r1
 81c1baa:	4770      	bx	lr
 81c1bac:	b500      	push	{lr}
 81c1bae:	f7fe fc9d 	bl	81c04ec <expect_two_elements>
 81c1bb2:	f7ff f9a5 	bl	81c0f00 <dup_allocator>
 81c1bb6:	f7ff fea5 	bl	81c1904 <allocator_4fetch>
 81c1bba:	f7ff fa2b 	bl	81c1014 <rot_allocator>
 81c1bbe:	f847 6d04 	str.w	r6, [r7, #-4]!
 81c1bc2:	f244 3680 	movw	r6, #17280	; 0x4380
 81c1bc6:	f7ff fbf0 	bl	81c13aa <alloc_unkommutativ>
 81c1bca:	f7ff f9ce 	bl	81c0f6a <swap_allocator>
 81c1bce:	f7ff febc 	bl	81c194a <allocator_4store>
 81c1bd2:	bd00      	pop	{pc}

081c1bd4 <Dictionary_408>:
 81c1bd4:	081c1c14 	ldmdaeq	ip, {r2, r4, sl, fp, ip}
 81c1bd8:	78040220 	stmdavc	r4, {r5, r9}
 81c1bdc:	0021726f 	eoreq	r7, r1, pc, ror #4

081c1be0 <Code_408>:
 81c1be0:	cf03      	ldmia	r7!, {r0, r1}
 81c1be2:	6832      	ldr	r2, [r6, #0]
 81c1be4:	4042      	eors	r2, r0
 81c1be6:	6032      	str	r2, [r6, #0]
 81c1be8:	000e      	movs	r6, r1
 81c1bea:	4770      	bx	lr
 81c1bec:	b500      	push	{lr}
 81c1bee:	f847 6d04 	str.w	r6, [r7, #-4]!
 81c1bf2:	f244 0640 	movw	r6, #16448	; 0x4040

081c1bf6 <allocator_xorstore_intern>:
 81c1bf6:	f7fe fc79 	bl	81c04ec <expect_two_elements>
 81c1bfa:	f7ff f981 	bl	81c0f00 <dup_allocator>
 81c1bfe:	f7ff fe81 	bl	81c1904 <allocator_4fetch>
 81c1c02:	f7ff fa07 	bl	81c1014 <rot_allocator>
 81c1c06:	f7ff fbd4 	bl	81c13b2 <alloc_kommutativ>
 81c1c0a:	f7ff f9ae 	bl	81c0f6a <swap_allocator>
 81c1c0e:	f7ff fe9c 	bl	81c194a <allocator_4store>
 81c1c12:	bd00      	pop	{pc}

081c1c14 <Dictionary_411>:
 81c1c14:	081c1c4a 	ldmdaeq	ip, {r1, r3, r6, sl, fp, ip}
 81c1c18:	62040220 	andvs	r0, r4, #32, 4
 81c1c1c:	00407469 	subeq	r7, r0, r9, ror #8

081c1c20 <Code_411>:
 81c1c20:	cf01      	ldmia	r7!, {r0}
 81c1c22:	6836      	ldr	r6, [r6, #0]
 81c1c24:	4006      	ands	r6, r0
 81c1c26:	bf18      	it	ne
 81c1c28:	f04f 36ff 	movne.w	r6, #4294967295	; 0xffffffff
 81c1c2c:	4770      	bx	lr
 81c1c2e:	b500      	push	{lr}
 81c1c30:	f7fe fc5c 	bl	81c04ec <expect_two_elements>
 81c1c34:	f7ff fe66 	bl	81c1904 <allocator_4fetch>

081c1c38 <allocator_bitfetch_intern>:
 81c1c38:	f847 6d04 	str.w	r6, [r7, #-4]!
 81c1c3c:	f244 0600 	movw	r6, #16384	; 0x4000
 81c1c40:	f7ff fbb7 	bl	81c13b2 <alloc_kommutativ>
 81c1c44:	f7ff fc2c 	bl	81c14a0 <allocator_unequal_zero>
 81c1c48:	bd00      	pop	{pc}

081c1c4a <Dictionary_414>:
 81c1c4a:	081c1c6e 	ldmdaeq	ip, {r1, r2, r3, r5, r6, sl, fp, ip}
 81c1c4e:	68050220 	stmdavs	r5, {r5, r9}
 81c1c52:	21736962 	cmncs	r3, r2, ror #18

081c1c56 <Code_414>:
 81c1c56:	cf03      	ldmia	r7!, {r0, r1}
 81c1c58:	8832      	ldrh	r2, [r6, #0]
 81c1c5a:	4302      	orrs	r2, r0
 81c1c5c:	8032      	strh	r2, [r6, #0]
 81c1c5e:	000e      	movs	r6, r1
 81c1c60:	4770      	bx	lr
 81c1c62:	b500      	push	{lr}
 81c1c64:	f847 6d04 	str.w	r6, [r7, #-4]!
 81c1c68:	f244 3600 	movw	r6, #17152	; 0x4300
 81c1c6c:	e030      	b.n	81c1cd0 <allocator_hxorstore_intern>

081c1c6e <Dictionary_417>:
 81c1c6e:	081c1cae 	ldmdaeq	ip, {r1, r2, r3, r5, r7, sl, fp, ip}
 81c1c72:	68050220 	stmdavs	r5, {r5, r9}
 81c1c76:	21636962 	cmncs	r3, r2, ror #18

081c1c7a <Code_417>:
 81c1c7a:	cf03      	ldmia	r7!, {r0, r1}
 81c1c7c:	8832      	ldrh	r2, [r6, #0]
 81c1c7e:	4382      	bics	r2, r0
 81c1c80:	8032      	strh	r2, [r6, #0]
 81c1c82:	000e      	movs	r6, r1
 81c1c84:	4770      	bx	lr
 81c1c86:	b500      	push	{lr}
 81c1c88:	f7fe fc30 	bl	81c04ec <expect_two_elements>
 81c1c8c:	f7ff f938 	bl	81c0f00 <dup_allocator>
 81c1c90:	f7ff fea1 	bl	81c19d6 <allocator_2fetch>
 81c1c94:	f7ff f9be 	bl	81c1014 <rot_allocator>
 81c1c98:	f847 6d04 	str.w	r6, [r7, #-4]!
 81c1c9c:	f244 3680 	movw	r6, #17280	; 0x4380
 81c1ca0:	f7ff fb83 	bl	81c13aa <alloc_unkommutativ>
 81c1ca4:	f7ff f961 	bl	81c0f6a <swap_allocator>
 81c1ca8:	f7ff feb9 	bl	81c1a1e <allocator_2store>
 81c1cac:	bd00      	pop	{pc}

081c1cae <Dictionary_420>:
 81c1cae:	081c1cee 	ldmdaeq	ip, {r1, r2, r3, r5, r6, r7, sl, fp, ip}
 81c1cb2:	68050220 	stmdavs	r5, {r5, r9}
 81c1cb6:	21726f78 	cmncs	r2, r8, ror pc

081c1cba <Code_420>:
 81c1cba:	cf03      	ldmia	r7!, {r0, r1}
 81c1cbc:	8832      	ldrh	r2, [r6, #0]
 81c1cbe:	4042      	eors	r2, r0
 81c1cc0:	8032      	strh	r2, [r6, #0]
 81c1cc2:	000e      	movs	r6, r1
 81c1cc4:	4770      	bx	lr
 81c1cc6:	b500      	push	{lr}
 81c1cc8:	f847 6d04 	str.w	r6, [r7, #-4]!
 81c1ccc:	f244 0640 	movw	r6, #16448	; 0x4040

081c1cd0 <allocator_hxorstore_intern>:
 81c1cd0:	f7fe fc0c 	bl	81c04ec <expect_two_elements>
 81c1cd4:	f7ff f914 	bl	81c0f00 <dup_allocator>
 81c1cd8:	f7ff fe7d 	bl	81c19d6 <allocator_2fetch>
 81c1cdc:	f7ff f99a 	bl	81c1014 <rot_allocator>
 81c1ce0:	f7ff fb67 	bl	81c13b2 <alloc_kommutativ>
 81c1ce4:	f7ff f941 	bl	81c0f6a <swap_allocator>
 81c1ce8:	f7ff fe99 	bl	81c1a1e <allocator_2store>
 81c1cec:	bd00      	pop	{pc}

081c1cee <Dictionary_423>:
 81c1cee:	081c1d14 	ldmdaeq	ip, {r2, r4, r8, sl, fp, ip}
 81c1cf2:	68050220 	stmdavs	r5, {r5, r9}
 81c1cf6:	40746962 	rsbsmi	r6, r4, r2, ror #18

081c1cfa <Code_423>:
 81c1cfa:	cf01      	ldmia	r7!, {r0}
 81c1cfc:	8836      	ldrh	r6, [r6, #0]
 81c1cfe:	4006      	ands	r6, r0
 81c1d00:	bf18      	it	ne
 81c1d02:	f04f 36ff 	movne.w	r6, #4294967295	; 0xffffffff
 81c1d06:	4770      	bx	lr
 81c1d08:	b500      	push	{lr}
 81c1d0a:	f7fe fbef 	bl	81c04ec <expect_two_elements>
 81c1d0e:	f7ff fe62 	bl	81c19d6 <allocator_2fetch>
 81c1d12:	e791      	b.n	81c1c38 <allocator_bitfetch_intern>

081c1d14 <Dictionary_424>:
 81c1d14:	081c1d38 	ldmdaeq	ip, {r3, r4, r5, r8, sl, fp, ip}
 81c1d18:	63050220 	movwvs	r0, #21024	; 0x5220
 81c1d1c:	21736962 	cmncs	r3, r2, ror #18

081c1d20 <Code_424>:
 81c1d20:	cf03      	ldmia	r7!, {r0, r1}
 81c1d22:	7832      	ldrb	r2, [r6, #0]
 81c1d24:	4302      	orrs	r2, r0
 81c1d26:	7032      	strb	r2, [r6, #0]
 81c1d28:	000e      	movs	r6, r1
 81c1d2a:	4770      	bx	lr
 81c1d2c:	b500      	push	{lr}
 81c1d2e:	f847 6d04 	str.w	r6, [r7, #-4]!
 81c1d32:	f244 3600 	movw	r6, #17152	; 0x4300
 81c1d36:	e030      	b.n	81c1d9a <allocator_cxorstore_intern>

081c1d38 <Dictionary_427>:
 81c1d38:	081c1d78 	ldmdaeq	ip, {r3, r4, r5, r6, r8, sl, fp, ip}
 81c1d3c:	63050220 	movwvs	r0, #21024	; 0x5220
 81c1d40:	21636962 	cmncs	r3, r2, ror #18

081c1d44 <Code_427>:
 81c1d44:	cf03      	ldmia	r7!, {r0, r1}
 81c1d46:	7832      	ldrb	r2, [r6, #0]
 81c1d48:	4382      	bics	r2, r0
 81c1d4a:	7032      	strb	r2, [r6, #0]
 81c1d4c:	000e      	movs	r6, r1
 81c1d4e:	4770      	bx	lr
 81c1d50:	b500      	push	{lr}
 81c1d52:	f7fe fbcb 	bl	81c04ec <expect_two_elements>
 81c1d56:	f7ff f8d3 	bl	81c0f00 <dup_allocator>
 81c1d5a:	f7ff fea6 	bl	81c1aaa <allocator_1fetch>
 81c1d5e:	f7ff f959 	bl	81c1014 <rot_allocator>
 81c1d62:	f847 6d04 	str.w	r6, [r7, #-4]!
 81c1d66:	f244 3680 	movw	r6, #17280	; 0x4380
 81c1d6a:	f7ff fb1e 	bl	81c13aa <alloc_unkommutativ>
 81c1d6e:	f7ff f8fc 	bl	81c0f6a <swap_allocator>
 81c1d72:	f7ff febe 	bl	81c1af2 <allocator_1store>
 81c1d76:	bd00      	pop	{pc}

081c1d78 <Dictionary_430>:
 81c1d78:	081c1db8 	ldmdaeq	ip, {r3, r4, r5, r7, r8, sl, fp, ip}
 81c1d7c:	63050220 	movwvs	r0, #21024	; 0x5220
 81c1d80:	21726f78 	cmncs	r2, r8, ror pc

081c1d84 <Code_430>:
 81c1d84:	cf03      	ldmia	r7!, {r0, r1}
 81c1d86:	7832      	ldrb	r2, [r6, #0]
 81c1d88:	4042      	eors	r2, r0
 81c1d8a:	7032      	strb	r2, [r6, #0]
 81c1d8c:	000e      	movs	r6, r1
 81c1d8e:	4770      	bx	lr
 81c1d90:	b500      	push	{lr}
 81c1d92:	f847 6d04 	str.w	r6, [r7, #-4]!
 81c1d96:	f244 0640 	movw	r6, #16448	; 0x4040

081c1d9a <allocator_cxorstore_intern>:
 81c1d9a:	f7fe fba7 	bl	81c04ec <expect_two_elements>
 81c1d9e:	f7ff f8af 	bl	81c0f00 <dup_allocator>
 81c1da2:	f7ff fe82 	bl	81c1aaa <allocator_1fetch>
 81c1da6:	f7ff f935 	bl	81c1014 <rot_allocator>
 81c1daa:	f7ff fb02 	bl	81c13b2 <alloc_kommutativ>
 81c1dae:	f7ff f8dc 	bl	81c0f6a <swap_allocator>
 81c1db2:	f7ff fe9e 	bl	81c1af2 <allocator_1store>
 81c1db6:	bd00      	pop	{pc}

081c1db8 <Dictionary_433>:
 81c1db8:	081c1f02 	ldmdaeq	ip, {r1, r8, r9, sl, fp, ip}
 81c1dbc:	63050220 	movwvs	r0, #21024	; 0x5220
 81c1dc0:	40746962 	rsbsmi	r6, r4, r2, ror #18

081c1dc4 <Code_433>:
 81c1dc4:	cf01      	ldmia	r7!, {r0}
 81c1dc6:	7836      	ldrb	r6, [r6, #0]
 81c1dc8:	4006      	ands	r6, r0
 81c1dca:	bf18      	it	ne
 81c1dcc:	f04f 36ff 	movne.w	r6, #4294967295	; 0xffffffff
 81c1dd0:	4770      	bx	lr
 81c1dd2:	b500      	push	{lr}
 81c1dd4:	f7fe fb8a 	bl	81c04ec <expect_two_elements>
 81c1dd8:	f7ff fe67 	bl	81c1aaa <allocator_1fetch>
 81c1ddc:	e72c      	b.n	81c1c38 <allocator_bitfetch_intern>

081c1dde <check_flash_error>:
 81c1dde:	4ab8      	ldr	r2, [pc, #736]	; (81c20c0 <Code_459+0x44>)
 81c1de0:	6813      	ldr	r3, [r2, #0]
 81c1de2:	4ab8      	ldr	r2, [pc, #736]	; (81c20c4 <Code_459+0x48>)
 81c1de4:	4013      	ands	r3, r2
 81c1de6:	d100      	bne.n	81c1dea <check_flash_error+0xc>
 81c1de8:	4770      	bx	lr
 81c1dea:	4ab7      	ldr	r2, [pc, #732]	; (81c20c8 <Code_459+0x4c>)
 81c1dec:	4cb5      	ldr	r4, [pc, #724]	; (81c20c4 <Code_459+0x48>)
 81c1dee:	6014      	str	r4, [r2, #0]
 81c1df0:	001a      	movs	r2, r3
 81c1df2:	4770      	bx	lr

081c1df4 <wait_for_last_operation>:
 81c1df4:	b500      	push	{lr}
 81c1df6:	4ab2      	ldr	r2, [pc, #712]	; (81c20c0 <Code_459+0x44>)
 81c1df8:	6813      	ldr	r3, [r2, #0]
 81c1dfa:	f013 0304 	ands.w	r3, r3, #4
 81c1dfe:	d1fb      	bne.n	81c1df8 <wait_for_last_operation+0x4>
 81c1e00:	f7ff ffed 	bl	81c1dde <check_flash_error>
 81c1e04:	d000      	beq.n	81c1e08 <wait_for_last_operation+0x14>
 81c1e06:	bd00      	pop	{pc}
 81c1e08:	4aad      	ldr	r2, [pc, #692]	; (81c20c0 <Code_459+0x44>)
 81c1e0a:	6813      	ldr	r3, [r2, #0]
 81c1e0c:	f413 3380 	ands.w	r3, r3, #65536	; 0x10000
 81c1e10:	d004      	beq.n	81c1e1c <wait_for_last_operation+0x28>
 81c1e12:	4aad      	ldr	r2, [pc, #692]	; (81c20c8 <Code_459+0x4c>)
 81c1e14:	6813      	ldr	r3, [r2, #0]
 81c1e16:	f443 3380 	orr.w	r3, r3, #65536	; 0x10000
 81c1e1a:	6013      	str	r3, [r2, #0]
 81c1e1c:	2200      	movs	r2, #0
 81c1e1e:	bd00      	pop	{pc}

081c1e20 <flash_line>:
 81c1e20:	b51f      	push	{r0, r1, r2, r3, r4, lr}
 81c1e22:	4aaa      	ldr	r2, [pc, #680]	; (81c20cc <Code_459+0x50>)
 81c1e24:	4baa      	ldr	r3, [pc, #680]	; (81c20d0 <Code_459+0x54>)
 81c1e26:	6013      	str	r3, [r2, #0]
 81c1e28:	4baa      	ldr	r3, [pc, #680]	; (81c20d4 <Code_459+0x58>)
 81c1e2a:	6013      	str	r3, [r2, #0]
 81c1e2c:	4aaa      	ldr	r2, [pc, #680]	; (81c20d8 <Code_459+0x5c>)
 81c1e2e:	6813      	ldr	r3, [r2, #0]
 81c1e30:	f013 0301 	ands.w	r3, r3, #1
 81c1e34:	d12a      	bne.n	81c1e8c <flash_line+0x6c>
 81c1e36:	f7ff ffdd 	bl	81c1df4 <wait_for_last_operation>
 81c1e3a:	0014      	movs	r4, r2
 81c1e3c:	2c00      	cmp	r4, #0
 81c1e3e:	d136      	bne.n	81c1eae <flash_line+0x8e>
 81c1e40:	4aa5      	ldr	r2, [pc, #660]	; (81c20d8 <Code_459+0x5c>)
 81c1e42:	6814      	ldr	r4, [r2, #0]
 81c1e44:	f044 0402 	orr.w	r4, r4, #2
 81c1e48:	6014      	str	r4, [r2, #0]
 81c1e4a:	f3bf 8f6f 	isb	sy
 81c1e4e:	f3bf 8f4f 	dsb	sy
 81c1e52:	460a      	mov	r2, r1
 81c1e54:	f04f 0308 	mov.w	r3, #8
 81c1e58:	f852 1b04 	ldr.w	r1, [r2], #4
 81c1e5c:	f840 1b04 	str.w	r1, [r0], #4
 81c1e60:	3b01      	subs	r3, #1
 81c1e62:	d1f9      	bne.n	81c1e58 <flash_line+0x38>
 81c1e64:	f3bf 8f6f 	isb	sy
 81c1e68:	f3bf 8f4f 	dsb	sy
 81c1e6c:	f7ff ffc2 	bl	81c1df4 <wait_for_last_operation>
 81c1e70:	4614      	mov	r4, r2
 81c1e72:	4999      	ldr	r1, [pc, #612]	; (81c20d8 <Code_459+0x5c>)
 81c1e74:	6808      	ldr	r0, [r1, #0]
 81c1e76:	f020 0002 	bic.w	r0, r0, #2
 81c1e7a:	6008      	str	r0, [r1, #0]
 81c1e7c:	4a96      	ldr	r2, [pc, #600]	; (81c20d8 <Code_459+0x5c>)
 81c1e7e:	6811      	ldr	r1, [r2, #0]
 81c1e80:	f041 0101 	orr.w	r1, r1, #1
 81c1e84:	6011      	str	r1, [r2, #0]
 81c1e86:	2c00      	cmp	r4, #0
 81c1e88:	d111      	bne.n	81c1eae <flash_line+0x8e>
 81c1e8a:	bd1f      	pop	{r0, r1, r2, r3, r4, pc}
 81c1e8c:	f000 fe4e 	bl	81c2b2c <dotgaensefuesschen>
 81c1e90:	72724518 	rsbsvc	r4, r2, #24, 10	; 0x6000000
 81c1e94:	3120726f 			; <UNDEFINED> instruction: 0x3120726f
 81c1e98:	69727720 	ldmdbvs	r2!, {r5, r8, r9, sl, ip, sp, lr}^
 81c1e9c:	676e6974 			; <UNDEFINED> instruction: 0x676e6974
 81c1ea0:	616c6620 	cmnvs	ip, r0, lsr #12
 81c1ea4:	21206873 			; <UNDEFINED> instruction: 0x21206873
 81c1ea8:	f002000a 			; <UNDEFINED> instruction: 0xf002000a
 81c1eac:	be29      	bkpt	0x0029
 81c1eae:	f847 6d04 	str.w	r6, [r7, #-4]!
 81c1eb2:	4626      	mov	r6, r4
 81c1eb4:	f000 fea2 	bl	81c2bfc <Code_674>
 81c1eb8:	f000 fe38 	bl	81c2b2c <dotgaensefuesschen>
 81c1ebc:	72724518 	rsbsvc	r4, r2, #24, 10	; 0x6000000
 81c1ec0:	3220726f 	eorcc	r7, r0, #-268435450	; 0xf0000006
 81c1ec4:	69727720 	ldmdbvs	r2!, {r5, r8, r9, sl, ip, sp, lr}^
 81c1ec8:	676e6974 			; <UNDEFINED> instruction: 0x676e6974
 81c1ecc:	616c6620 	cmnvs	ip, r0, lsr #12
 81c1ed0:	21206873 			; <UNDEFINED> instruction: 0x21206873
 81c1ed4:	f002000a 			; <UNDEFINED> instruction: 0xf002000a
 81c1ed8:	be13      	bkpt	0x0013

081c1eda <hexflashstore_fehler>:
 81c1eda:	f000 fe27 	bl	81c2b2c <dotgaensefuesschen>
 81c1ede:	616c461e 	cmnvs	ip, lr, lsl r6
 81c1ee2:	63206873 			; <UNDEFINED> instruction: 0x63206873
 81c1ee6:	6f6e6e61 	svcvs	0x006e6e61
 81c1eea:	65622074 	strbvs	r2, [r2, #-116]!	; 0xffffff8c
 81c1eee:	69727720 	ldmdbvs	r2!, {r5, r8, r9, sl, ip, sp, lr}^
 81c1ef2:	6e657474 	mcrvs	4, 3, r7, cr5, cr4, {3}
 81c1ef6:	69777420 	ldmdbvs	r7!, {r5, sl, ip, sp, lr}^
 81c1efa:	000a6563 	andeq	r6, sl, r3, ror #10
 81c1efe:	f002 bdff 	b.w	81c4b00 <Code_1197>

081c1f02 <Dictionary_438>:
 81c1f02:	081c1f7e 	ldmdaeq	ip, {r1, r2, r3, r4, r5, r6, r8, r9, sl, fp, ip}
 81c1f06:	33080000 	movwcc	r0, #32768	; 0x8000
 81c1f0a:	616c6632 	cmnvs	ip, r2, lsr r6
 81c1f0e:	00216873 	eoreq	r6, r1, r3, ror r8

081c1f12 <Code_438>:
 81c1f12:	b50f      	push	{r0, r1, r2, r3, lr}
 81c1f14:	201f      	movs	r0, #31
 81c1f16:	4030      	ands	r0, r6
 81c1f18:	d015      	beq.n	81c1f46 <Code_438+0x34>
 81c1f1a:	f000 fe07 	bl	81c2b2c <dotgaensefuesschen>
 81c1f1e:	66323322 	ldrtvs	r3, [r2], -r2, lsr #6
 81c1f22:	6873616c 	ldmdavs	r3!, {r2, r3, r5, r6, r8, sp, lr}^
 81c1f26:	656e2021 	strbvs	r2, [lr, #-33]!	; 0xffffffdf
 81c1f2a:	20736465 	rsbscs	r6, r3, r5, ror #8
 81c1f2e:	612d3233 			; <UNDEFINED> instruction: 0x612d3233
 81c1f32:	6e67696c 	vnmulvs.f16	s13, s14, s25	; <UNPREDICTABLE>
 81c1f36:	61206465 			; <UNDEFINED> instruction: 0x61206465
 81c1f3a:	65726464 	ldrbvs	r6, [r2, #-1124]!	; 0xfffffb9c
 81c1f3e:	000a7373 	andeq	r7, sl, r3, ror r3
 81c1f42:	f002 bddd 	b.w	81c4b00 <Code_1197>
 81c1f46:	6830      	ldr	r0, [r6, #0]
 81c1f48:	3001      	adds	r0, #1
 81c1f4a:	d1c6      	bne.n	81c1eda <hexflashstore_fehler>
 81c1f4c:	6870      	ldr	r0, [r6, #4]
 81c1f4e:	3001      	adds	r0, #1
 81c1f50:	d1c3      	bne.n	81c1eda <hexflashstore_fehler>
 81c1f52:	0030      	movs	r0, r6
 81c1f54:	cf40      	ldmia	r7!, {r6}
 81c1f56:	4961      	ldr	r1, [pc, #388]	; (81c20dc <Code_459+0x60>)
 81c1f58:	61ce      	str	r6, [r1, #28]
 81c1f5a:	cf40      	ldmia	r7!, {r6}
 81c1f5c:	618e      	str	r6, [r1, #24]
 81c1f5e:	cf40      	ldmia	r7!, {r6}
 81c1f60:	614e      	str	r6, [r1, #20]
 81c1f62:	cf40      	ldmia	r7!, {r6}
 81c1f64:	610e      	str	r6, [r1, #16]
 81c1f66:	cf40      	ldmia	r7!, {r6}
 81c1f68:	60ce      	str	r6, [r1, #12]
 81c1f6a:	cf40      	ldmia	r7!, {r6}
 81c1f6c:	608e      	str	r6, [r1, #8]
 81c1f6e:	cf40      	ldmia	r7!, {r6}
 81c1f70:	604e      	str	r6, [r1, #4]
 81c1f72:	cf40      	ldmia	r7!, {r6}
 81c1f74:	600e      	str	r6, [r1, #0]
 81c1f76:	cf40      	ldmia	r7!, {r6}
 81c1f78:	f7ff ff52 	bl	81c1e20 <flash_line>
 81c1f7c:	bd0f      	pop	{r0, r1, r2, r3, pc}

081c1f7e <Dictionary_449>:
 81c1f7e:	081c206a 	ldmdaeq	ip, {r1, r3, r5, r6, sp}
 81c1f82:	65100000 	ldrvs	r0, [r0, #-0]
 81c1f86:	65736172 	ldrbvs	r6, [r3, #-370]!	; 0xfffffe8e
 81c1f8a:	73616c66 	cmnvc	r1, #26112	; 0x6600
 81c1f8e:	63657368 	cmnvs	r5, #104, 6	; 0xa0000001
 81c1f92:	00726f74 	rsbseq	r6, r2, r4, ror pc

081c1f96 <Code_449>:
 81c1f96:	b500      	push	{lr}
 81c1f98:	2e01      	cmp	r6, #1
 81c1f9a:	d364      	bcc.n	81c2066 <Code_449+0xd0>
 81c1f9c:	2e08      	cmp	r6, #8
 81c1f9e:	d262      	bcs.n	81c2066 <Code_449+0xd0>
 81c1fa0:	4a4a      	ldr	r2, [pc, #296]	; (81c20cc <Code_459+0x50>)
 81c1fa2:	4b4b      	ldr	r3, [pc, #300]	; (81c20d0 <Code_459+0x54>)
 81c1fa4:	6013      	str	r3, [r2, #0]
 81c1fa6:	4b4b      	ldr	r3, [pc, #300]	; (81c20d4 <Code_459+0x58>)
 81c1fa8:	6013      	str	r3, [r2, #0]
 81c1faa:	f000 fdbf 	bl	81c2b2c <dotgaensefuesschen>
 81c1fae:	6172450d 	cmnvs	r2, sp, lsl #10
 81c1fb2:	73206573 			; <UNDEFINED> instruction: 0x73206573
 81c1fb6:	6f746365 	svcvs	0x00746365
 81c1fba:	f8472072 			; <UNDEFINED> instruction: 0xf8472072
 81c1fbe:	6d04      	ldr	r4, [r0, #80]	; 0x50
 81c1fc0:	f002 fbf5 	bl	81c47ae <Code_1132>
 81c1fc4:	f7ff ff16 	bl	81c1df4 <wait_for_last_operation>
 81c1fc8:	2a00      	cmp	r2, #0
 81c1fca:	d018      	beq.n	81c1ffe <Code_449+0x68>
 81c1fcc:	f847 6d04 	str.w	r6, [r7, #-4]!
 81c1fd0:	4616      	mov	r6, r2
 81c1fd2:	f000 fe13 	bl	81c2bfc <Code_674>
 81c1fd6:	f000 fda9 	bl	81c2b2c <dotgaensefuesschen>
 81c1fda:	6e49201e 	mcrvs	0, 2, r2, cr9, cr14, {0}
 81c1fde:	61697469 	cmnvs	r9, r9, ror #8
 81c1fe2:	6c46206c 	mcrrvs	0, 6, r2, r6, cr12
 81c1fe6:	20687361 	rsbcs	r7, r8, r1, ror #6
 81c1fea:	6f727265 	svcvs	0x00727265
 81c1fee:	65642072 	strbvs	r2, [r4, #-114]!	; 0xffffff8e
 81c1ff2:	74636574 	strbtvc	r6, [r3], #-1396	; 0xfffffa8c
 81c1ff6:	000a6465 	andeq	r6, sl, r5, ror #8
 81c1ffa:	f002 bd81 	b.w	81c4b00 <Code_1197>
 81c1ffe:	4a36      	ldr	r2, [pc, #216]	; (81c20d8 <Code_459+0x5c>)
 81c2000:	6813      	ldr	r3, [r2, #0]
 81c2002:	f403 63e6 	and.w	r3, r3, #1840	; 0x730
 81c2006:	f053 03b4 	orrs.w	r3, r3, #180	; 0xb4
 81c200a:	0236      	lsls	r6, r6, #8
 81c200c:	4333      	orrs	r3, r6
 81c200e:	6013      	str	r3, [r2, #0]
 81c2010:	f7ff fef0 	bl	81c1df4 <wait_for_last_operation>
 81c2014:	4614      	mov	r4, r2
 81c2016:	4a30      	ldr	r2, [pc, #192]	; (81c20d8 <Code_459+0x5c>)
 81c2018:	6813      	ldr	r3, [r2, #0]
 81c201a:	f240 7104 	movw	r1, #1796	; 0x704
 81c201e:	ea03 0301 	and.w	r3, r3, r1
 81c2022:	6013      	str	r3, [r2, #0]
 81c2024:	f053 0301 	orrs.w	r3, r3, #1
 81c2028:	6013      	str	r3, [r2, #0]
 81c202a:	2c00      	cmp	r4, #0
 81c202c:	d012      	beq.n	81c2054 <Code_449+0xbe>
 81c202e:	f847 6d04 	str.w	r6, [r7, #-4]!
 81c2032:	4626      	mov	r6, r4
 81c2034:	f000 fde2 	bl	81c2bfc <Code_674>
 81c2038:	f000 fd78 	bl	81c2b2c <dotgaensefuesschen>
 81c203c:	6c462013 	mcrrvs	0, 1, r2, r6, cr3
 81c2040:	20687361 	rsbcs	r7, r8, r1, ror #6
 81c2044:	73617265 	cmnvc	r1, #1342177286	; 0x50000006
 81c2048:	72652065 	rsbvc	r2, r5, #101	; 0x65
 81c204c:	0a726f72 	beq	9e5de1c <FlashDictionaryEnde+0x1c5de1c>
 81c2050:	f002 bd56 	b.w	81c4b00 <Code_1197>
 81c2054:	f000 fd6a 	bl	81c2b2c <dotgaensefuesschen>
 81c2058:	6f72660c 	svcvs	0x0072660c
 81c205c:	6c46206d 	mcrrvs	0, 6, r2, r6, cr13
 81c2060:	2e687361 	cdpcs	3, 6, cr7, cr8, cr1, {3}
 81c2064:	cf40000a 	svcgt	0x0040000a
 81c2068:	bd00      	pop	{pc}

081c206a <Dictionary_459>:
 81c206a:	081c20e8 	ldmdaeq	ip, {r3, r5, r6, r7, sp}
 81c206e:	650a0000 	strvs	r0, [sl, #-0]
 81c2072:	65736172 	ldrbvs	r6, [r3, #-370]!	; 0xfffffe8e
 81c2076:	73616c66 	cmnvc	r1, #26112	; 0x6600
 81c207a:	 	ldrbtlt	r0, [r2], -r8, rrx

081c207c <Code_459>:
 81c207c:	b672      	cpsid	i
 81c207e:	b500      	push	{lr}
 81c2080:	4817      	ldr	r0, [pc, #92]	; (81c20e0 <Code_459+0x64>)
 81c2082:	4918      	ldr	r1, [pc, #96]	; (81c20e4 <Code_459+0x68>)
 81c2084:	6802      	ldr	r2, [r0, #0]
 81c2086:	f1b2 3fff 	cmp.w	r2, #4294967295	; 0xffffffff
 81c208a:	d005      	beq.n	81c2098 <Code_459+0x1c>
 81c208c:	f847 6d04 	str.w	r6, [r7, #-4]!
 81c2090:	2607      	movs	r6, #7
 81c2092:	f7ff ff80 	bl	81c1f96 <Code_449>
 81c2096:	e002      	b.n	81c209e <Code_459+0x22>
 81c2098:	3004      	adds	r0, #4
 81c209a:	4288      	cmp	r0, r1
 81c209c:	d3f2      	bcc.n	81c2084 <Code_459+0x8>
 81c209e:	f000 fd45 	bl	81c2b2c <dotgaensefuesschen>
 81c20a2:	6e694612 	mcrvs	6, 3, r4, cr9, cr2, {0}
 81c20a6:	65687369 	strbvs	r7, [r8, #-873]!	; 0xfffffc97
 81c20aa:	52202e64 	eorpl	r2, r0, #100, 28	; 0x640
 81c20ae:	74657365 	strbtvc	r7, [r5], #-869	; 0xfffffc9b
 81c20b2:	000a2120 	andeq	r2, sl, r0, lsr #2
 81c20b6:	f85d eb04 	ldr.w	lr, [sp], #4
 81c20ba:	f002 bdb2 	b.w	81c4c22 <Code_1210>
 81c20be:	21100000 	tstcs	r0, r0
 81c20c2:	00005200 	andeq	r5, r0, r0, lsl #4
 81c20c6:	211407ee 	tstcs	r4, lr, ror #15
 81c20ca:	21045200 	mrscs	r5, R12_usr
 81c20ce:	01235200 			; <UNDEFINED> instruction: 0x01235200
 81c20d2:	89ab4567 	stmibhi	fp!, {r0, r1, r2, r5, r6, r8, sl, lr}
 81c20d6:	210ccdef 	smlattcs	ip, pc, sp, ip
 81c20da:	04005200 	streq	r5, [r0], #-512	; 0xfffffe00
 81c20de:	00003800 	andeq	r3, r0, r0, lsl #16
 81c20e2:	ffff081e 			; <UNDEFINED> instruction: 0xffff081e
 81c20e6:	 	tstcs	sl, pc, lsl r8

081c20e8 <Dictionary_464>:
 81c20e8:	081c210a 	ldmdaeq	ip, {r1, r3, r8, sp}
 81c20ec:	69090000 	stmdbvs	r9, {}	; <UNPREDICTABLE>
 81c20f0:	6674696e 	ldrbtvs	r6, [r4], -lr, ror #18
 81c20f4:	6873616c 	ldmdavs	r3!, {r2, r3, r5, r6, r8, sp, lr}^

081c20f8 <Code_464>:
 81c20f8:	4888      	ldr	r0, [pc, #544]	; (81c231c <flushblock+0x44>)
 81c20fa:	f44f 6190 	mov.w	r1, #1152	; 0x480
 81c20fe:	2200      	movs	r2, #0
 81c2100:	7002      	strb	r2, [r0, #0]
 81c2102:	3001      	adds	r0, #1
 81c2104:	3901      	subs	r1, #1
 81c2106:	d1fb      	bne.n	81c2100 <Code_464+0x8>
 81c2108:	4770      	bx	lr

081c210a <Dictionary_465>:
 81c210a:	081c21bc 	ldmdaeq	ip, {r2, r3, r4, r5, r7, r8, sp}
 81c210e:	73070000 	movwvc	r0, #28672	; 0x7000
 81c2112:	6c616d74 	stclvs	13, cr6, [r1], #-464	; 0xfffffe30
 81c2116:	 	strlt	r6, [r0, #-3685]	; 0xfffff19b

081c2118 <Code_465>:
 81c2118:	b500      	push	{lr}
 81c211a:	4880      	ldr	r0, [pc, #512]	; (81c231c <flushblock+0x44>)
 81c211c:	2120      	movs	r1, #32
 81c211e:	b403      	push	{r0, r1}
 81c2120:	f000 fd04 	bl	81c2b2c <dotgaensefuesschen>
 81c2124:	0a3e2003 	beq	914a138 <FlashDictionaryEnde+0xf4a138>
 81c2128:	bc03      	pop	{r0, r1}
 81c212a:	f847 6d04 	str.w	r6, [r7, #-4]!
 81c212e:	6806      	ldr	r6, [r0, #0]
 81c2130:	b403      	push	{r0, r1}
 81c2132:	f000 fcfb 	bl	81c2b2c <dotgaensefuesschen>
 81c2136:	72644109 	rsbvc	r4, r4, #1073741826	; 0x40000002
 81c213a:	65737365 	ldrbvs	r7, [r3, #-869]!	; 0xfffffc9b
 81c213e:	bc03203a 	stclt	0, cr2, [r3], {58}	; 0x3a
 81c2142:	f000 fd5b 	bl	81c2bfc <Code_674>
 81c2146:	b403      	push	{r0, r1}
 81c2148:	f000 fcf0 	bl	81c2b2c <dotgaensefuesschen>
 81c214c:	686e4908 	stmdavs	lr!, {r3, r8, fp, lr}^
 81c2150:	3a746c61 	bcc	9edd2dc <FlashDictionaryEnde+0x1cdd2dc>
 81c2154:	bc030020 	stclt	0, cr0, [r3], {32}
 81c2158:	f847 6d04 	str.w	r6, [r7, #-4]!
 81c215c:	6846      	ldr	r6, [r0, #4]
 81c215e:	f000 fd4d 	bl	81c2bfc <Code_674>
 81c2162:	f847 6d04 	str.w	r6, [r7, #-4]!
 81c2166:	6886      	ldr	r6, [r0, #8]
 81c2168:	f000 fd48 	bl	81c2bfc <Code_674>
 81c216c:	f847 6d04 	str.w	r6, [r7, #-4]!
 81c2170:	68c6      	ldr	r6, [r0, #12]
 81c2172:	f000 fd43 	bl	81c2bfc <Code_674>
 81c2176:	f847 6d04 	str.w	r6, [r7, #-4]!
 81c217a:	6906      	ldr	r6, [r0, #16]
 81c217c:	f000 fd3e 	bl	81c2bfc <Code_674>
 81c2180:	f847 6d04 	str.w	r6, [r7, #-4]!
 81c2184:	6946      	ldr	r6, [r0, #20]
 81c2186:	f000 fd39 	bl	81c2bfc <Code_674>
 81c218a:	f847 6d04 	str.w	r6, [r7, #-4]!
 81c218e:	6986      	ldr	r6, [r0, #24]
 81c2190:	f000 fd34 	bl	81c2bfc <Code_674>
 81c2194:	f847 6d04 	str.w	r6, [r7, #-4]!
 81c2198:	69c6      	ldr	r6, [r0, #28]
 81c219a:	f000 fd2f 	bl	81c2bfc <Code_674>
 81c219e:	f847 6d04 	str.w	r6, [r7, #-4]!
 81c21a2:	6a06      	ldr	r6, [r0, #32]
 81c21a4:	f000 fd2a 	bl	81c2bfc <Code_674>
 81c21a8:	b403      	push	{r0, r1}
 81c21aa:	f000 fcbf 	bl	81c2b2c <dotgaensefuesschen>
 81c21ae:	0a3e2003 	beq	914a1c2 <FlashDictionaryEnde+0xf4a1c2>
 81c21b2:	bc03      	pop	{r0, r1}
 81c21b4:	3024      	adds	r0, #36	; 0x24
 81c21b6:	3901      	subs	r1, #1
 81c21b8:	d1b7      	bne.n	81c212a <Code_465+0x12>
 81c21ba:	bd00      	pop	{pc}

081c21bc <Dictionary_479>:
 81c21bc:	081c22aa 	ldmdaeq	ip, {r1, r3, r5, r7, r9, sp}
 81c21c0:	68070000 	stmdavs	r7, {}	; <UNPREDICTABLE>
 81c21c4:	73616c66 	cmnvc	r1, #26112	; 0x6600
 81c21c8:	 	ldrlt	r2, [r0, #-360]!	; 0xfffffe98

081c21ca <Code_479>:
 81c21ca:	b530      	push	{r4, r5, lr}
 81c21cc:	0032      	movs	r2, r6
 81c21ce:	cf40      	ldmia	r7!, {r6}
 81c21d0:	0850      	lsrs	r0, r2, #1
 81c21d2:	d313      	bcc.n	81c21fc <Code_479+0x32>
 81c21d4:	f000 fcaa 	bl	81c2b2c <dotgaensefuesschen>
 81c21d8:	6c66681e 	stclvs	8, cr6, [r6], #-120	; 0xffffff88
 81c21dc:	21687361 	cmncs	r8, r1, ror #6
 81c21e0:	65656e20 	strbvs	r6, [r5, #-3616]!	; 0xfffff1e0
 81c21e4:	65207364 	strvs	r7, [r0, #-868]!	; 0xfffffc9c
 81c21e8:	206e6576 	rsbcs	r6, lr, r6, ror r5
 81c21ec:	72646461 	rsbvc	r6, r4, #1627389952	; 0x61000000
 81c21f0:	65737365 	ldrbvs	r7, [r3, #-869]!	; 0xfffffc9b
 81c21f4:	000a2e73 	andeq	r2, sl, r3, ror lr
 81c21f8:	f002 bc82 	b.w	81c4b00 <Code_1197>
 81c21fc:	4b48      	ldr	r3, [pc, #288]	; (81c2320 <flushblock+0x48>)
 81c21fe:	429a      	cmp	r2, r3
 81c2200:	d210      	bcs.n	81c2224 <Code_479+0x5a>
 81c2202:	f000 fc93 	bl	81c2b2c <dotgaensefuesschen>
 81c2206:	6e614319 	mcrvs	3, 3, r4, cr1, cr9, {0}
 81c220a:	20746f6e 	rsbscs	r6, r4, lr, ror #30
 81c220e:	74697277 	strbtvc	r7, [r9], #-631	; 0xfffffd89
 81c2212:	6e692065 	cdpvs	0, 6, cr2, cr9, cr5, {3}
 81c2216:	63206f74 			; <UNDEFINED> instruction: 0x63206f74
 81c221a:	2065726f 	rsbcs	r7, r5, pc, ror #4
 81c221e:	f0020a21 			; <UNDEFINED> instruction: 0xf0020a21
 81c2222:	bc6e      	pop	{r1, r2, r3, r5, r6}
 81c2224:	0953      	lsrs	r3, r2, #5
 81c2226:	483d      	ldr	r0, [pc, #244]	; (81c231c <flushblock+0x44>)
 81c2228:	2120      	movs	r1, #32
 81c222a:	6804      	ldr	r4, [r0, #0]
 81c222c:	0964      	lsrs	r4, r4, #5
 81c222e:	429c      	cmp	r4, r3
 81c2230:	d02a      	beq.n	81c2288 <hflashstoreemulation_gefunden>
 81c2232:	3024      	adds	r0, #36	; 0x24
 81c2234:	3901      	subs	r1, #1
 81c2236:	d1f8      	bne.n	81c222a <Code_479+0x60>
 81c2238:	4838      	ldr	r0, [pc, #224]	; (81c231c <flushblock+0x44>)
 81c223a:	2120      	movs	r1, #32
 81c223c:	6804      	ldr	r4, [r0, #0]
 81c223e:	2c00      	cmp	r4, #0
 81c2240:	d017      	beq.n	81c2272 <hflashstoreemulation_leerestelle>
 81c2242:	3024      	adds	r0, #36	; 0x24
 81c2244:	3901      	subs	r1, #1
 81c2246:	d1f9      	bne.n	81c223c <Code_479+0x72>
 81c2248:	f000 fc70 	bl	81c2b2c <dotgaensefuesschen>
 81c224c:	6f6f5421 	svcvs	0x006f5421
 81c2250:	6e616d20 	cdpvs	13, 6, cr6, cr1, cr0, {1}
 81c2254:	63732079 	cmnvs	r3, #121	; 0x79
 81c2258:	65747461 	ldrbvs	r7, [r4, #-1121]!	; 0xfffffb9f
 81c225c:	20646572 	rsbcs	r6, r4, r2, ror r5
 81c2260:	73616c46 	cmnvc	r1, #17920	; 0x4600
 81c2264:	72772068 	rsbsvc	r2, r7, #104	; 0x68
 81c2268:	73657469 	cmnvc	r5, #1761607680	; 0x69000000
 81c226c:	f0020a2e 			; <UNDEFINED> instruction: 0xf0020a2e
 81c2270:	bc47      	pop	{r0, r1, r2, r6}

081c2272 <hflashstoreemulation_leerestelle>:
 81c2272:	015b      	lsls	r3, r3, #5
 81c2274:	6003      	str	r3, [r0, #0]
 81c2276:	3901      	subs	r1, #1
 81c2278:	6041      	str	r1, [r0, #4]
 81c227a:	6081      	str	r1, [r0, #8]
 81c227c:	60c1      	str	r1, [r0, #12]
 81c227e:	6101      	str	r1, [r0, #16]
 81c2280:	6141      	str	r1, [r0, #20]
 81c2282:	6181      	str	r1, [r0, #24]
 81c2284:	61c1      	str	r1, [r0, #28]
 81c2286:	6201      	str	r1, [r0, #32]

081c2288 <hflashstoreemulation_gefunden>:
 81c2288:	211f      	movs	r1, #31
 81c228a:	4011      	ands	r1, r2
 81c228c:	3104      	adds	r1, #4
 81c228e:	5246      	strh	r6, [r0, r1]
 81c2290:	cf40      	ldmia	r7!, {r6}
 81c2292:	6801      	ldr	r1, [r0, #0]
 81c2294:	3101      	adds	r1, #1
 81c2296:	6001      	str	r1, [r0, #0]
 81c2298:	221f      	movs	r2, #31
 81c229a:	4011      	ands	r1, r2
 81c229c:	2910      	cmp	r1, #16
 81c229e:	d103      	bne.n	81c22a8 <hflashstoreemulation_fertig>
 81c22a0:	f000 f81a 	bl	81c22d8 <flushblock>
 81c22a4:	f7ff fe35 	bl	81c1f12 <Code_438>

081c22a8 <hflashstoreemulation_fertig>:
 81c22a8:	bd30      	pop	{r4, r5, pc}

081c22aa <Dictionary_485>:
 81c22aa:	081c2324 	ldmdaeq	ip, {r2, r5, r8, r9, sp}
 81c22ae:	660a0000 	strvs	r0, [sl], -r0
 81c22b2:	6873756c 	ldmdavs	r3!, {r2, r3, r5, r6, r8, sl, ip, sp, lr}^
 81c22b6:	73616c66 	cmnvc	r1, #26112	; 0x6600
 81c22ba:	 	strlt	r0, [r0, #-104]	; 0xffffff98

081c22bc <Code_485>:
 81c22bc:	b500      	push	{lr}
 81c22be:	4817      	ldr	r0, [pc, #92]	; (81c231c <flushblock+0x44>)
 81c22c0:	2120      	movs	r1, #32
 81c22c2:	6802      	ldr	r2, [r0, #0]
 81c22c4:	2a00      	cmp	r2, #0
 81c22c6:	d003      	beq.n	81c22d0 <Code_485+0x14>
 81c22c8:	f000 f806 	bl	81c22d8 <flushblock>
 81c22cc:	f7ff fe21 	bl	81c1f12 <Code_438>
 81c22d0:	3024      	adds	r0, #36	; 0x24
 81c22d2:	3901      	subs	r1, #1
 81c22d4:	d1f5      	bne.n	81c22c2 <Code_485+0x6>
 81c22d6:	bd00      	pop	{pc}

081c22d8 <flushblock>:
 81c22d8:	f847 6d04 	str.w	r6, [r7, #-4]!
 81c22dc:	6846      	ldr	r6, [r0, #4]
 81c22de:	f847 6d04 	str.w	r6, [r7, #-4]!
 81c22e2:	6886      	ldr	r6, [r0, #8]
 81c22e4:	f847 6d04 	str.w	r6, [r7, #-4]!
 81c22e8:	68c6      	ldr	r6, [r0, #12]
 81c22ea:	f847 6d04 	str.w	r6, [r7, #-4]!
 81c22ee:	6906      	ldr	r6, [r0, #16]
 81c22f0:	f847 6d04 	str.w	r6, [r7, #-4]!
 81c22f4:	6946      	ldr	r6, [r0, #20]
 81c22f6:	f847 6d04 	str.w	r6, [r7, #-4]!
 81c22fa:	6986      	ldr	r6, [r0, #24]
 81c22fc:	f847 6d04 	str.w	r6, [r7, #-4]!
 81c2300:	69c6      	ldr	r6, [r0, #28]
 81c2302:	f847 6d04 	str.w	r6, [r7, #-4]!
 81c2306:	6a06      	ldr	r6, [r0, #32]
 81c2308:	f847 6d04 	str.w	r6, [r7, #-4]!
 81c230c:	261f      	movs	r6, #31
 81c230e:	43f6      	mvns	r6, r6
 81c2310:	6802      	ldr	r2, [r0, #0]
 81c2312:	4016      	ands	r6, r2
 81c2314:	2200      	movs	r2, #0
 81c2316:	6002      	str	r2, [r0, #0]
 81c2318:	4770      	bx	lr
 81c231a:	0b880000 	bleq	63c2322 <stack_canary+0x22a099d>
 81c231e:	00003800 	andeq	r3, r0, r0, lsl #16
 81c2322:	 	cmpcs	sl, #1966080	; 0x1e0000

081c2324 <Dictionary_495>:
 81c2324:	081c235a 	ldmdaeq	ip, {r1, r3, r4, r6, r8, r9, sp}
 81c2328:	2b010262 	blcs	8202cb8 <FlashDictionaryEnde+0x2cb8>

081c232c <Code_495>:
 81c232c:	cf01      	ldmia	r7!, {r0}
 81c232e:	1836      	adds	r6, r6, r0
 81c2330:	4770      	bx	lr

081c2332 <plus_allocator>:
 81c2332:	b500      	push	{lr}
 81c2334:	f7fe f8da 	bl	81c04ec <expect_two_elements>
 81c2338:	f847 6d04 	str.w	r6, [r7, #-4]!
 81c233c:	f243 0600 	movw	r6, #12288	; 0x3000
 81c2340:	f847 6d04 	str.w	r6, [r7, #-4]!
 81c2344:	4ec9      	ldr	r6, [pc, #804]	; (81c266c <Code_567+0x8>)
 81c2346:	f847 6d04 	str.w	r6, [r7, #-4]!
 81c234a:	f641 0600 	movw	r6, #6144	; 0x1800
 81c234e:	6881      	ldr	r1, [r0, #8]
 81c2350:	2928      	cmp	r1, #40	; 0x28
 81c2352:	d117      	bne.n	81c2384 <minus_allocator+0x1c>
 81c2354:	f7fe fe09 	bl	81c0f6a <swap_allocator>
 81c2358:	e014      	b.n	81c2384 <minus_allocator+0x1c>

081c235a <Dictionary_501>:
 81c235a:	081c2400 	ldmdaeq	ip, {sl, sp}
 81c235e:	2d010262 	sfmcs	f0, 4, [r1, #-392]	; 0xfffffe78

081c2362 <Code_501>:
 81c2362:	cf01      	ldmia	r7!, {r0}
 81c2364:	1b86      	subs	r6, r0, r6
 81c2366:	4770      	bx	lr

081c2368 <minus_allocator>:
 81c2368:	b500      	push	{lr}
 81c236a:	f7fe f8bf 	bl	81c04ec <expect_two_elements>
 81c236e:	f847 6d04 	str.w	r6, [r7, #-4]!
 81c2372:	f643 0600 	movw	r6, #14336	; 0x3800
 81c2376:	f847 6d04 	str.w	r6, [r7, #-4]!
 81c237a:	4ebd      	ldr	r6, [pc, #756]	; (81c2670 <Code_567+0xc>)
 81c237c:	f847 6d04 	str.w	r6, [r7, #-4]!
 81c2380:	f641 2600 	movw	r6, #6656	; 0x1a00
 81c2384:	f7fe f8ee 	bl	81c0564 <expect_nos_in_register>
 81c2388:	6801      	ldr	r1, [r0, #0]
 81c238a:	2928      	cmp	r1, #40	; 0x28
 81c238c:	d127      	bne.n	81c23de <minus_allocator+0x76>
 81c238e:	6841      	ldr	r1, [r0, #4]
 81c2390:	29ff      	cmp	r1, #255	; 0xff
 81c2392:	d80c      	bhi.n	81c23ae <minus_allocator+0x46>
 81c2394:	cf40      	ldmia	r7!, {r6}
 81c2396:	cf40      	ldmia	r7!, {r6}
 81c2398:	f7fe f8f8 	bl	81c058c <nos_change_tos_away_later>
 81c239c:	430e      	orrs	r6, r1
 81c239e:	6881      	ldr	r1, [r0, #8]
 81c23a0:	0209      	lsls	r1, r1, #8
 81c23a2:	430e      	orrs	r6, r1
 81c23a4:	f001 f934 	bl	81c3610 <Code_822>
 81c23a8:	f7fd ff99 	bl	81c02de <eliminiere_tos>
 81c23ac:	bd00      	pop	{pc}
 81c23ae:	f847 6d04 	str.w	r6, [r7, #-4]!
 81c23b2:	000e      	movs	r6, r1
 81c23b4:	f000 fd1e 	bl	81c2df4 <Code_711>
 81c23b8:	cf02      	ldmia	r7!, {r1}
 81c23ba:	2e00      	cmp	r6, #0
 81c23bc:	cf40      	ldmia	r7!, {r6}
 81c23be:	d00e      	beq.n	81c23de <minus_allocator+0x76>
 81c23c0:	cf40      	ldmia	r7!, {r6}
 81c23c2:	3704      	adds	r7, #4
 81c23c4:	430e      	orrs	r6, r1
 81c23c6:	6881      	ldr	r1, [r0, #8]
 81c23c8:	ea56 4601 	orrs.w	r6, r6, r1, lsl #16
 81c23cc:	f7fd ff87 	bl	81c02de <eliminiere_tos>
 81c23d0:	f7fe f90c 	bl	81c05ec <tos_registerwechsel>
 81c23d4:	ea56 2603 	orrs.w	r6, r6, r3, lsl #8
 81c23d8:	f001 f949 	bl	81c366e <Code_831>
 81c23dc:	bd00      	pop	{pc}
 81c23de:	3704      	adds	r7, #4
 81c23e0:	3704      	adds	r7, #4
 81c23e2:	f7fe f8b5 	bl	81c0550 <expect_tos_in_register>
 81c23e6:	0189      	lsls	r1, r1, #6
 81c23e8:	6882      	ldr	r2, [r0, #8]
 81c23ea:	00d2      	lsls	r2, r2, #3
 81c23ec:	430e      	orrs	r6, r1
 81c23ee:	4316      	orrs	r6, r2
 81c23f0:	f7fd ff75 	bl	81c02de <eliminiere_tos>
 81c23f4:	f7fe f8fa 	bl	81c05ec <tos_registerwechsel>
 81c23f8:	431e      	orrs	r6, r3
 81c23fa:	f001 f909 	bl	81c3610 <Code_822>
 81c23fe:	bd00      	pop	{pc}

081c2400 <Dictionary_516>:
 81c2400:	081c2418 	ldmdaeq	ip, {r3, r4, sl, sp}
 81c2404:	31020261 	tstcc	r2, r1, ror #4
 81c2408:	 	cdpcc	0, 0, cr0, cr1, cr13, {1}

081c240a <Code_516>:
 81c240a:	3e01      	subs	r6, #1
 81c240c:	4770      	bx	lr

081c240e <allocator_one_minus>:
 81c240e:	f847 6d04 	str.w	r6, [r7, #-4]!
 81c2412:	f641 6640 	movw	r6, #7744	; 0x1e40
 81c2416:	e03d      	b.n	81c2494 <smalltworegisters>

081c2418 <Dictionary_519>:
 81c2418:	081c2430 	ldmdaeq	ip, {r4, r5, sl, sp}
 81c241c:	31020261 	tstcc	r2, r1, ror #4
 81c2420:	 	strcc	r0, [r1], -fp, lsr #32

081c2422 <Code_519>:
 81c2422:	3601      	adds	r6, #1
 81c2424:	4770      	bx	lr
 81c2426:	f847 6d04 	str.w	r6, [r7, #-4]!
 81c242a:	f641 4640 	movw	r6, #7232	; 0x1c40
 81c242e:	e031      	b.n	81c2494 <smalltworegisters>

081c2430 <Dictionary_522>:
 81c2430:	081c2448 	ldmdaeq	ip, {r3, r6, sl, sp}
 81c2434:	32020261 	andcc	r0, r2, #268435462	; 0x10000006
 81c2438:	 	cdpcc	0, 0, cr0, cr2, cr13, {1}

081c243a <Code_522>:
 81c243a:	3e02      	subs	r6, #2
 81c243c:	4770      	bx	lr
 81c243e:	f847 6d04 	str.w	r6, [r7, #-4]!
 81c2442:	f641 6680 	movw	r6, #7808	; 0x1e80
 81c2446:	e025      	b.n	81c2494 <smalltworegisters>

081c2448 <Dictionary_525>:
 81c2448:	081c2460 	ldmdaeq	ip, {r5, r6, sl, sp}
 81c244c:	32020261 	andcc	r0, r2, #268435462	; 0x10000006
 81c2450:	 	strcc	r0, [r2], -fp, lsr #32

081c2452 <Code_525>:
 81c2452:	3602      	adds	r6, #2
 81c2454:	4770      	bx	lr
 81c2456:	f847 6d04 	str.w	r6, [r7, #-4]!
 81c245a:	f641 4680 	movw	r6, #7296	; 0x1c80
 81c245e:	e019      	b.n	81c2494 <smalltworegisters>

081c2460 <Dictionary_528>:
 81c2460:	081c247a 	ldmdaeq	ip, {r1, r3, r4, r5, r6, sl, sp}
 81c2464:	63050261 	movwvs	r0, #21089	; 0x5261
 81c2468:	2b6c6c65 	blcs	9cdd604 <FlashDictionaryEnde+0x1add604>

081c246c <Code_528>:
 81c246c:	3604      	adds	r6, #4
 81c246e:	4770      	bx	lr
 81c2470:	f847 6d04 	str.w	r6, [r7, #-4]!
 81c2474:	f641 5600 	movw	r6, #7424	; 0x1d00
 81c2478:	e00c      	b.n	81c2494 <smalltworegisters>

081c247a <Dictionary_531>:
 81c247a:	081c24ac 	ldmdaeq	ip, {r2, r3, r5, r7, sl, sp}
 81c247e:	6e060261 	cdpvs	2, 0, cr0, cr6, cr1, {3}
 81c2482:	74616765 	strbtvc	r6, [r1], #-1893	; 0xfffff89b
 81c2486:	 	rsbsmi	r0, r6, #101	; 0x65

081c2488 <Code_531>:
 81c2488:	4276      	negs	r6, r6
 81c248a:	4770      	bx	lr

081c248c <allocator_negate>:
 81c248c:	f847 6d04 	str.w	r6, [r7, #-4]!
 81c2490:	f244 2640 	movw	r6, #16960	; 0x4240

081c2494 <smalltworegisters>:
 81c2494:	b500      	push	{lr}
 81c2496:	f7fe f81f 	bl	81c04d8 <expect_one_element>
 81c249a:	6801      	ldr	r1, [r0, #0]
 81c249c:	00c9      	lsls	r1, r1, #3
 81c249e:	430e      	orrs	r6, r1
 81c24a0:	f7fe f8a4 	bl	81c05ec <tos_registerwechsel>
 81c24a4:	431e      	orrs	r6, r3
 81c24a6:	f001 f8b3 	bl	81c3610 <Code_822>
 81c24aa:	bd00      	pop	{pc}

081c24ac <Dictionary_534>:
 81c24ac:	081c24c4 	ldmdaeq	ip, {r2, r6, r7, sl, sp}
 81c24b0:	6e030261 	cdpvs	2, 0, cr0, cr3, cr1, {3}
 81c24b4:	 	mvnsmi	r7, #1862270976	; 0x6f000000

081c24b6 <Code_534>:
 81c24b6:	43f6      	mvns	r6, r6
 81c24b8:	4770      	bx	lr

081c24ba <allocator_not>:
 81c24ba:	f847 6d04 	str.w	r6, [r7, #-4]!
 81c24be:	f244 36c0 	movw	r6, #17344	; 0x43c0
 81c24c2:	e7e7      	b.n	81c2494 <smalltworegisters>

081c24c4 <Dictionary_537>:
 81c24c4:	081c24dc 	ldmdaeq	ip, {r2, r3, r4, r6, r7, sl, sp}
 81c24c8:	73030261 	movwvc	r0, #12897	; 0x3261
 81c24cc:	 	ldmdaeq	r6!, {r3, r5, r6, r9, ip, sp, lr}^

081c24ce <Code_537>:
 81c24ce:	0876      	lsrs	r6, r6, #1
 81c24d0:	4770      	bx	lr
 81c24d2:	f847 6d04 	str.w	r6, [r7, #-4]!
 81c24d6:	f640 0640 	movw	r6, #2112	; 0x840
 81c24da:	e7db      	b.n	81c2494 <smalltworegisters>

081c24dc <Dictionary_540>:
 81c24dc:	081c24ec 	ldmdaeq	ip, {r2, r3, r5, r6, r7, sl, sp}
 81c24e0:	73030261 	movwvc	r0, #12897	; 0x3261
 81c24e4:	 	rsbseq	r6, r6, r8, ror #24

081c24e6 <Code_540>:
 81c24e6:	0076      	lsls	r6, r6, #1
 81c24e8:	4770      	bx	lr
 81c24ea:	e006      	b.n	81c24fa <Code_541+0x4>

081c24ec <Dictionary_541>:
 81c24ec:	081c2502 	ldmdaeq	ip, {r1, r8, sl, sp}
 81c24f0:	32020261 	andcc	r0, r2, #268435462	; 0x10000006
 81c24f4:	 	rsbseq	r0, r6, sl, lsr #32

081c24f6 <Code_541>:
 81c24f6:	0076      	lsls	r6, r6, #1
 81c24f8:	4770      	bx	lr
 81c24fa:	f847 6d04 	str.w	r6, [r7, #-4]!
 81c24fe:	2640      	movs	r6, #64	; 0x40
 81c2500:	e7c8      	b.n	81c2494 <smalltworegisters>

081c2502 <Dictionary_544>:
 81c2502:	081c251a 	ldmdaeq	ip, {r1, r3, r4, r8, sl, sp}
 81c2506:	63050261 	movwvs	r0, #21089	; 0x5261
 81c250a:	736c6c65 	cmnvc	ip, #25856	; 0x6500

081c250e <Code_544>:
 81c250e:	00b6      	lsls	r6, r6, #2
 81c2510:	4770      	bx	lr
 81c2512:	f847 6d04 	str.w	r6, [r7, #-4]!
 81c2516:	2680      	movs	r6, #128	; 0x80
 81c2518:	e7bc      	b.n	81c2494 <smalltworegisters>

081c251a <Dictionary_547>:
 81c251a:	081c2532 	ldmdaeq	ip, {r1, r4, r5, r8, sl, sp}
 81c251e:	32020261 	andcc	r0, r2, #268435462	; 0x10000006
 81c2522:	 	rsbsne	r0, r6, pc, lsr #32

081c2524 <Code_547>:
 81c2524:	1076      	asrs	r6, r6, #1
 81c2526:	4770      	bx	lr
 81c2528:	f847 6d04 	str.w	r6, [r7, #-4]!
 81c252c:	f241 0640 	movw	r6, #4160	; 0x1040
 81c2530:	e7b0      	b.n	81c2494 <smalltworegisters>

081c2532 <Dictionary_550>:
 81c2532:	081c2572 	ldmdaeq	ip, {r1, r4, r5, r6, r8, sl, sp}
 81c2536:	61030261 	tstvs	r3, r1, ror #4
 81c253a:	 	ldrbne	r7, [r0, r2, ror #6]!

081c253c <Code_550>:
 81c253c:	17f0      	asrs	r0, r6, #31
 81c253e:	1836      	adds	r6, r6, r0
 81c2540:	4046      	eors	r6, r0
 81c2542:	4770      	bx	lr
 81c2544:	b500      	push	{lr}
 81c2546:	f7fd ffc7 	bl	81c04d8 <expect_one_element>
 81c254a:	f847 6d04 	str.w	r6, [r7, #-4]!
 81c254e:	2600      	movs	r6, #0
 81c2550:	6801      	ldr	r1, [r0, #0]
 81c2552:	00c9      	lsls	r1, r1, #3
 81c2554:	430e      	orrs	r6, r1
 81c2556:	f7fe f849 	bl	81c05ec <tos_registerwechsel>
 81c255a:	431e      	orrs	r6, r3
 81c255c:	f001 f858 	bl	81c3610 <Code_822>
 81c2560:	f847 6d04 	str.w	r6, [r7, #-4]!
 81c2564:	f24d 5600 	movw	r6, #54528	; 0xd500
 81c2568:	f001 f852 	bl	81c3610 <Code_822>
 81c256c:	f7ff ff8e 	bl	81c248c <allocator_negate>
 81c2570:	bd00      	pop	{pc}

081c2572 <Dictionary_555>:
 81c2572:	081c2590 	ldmdaeq	ip, {r4, r7, r8, sl, sp}
 81c2576:	75050042 	strvc	r0, [r5, #-66]	; 0xffffffbe
 81c257a:	646f6d2f 	strbtvs	r6, [pc], #-3375	; 81c2582 <Code_555+0x4>

081c257e <Code_555>:
 81c257e:	cf01      	ldmia	r7!, {r0}
 81c2580:	0031      	movs	r1, r6
 81c2582:	fbb0 f6f6 	udiv	r6, r0, r6
 81c2586:	4371      	muls	r1, r6
 81c2588:	1a40      	subs	r0, r0, r1
 81c258a:	3f04      	subs	r7, #4
 81c258c:	6038      	str	r0, [r7, #0]
 81c258e:	4770      	bx	lr

081c2590 <Dictionary_556>:
 81c2590:	081c25ae 	ldmdaeq	ip, {r1, r2, r3, r5, r7, r8, sl, sp}
 81c2594:	2f040042 	svccs	0x00040042
 81c2598:	00646f6d 	rsbeq	r6, r4, sp, ror #30

081c259c <Code_556>:
 81c259c:	cf01      	ldmia	r7!, {r0}
 81c259e:	0031      	movs	r1, r6
 81c25a0:	fb90 f6f6 	sdiv	r6, r0, r6
 81c25a4:	4371      	muls	r1, r6
 81c25a6:	1a40      	subs	r0, r0, r1
 81c25a8:	3f04      	subs	r7, #4
 81c25aa:	6038      	str	r0, [r7, #0]
 81c25ac:	4770      	bx	lr

081c25ae <Dictionary_557>:
 81c25ae:	081c25c2 	ldmdaeq	ip, {r1, r6, r7, r8, sl, sp}
 81c25b2:	6d030042 	stcvs	0, cr0, [r3, #-264]	; 0xfffffef8
 81c25b6:	 	strlt	r6, [r0, #-1135]	; 0xfffffb91

081c25b8 <Code_557>:
 81c25b8:	b500      	push	{lr}
 81c25ba:	f7ff ffef 	bl	81c259c <Code_556>
 81c25be:	cf40      	ldmia	r7!, {r6}
 81c25c0:	bd00      	pop	{pc}

081c25c2 <Dictionary_559>:
 81c25c2:	081c2602 	ldmdaeq	ip, {r1, r9, sl, sp}
 81c25c6:	2f010262 	svccs	0x00010262

081c25ca <Code_559>:
 81c25ca:	cf01      	ldmia	r7!, {r0}
 81c25cc:	fb90 f6f6 	sdiv	r6, r0, r6
 81c25d0:	4770      	bx	lr
 81c25d2:	b500      	push	{lr}
 81c25d4:	f7fd ff8a 	bl	81c04ec <expect_two_elements>
 81c25d8:	f7fd ffba 	bl	81c0550 <expect_tos_in_register>
 81c25dc:	f7fd ffc2 	bl	81c0564 <expect_nos_in_register>
 81c25e0:	f847 6d04 	str.w	r6, [r7, #-4]!
 81c25e4:	4e23      	ldr	r6, [pc, #140]	; (81c2674 <Code_567+0x10>)
 81c25e6:	6801      	ldr	r1, [r0, #0]
 81c25e8:	430e      	orrs	r6, r1
 81c25ea:	6881      	ldr	r1, [r0, #8]
 81c25ec:	ea56 4601 	orrs.w	r6, r6, r1, lsl #16
 81c25f0:	f7fd fe75 	bl	81c02de <eliminiere_tos>
 81c25f4:	f7fd fffa 	bl	81c05ec <tos_registerwechsel>
 81c25f8:	ea56 2603 	orrs.w	r6, r6, r3, lsl #8
 81c25fc:	f001 f837 	bl	81c366e <Code_831>
 81c2600:	bd00      	pop	{pc}

081c2602 <Dictionary_561>:
 81c2602:	081c2616 	ldmdaeq	ip, {r1, r2, r4, r9, sl, sp}
 81c2606:	65040061 	strvs	r0, [r4, #-97]	; 0xffffff9f
 81c260a:	006e6576 	rsbeq	r6, lr, r6, ror r5

081c260e <Code_561>:
 81c260e:	2001      	movs	r0, #1
 81c2610:	4030      	ands	r0, r6
 81c2612:	1836      	adds	r6, r6, r0
 81c2614:	4770      	bx	lr

081c2616 <Dictionary_562>:
 81c2616:	081c262e 	ldmdaeq	ip, {r1, r2, r3, r5, r9, sl, sp}
 81c261a:	62040081 	andvs	r0, r4, #129	; 0x81
 81c261e:	00657361 	rsbeq	r7, r5, r1, ror #6

081c2622 <Code_562>:
 81c2622:	f847 6d04 	str.w	r6, [r7, #-4]!
 81c2626:	4e14      	ldr	r6, [pc, #80]	; (81c2678 <Code_567+0x14>)
 81c2628:	4770      	bx	lr
 81c262a:	0000000a 	andeq	r0, r0, sl

081c262e <Dictionary_565>:
 81c262e:	081c2644 	ldmdaeq	ip, {r2, r6, r9, sl, sp}
 81c2632:	62060000 	andvs	r0, r6, #0
 81c2636:	72616e69 	rsbvc	r6, r1, #1680	; 0x690
 81c263a:	 	stmdami	lr, {r0, r3, r4, r5, r6}

081c263c <Code_565>:
 81c263c:	480e      	ldr	r0, [pc, #56]	; (81c2678 <Code_567+0x14>)
 81c263e:	2102      	movs	r1, #2
 81c2640:	6001      	str	r1, [r0, #0]
 81c2642:	4770      	bx	lr

081c2644 <Dictionary_566>:
 81c2644:	081c265a 	ldmdaeq	ip, {r1, r3, r4, r6, r9, sl, sp}
 81c2648:	64070000 	strvs	r0, [r7], #-0
 81c264c:	6d696365 	stclvs	3, cr6, [r9, #-404]!	; 0xfffffe6c
 81c2650:	 	stmdami	r9, {r0, r5, r6, sl, fp, sp, lr}

081c2652 <Code_566>:
 81c2652:	4809      	ldr	r0, [pc, #36]	; (81c2678 <Code_567+0x14>)
 81c2654:	210a      	movs	r1, #10
 81c2656:	6001      	str	r1, [r0, #0]
 81c2658:	4770      	bx	lr

081c265a <Dictionary_567>:
 81c265a:	081c267c 	ldmdaeq	ip, {r2, r3, r4, r5, r6, r9, sl, sp}
 81c265e:	68030000 	stmdavs	r3, {}	; <UNPREDICTABLE>
 81c2662:	 	stmdami	r4, {r0, r2, r5, r6, fp, ip, sp, lr}

081c2664 <Code_567>:
 81c2664:	4804      	ldr	r0, [pc, #16]	; (81c2678 <Code_567+0x14>)
 81c2666:	2110      	movs	r1, #16
 81c2668:	6001      	str	r1, [r0, #0]
 81c266a:	4770      	bx	lr
 81c266c:	f1100000 	setpan	#0
 81c2670:	f1b00000 			; <UNDEFINED> instruction: 0xf1b00000
 81c2674:	fb90f0f0 	blx	65fea3e <stack_canary+0x24dd0b9>
 81c2678:	380087fc 	stmdacc	r0, {r2, r3, r4, r5, r6, r7, r8, r9, sl, pc}

081c267c <Dictionary_568>:
 81c267c:	081c2690 	ldmdaeq	ip, {r4, r7, r9, sl, sp}
 81c2680:	73030000 	movwvc	r0, #12288	; 0x3000
 81c2684:	 			; <UNDEFINED> instruction: 0xf8476477

081c2686 <Code_568>:
 81c2686:	f847 6d04 	str.w	r6, [r7, #-4]!
 81c268a:	ea5f 060b 	movs.w	r6, fp
 81c268e:	4770      	bx	lr

081c2690 <Dictionary_571>:
 81c2690:	081c26b0 	ldmdaeq	ip, {r4, r5, r7, r9, sl, sp}
 81c2694:	73080000 	movwvc	r0, #32768	; 0x8000
 81c2698:	692d6477 	pushvs	{r0, r1, r2, r4, r5, r6, sl, sp, lr}
 81c269c:	0074696e 	rsbseq	r6, r4, lr, ror #18

081c26a0 <Code_571>:
 81c26a0:	b500      	push	{lr}
 81c26a2:	f04f 5160 	mov.w	r1, #939524096	; 0x38000000
 81c26a6:	2000      	movs	r0, #0
 81c26a8:	6008      	str	r0, [r1, #0]
 81c26aa:	ea5f 0b01 	movs.w	fp, r1
 81c26ae:	bd00      	pop	{pc}

081c26b0 <Dictionary_572>:
 81c26b0:	081c26da 	ldmdaeq	ip, {r1, r3, r4, r6, r7, r9, sl, sp}
 81c26b4:	73080000 	movwvc	r0, #32768	; 0x8000
 81c26b8:	6b2d6477 	blvs	8d1b89c <FlashDictionaryEnde+0xb1b89c>
 81c26bc:	003f7965 	eorseq	r7, pc, r5, ror #18

081c26c0 <Code_572>:
 81c26c0:	b500      	push	{lr}
 81c26c2:	f000 f8bf 	bl	81c2844 <Code_602>
 81c26c6:	f847 6d04 	str.w	r6, [r7, #-4]!
 81c26ca:	465a      	mov	r2, fp
 81c26cc:	7810      	ldrb	r0, [r2, #0]
 81c26ce:	7851      	ldrb	r1, [r2, #1]
 81c26d0:	2600      	movs	r6, #0
 81c26d2:	4288      	cmp	r0, r1
 81c26d4:	bf18      	it	ne
 81c26d6:	3e01      	subne	r6, #1
 81c26d8:	bd00      	pop	{pc}

081c26da <Dictionary_575>:
 81c26da:	081c2708 	ldmdaeq	ip, {r3, r8, r9, sl, sp}
 81c26de:	73090000 	movwvc	r0, #36864	; 0x9000
 81c26e2:	652d6477 	strvs	r6, [sp, #-1143]!	; 0xfffffb89
 81c26e6:	3f74696d 	svccc	0x0074696d

081c26ea <Code_575>:
 81c26ea:	b500      	push	{lr}
 81c26ec:	f000 f8aa 	bl	81c2844 <Code_602>
 81c26f0:	f847 6d04 	str.w	r6, [r7, #-4]!
 81c26f4:	465a      	mov	r2, fp
 81c26f6:	7890      	ldrb	r0, [r2, #2]
 81c26f8:	78d1      	ldrb	r1, [r2, #3]
 81c26fa:	3001      	adds	r0, #1
 81c26fc:	b2c0      	uxtb	r0, r0
 81c26fe:	2600      	movs	r6, #0
 81c2700:	4288      	cmp	r0, r1
 81c2702:	bf18      	it	ne
 81c2704:	3e01      	subne	r6, #1
 81c2706:	bd00      	pop	{pc}

081c2708 <Dictionary_578>:
 81c2708:	081c272e 	ldmdaeq	ip, {r1, r2, r3, r5, r8, r9, sl, sp}
 81c270c:	73070000 	movwvc	r0, #28672	; 0x7000
 81c2710:	6b2d6477 	blvs	8d1b8f4 <FlashDictionaryEnde+0xb1b8f4>
 81c2714:	 			; <UNDEFINED> instruction: 0xf8477965

081c2716 <Code_578>:
 81c2716:	f847 6d04 	str.w	r6, [r7, #-4]!
 81c271a:	465a      	mov	r2, fp
 81c271c:	7850      	ldrb	r0, [r2, #1]
 81c271e:	7811      	ldrb	r1, [r2, #0]
 81c2720:	4288      	cmp	r0, r1
 81c2722:	d0fc      	beq.n	81c271e <Code_578+0x8>
 81c2724:	1d01      	adds	r1, r0, #4
 81c2726:	5c8e      	ldrb	r6, [r1, r2]
 81c2728:	3001      	adds	r0, #1
 81c272a:	7050      	strb	r0, [r2, #1]
 81c272c:	4770      	bx	lr

081c272e <Dictionary_581>:
 81c272e:	081c275a 	ldmdaeq	ip, {r1, r3, r4, r6, r8, r9, sl, sp}
 81c2732:	73080000 	movwvc	r0, #32768	; 0x8000
 81c2736:	652d6477 	strvs	r6, [sp, #-1143]!	; 0xfffffb89
 81c273a:	0074696d 	rsbseq	r6, r4, sp, ror #18

081c273e <Code_581>:
 81c273e:	465b      	mov	r3, fp
 81c2740:	7898      	ldrb	r0, [r3, #2]
 81c2742:	1c41      	adds	r1, r0, #1
 81c2744:	b2c9      	uxtb	r1, r1
 81c2746:	78da      	ldrb	r2, [r3, #3]
 81c2748:	4291      	cmp	r1, r2
 81c274a:	d0fc      	beq.n	81c2746 <Code_581+0x8>
 81c274c:	f500 7082 	add.w	r0, r0, #260	; 0x104
 81c2750:	54c6      	strb	r6, [r0, r3]
 81c2752:	7099      	strb	r1, [r3, #2]
 81c2754:	cf40      	ldmia	r7!, {r6}
 81c2756:	4770      	bx	lr

081c2758 <uart_init>:
 81c2758:	e7a2      	b.n	81c26a0 <Code_571>

081c275a <Dictionary_583>:
 81c275a:	081c2776 	ldmdaeq	ip, {r1, r2, r4, r5, r6, r8, r9, sl, sp}
 81c275e:	68090081 	stmdavs	r9, {r0, r7}
 81c2762:	2d6b6f6f 	stclcs	15, cr6, [fp, #-444]!	; 0xfffffe44
 81c2766:	74696d65 	strbtvc	r6, [r9], #-3429	; 0xfffff29b

081c276a <Code_583>:
 81c276a:	f847 6d04 	str.w	r6, [r7, #-4]!
 81c276e:	4e4c      	ldr	r6, [pc, #304]	; (81c28a0 <Code_606+0x2>)
 81c2770:	4770      	bx	lr
 81c2772:	081c2860 	ldmdaeq	ip, {r5, r6, fp, sp}

081c2776 <Dictionary_586>:
 81c2776:	081c2792 	ldmdaeq	ip, {r1, r4, r7, r8, r9, sl, sp}
 81c277a:	68080081 	stmdavs	r8, {r0, r7}
 81c277e:	2d6b6f6f 	stclcs	15, cr6, [fp, #-444]!	; 0xfffffe44
 81c2782:	0079656b 	rsbseq	r6, r9, fp, ror #10

081c2786 <Code_586>:
 81c2786:	f847 6d04 	str.w	r6, [r7, #-4]!
 81c278a:	4e46      	ldr	r6, [pc, #280]	; (81c28a4 <Code_606+0x6>)
 81c278c:	4770      	bx	lr
 81c278e:	081c2874 	ldmdaeq	ip, {r2, r4, r5, r6, fp, sp}

081c2792 <Dictionary_589>:
 81c2792:	081c27b0 	ldmdaeq	ip, {r4, r5, r7, r8, r9, sl, sp}
 81c2796:	680a0081 	stmdavs	sl, {r0, r7}
 81c279a:	2d6b6f6f 	stclcs	15, cr6, [fp, #-444]!	; 0xfffffe44
 81c279e:	74696d65 	strbtvc	r6, [r9], #-3429	; 0xfffff29b
 81c27a2:	 			; <UNDEFINED> instruction: 0xf847003f

081c27a4 <Code_589>:
 81c27a4:	f847 6d04 	str.w	r6, [r7, #-4]!
 81c27a8:	4e3f      	ldr	r6, [pc, #252]	; (81c28a8 <Code_606+0xa>)
 81c27aa:	4770      	bx	lr
 81c27ac:	081c288a 	ldmdaeq	ip, {r1, r3, r7, fp, sp}

081c27b0 <Dictionary_592>:
 81c27b0:	081c27cc 	ldmdaeq	ip, {r2, r3, r6, r7, r8, r9, sl, sp}
 81c27b4:	68090081 	stmdavs	r9, {r0, r7}
 81c27b8:	2d6b6f6f 	stclcs	15, cr6, [fp, #-444]!	; 0xfffffe44
 81c27bc:	3f79656b 	svccc	0x0079656b

081c27c0 <Code_592>:
 81c27c0:	f847 6d04 	str.w	r6, [r7, #-4]!
 81c27c4:	4e39      	ldr	r6, [pc, #228]	; (81c28ac <Code_606+0xe>)
 81c27c6:	4770      	bx	lr
 81c27c8:	081c289e 	ldmdaeq	ip, {r1, r2, r3, r4, r7, fp, sp}

081c27cc <Dictionary_595>:
 81c27cc:	081c27ea 	ldmdaeq	ip, {r1, r3, r5, r6, r7, r8, r9, sl, sp}
 81c27d0:	680a0081 	stmdavs	sl, {r0, r7}
 81c27d4:	2d6b6f6f 	stclcs	15, cr6, [fp, #-444]!	; 0xfffffe44
 81c27d8:	73756170 	cmnvc	r5, #112, 2
 81c27dc:	 			; <UNDEFINED> instruction: 0xf8470065

081c27de <Code_595>:
 81c27de:	f847 6d04 	str.w	r6, [r7, #-4]!
 81c27e2:	4e33      	ldr	r6, [pc, #204]	; (81c28b0 <Code_606+0x12>)
 81c27e4:	4770      	bx	lr
 81c27e6:	081c4bd2 	ldmdaeq	ip, {r1, r4, r6, r7, r8, r9, fp, lr}

081c27ea <Dictionary_598>:
 81c27ea:	081c2800 	ldmdaeq	ip, {fp, sp}
 81c27ee:	65040000 	strvs	r0, [r4, #-0]
 81c27f2:	0074696d 	rsbseq	r6, r4, sp, ror #18

081c27f6 <Code_598>:
 81c27f6:	b50f      	push	{r0, r1, r2, r3, lr}
 81c27f8:	4829      	ldr	r0, [pc, #164]	; (81c28a0 <Code_606+0x2>)
 81c27fa:	f000 f826 	bl	81c284a <hook_intern>
 81c27fe:	bd0f      	pop	{r0, r1, r2, r3, pc}

081c2800 <Dictionary_599>:
 81c2800:	081c2814 	ldmdaeq	ip, {r2, r4, fp, sp}
 81c2804:	6b030000 	blvs	828280c <FlashDictionaryEnde+0x8280c>
 81c2808:	 	strlt	r7, [pc, #-2405]	; 81c1eab <flash_line+0x8b>

081c280a <Code_599>:
 81c280a:	b50f      	push	{r0, r1, r2, r3, lr}
 81c280c:	4825      	ldr	r0, [pc, #148]	; (81c28a4 <Code_606+0x6>)
 81c280e:	f000 f81c 	bl	81c284a <hook_intern>
 81c2812:	bd0f      	pop	{r0, r1, r2, r3, pc}

081c2814 <Dictionary_600>:
 81c2814:	081c2826 	ldmdaeq	ip, {r1, r2, r5, fp, sp}
 81c2818:	65050000 	strvs	r0, [r5, #-0]
 81c281c:	3f74696d 	svccc	0x0074696d

081c2820 <Code_600>:
 81c2820:	4821      	ldr	r0, [pc, #132]	; (81c28a8 <Code_606+0xa>)
 81c2822:	6800      	ldr	r0, [r0, #0]
 81c2824:	4687      	mov	pc, r0

081c2826 <Dictionary_601>:
 81c2826:	081c2838 	ldmdaeq	ip, {r3, r4, r5, fp, sp}
 81c282a:	6b040000 	blvs	82c2832 <FlashDictionaryEnde+0xc2832>
 81c282e:	003f7965 	eorseq	r7, pc, r5, ror #18

081c2832 <Code_601>:
 81c2832:	481e      	ldr	r0, [pc, #120]	; (81c28ac <Code_606+0xe>)
 81c2834:	6800      	ldr	r0, [r0, #0]
 81c2836:	4687      	mov	pc, r0

081c2838 <Dictionary_602>:
 81c2838:	081c284e 	ldmdaeq	ip, {r1, r2, r3, r6, fp, sp}
 81c283c:	70050000 	andvc	r0, r5, r0
 81c2840:	65737561 	ldrbvs	r7, [r3, #-1377]!	; 0xfffffa9f

081c2844 <Code_602>:
 81c2844:	481a      	ldr	r0, [pc, #104]	; (81c28b0 <Code_606+0x12>)
 81c2846:	6800      	ldr	r0, [r0, #0]
 81c2848:	4687      	mov	pc, r0

081c284a <hook_intern>:
 81c284a:	6800      	ldr	r0, [r0, #0]
 81c284c:	4687      	mov	pc, r0

081c284e <Dictionary_603>:
 81c284e:	081c2862 	ldmdaeq	ip, {r1, r5, r6, fp, sp}
 81c2852:	730b0000 	movwvc	r0, #45056	; 0xb000
 81c2856:	61697265 	cmnvs	r9, r5, ror #4
 81c285a:	6d652d6c 	stclvs	13, cr2, [r5, #-432]!	; 0xfffffe50
 81c285e:	 	strb	r7, [sp, -r9, ror #8]!

081c2860 <Code_603>:
 81c2860:	e76d      	b.n	81c273e <Code_581>

081c2862 <Dictionary_604>:
 81c2862:	081c2876 	ldmdaeq	ip, {r1, r2, r4, r5, r6, fp, sp}
 81c2866:	730a0000 	movwvc	r0, #40960	; 0xa000
 81c286a:	61697265 	cmnvs	r9, r5, ror #4
 81c286e:	656b2d6c 	strbvs	r2, [fp, #-3436]!	; 0xfffff294
 81c2872:	 	smlsldx	r0, pc, r9, r0	; <UNPREDICTABLE>

081c2874 <Code_604>:
 81c2874:	e74f      	b.n	81c2716 <Code_578>

081c2876 <Dictionary_605>:
 81c2876:	081c288c 	ldmdaeq	ip, {r2, r3, r7, fp, sp}
 81c287a:	730c0000 	movwvc	r0, #49152	; 0xc000
 81c287e:	61697265 	cmnvs	r9, r5, ror #4
 81c2882:	6d652d6c 	stclvs	13, cr2, [r5, #-432]!	; 0xfffffe50
 81c2886:	003f7469 	eorseq	r7, pc, r9, ror #8

081c288a <Code_605>:
 81c288a:	e72e      	b.n	81c26ea <Code_575>

081c288c <Dictionary_606>:
 81c288c:	081c28b4 	ldmdaeq	ip, {r2, r4, r5, r7, fp, sp}
 81c2890:	730b0000 	movwvc	r0, #45056	; 0xb000
 81c2894:	61697265 	cmnvs	r9, r5, ror #4
 81c2898:	656b2d6c 	strbvs	r2, [fp, #-3436]!	; 0xfffff294
 81c289c:	 	smlsdx	pc, r9, pc, r3	; <UNPREDICTABLE>

081c289e <Code_606>:
 81c289e:	e70f      	b.n	81c26c0 <Code_572>
 81c28a0:	380087f8 	stmdacc	r0, {r3, r4, r5, r6, r7, r8, r9, sl, pc}
 81c28a4:	380087f4 	stmdacc	r0, {r2, r4, r5, r6, r7, r8, r9, sl, pc}
 81c28a8:	380087f0 	stmdacc	r0, {r4, r5, r6, r7, r8, r9, sl, pc}
 81c28ac:	380087ec 	stmdacc	r0, {r2, r3, r5, r6, r7, r8, r9, sl, pc}
 81c28b0:	380087e8 	stmdacc	r0, {r3, r5, r6, r7, r8, r9, sl, pc}

081c28b4 <Dictionary_607>:
 81c28b4:	081c28d8 	ldmdaeq	ip, {r3, r4, r6, r7, fp, sp}
 81c28b8:	63070000 	movwvs	r0, #28672	; 0x7000
 81c28bc:	65707865 	ldrbvs	r7, [r0, #-2149]!	; 0xfffff79b
 81c28c0:	 	strlt	r7, [r0, #-1123]	; 0xfffffb9d

081c28c2 <Code_607>:
 81c28c2:	b500      	push	{lr}
 81c28c4:	6838      	ldr	r0, [r7, #0]
 81c28c6:	b401      	push	{r0}
 81c28c8:	3001      	adds	r0, #1
 81c28ca:	6038      	str	r0, [r7, #0]
 81c28cc:	f000 f80b 	bl	81c28e6 <Code_609>
 81c28d0:	bc01      	pop	{r0}
 81c28d2:	7006      	strb	r6, [r0, #0]
 81c28d4:	cf40      	ldmia	r7!, {r6}
 81c28d6:	bd00      	pop	{pc}

081c28d8 <Dictionary_609>:
 81c28d8:	081c294e 	ldmdaeq	ip, {r1, r2, r3, r6, r8, fp, sp}
 81c28dc:	61060000 	mrsvs	r0, (UNDEF: 6)
 81c28e0:	70656363 	rsbvc	r6, r5, r3, ror #6
 81c28e4:	 	strlt	r0, [r0, #-116]	; 0xffffff8c

081c28e6 <Code_609>:
 81c28e6:	b500      	push	{lr}
 81c28e8:	cf02      	ldmia	r7!, {r1}
 81c28ea:	3901      	subs	r1, #1
 81c28ec:	2200      	movs	r2, #0
 81c28ee:	f7ff ff8c 	bl	81c280a <Code_599>
 81c28f2:	0030      	movs	r0, r6
 81c28f4:	cf40      	ldmia	r7!, {r6}
 81c28f6:	287f      	cmp	r0, #127	; 0x7f
 81c28f8:	d009      	beq.n	81c290e <Code_609+0x28>
 81c28fa:	2820      	cmp	r0, #32
 81c28fc:	d219      	bcs.n	81c2932 <Code_609+0x4c>
 81c28fe:	2809      	cmp	r0, #9
 81c2900:	d016      	beq.n	81c2930 <Code_609+0x4a>
 81c2902:	280a      	cmp	r0, #10
 81c2904:	d01f      	beq.n	81c2946 <Code_609+0x60>
 81c2906:	280d      	cmp	r0, #13
 81c2908:	d01d      	beq.n	81c2946 <Code_609+0x60>
 81c290a:	2808      	cmp	r0, #8
 81c290c:	d1ef      	bne.n	81c28ee <Code_609+0x8>
 81c290e:	2a00      	cmp	r2, #0
 81c2910:	d0ed      	beq.n	81c28ee <Code_609+0x8>
 81c2912:	f000 f90b 	bl	81c2b2c <dotgaensefuesschen>
 81c2916:	08200803 	stmdaeq	r0!, {r0, r1, fp}
 81c291a:	2a00      	cmp	r2, #0
 81c291c:	d0e7      	beq.n	81c28ee <Code_609+0x8>
 81c291e:	5c88      	ldrb	r0, [r1, r2]
 81c2920:	3a01      	subs	r2, #1
 81c2922:	2380      	movs	r3, #128	; 0x80
 81c2924:	4003      	ands	r3, r0
 81c2926:	d0e2      	beq.n	81c28ee <Code_609+0x8>
 81c2928:	2340      	movs	r3, #64	; 0x40
 81c292a:	4003      	ands	r3, r0
 81c292c:	d0f5      	beq.n	81c291a <Code_609+0x34>
 81c292e:	e7de      	b.n	81c28ee <Code_609+0x8>
 81c2930:	2020      	movs	r0, #32
 81c2932:	42b2      	cmp	r2, r6
 81c2934:	d2db      	bcs.n	81c28ee <Code_609+0x8>
 81c2936:	f847 6d04 	str.w	r6, [r7, #-4]!
 81c293a:	0006      	movs	r6, r0
 81c293c:	f7ff ff5b 	bl	81c27f6 <Code_598>
 81c2940:	3201      	adds	r2, #1
 81c2942:	5488      	strb	r0, [r1, r2]
 81c2944:	e7d3      	b.n	81c28ee <Code_609+0x8>
 81c2946:	0016      	movs	r6, r2
 81c2948:	f000 f89f 	bl	81c2a8a <Code_639>
 81c294c:	bd00      	pop	{pc}

081c294e <Dictionary_613>:
 81c294e:	081c2960 	ldmdaeq	ip, {r5, r6, r8, fp, sp}
 81c2952:	74030040 	strvc	r0, [r3], #-64	; 0xffffffc0
 81c2956:	 			; <UNDEFINED> instruction: 0xf8476269

081c2958 <Code_613>:
 81c2958:	f847 6d04 	str.w	r6, [r7, #-4]!
 81c295c:	4e29      	ldr	r6, [pc, #164]	; (81c2a04 <Code_625+0x22>)
 81c295e:	4770      	bx	lr

081c2960 <Dictionary_615>:
 81c2960:	081c2976 	ldmdaeq	ip, {r1, r2, r4, r5, r6, r8, fp, sp}
 81c2964:	3e030081 	cdpcc	0, 0, cr0, cr3, cr1, {4}
 81c2968:	 			; <UNDEFINED> instruction: 0xf8476e69

081c296a <Code_615>:
 81c296a:	f847 6d04 	str.w	r6, [r7, #-4]!
 81c296e:	4e26      	ldr	r6, [pc, #152]	; (81c2a08 <Code_625+0x26>)
 81c2970:	4770      	bx	lr
 81c2972:	00000000 	andeq	r0, r0, r0

081c2976 <Dictionary_618>:
 81c2976:	081c299c 	ldmdaeq	ip, {r2, r3, r4, r7, r8, fp, sp}
 81c297a:	630e0082 	movwvs	r0, #57474	; 0xe082
 81c297e:	65727275 	ldrbvs	r7, [r2, #-629]!	; 0xfffffd8b
 81c2982:	732d746e 			; <UNDEFINED> instruction: 0x732d746e
 81c2986:	6372756f 	cmnvs	r2, #465567744	; 0x1bc00000
 81c298a:	 			; <UNDEFINED> instruction: 0xf8470065

081c298c <Code_618>:
 81c298c:	f847 6d04 	str.w	r6, [r7, #-4]!
 81c2990:	4e1e      	ldr	r6, [pc, #120]	; (81c2a0c <Code_625+0x2a>)
 81c2992:	4770      	bx	lr
 81c2994:	00000000 	andeq	r0, r0, r0
 81c2998:	380008c0 	stmdacc	r0, {r6, r7, fp}

081c299c <Dictionary_621>:
 81c299c:	081c29b8 	ldmdaeq	ip, {r3, r4, r5, r7, r8, fp, sp}
 81c29a0:	73090000 	movwvc	r0, #36864	; 0x9000
 81c29a4:	6f737465 	svcvs	0x00737465
 81c29a8:	65637275 	strbvs	r7, [r3, #-629]!	; 0xfffffd8b

081c29ac <Code_621>:
 81c29ac:	4817      	ldr	r0, [pc, #92]	; (81c2a0c <Code_625+0x2a>)
 81c29ae:	cf02      	ldmia	r7!, {r1}
 81c29b0:	6006      	str	r6, [r0, #0]
 81c29b2:	6041      	str	r1, [r0, #4]
 81c29b4:	cf40      	ldmia	r7!, {r6}
 81c29b6:	4770      	bx	lr

081c29b8 <Dictionary_623>:
 81c29b8:	081c29d6 	ldmdaeq	ip, {r1, r2, r4, r6, r7, r8, fp, sp}
 81c29bc:	73060000 	movwvc	r0, #24576	; 0x6000
 81c29c0:	6372756f 	cmnvs	r2, #465567744	; 0x1bc00000
 81c29c4:	 			; <UNDEFINED> instruction: 0xf8470065

081c29c6 <Code_623>:
 81c29c6:	f847 6d04 	str.w	r6, [r7, #-4]!
 81c29ca:	4e10      	ldr	r6, [pc, #64]	; (81c2a0c <Code_625+0x2a>)
 81c29cc:	3f04      	subs	r7, #4
 81c29ce:	6870      	ldr	r0, [r6, #4]
 81c29d0:	6038      	str	r0, [r7, #0]
 81c29d2:	6836      	ldr	r6, [r6, #0]
 81c29d4:	4770      	bx	lr

081c29d6 <Dictionary_625>:
 81c29d6:	081c2a10 	ldmdaeq	ip, {r4, r9, fp, sp}
 81c29da:	71050000 	mrsvc	r0, (UNDEF: 5)
 81c29de:	79726575 	ldmdbvc	r2!, {r0, r2, r4, r5, r6, r8, sl, sp, lr}^

081c29e2 <Code_625>:
 81c29e2:	b50f      	push	{r0, r1, r2, r3, lr}
 81c29e4:	4808      	ldr	r0, [pc, #32]	; (81c2a08 <Code_625+0x26>)
 81c29e6:	2100      	movs	r1, #0
 81c29e8:	6001      	str	r1, [r0, #0]
 81c29ea:	f7ff ffb5 	bl	81c2958 <Code_613>
 81c29ee:	f847 6d04 	str.w	r6, [r7, #-4]!
 81c29f2:	f847 6d04 	str.w	r6, [r7, #-4]!
 81c29f6:	26c8      	movs	r6, #200	; 0xc8
 81c29f8:	f7ff ff75 	bl	81c28e6 <Code_609>
 81c29fc:	f7ff ffd6 	bl	81c29ac <Code_621>
 81c2a00:	bd0f      	pop	{r0, r1, r2, r3, pc}
 81c2a02:	08c00000 	stmiaeq	r0, {}^	; <UNPREDICTABLE>
 81c2a06:	87e43800 	strbhi	r3, [r4, r0, lsl #16]!
 81c2a0a:	87dc3800 	ldrbhi	r3, [ip, r0, lsl #16]
 81c2a0e:	 	bcs	97d0a16 <FlashDictionaryEnde+0x15d0a16>

081c2a10 <Dictionary_630>:
 81c2a10:	081c2a58 	ldmdaeq	ip, {r3, r4, r6, r9, fp, sp}
 81c2a14:	63070000 	movwvs	r0, #28672	; 0x7000
 81c2a18:	61706d6f 	cmnvs	r0, pc, ror #26
 81c2a1c:	 	strlt	r6, [pc, #-1394]	; 81c24b2 <Dictionary_534+0x6>

081c2a1e <Code_630>:
 81c2a1e:	b50f      	push	{r0, r1, r2, r3, lr}
 81c2a20:	0031      	movs	r1, r6
 81c2a22:	cf40      	ldmia	r7!, {r6}
 81c2a24:	cf01      	ldmia	r7!, {r0}
 81c2a26:	4288      	cmp	r0, r1
 81c2a28:	cf02      	ldmia	r7!, {r1}
 81c2a2a:	d110      	bne.n	81c2a4e <Code_630+0x30>
 81c2a2c:	2800      	cmp	r0, #0
 81c2a2e:	d010      	beq.n	81c2a52 <Code_630+0x34>
 81c2a30:	3801      	subs	r0, #1
 81c2a32:	5c0a      	ldrb	r2, [r1, r0]
 81c2a34:	5c33      	ldrb	r3, [r6, r0]
 81c2a36:	2a41      	cmp	r2, #65	; 0x41
 81c2a38:	d302      	bcc.n	81c2a40 <Code_630+0x22>
 81c2a3a:	2a5b      	cmp	r2, #91	; 0x5b
 81c2a3c:	bf38      	it	cc
 81c2a3e:	3220      	addcc	r2, #32
 81c2a40:	2b41      	cmp	r3, #65	; 0x41
 81c2a42:	d302      	bcc.n	81c2a4a <Code_630+0x2c>
 81c2a44:	2b5b      	cmp	r3, #91	; 0x5b
 81c2a46:	bf38      	it	cc
 81c2a48:	3320      	addcc	r3, #32
 81c2a4a:	429a      	cmp	r2, r3
 81c2a4c:	d0ee      	beq.n	81c2a2c <Code_630+0xe>
 81c2a4e:	2600      	movs	r6, #0
 81c2a50:	bd0f      	pop	{r0, r1, r2, r3, pc}
 81c2a52:	2600      	movs	r6, #0
 81c2a54:	43f6      	mvns	r6, r6
 81c2a56:	bd0f      	pop	{r0, r1, r2, r3, pc}

081c2a58 <Dictionary_634>:
 81c2a58:	081c2a6c 	ldmdaeq	ip, {r2, r3, r5, r6, r9, fp, sp}
 81c2a5c:	63020000 	movwvs	r0, #8192	; 0x2000
 81c2a60:	 	strlt	r0, [r0, #-114]	; 0xffffff8e

081c2a62 <Code_634>:
 81c2a62:	b500      	push	{lr}
 81c2a64:	f000 f862 	bl	81c2b2c <dotgaensefuesschen>
 81c2a68:	bd000a01 	vstrlt	s0, [r0, #-4]

081c2a6c <Dictionary_636>:
 81c2a6c:	081c2a7e 	ldmdaeq	ip, {r1, r2, r3, r4, r5, r6, r9, fp, sp}
 81c2a70:	62020000 	andvs	r0, r2, #0
 81c2a74:	 			; <UNDEFINED> instruction: 0xf847006c

081c2a76 <Code_636>:
 81c2a76:	f847 6d04 	str.w	r6, [r7, #-4]!
 81c2a7a:	2620      	movs	r6, #32
 81c2a7c:	4770      	bx	lr

081c2a7e <Dictionary_639>:
 81c2a7e:	081c2a92 	ldmdaeq	ip, {r1, r4, r7, r9, fp, sp}
 81c2a82:	73050000 	movwvc	r0, #20480	; 0x5000
 81c2a86:	65636170 	strbvs	r6, [r3, #-368]!	; 0xfffffe90

081c2a8a <Code_639>:
 81c2a8a:	f847 6d04 	str.w	r6, [r7, #-4]!
 81c2a8e:	2620      	movs	r6, #32
 81c2a90:	e6b1      	b.n	81c27f6 <Code_598>

081c2a92 <Dictionary_642>:
 81c2a92:	081c2ab2 	ldmdaeq	ip, {r1, r4, r5, r7, r9, fp, sp}
 81c2a96:	73060000 	movwvc	r0, #24576	; 0x6000
 81c2a9a:	65636170 	strbvs	r6, [r3, #-368]!	; 0xfffffe90
 81c2a9e:	 	strlt	r0, [r0, #-115]	; 0xffffff8d

081c2aa0 <Code_642>:
 81c2aa0:	b500      	push	{lr}
 81c2aa2:	2e00      	cmp	r6, #0
 81c2aa4:	dd03      	ble.n	81c2aae <Code_642+0xe>
 81c2aa6:	f7ff fff0 	bl	81c2a8a <Code_639>
 81c2aaa:	3e01      	subs	r6, #1
 81c2aac:	d1fb      	bne.n	81c2aa6 <Code_642+0x6>
 81c2aae:	cf40      	ldmia	r7!, {r6}
 81c2ab0:	bd00      	pop	{pc}

081c2ab2 <Dictionary_644>:
 81c2ab2:	081c2ac2 	ldmdaeq	ip, {r1, r6, r7, r9, fp, sp}
 81c2ab6:	5b060050 	blpl	8342bfe <FlashDictionaryEnde+0x142bfe>
 81c2aba:	72616863 	rsbvc	r6, r1, #6488064	; 0x630000
 81c2abe:	 	and	r0, r5, sp, asr r0

081c2ac0 <Code_644>:
 81c2ac0:	e005      	b.n	81c2ace <Code_645>

081c2ac2 <Dictionary_645>:
 81c2ac2:	081c2ada 	ldmdaeq	ip, {r1, r3, r4, r6, r7, r9, fp, sp}
 81c2ac6:	63040000 	movwvs	r0, #16384	; 0x4000
 81c2aca:	00726168 	rsbseq	r6, r2, r8, ror #2

081c2ace <Code_645>:
 81c2ace:	b500      	push	{lr}
 81c2ad0:	f001 fc9e 	bl	81c4410 <Code_1069>
 81c2ad4:	cf40      	ldmia	r7!, {r6}
 81c2ad6:	7836      	ldrb	r6, [r6, #0]
 81c2ad8:	bd00      	pop	{pc}

081c2ada <Dictionary_647>:
 81c2ada:	081c2aea 	ldmdaeq	ip, {r1, r3, r5, r6, r7, r9, fp, sp}
 81c2ade:	28010450 	stmdacs	r1, {r4, r6, sl}

081c2ae2 <Code_647>:
 81c2ae2:	f847 6d04 	str.w	r6, [r7, #-4]!
 81c2ae6:	2629      	movs	r6, #41	; 0x29
 81c2ae8:	e006      	b.n	81c2af8 <Code_650+0x6>

081c2aea <Dictionary_650>:
 81c2aea:	081c2b04 	ldmdaeq	ip, {r2, r8, r9, fp, sp}
 81c2aee:	5c010450 	cfstrspl	mvf0, [r1], {80}	; 0x50

081c2af2 <Code_650>:
 81c2af2:	f847 6d04 	str.w	r6, [r7, #-4]!
 81c2af6:	2600      	movs	r6, #0
 81c2af8:	b500      	push	{lr}
 81c2afa:	f001 fc93 	bl	81c4424 <Code_1071>
 81c2afe:	3704      	adds	r7, #4
 81c2b00:	cf40      	ldmia	r7!, {r6}
 81c2b02:	bd00      	pop	{pc}

081c2b04 <Dictionary_655>:
 81c2b04:	081c2b48 	ldmdaeq	ip, {r3, r6, r8, r9, fp, sp}
 81c2b08:	2e020030 	mcrcs	0, 0, r0, cr2, cr0, {1}
 81c2b0c:	 	stmiami	r9!, {r1, r5}

081c2b0e <Code_655>:
 81c2b0e:	48a9      	ldr	r0, [pc, #676]	; (81c2db4 <unused_ram+0x4>)
 81c2b10:	b500      	push	{lr}
 81c2b12:	f847 6d04 	str.w	r6, [r7, #-4]!
 81c2b16:	0006      	movs	r6, r0
 81c2b18:	f000 fa7d 	bl	81c3016 <Code_732>
 81c2b1c:	f847 6d04 	str.w	r6, [r7, #-4]!
 81c2b20:	2622      	movs	r6, #34	; 0x22
 81c2b22:	f001 fc7f 	bl	81c4424 <Code_1071>
 81c2b26:	f000 fdad 	bl	81c3684 <Code_832>
 81c2b2a:	bd00      	pop	{pc}

081c2b2c <dotgaensefuesschen>:
 81c2b2c:	b40a      	push	{r1, r3}
 81c2b2e:	f847 6d04 	str.w	r6, [r7, #-4]!
 81c2b32:	4676      	mov	r6, lr
 81c2b34:	3e01      	subs	r6, #1
 81c2b36:	7833      	ldrb	r3, [r6, #0]
 81c2b38:	2101      	movs	r1, #1
 81c2b3a:	3301      	adds	r3, #1
 81c2b3c:	4019      	ands	r1, r3
 81c2b3e:	185b      	adds	r3, r3, r1
 81c2b40:	eb1e 0e03 	adds.w	lr, lr, r3
 81c2b44:	bc0a      	pop	{r1, r3}
 81c2b46:	e039      	b.n	81c2bbc <Code_670>

081c2b48 <Dictionary_661>:
 81c2b48:	081c2b6e 	ldmdaeq	ip, {r1, r2, r3, r5, r6, r8, r9, fp, sp}
 81c2b4c:	63020030 	movwvs	r0, #8240	; 0x2030
 81c2b50:	 	ldmmi	r9, {r1, r5}

081c2b52 <Code_661>:
 81c2b52:	4899      	ldr	r0, [pc, #612]	; (81c2db8 <unused_ram+0x8>)
 81c2b54:	e7dc      	b.n	81c2b10 <Code_655+0x2>

081c2b56 <dotcfuesschen>:
 81c2b56:	f847 6d04 	str.w	r6, [r7, #-4]!
 81c2b5a:	4676      	mov	r6, lr
 81c2b5c:	3e01      	subs	r6, #1
 81c2b5e:	7833      	ldrb	r3, [r6, #0]
 81c2b60:	2101      	movs	r1, #1
 81c2b62:	3301      	adds	r3, #1
 81c2b64:	4019      	ands	r1, r3
 81c2b66:	185b      	adds	r3, r3, r1
 81c2b68:	eb1e 0e03 	adds.w	lr, lr, r3
 81c2b6c:	4770      	bx	lr

081c2b6e <Dictionary_663>:
 81c2b6e:	081c2b98 	ldmdaeq	ip, {r3, r4, r7, r8, r9, fp, sp}
 81c2b72:	73020030 	movwvc	r0, #8240	; 0x2030
 81c2b76:	 	ldmmi	r0, {r1, r5}

081c2b78 <Code_663>:
 81c2b78:	4890      	ldr	r0, [pc, #576]	; (81c2dbc <unused_ram+0xc>)
 81c2b7a:	e7c9      	b.n	81c2b10 <Code_655+0x2>

081c2b7c <dotsfuesschen>:
 81c2b7c:	f847 6d04 	str.w	r6, [r7, #-4]!
 81c2b80:	4676      	mov	r6, lr
 81c2b82:	f847 6d04 	str.w	r6, [r7, #-4]!
 81c2b86:	3e01      	subs	r6, #1
 81c2b88:	7836      	ldrb	r6, [r6, #0]
 81c2b8a:	2101      	movs	r1, #1
 81c2b8c:	1c73      	adds	r3, r6, #1
 81c2b8e:	4019      	ands	r1, r3
 81c2b90:	185b      	adds	r3, r3, r1
 81c2b92:	eb1e 0e03 	adds.w	lr, lr, r3
 81c2b96:	4770      	bx	lr

081c2b98 <Dictionary_667>:
 81c2b98:	081c2bb0 	ldmdaeq	ip, {r4, r5, r7, r8, r9, fp, sp}
 81c2b9c:	63050000 	movwvs	r0, #20480	; 0x5000
 81c2ba0:	746e756f 	strbtvc	r7, [lr], #-1391	; 0xfffffa91

081c2ba4 <Code_667>:
 81c2ba4:	3601      	adds	r6, #1
 81c2ba6:	f847 6d04 	str.w	r6, [r7, #-4]!
 81c2baa:	3e01      	subs	r6, #1
 81c2bac:	7836      	ldrb	r6, [r6, #0]
 81c2bae:	4770      	bx	lr

081c2bb0 <Dictionary_670>:
 81c2bb0:	081c2bc8 	ldmdaeq	ip, {r3, r6, r7, r8, r9, fp, sp}
 81c2bb4:	63050000 	movwvs	r0, #20480	; 0x5000
 81c2bb8:	65707974 	ldrbvs	r7, [r0, #-2420]!	; 0xfffff68c

081c2bbc <Code_670>:
 81c2bbc:	b500      	push	{lr}
 81c2bbe:	f7ff fff1 	bl	81c2ba4 <Code_667>
 81c2bc2:	f000 f807 	bl	81c2bd4 <Code_671>
 81c2bc6:	bd00      	pop	{pc}

081c2bc8 <Dictionary_671>:
 81c2bc8:	081c2bf0 	ldmdaeq	ip, {r4, r5, r6, r7, r8, r9, fp, sp}
 81c2bcc:	74040000 	strvc	r0, [r4], #-0
 81c2bd0:	00657079 	rsbeq	r7, r5, r9, ror r0

081c2bd4 <Code_671>:
 81c2bd4:	b501      	push	{r0, lr}
 81c2bd6:	cf01      	ldmia	r7!, {r0}
 81c2bd8:	2e00      	cmp	r6, #0
 81c2bda:	d007      	beq.n	81c2bec <Code_671+0x18>
 81c2bdc:	f847 6d04 	str.w	r6, [r7, #-4]!
 81c2be0:	7806      	ldrb	r6, [r0, #0]
 81c2be2:	f7ff fe08 	bl	81c27f6 <Code_598>
 81c2be6:	3001      	adds	r0, #1
 81c2be8:	3e01      	subs	r6, #1
 81c2bea:	d1f7      	bne.n	81c2bdc <Code_671+0x8>
 81c2bec:	cf40      	ldmia	r7!, {r6}
 81c2bee:	bd01      	pop	{r0, pc}

081c2bf0 <Dictionary_674>:
 81c2bf0:	081c2c2a 	ldmdaeq	ip, {r1, r3, r5, sl, fp, sp}
 81c2bf4:	68040000 	stmdavs	r4, {}	; <UNPREDICTABLE>
 81c2bf8:	002e7865 	eoreq	r7, lr, r5, ror #16

081c2bfc <Code_674>:
 81c2bfc:	b507      	push	{r0, r1, r2, lr}
 81c2bfe:	0031      	movs	r1, r6
 81c2c00:	cf40      	ldmia	r7!, {r6}
 81c2c02:	2020      	movs	r0, #32
 81c2c04:	220f      	movs	r2, #15
 81c2c06:	3804      	subs	r0, #4
 81c2c08:	f847 6d04 	str.w	r6, [r7, #-4]!
 81c2c0c:	000e      	movs	r6, r1
 81c2c0e:	40c6      	lsrs	r6, r0
 81c2c10:	4016      	ands	r6, r2
 81c2c12:	2e09      	cmp	r6, #9
 81c2c14:	d901      	bls.n	81c2c1a <Code_674+0x1e>
 81c2c16:	3637      	adds	r6, #55	; 0x37
 81c2c18:	e000      	b.n	81c2c1c <Code_674+0x20>
 81c2c1a:	3630      	adds	r6, #48	; 0x30
 81c2c1c:	f7ff fdeb 	bl	81c27f6 <Code_598>
 81c2c20:	2800      	cmp	r0, #0
 81c2c22:	d1f0      	bne.n	81c2c06 <Code_674+0xa>
 81c2c24:	f7ff ff31 	bl	81c2a8a <Code_639>
 81c2c28:	bd07      	pop	{r0, r1, r2, pc}

081c2c2a <Dictionary_677>:
 81c2c2a:	081c2c3a 	ldmdaeq	ip, {r1, r3, r4, r5, sl, fp, sp}
 81c2c2e:	68030000 	stmdavs	r3, {}	; <UNPREDICTABLE>
 81c2c32:	 	ldrlt	r7, [pc, #-814]	; 81c290c <Code_609+0x26>

081c2c34 <Code_677>:
 81c2c34:	b51f      	push	{r0, r1, r2, r3, r4, lr}
 81c2c36:	4c62      	ldr	r4, [pc, #392]	; (81c2dc0 <unused_ram+0x10>)
 81c2c38:	e00e      	b.n	81c2c58 <Code_679+0x4>

081c2c3a <Dictionary_678>:
 81c2c3a:	081c2c4a 	ldmdaeq	ip, {r1, r3, r6, sl, fp, sp}
 81c2c3e:	75030000 	strvc	r0, [r3, #-0]
 81c2c42:	 	ldrlt	r7, [pc, #-814]	; 81c291c <Code_609+0x36>

081c2c44 <Code_678>:
 81c2c44:	b51f      	push	{r0, r1, r2, r3, r4, lr}
 81c2c46:	4c5f      	ldr	r4, [pc, #380]	; (81c2dc4 <unused_ram+0x14>)
 81c2c48:	e006      	b.n	81c2c58 <Code_679+0x4>

081c2c4a <Dictionary_679>:
 81c2c4a:	081c2cee 	ldmdaeq	ip, {r1, r2, r3, r5, r6, r7, sl, fp, sp}
 81c2c4e:	2e020000 	cdpcs	0, 0, cr0, cr2, cr0, {0}
 81c2c52:	 	ldrlt	r0, [pc, #-115]	; 81c2be7 <Code_671+0x13>

081c2c54 <Code_679>:
 81c2c54:	b51f      	push	{r0, r1, r2, r3, r4, lr}
 81c2c56:	4c5c      	ldr	r4, [pc, #368]	; (81c2dc8 <unused_ram+0x18>)
 81c2c58:	495c      	ldr	r1, [pc, #368]	; (81c2dcc <unused_ram+0x1c>)
 81c2c5a:	1bc9      	subs	r1, r1, r7
 81c2c5c:	0889      	lsrs	r1, r1, #2
 81c2c5e:	0a22      	lsrs	r2, r4, #8
 81c2c60:	2020      	movs	r0, #32
 81c2c62:	2f29      	cmp	r7, #41	; 0x29
 81c2c64:	0a20      	lsrs	r0, r4, #8
 81c2c66:	2820      	cmp	r0, #32
 81c2c68:	3e27      	subs	r6, #39	; 0x27
 81c2c6a:	0a20      	lsrs	r0, r4, #8
 81c2c6c:	2f20      	cmp	r7, #32
 81c2c6e:	4343      	muls	r3, r0
 81c2c70:	2020      	movs	r0, #32
 81c2c72:	3320      	adds	r3, #32
 81c2c74:	2035      	movs	r0, #53	; 0x35
 81c2c76:	4343      	muls	r3, r0
 81c2c78:	0a43      	lsrs	r3, r0, #9
 81c2c7a:	5c38      	ldrb	r0, [r7, r0]
 81c2c7c:	2929      	cmp	r1, #41	; 0x29
 81c2c7e:	205f      	movs	r0, #95	; 0x5f
 81c2c80:	0a0a      	lsrs	r2, r1, #8
 81c2c82:	4a53      	ldr	r2, [pc, #332]	; (81c2dd0 <unused_ram+0x20>)
 81c2c84:	6810      	ldr	r0, [r2, #0]
 81c2c86:	b403      	push	{r0, r1}
 81c2c88:	200a      	movs	r0, #10
 81c2c8a:	6010      	str	r0, [r2, #0]
 81c2c8c:	f7ff ff4e 	bl	81c2b2c <dotgaensefuesschen>
 81c2c90:	61745308 	cmnvs	r4, r8, lsl #6
 81c2c94:	203a6b63 	eorscs	r6, sl, r3, ror #22
 81c2c98:	f847005b 			; <UNDEFINED> instruction: 0xf847005b
 81c2c9c:	6d04      	ldr	r4, [r0, #80]	; 0x50
 81c2c9e:	000e      	movs	r6, r1
 81c2ca0:	f001 fd8d 	bl	81c47be <Code_1135>
 81c2ca4:	f7ff ff42 	bl	81c2b2c <dotgaensefuesschen>
 81c2ca8:	00205d02 	eoreq	r5, r0, r2, lsl #26
 81c2cac:	bc03      	pop	{r0, r1}
 81c2cae:	3627      	adds	r6, #39	; 0x27
 81c2cb0:	4a47      	ldr	r2, [pc, #284]	; (81c2dd0 <unused_ram+0x20>)
 81c2cb2:	6010      	str	r0, [r2, #0]
 81c2cb4:	2900      	cmp	r1, #0
 81c2cb6:	d00a      	beq.n	81c2cce <Code_679+0x7a>
 81c2cb8:	4a46      	ldr	r2, [pc, #280]	; (81c2dd4 <unused_ram+0x24>)
 81c2cba:	6810      	ldr	r0, [r2, #0]
 81c2cbc:	b406      	push	{r1, r2}
 81c2cbe:	f847 6d04 	str.w	r6, [r7, #-4]!
 81c2cc2:	0006      	movs	r6, r0
 81c2cc4:	47a0      	blx	r4
 81c2cc6:	bc06      	pop	{r1, r2}
 81c2cc8:	3a04      	subs	r2, #4
 81c2cca:	3901      	subs	r1, #1
 81c2ccc:	d1f5      	bne.n	81c2cba <Code_679+0x66>
 81c2cce:	f7ff ff2d 	bl	81c2b2c <dotgaensefuesschen>
 81c2cd2:	4f542006 	svcmi	0x00542006
 81c2cd6:	00203a53 	eoreq	r3, r0, r3, asr sl
 81c2cda:	f847 6d04 	str.w	r6, [r7, #-4]!
 81c2cde:	0036      	movs	r6, r6
 81c2ce0:	47a0      	blx	r4
 81c2ce2:	f7ff ff23 	bl	81c2b2c <dotgaensefuesschen>
 81c2ce6:	3e2a2004 	cdpcc	0, 2, cr2, cr10, cr4, {0}
 81c2cea:	bd1f000a 	ldclt	0, cr0, [pc, #-40]	; 81c2cc8 <Code_679+0x74>

081c2cee <Dictionary_690>:
 81c2cee:	081c2d8e 	ldmdaeq	ip, {r1, r2, r3, r7, r8, sl, fp, sp}
 81c2cf2:	77050000 	strvc	r0, [r5, -r0]
 81c2cf6:	7364726f 	cmnvc	r4, #-268435450	; 0xf0000006

081c2cfa <Code_690>:
 81c2cfa:	b500      	push	{lr}
 81c2cfc:	f7ff ff16 	bl	81c2b2c <dotgaensefuesschen>
 81c2d00:	f0000a01 			; <UNDEFINED> instruction: 0xf0000a01
 81c2d04:	ff05 f7ff 	vaba.u8	<illegal reg q7.5>, <illegal reg q10.5>, <illegal reg q15.5>
 81c2d08:	ff11 4109 	vrhadd.u16	d4, d1, d9
 81c2d0c:	65726464 	ldrbvs	r6, [r2, #-1124]!	; 0xfffffb9c
 81c2d10:	203a7373 	eorscs	r7, sl, r3, ror r3
 81c2d14:	f847 6d04 	str.w	r6, [r7, #-4]!
 81c2d18:	f7ff ff70 	bl	81c2bfc <Code_674>
 81c2d1c:	f7ff ff06 	bl	81c2b2c <dotgaensefuesschen>
 81c2d20:	6e694c06 	cdpvs	12, 6, cr4, cr9, cr6, {0}
 81c2d24:	00203a6b 	eoreq	r3, r0, fp, ror #20
 81c2d28:	f847 6d04 	str.w	r6, [r7, #-4]!
 81c2d2c:	6836      	ldr	r6, [r6, #0]
 81c2d2e:	f7ff ff65 	bl	81c2bfc <Code_674>
 81c2d32:	f7ff fefb 	bl	81c2b2c <dotgaensefuesschen>
 81c2d36:	616c4607 	cmnvs	ip, r7, lsl #12
 81c2d3a:	203a7367 	eorscs	r7, sl, r7, ror #6
 81c2d3e:	f847 6d04 	str.w	r6, [r7, #-4]!
 81c2d42:	88b6      	ldrh	r6, [r6, #4]
 81c2d44:	f7ff ff5a 	bl	81c2bfc <Code_674>
 81c2d48:	f7ff fef0 	bl	81c2b2c <dotgaensefuesschen>
 81c2d4c:	646f4306 	strbtvs	r4, [pc], #-774	; 81c2d54 <Code_690+0x5a>
 81c2d50:	00203a65 	eoreq	r3, r0, r5, ror #20
 81c2d54:	1db0      	adds	r0, r6, #6
 81c2d56:	f000 ff28 	bl	81c3baa <skipstring>
 81c2d5a:	f847 6d04 	str.w	r6, [r7, #-4]!
 81c2d5e:	0006      	movs	r6, r0
 81c2d60:	f7ff ff4c 	bl	81c2bfc <Code_674>
 81c2d64:	f7ff fee2 	bl	81c2b2c <dotgaensefuesschen>
 81c2d68:	6d614e06 	stclvs	14, cr4, [r1, #-24]!	; 0xffffffe8
 81c2d6c:	00203a65 	eoreq	r3, r0, r5, ror #20
 81c2d70:	f847 6d04 	str.w	r6, [r7, #-4]!
 81c2d74:	3606      	adds	r6, #6
 81c2d76:	f7ff ff21 	bl	81c2bbc <Code_670>
 81c2d7a:	f7ff fed7 	bl	81c2b2c <dotgaensefuesschen>
 81c2d7e:	f0000a01 			; <UNDEFINED> instruction: 0xf0000a01
 81c2d82:	fedd 0030 	mrc2	0, 6, r0, cr13, cr0, {1}
 81c2d86:	cf40      	ldmia	r7!, {r6}
 81c2d88:	d0bd      	beq.n	81c2d06 <Code_690+0xc>
 81c2d8a:	cf40      	ldmia	r7!, {r6}
 81c2d8c:	bd00      	pop	{pc}

081c2d8e <Dictionary_710>:
 81c2d8e:	081c2de0 	ldmdaeq	ip, {r5, r6, r7, r8, sl, fp, sp}
 81c2d92:	75060000 	strvc	r0, [r6, #-0]
 81c2d96:	6573756e 	ldrbvs	r7, [r3, #-1390]!	; 0xfffffa92
 81c2d9a:	 	strlt	r0, [r0, #-100]	; 0xffffff9c

081c2d9c <Code_710>:
 81c2d9c:	b500      	push	{lr}
 81c2d9e:	f000 ffda 	bl	81c3d56 <Code_923>
 81c2da2:	480d      	ldr	r0, [pc, #52]	; (81c2dd8 <unused_ram+0x28>)
 81c2da4:	6801      	ldr	r1, [r0, #0]
 81c2da6:	4a0d      	ldr	r2, [pc, #52]	; (81c2ddc <unused_ram+0x2c>)
 81c2da8:	4291      	cmp	r1, r2
 81c2daa:	d201      	bcs.n	81c2db0 <unused_ram>
 81c2dac:	f04f 6602 	mov.w	r6, #136314880	; 0x8200000

081c2db0 <unused_ram>:
 81c2db0:	1a76      	subs	r6, r6, r1
 81c2db2:	bd00      	pop	{pc}
 81c2db4:	081c2b2c 	ldmdaeq	ip, {r2, r3, r5, r8, r9, fp, sp}
 81c2db8:	081c2b56 	ldmdaeq	ip, {r1, r2, r4, r6, r8, r9, fp, sp}
 81c2dbc:	081c2b7c 	ldmdaeq	ip, {r2, r3, r4, r5, r6, r8, r9, fp, sp}
 81c2dc0:	081c2bfd 	ldmdaeq	ip, {r0, r2, r3, r4, r5, r6, r7, r8, r9, fp, sp}
 81c2dc4:	081c47af 	ldmdaeq	ip, {r0, r1, r2, r3, r5, r7, r8, r9, sl, lr}
 81c2dc8:	081c47bf 	ldmdaeq	ip, {r0, r1, r2, r3, r4, r5, r7, r8, r9, sl, lr}
 81c2dcc:	38000a88 	stmdacc	r0, {r3, r7, r9, fp}
 81c2dd0:	380087fc 	stmdacc	r0, {r2, r3, r4, r5, r6, r7, r8, r9, sl, pc}
 81c2dd4:	38000a84 	stmdacc	r0, {r2, r7, r9, fp}
 81c2dd8:	380087d0 	stmdacc	r0, {r4, r6, r7, r8, r9, sl, pc}
 81c2ddc:	38000800 	stmdacc	r0, {fp}

081c2de0 <Dictionary_711>:
 81c2de0:	081c2f44 	ldmdaeq	ip, {r2, r6, r8, r9, sl, fp, sp}
 81c2de4:	310d0000 	mrscc	r0, (UNDEF: 13)
 81c2de8:	74696232 	strbtvc	r6, [r9], #-562	; 0xfffffdce
 81c2dec:	6f636e65 	svcvs	0x00636e65
 81c2df0:	676e6964 	strbvs	r6, [lr, -r4, ror #18]!

081c2df4 <Code_711>:
 81c2df4:	b50f      	push	{r0, r1, r2, r3, lr}
 81c2df6:	2eff      	cmp	r6, #255	; 0xff
 81c2df8:	d804      	bhi.n	81c2e04 <Code_711+0x10>
 81c2dfa:	f847 6d04 	str.w	r6, [r7, #-4]!
 81c2dfe:	f05f 36ff 	movs.w	r6, #4294967295	; 0xffffffff
 81c2e02:	bd0f      	pop	{r0, r1, r2, r3, pc}
 81c2e04:	f016 10ff 	ands.w	r0, r6, #16711935	; 0xff00ff
 81c2e08:	42b0      	cmp	r0, r6
 81c2e0a:	d10e      	bne.n	81c2e2a <Code_711+0x36>
 81c2e0c:	f64f 71ff 	movw	r1, #65535	; 0xffff
 81c2e10:	4008      	ands	r0, r1
 81c2e12:	0c31      	lsrs	r1, r6, #16
 81c2e14:	4281      	cmp	r1, r0
 81c2e16:	d108      	bne.n	81c2e2a <Code_711+0x36>
 81c2e18:	f016 06ff 	ands.w	r6, r6, #255	; 0xff
 81c2e1c:	f456 5680 	orrs.w	r6, r6, #4096	; 0x1000
 81c2e20:	f847 6d04 	str.w	r6, [r7, #-4]!
 81c2e24:	f05f 36ff 	movs.w	r6, #4294967295	; 0xffffffff
 81c2e28:	bd0f      	pop	{r0, r1, r2, r3, pc}
 81c2e2a:	f016 20ff 	ands.w	r0, r6, #4278255360	; 0xff00ff00
 81c2e2e:	42b0      	cmp	r0, r6
 81c2e30:	d10f      	bne.n	81c2e52 <Code_711+0x5e>
 81c2e32:	f64f 71ff 	movw	r1, #65535	; 0xffff
 81c2e36:	4008      	ands	r0, r1
 81c2e38:	0c31      	lsrs	r1, r6, #16
 81c2e3a:	4281      	cmp	r1, r0
 81c2e3c:	d109      	bne.n	81c2e52 <Code_711+0x5e>
 81c2e3e:	0a36      	lsrs	r6, r6, #8
 81c2e40:	f016 06ff 	ands.w	r6, r6, #255	; 0xff
 81c2e44:	f456 5600 	orrs.w	r6, r6, #8192	; 0x2000
 81c2e48:	f847 6d04 	str.w	r6, [r7, #-4]!
 81c2e4c:	f05f 36ff 	movs.w	r6, #4294967295	; 0xffffffff
 81c2e50:	bd0f      	pop	{r0, r1, r2, r3, pc}
 81c2e52:	22ff      	movs	r2, #255	; 0xff
 81c2e54:	0031      	movs	r1, r6
 81c2e56:	4011      	ands	r1, r2
 81c2e58:	0a30      	lsrs	r0, r6, #8
 81c2e5a:	4010      	ands	r0, r2
 81c2e5c:	4288      	cmp	r0, r1
 81c2e5e:	d110      	bne.n	81c2e82 <Code_711+0x8e>
 81c2e60:	0c30      	lsrs	r0, r6, #16
 81c2e62:	4010      	ands	r0, r2
 81c2e64:	4288      	cmp	r0, r1
 81c2e66:	d10c      	bne.n	81c2e82 <Code_711+0x8e>
 81c2e68:	0e30      	lsrs	r0, r6, #24
 81c2e6a:	4010      	ands	r0, r2
 81c2e6c:	4288      	cmp	r0, r1
 81c2e6e:	d108      	bne.n	81c2e82 <Code_711+0x8e>
 81c2e70:	f016 06ff 	ands.w	r6, r6, #255	; 0xff
 81c2e74:	f456 5640 	orrs.w	r6, r6, #12288	; 0x3000
 81c2e78:	f847 6d04 	str.w	r6, [r7, #-4]!
 81c2e7c:	f05f 36ff 	movs.w	r6, #4294967295	; 0xffffffff
 81c2e80:	bd0f      	pop	{r0, r1, r2, r3, pc}
 81c2e82:	0030      	movs	r0, r6
 81c2e84:	2100      	movs	r1, #0
 81c2e86:	3101      	adds	r1, #1
 81c2e88:	1800      	adds	r0, r0, r0
 81c2e8a:	f150 0000 	adcs.w	r0, r0, #0
 81c2e8e:	f07f 027f 	mvns.w	r2, #127	; 0x7f
 81c2e92:	4002      	ands	r2, r0
 81c2e94:	2a80      	cmp	r2, #128	; 0x80
 81c2e96:	d005      	beq.n	81c2ea4 <Code_711+0xb0>
 81c2e98:	291f      	cmp	r1, #31
 81c2e9a:	d3f4      	bcc.n	81c2e86 <Code_711+0x92>
 81c2e9c:	f847 6d04 	str.w	r6, [r7, #-4]!
 81c2ea0:	2600      	movs	r6, #0
 81c2ea2:	bd0f      	pop	{r0, r1, r2, r3, pc}
 81c2ea4:	2908      	cmp	r1, #8
 81c2ea6:	d3f9      	bcc.n	81c2e9c <Code_711+0xa8>
 81c2ea8:	0006      	movs	r6, r0
 81c2eaa:	f036 0680 	bics.w	r6, r6, #128	; 0x80
 81c2eae:	f011 0001 	ands.w	r0, r1, #1
 81c2eb2:	01c0      	lsls	r0, r0, #7
 81c2eb4:	4306      	orrs	r6, r0
 81c2eb6:	f011 000e 	ands.w	r0, r1, #14
 81c2eba:	02c0      	lsls	r0, r0, #11
 81c2ebc:	4306      	orrs	r6, r0
 81c2ebe:	f011 0010 	ands.w	r0, r1, #16
 81c2ec2:	0580      	lsls	r0, r0, #22
 81c2ec4:	4306      	orrs	r6, r0
 81c2ec6:	f847 6d04 	str.w	r6, [r7, #-4]!
 81c2eca:	f05f 36ff 	movs.w	r6, #4294967295	; 0xffffffff
 81c2ece:	bd0f      	pop	{r0, r1, r2, r3, pc}

081c2ed0 <movwkomma>:
 81c2ed0:	f847 6d04 	str.w	r6, [r7, #-4]!
 81c2ed4:	f8df 65c4 	ldr.w	r6, [pc, #1476]	; 81c349c <Code_803+0x14>
 81c2ed8:	f45f 4170 	movs.w	r1, #61440	; 0xf000
 81c2edc:	ea10 0201 	ands.w	r2, r0, r1
 81c2ee0:	0112      	lsls	r2, r2, #4
 81c2ee2:	4316      	orrs	r6, r2
 81c2ee4:	f45f 6100 	movs.w	r1, #2048	; 0x800
 81c2ee8:	ea10 0201 	ands.w	r2, r0, r1
 81c2eec:	03d2      	lsls	r2, r2, #15
 81c2eee:	4316      	orrs	r6, r2
 81c2ef0:	f45f 61e0 	movs.w	r1, #1792	; 0x700
 81c2ef4:	ea10 0201 	ands.w	r2, r0, r1
 81c2ef8:	0112      	lsls	r2, r2, #4
 81c2efa:	4316      	orrs	r6, r2
 81c2efc:	21ff      	movs	r1, #255	; 0xff
 81c2efe:	ea10 0201 	ands.w	r2, r0, r1
 81c2f02:	4316      	orrs	r6, r2
 81c2f04:	431e      	orrs	r6, r3
 81c2f06:	e3b2      	b.n	81c366e <Code_831>

081c2f08 <movtkomma>:
 81c2f08:	f847 6d04 	str.w	r6, [r7, #-4]!
 81c2f0c:	f8df 6590 	ldr.w	r6, [pc, #1424]	; 81c34a0 <Code_803+0x18>
 81c2f10:	f05f 4170 	movs.w	r1, #4026531840	; 0xf0000000
 81c2f14:	ea10 0201 	ands.w	r2, r0, r1
 81c2f18:	0b12      	lsrs	r2, r2, #12
 81c2f1a:	4316      	orrs	r6, r2
 81c2f1c:	f05f 6100 	movs.w	r1, #134217728	; 0x8000000
 81c2f20:	ea10 0201 	ands.w	r2, r0, r1
 81c2f24:	0852      	lsrs	r2, r2, #1
 81c2f26:	4316      	orrs	r6, r2
 81c2f28:	f05f 61e0 	movs.w	r1, #117440512	; 0x7000000
 81c2f2c:	ea10 0201 	ands.w	r2, r0, r1
 81c2f30:	0b12      	lsrs	r2, r2, #12
 81c2f32:	4316      	orrs	r6, r2
 81c2f34:	f45f 017f 	movs.w	r1, #16711680	; 0xff0000
 81c2f38:	ea10 0201 	ands.w	r2, r0, r1
 81c2f3c:	0c12      	lsrs	r2, r2, #16
 81c2f3e:	4316      	orrs	r6, r2
 81c2f40:	431e      	orrs	r6, r3
 81c2f42:	e394      	b.n	81c366e <Code_831>

081c2f44 <Dictionary_720>:
 81c2f44:	081c2faa 	ldmdaeq	ip, {r1, r3, r5, r7, r8, r9, sl, fp, sp}
 81c2f48:	72100000 	andsvc	r0, r0, #0
 81c2f4c:	73696765 	cmnvc	r9, #26476544	; 0x1940000
 81c2f50:	6c726574 	cfldr64vs	mvdx6, [r2], #-464	; 0xfffffe30
 81c2f54:	72657469 	rsbvc	r7, r5, #1761607680	; 0x69000000
 81c2f58:	002c6c61 	eoreq	r6, ip, r1, ror #24

081c2f5c <Code_720>:
 81c2f5c:	b50f      	push	{r0, r1, r2, r3, lr}
 81c2f5e:	0033      	movs	r3, r6
 81c2f60:	cf40      	ldmia	r7!, {r6}
 81c2f62:	021b      	lsls	r3, r3, #8
 81c2f64:	2eff      	cmp	r6, #255	; 0xff
 81c2f66:	d805      	bhi.n	81c2f74 <Code_720+0x18>
 81c2f68:	f456 5600 	orrs.w	r6, r6, #8192	; 0x2000
 81c2f6c:	431e      	orrs	r6, r3
 81c2f6e:	f000 fb4f 	bl	81c3610 <Code_822>
 81c2f72:	bd0f      	pop	{r0, r1, r2, r3, pc}
 81c2f74:	f7ff ff3e 	bl	81c2df4 <Code_711>
 81c2f78:	2e00      	cmp	r6, #0
 81c2f7a:	cf40      	ldmia	r7!, {r6}
 81c2f7c:	d006      	beq.n	81c2f8c <Code_720+0x30>
 81c2f7e:	f8df 0524 	ldr.w	r0, [pc, #1316]	; 81c34a4 <Code_803+0x1c>
 81c2f82:	4306      	orrs	r6, r0
 81c2f84:	431e      	orrs	r6, r3
 81c2f86:	f000 fb72 	bl	81c366e <Code_831>
 81c2f8a:	bd0f      	pop	{r0, r1, r2, r3, pc}
 81c2f8c:	43f6      	mvns	r6, r6
 81c2f8e:	f7ff ff31 	bl	81c2df4 <Code_711>
 81c2f92:	2e00      	cmp	r6, #0
 81c2f94:	cf40      	ldmia	r7!, {r6}
 81c2f96:	d006      	beq.n	81c2fa6 <Code_720+0x4a>
 81c2f98:	f8df 050c 	ldr.w	r0, [pc, #1292]	; 81c34a8 <Code_803+0x20>
 81c2f9c:	4306      	orrs	r6, r0
 81c2f9e:	431e      	orrs	r6, r3
 81c2fa0:	f000 fb65 	bl	81c366e <Code_831>
 81c2fa4:	bd0f      	pop	{r0, r1, r2, r3, pc}
 81c2fa6:	43f6      	mvns	r6, r6
 81c2fa8:	e00b      	b.n	81c2fc2 <movwmovt_register_r3>

081c2faa <Dictionary_724>:
 81c2faa:	081c300a 	ldmdaeq	ip, {r1, r3, ip, sp}
 81c2fae:	6d090000 	stcvs	0, cr0, [r9, #-0]
 81c2fb2:	6d77766f 	ldclvs	6, cr7, [r7, #-444]!	; 0xfffffe44
 81c2fb6:	2c74766f 	ldclcs	6, cr7, [r4], #-444	; 0xfffffe44

081c2fba <Code_724>:
 81c2fba:	b50f      	push	{r0, r1, r2, r3, lr}
 81c2fbc:	0033      	movs	r3, r6
 81c2fbe:	cf40      	ldmia	r7!, {r6}
 81c2fc0:	021b      	lsls	r3, r3, #8

081c2fc2 <movwmovt_register_r3>:
 81c2fc2:	0030      	movs	r0, r6
 81c2fc4:	cf40      	ldmia	r7!, {r6}
 81c2fc6:	f7ff ff83 	bl	81c2ed0 <movwkomma>
 81c2fca:	f64f 71ff 	movw	r1, #65535	; 0xffff
 81c2fce:	ea10 4001 	ands.w	r0, r0, r1, lsl #16
 81c2fd2:	d001      	beq.n	81c2fd8 <movwmovt_register_r3+0x16>
 81c2fd4:	f7ff ff98 	bl	81c2f08 <movtkomma>
 81c2fd8:	bd0f      	pop	{r0, r1, r2, r3, pc}

081c2fda <callkommalang>:
 81c2fda:	b50f      	push	{r0, r1, r2, r3, lr}
 81c2fdc:	3601      	adds	r6, #1
 81c2fde:	0030      	movs	r0, r6
 81c2fe0:	cf40      	ldmia	r7!, {r6}
 81c2fe2:	2300      	movs	r3, #0
 81c2fe4:	f7ff ff74 	bl	81c2ed0 <movwkomma>
 81c2fe8:	f7ff ff8e 	bl	81c2f08 <movtkomma>
 81c2fec:	e006      	b.n	81c2ffc <callkommakurz_intern>

081c2fee <callkommakurz>:
 81c2fee:	b50f      	push	{r0, r1, r2, r3, lr}
 81c2ff0:	3601      	adds	r6, #1
 81c2ff2:	f847 6d04 	str.w	r6, [r7, #-4]!
 81c2ff6:	2600      	movs	r6, #0
 81c2ff8:	f7ff ffb0 	bl	81c2f5c <Code_720>

081c2ffc <callkommakurz_intern>:
 81c2ffc:	f847 6d04 	str.w	r6, [r7, #-4]!
 81c3000:	f244 7680 	movw	r6, #18304	; 0x4780
 81c3004:	f000 fb04 	bl	81c3610 <Code_822>
 81c3008:	bd0f      	pop	{r0, r1, r2, r3, pc}

081c300a <Dictionary_732>:
 81c300a:	081c3070 	ldmdaeq	ip, {r4, r5, r6, ip, sp}
 81c300e:	63050000 	movwvs	r0, #20480	; 0x5000
 81c3012:	2c6c6c61 	stclcs	12, cr6, [ip], #-388	; 0xfffffe7c

081c3016 <Code_732>:
 81c3016:	b50f      	push	{r0, r1, r2, r3, lr}
 81c3018:	0033      	movs	r3, r6
 81c301a:	f000 fe8d 	bl	81c3d38 <Code_921>
 81c301e:	0030      	movs	r0, r6
 81c3020:	cf40      	ldmia	r7!, {r6}
 81c3022:	1a1b      	subs	r3, r3, r0
 81c3024:	3b04      	subs	r3, #4
 81c3026:	f8df 1484 	ldr.w	r1, [pc, #1156]	; 81c34ac <Code_803+0x24>
 81c302a:	4019      	ands	r1, r3
 81c302c:	2900      	cmp	r1, #0
 81c302e:	d006      	beq.n	81c303e <Code_732+0x28>
 81c3030:	f8df 247c 	ldr.w	r2, [pc, #1148]	; 81c34b0 <Code_803+0x28>
 81c3034:	4291      	cmp	r1, r2
 81c3036:	d002      	beq.n	81c303e <Code_732+0x28>
 81c3038:	e8bd 400f 	ldmia.w	sp!, {r0, r1, r2, r3, lr}
 81c303c:	e7d7      	b.n	81c2fee <callkommakurz>
 81c303e:	cf40      	ldmia	r7!, {r6}
 81c3040:	085b      	lsrs	r3, r3, #1
 81c3042:	f8df 0470 	ldr.w	r0, [pc, #1136]	; 81c34b4 <Code_803+0x2c>
 81c3046:	f240 71ff 	movw	r1, #2047	; 0x7ff
 81c304a:	4019      	ands	r1, r3
 81c304c:	4308      	orrs	r0, r1
 81c304e:	0adb      	lsrs	r3, r3, #11
 81c3050:	f240 31ff 	movw	r1, #1023	; 0x3ff
 81c3054:	4019      	ands	r1, r3
 81c3056:	0409      	lsls	r1, r1, #16
 81c3058:	4308      	orrs	r0, r1
 81c305a:	0a9b      	lsrs	r3, r3, #10
 81c305c:	f013 0101 	ands.w	r1, r3, #1
 81c3060:	0689      	lsls	r1, r1, #26
 81c3062:	4308      	orrs	r0, r1
 81c3064:	f847 6d04 	str.w	r6, [r7, #-4]!
 81c3068:	0006      	movs	r6, r0
 81c306a:	f000 fb00 	bl	81c366e <Code_831>
 81c306e:	bd0f      	pop	{r0, r1, r2, r3, pc}

081c3070 <Dictionary_737>:
 81c3070:	081c30a6 	ldmdaeq	ip, {r1, r2, r5, r7, ip, sp}
 81c3074:	6c080000 	stcvs	0, cr0, [r8], {-0}
 81c3078:	72657469 	rsbvc	r7, r5, #1761607680	; 0x69000000
 81c307c:	002c6c61 	eoreq	r6, ip, r1, ror #24

081c3080 <Code_737>:
 81c3080:	b508      	push	{r3, lr}
 81c3082:	f847 6d04 	str.w	r6, [r7, #-4]!
 81c3086:	f64f 0647 	movw	r6, #63559	; 0xf847
 81c308a:	f000 fac1 	bl	81c3610 <Code_822>
 81c308e:	f847 6d04 	str.w	r6, [r7, #-4]!
 81c3092:	f646 5604 	movw	r6, #27908	; 0x6d04
 81c3096:	f000 fabb 	bl	81c3610 <Code_822>
 81c309a:	f847 6d04 	str.w	r6, [r7, #-4]!
 81c309e:	2606      	movs	r6, #6
 81c30a0:	f7ff ff5c 	bl	81c2f5c <Code_720>
 81c30a4:	bd08      	pop	{r3, pc}

081c30a6 <Dictionary_744>:
 81c30a6:	081c30d6 	ldmdaeq	ip, {r1, r2, r4, r6, r7, ip, sp}
 81c30aa:	63060000 	movwvs	r0, #24576	; 0x6000
 81c30ae:	74616572 	strbtvc	r6, [r1], #-1394	; 0xfffffa8e
 81c30b2:	 	strlt	r0, [r0, #-101]	; 0xffffff9b

081c30b4 <Code_744>:
 81c30b4:	b500      	push	{lr}
 81c30b6:	f000 f842 	bl	81c313e <Code_749>
 81c30ba:	f243 00f7 	movw	r0, #12535	; 0x30f7
 81c30be:	f6c0 001c 	movt	r0, #2076	; 0x81c
 81c30c2:	4780      	blx	r0
 81c30c4:	f847 6d04 	str.w	r6, [r7, #-4]!
 81c30c8:	f1be 0601 	subs.w	r6, lr, #1
 81c30cc:	48fa      	ldr	r0, [pc, #1000]	; (81c34b8 <Code_803+0x30>)
 81c30ce:	4586      	cmp	lr, r0
 81c30d0:	d200      	bcs.n	81c30d4 <Code_744+0x20>
 81c30d2:	3610      	adds	r6, #16
 81c30d4:	bd00      	pop	{pc}

081c30d6 <Dictionary_746>:
 81c30d6:	081c3130 	ldmdaeq	ip, {r4, r5, r8, ip, sp}
 81c30da:	64050020 	strvs	r0, [r5], #-32	; 0xffffffe0
 81c30de:	3e73656f 	cdpcc	5, 7, cr6, cr3, cr15, {3}

081c30e2 <Code_746>:
 81c30e2:	f243 00f7 	movw	r0, #12535	; 0x30f7
 81c30e6:	f6c0 001c 	movt	r0, #2076	; 0x81c
 81c30ea:	4780      	blx	r0
 81c30ec:	f847 6d04 	str.w	r6, [r7, #-4]!
 81c30f0:	f1be 0601 	subs.w	r6, lr, #1
 81c30f4:	4770      	bx	lr

081c30f6 <dodoes>:
 81c30f6:	f847 6d04 	str.w	r6, [r7, #-4]!
 81c30fa:	f1be 0601 	subs.w	r6, lr, #1
 81c30fe:	4aef      	ldr	r2, [pc, #956]	; (81c34bc <Code_803+0x34>)
 81c3100:	6813      	ldr	r3, [r2, #0]
 81c3102:	49ef      	ldr	r1, [pc, #956]	; (81c34c0 <Code_803+0x38>)
 81c3104:	6809      	ldr	r1, [r1, #0]
 81c3106:	48ec      	ldr	r0, [pc, #944]	; (81c34b8 <Code_803+0x30>)
 81c3108:	4283      	cmp	r3, r0
 81c310a:	d205      	bcs.n	81c3118 <dodoes_ram>
 81c310c:	201f      	movs	r0, #31
 81c310e:	4008      	ands	r0, r1
 81c3110:	2804      	cmp	r0, #4
 81c3112:	d005      	beq.n	81c3120 <dodoes_ram+0x8>
 81c3114:	3102      	adds	r1, #2
 81c3116:	e7f9      	b.n	81c310c <dodoes+0x16>

081c3118 <dodoes_ram>:
 81c3118:	2002      	movs	r0, #2
 81c311a:	4008      	ands	r0, r1
 81c311c:	d000      	beq.n	81c3120 <dodoes_ram+0x8>
 81c311e:	3102      	adds	r1, #2
 81c3120:	3102      	adds	r1, #2
 81c3122:	6011      	str	r1, [r2, #0]
 81c3124:	f7ff ff59 	bl	81c2fda <callkommalang>
 81c3128:	6013      	str	r3, [r2, #0]
 81c312a:	f000 f9de 	bl	81c34ea <Code_805>
 81c312e:	bd00      	pop	{pc}

081c3130 <Dictionary_749>:
 81c3130:	081c318a 	ldmdaeq	ip, {r1, r3, r7, r8, ip, sp}
 81c3134:	3c070000 	stccc	0, cr0, [r7], {-0}
 81c3138:	6c697562 	cfstr64vs	mvdx7, [r9], #-392	; 0xfffffe78
 81c313c:	 	strlt	r7, [r0, #-868]	; 0xfffffc9c

081c313e <Code_749>:
 81c313e:	b500      	push	{lr}
 81c3140:	f000 fbbe 	bl	81c38c0 <Code_854>
 81c3144:	48dd      	ldr	r0, [pc, #884]	; (81c34bc <Code_803+0x34>)
 81c3146:	6801      	ldr	r1, [r0, #0]
 81c3148:	4adb      	ldr	r2, [pc, #876]	; (81c34b8 <Code_803+0x30>)
 81c314a:	4291      	cmp	r1, r2
 81c314c:	d209      	bcs.n	81c3162 <builds_ram>
 81c314e:	f000 fdf3 	bl	81c3d38 <Code_921>
 81c3152:	201f      	movs	r0, #31
 81c3154:	4006      	ands	r6, r0
 81c3156:	2e04      	cmp	r6, #4
 81c3158:	cf40      	ldmia	r7!, {r6}
 81c315a:	d00a      	beq.n	81c3172 <builds_ram+0x10>
 81c315c:	f000 fa4a 	bl	81c35f4 <nop_hkomma>
 81c3160:	e7f5      	b.n	81c314e <Code_749+0x10>

081c3162 <builds_ram>:
 81c3162:	f000 fde9 	bl	81c3d38 <Code_921>
 81c3166:	2002      	movs	r0, #2
 81c3168:	4006      	ands	r6, r0
 81c316a:	cf40      	ldmia	r7!, {r6}
 81c316c:	d001      	beq.n	81c3172 <builds_ram+0x10>
 81c316e:	f000 fa41 	bl	81c35f4 <nop_hkomma>
 81c3172:	f847 6d04 	str.w	r6, [r7, #-4]!
 81c3176:	f24b 5600 	movw	r6, #46336	; 0xb500
 81c317a:	f000 fa49 	bl	81c3610 <Code_822>
 81c317e:	f847 6d04 	str.w	r6, [r7, #-4]!
 81c3182:	260a      	movs	r6, #10
 81c3184:	f000 faaa 	bl	81c36dc <Code_835>
 81c3188:	bd00      	pop	{pc}

081c318a <Dictionary_756>:
 81c318a:	081c3196 	ldmdaeq	ip, {r1, r2, r4, r7, r8, ip, sp}
 81c318e:	5b030050 	blpl	82832d6 <FlashDictionaryEnde+0x832d6>
 81c3192:	 	and	r5, r3, r7, lsr #26

081c3194 <Code_756>:
 81c3194:	e003      	b.n	81c319e <Code_757>

081c3196 <Dictionary_757>:
 81c3196:	081c31ae 	ldmdaeq	ip, {r1, r2, r3, r5, r7, r8, ip, sp}
 81c319a:	27010000 	strcs	r0, [r1, -r0]

081c319e <Code_757>:
 81c319e:	b500      	push	{lr}
 81c31a0:	f001 f936 	bl	81c4410 <Code_1069>
 81c31a4:	f000 fd62 	bl	81c3c6c <find_not_found>
 81c31a8:	0030      	movs	r0, r6
 81c31aa:	cf40      	ldmia	r7!, {r6}
 81c31ac:	bd00      	pop	{pc}

081c31ae <Dictionary_759>:
 81c31ae:	081c31dc 	ldmdaeq	ip, {r2, r3, r4, r6, r7, r8, ip, sp}
 81c31b2:	70080030 	andvc	r0, r8, r0, lsr r0
 81c31b6:	7074736f 	rsbsvc	r7, r4, pc, ror #6
 81c31ba:	00656e6f 	rsbeq	r6, r5, pc, ror #28

081c31be <Code_759>:
 81c31be:	b500      	push	{lr}
 81c31c0:	f7ff ffed 	bl	81c319e <Code_757>
 81c31c4:	3f04      	subs	r7, #4
 81c31c6:	6038      	str	r0, [r7, #0]
 81c31c8:	f7ff ff5a 	bl	81c3080 <Code_737>
 81c31cc:	f7ff ff58 	bl	81c3080 <Code_737>
 81c31d0:	f847 6d04 	str.w	r6, [r7, #-4]!
 81c31d4:	4ebb      	ldr	r6, [pc, #748]	; (81c34c4 <Code_803+0x3c>)
 81c31d6:	f7ff ff1e 	bl	81c3016 <Code_732>
 81c31da:	bd00      	pop	{pc}

081c31dc <Dictionary_761>:
 81c31dc:	081c3230 	ldmdaeq	ip, {r4, r5, r9, ip, sp}
 81c31e0:	69070000 	stmdbvs	r7, {}	; <UNPREDICTABLE>
 81c31e4:	6e696c6e 	cdpvs	12, 6, cr6, cr9, cr14, {3}
 81c31e8:	 	strlt	r2, [r0, #-3173]	; 0xfffff39b

081c31ea <Code_761>:
 81c31ea:	b500      	push	{lr}
 81c31ec:	f24b 5100 	movw	r1, #46336	; 0xb500
 81c31f0:	f64b 5200 	movw	r2, #48384	; 0xbd00
 81c31f4:	f244 7370 	movw	r3, #18288	; 0x4770
 81c31f8:	8830      	ldrh	r0, [r6, #0]
 81c31fa:	4288      	cmp	r0, r1
 81c31fc:	d008      	beq.n	81c3210 <Code_761+0x26>
 81c31fe:	4290      	cmp	r0, r2
 81c3200:	d008      	beq.n	81c3214 <Code_761+0x2a>
 81c3202:	4298      	cmp	r0, r3
 81c3204:	d006      	beq.n	81c3214 <Code_761+0x2a>
 81c3206:	f847 6d04 	str.w	r6, [r7, #-4]!
 81c320a:	0006      	movs	r6, r0
 81c320c:	f000 fa00 	bl	81c3610 <Code_822>
 81c3210:	3602      	adds	r6, #2
 81c3212:	e7f1      	b.n	81c31f8 <Code_761+0xe>
 81c3214:	cf40      	ldmia	r7!, {r6}
 81c3216:	bd00      	pop	{pc}

081c3218 <suchedefinitionsende>:
 81c3218:	b50e      	push	{r1, r2, r3, lr}
 81c321a:	f64b 5200 	movw	r2, #48384	; 0xbd00
 81c321e:	f244 7370 	movw	r3, #18288	; 0x4770
 81c3222:	8801      	ldrh	r1, [r0, #0]
 81c3224:	3002      	adds	r0, #2
 81c3226:	4291      	cmp	r1, r2
 81c3228:	d001      	beq.n	81c322e <suchedefinitionsende+0x16>
 81c322a:	4299      	cmp	r1, r3
 81c322c:	d1f9      	bne.n	81c3222 <suchedefinitionsende+0xa>
 81c322e:	bd0e      	pop	{r1, r2, r3, pc}

081c3230 <Dictionary_765>:
 81c3230:	081c3246 	ldmdaeq	ip, {r1, r2, r6, r9, ip, sp}
 81c3234:	72040000 	andvc	r0, r4, #0
 81c3238:	002c7465 	eoreq	r7, ip, r5, ror #8

081c323c <Code_765>:
 81c323c:	f847 6d04 	str.w	r6, [r7, #-4]!
 81c3240:	f64b 5600 	movw	r6, #48384	; 0xbd00
 81c3244:	e1e4      	b.n	81c3610 <Code_822>

081c3246 <Dictionary_768>:
 81c3246:	081c3254 	ldmdaeq	ip, {r2, r4, r6, r9, ip, sp}
 81c324a:	65040030 	strvs	r0, [r4, #-48]	; 0xffffffd0
 81c324e:	00746978 	rsbseq	r6, r4, r8, ror r9

081c3252 <Code_768>:
 81c3252:	e7f3      	b.n	81c323c <Code_765>

081c3254 <Dictionary_769>:
 81c3254:	081c326c 	ldmdaeq	ip, {r2, r3, r5, r6, r9, ip, sp}
 81c3258:	72070030 	andvc	r0, r7, #48	; 0x30
 81c325c:	72756365 	rsbsvc	r6, r5, #-1811939327	; 0x94000001
 81c3260:	 			; <UNDEFINED> instruction: 0xf8476573

081c3262 <Code_769>:
 81c3262:	f847 6d04 	str.w	r6, [r7, #-4]!
 81c3266:	4e96      	ldr	r6, [pc, #600]	; (81c34c0 <Code_803+0x38>)
 81c3268:	6836      	ldr	r6, [r6, #0]
 81c326a:	e6d4      	b.n	81c3016 <Code_732>

081c326c <Dictionary_771>:
 81c326c:	081c3284 	ldmdaeq	ip, {r2, r7, r9, ip, sp}
 81c3270:	73050081 	movwvc	r0, #20609	; 0x5081
 81c3274:	65746174 	ldrbvs	r6, [r4, #-372]!	; 0xfffffe8c

081c3278 <Code_771>:
 81c3278:	f847 6d04 	str.w	r6, [r7, #-4]!
 81c327c:	4e92      	ldr	r6, [pc, #584]	; (81c34c8 <Code_803+0x40>)
 81c327e:	4770      	bx	lr
 81c3280:	00000000 	andeq	r0, r0, r0

081c3284 <Dictionary_774>:
 81c3284:	081c3296 	ldmdaeq	ip, {r1, r2, r4, r7, r9, ip, sp}
 81c3288:	5d010000 	stcpl	0, cr0, [r1, #-0]

081c328c <Code_774>:
 81c328c:	488e      	ldr	r0, [pc, #568]	; (81c34c8 <Code_803+0x40>)
 81c328e:	2100      	movs	r1, #0
 81c3290:	43c9      	mvns	r1, r1
 81c3292:	6001      	str	r1, [r0, #0]
 81c3294:	4770      	bx	lr

081c3296 <Dictionary_775>:
 81c3296:	081c32a6 	ldmdaeq	ip, {r1, r2, r5, r7, r9, ip, sp}
 81c329a:	5b010010 	blpl	82032e2 <FlashDictionaryEnde+0x32e2>

081c329e <Code_775>:
 81c329e:	488a      	ldr	r0, [pc, #552]	; (81c34c8 <Code_803+0x40>)
 81c32a0:	2100      	movs	r1, #0
 81c32a2:	6001      	str	r1, [r0, #0]
 81c32a4:	4770      	bx	lr

081c32a6 <Dictionary_776>:
 81c32a6:	081c32c6 	ldmdaeq	ip, {r1, r2, r6, r7, r9, ip, sp}
 81c32aa:	3a010000 	bcc	82032b2 <FlashDictionaryEnde+0x32b2>

081c32ae <Code_776>:
 81c32ae:	b500      	push	{lr}
 81c32b0:	4886      	ldr	r0, [pc, #536]	; (81c34cc <Code_803+0x44>)
 81c32b2:	6007      	str	r7, [r0, #0]
 81c32b4:	f000 fb04 	bl	81c38c0 <Code_854>
 81c32b8:	4883      	ldr	r0, [pc, #524]	; (81c34c8 <Code_803+0x40>)
 81c32ba:	2101      	movs	r1, #1
 81c32bc:	6001      	str	r1, [r0, #0]
 81c32be:	4884      	ldr	r0, [pc, #528]	; (81c34d0 <Code_803+0x48>)
 81c32c0:	2100      	movs	r1, #0
 81c32c2:	6001      	str	r1, [r0, #0]
 81c32c4:	bd00      	pop	{pc}

081c32c6 <Dictionary_777>:
 81c32c6:	081c3342 	ldmdaeq	ip, {r1, r6, r8, r9, ip, sp}
 81c32ca:	3b010830 	blcc	8205392 <FlashDictionaryEnde+0x5392>

081c32ce <Code_777>:
 81c32ce:	b500      	push	{lr}
 81c32d0:	487e      	ldr	r0, [pc, #504]	; (81c34cc <Code_803+0x44>)
 81c32d2:	6801      	ldr	r1, [r0, #0]
 81c32d4:	42b9      	cmp	r1, r7
 81c32d6:	d014      	beq.n	81c3302 <Code_777+0x34>
 81c32d8:	497e      	ldr	r1, [pc, #504]	; (81c34d4 <Code_803+0x4c>)
 81c32da:	428e      	cmp	r6, r1
 81c32dc:	d102      	bne.n	81c32e4 <Code_777+0x16>
 81c32de:	4e7e      	ldr	r6, [pc, #504]	; (81c34d8 <Code_803+0x50>)
 81c32e0:	f7ff fc6c 	bl	81c2bbc <Code_670>
 81c32e4:	f7ff fc22 	bl	81c2b2c <dotgaensefuesschen>
 81c32e8:	74532015 	ldrbvc	r2, [r3], #-21	; 0xffffffeb
 81c32ec:	206b6361 	rsbcs	r6, fp, r1, ror #6
 81c32f0:	20746f6e 	rsbscs	r6, r4, lr, ror #30
 81c32f4:	616c6162 	cmnvs	ip, r2, ror #2
 81c32f8:	6465636e 	strbtvs	r6, [r5], #-878	; 0xfffffc92
 81c32fc:	f0010a2e 			; <UNDEFINED> instruction: 0xf0010a2e
 81c3300:	bbff      	cbnz	r7, 81c3382 <Dictionary_789+0x6>
 81c3302:	4871      	ldr	r0, [pc, #452]	; (81c34c8 <Code_803+0x40>)
 81c3304:	6800      	ldr	r0, [r0, #0]
 81c3306:	1c41      	adds	r1, r0, #1
 81c3308:	d010      	beq.n	81c332c <Code_777+0x5e>
 81c330a:	280b      	cmp	r0, #11
 81c330c:	d805      	bhi.n	81c331a <Code_777+0x4c>
 81c330e:	f847 6d04 	str.w	r6, [r7, #-4]!
 81c3312:	f640 0620 	movw	r6, #2080	; 0x820
 81c3316:	f000 f91e 	bl	81c3556 <Code_810>
 81c331a:	f847 6d04 	str.w	r6, [r7, #-4]!
 81c331e:	f244 7670 	movw	r6, #18288	; 0x4770
 81c3322:	f000 f975 	bl	81c3610 <Code_822>
 81c3326:	f001 faed 	bl	81c4904 <inline_cache_schreiben>
 81c332a:	e005      	b.n	81c3338 <Code_777+0x6a>
 81c332c:	f847 6d04 	str.w	r6, [r7, #-4]!
 81c3330:	f64b 5600 	movw	r6, #48384	; 0xbd00
 81c3334:	f000 f96c 	bl	81c3610 <Code_822>
 81c3338:	f000 f8d7 	bl	81c34ea <Code_805>
 81c333c:	f7ff ffaf 	bl	81c329e <Code_775>
 81c3340:	bd00      	pop	{pc}

081c3342 <Dictionary_785>:
 81c3342:	081c3356 	ldmdaeq	ip, {r1, r2, r4, r6, r8, r9, ip, sp}
 81c3346:	65070000 	strvs	r0, [r7, #-0]
 81c334a:	75636578 	strbvc	r6, [r3, #-1400]!	; 0xfffffa88
 81c334e:	 	eorseq	r6, r0, r4, ror r5

081c3350 <Code_785>:
 81c3350:	0030      	movs	r0, r6
 81c3352:	cf40      	ldmia	r7!, {r6}
 81c3354:	4687      	mov	pc, r0

081c3356 <Dictionary_787>:
 81c3356:	081c336a 	ldmdaeq	ip, {r1, r3, r5, r6, r8, r9, ip, sp}
 81c335a:	69090010 	stmdbvs	r9, {r4}
 81c335e:	64656d6d 	strbtvs	r6, [r5], #-3437	; 0xfffff293
 81c3362:	65746169 	ldrbvs	r6, [r4, #-361]!	; 0xfffffe97

081c3366 <Code_787>:
 81c3366:	2010      	movs	r0, #16
 81c3368:	e06a      	b.n	81c3440 <setflags_r0>

081c336a <Dictionary_788>:
 81c336a:	081c337c 	ldmdaeq	ip, {r2, r3, r4, r5, r6, r8, r9, ip, sp}
 81c336e:	69060050 	stmdbvs	r6, {r4, r6}
 81c3372:	6e696c6e 	cdpvs	12, 6, cr6, cr9, cr14, {3}
 81c3376:	 	eorcs	r0, r0, r5, rrx

081c3378 <Code_788>:
 81c3378:	2020      	movs	r0, #32
 81c337a:	e061      	b.n	81c3440 <setflags_r0>

081c337c <Dictionary_789>:
 81c337c:	081c3392 	ldmdaeq	ip, {r1, r4, r7, r8, r9, ip, sp}
 81c3380:	630b0010 	movwvs	r0, #45072	; 0xb010
 81c3384:	69706d6f 	ldmdbvs	r0!, {r0, r1, r2, r3, r5, r6, r8, sl, fp, sp, lr}^
 81c3388:	6e6f656c 	cdpvs	5, 6, cr6, cr15, cr12, {3}
 81c338c:	 	eorscs	r7, r0, ip, ror #18

081c338e <Code_789>:
 81c338e:	2030      	movs	r0, #48	; 0x30
 81c3390:	e056      	b.n	81c3440 <setflags_r0>

081c3392 <Dictionary_790>:
 81c3392:	081c33a8 	ldmdaeq	ip, {r3, r5, r7, r8, r9, ip, sp}
 81c3396:	300a0050 	andcc	r0, sl, r0, asr r0
 81c339a:	6c6f662d 	stclvs	6, cr6, [pc], #-180	; 81c32ec <Code_777+0x1e>
 81c339e:	6c626164 	stfvse	f6, [r2], #-400	; 0xfffffe70
 81c33a2:	 	subcs	r0, r0, r5, rrx

081c33a4 <Code_790>:
 81c33a4:	2040      	movs	r0, #64	; 0x40
 81c33a6:	e04b      	b.n	81c3440 <setflags_r0>

081c33a8 <Dictionary_791>:
 81c33a8:	081c33be 	ldmdaeq	ip, {r1, r2, r3, r4, r5, r7, r8, r9, ip, sp}
 81c33ac:	310a0050 	qaddcc	r0, r0, sl
 81c33b0:	6c6f662d 	stclvs	6, cr6, [pc], #-180	; 81c3304 <Code_777+0x36>
 81c33b4:	6c626164 	stfvse	f6, [r2], #-400	; 0xfffffe70
 81c33b8:	 	subcs	r0, r1, r5, rrx

081c33ba <Code_791>:
 81c33ba:	2041      	movs	r0, #65	; 0x41
 81c33bc:	e040      	b.n	81c3440 <setflags_r0>

081c33be <Dictionary_792>:
 81c33be:	081c33d4 	ldmdaeq	ip, {r2, r4, r6, r7, r8, r9, ip, sp}
 81c33c2:	320a0050 	andcc	r0, sl, #80	; 0x50
 81c33c6:	6c6f662d 	stclvs	6, cr6, [pc], #-180	; 81c3318 <Code_777+0x4a>
 81c33ca:	6c626164 	stfvse	f6, [r2], #-400	; 0xfffffe70
 81c33ce:	 	subcs	r0, r2, r5, rrx

081c33d0 <Code_792>:
 81c33d0:	2042      	movs	r0, #66	; 0x42
 81c33d2:	e035      	b.n	81c3440 <setflags_r0>

081c33d4 <Dictionary_793>:
 81c33d4:	081c33ea 	ldmdaeq	ip, {r1, r3, r5, r6, r7, r8, r9, ip, sp}
 81c33d8:	330a0050 	movwcc	r0, #41040	; 0xa050
 81c33dc:	6c6f662d 	stclvs	6, cr6, [pc], #-180	; 81c3330 <Code_777+0x62>
 81c33e0:	6c626164 	stfvse	f6, [r2], #-400	; 0xfffffe70
 81c33e4:	 	subcs	r0, r3, r5, rrx

081c33e6 <Code_793>:
 81c33e6:	2043      	movs	r0, #67	; 0x43
 81c33e8:	e02a      	b.n	81c3440 <setflags_r0>

081c33ea <Dictionary_794>:
 81c33ea:	081c3400 	ldmdaeq	ip, {sl, ip, sp}
 81c33ee:	340a0050 	strcc	r0, [sl], #-80	; 0xffffffb0
 81c33f2:	6c6f662d 	stclvs	6, cr6, [pc], #-180	; 81c3344 <Dictionary_785+0x2>
 81c33f6:	6c626164 	stfvse	f6, [r2], #-400	; 0xfffffe70
 81c33fa:	 	subcs	r0, r4, r5, rrx

081c33fc <Code_794>:
 81c33fc:	2044      	movs	r0, #68	; 0x44
 81c33fe:	e01f      	b.n	81c3440 <setflags_r0>

081c3400 <Dictionary_795>:
 81c3400:	081c3416 	ldmdaeq	ip, {r1, r2, r4, sl, ip, sp}
 81c3404:	350a0050 	strcc	r0, [sl, #-80]	; 0xffffffb0
 81c3408:	6c6f662d 	stclvs	6, cr6, [pc], #-180	; 81c335c <Dictionary_787+0x6>
 81c340c:	6c626164 	stfvse	f6, [r2], #-400	; 0xfffffe70
 81c3410:	 	subcs	r0, r5, r5, rrx

081c3412 <Code_795>:
 81c3412:	2045      	movs	r0, #69	; 0x45
 81c3414:	e014      	b.n	81c3440 <setflags_r0>

081c3416 <Dictionary_796>:
 81c3416:	081c342c 	ldmdaeq	ip, {r2, r3, r5, sl, ip, sp}
 81c341a:	360a0050 			; <UNDEFINED> instruction: 0x360a0050
 81c341e:	6c6f662d 	stclvs	6, cr6, [pc], #-180	; 81c3370 <Dictionary_788+0x6>
 81c3422:	6c626164 	stfvse	f6, [r2], #-400	; 0xfffffe70
 81c3426:	 	subcs	r0, r6, r5, rrx

081c3428 <Code_796>:
 81c3428:	2046      	movs	r0, #70	; 0x46
 81c342a:	e009      	b.n	81c3440 <setflags_r0>

081c342c <Dictionary_797>:
 81c342c:	081c3448 	ldmdaeq	ip, {r3, r6, sl, ip, sp}
 81c3430:	370a0050 	smlsdcc	sl, r0, r0, r0
 81c3434:	6c6f662d 	stclvs	6, cr6, [pc], #-180	; 81c3388 <Dictionary_789+0xc>
 81c3438:	6c626164 	stfvse	f6, [r2], #-400	; 0xfffffe70
 81c343c:	 	subcs	r0, r7, r5, rrx

081c343e <Code_797>:
 81c343e:	2047      	movs	r0, #71	; 0x47

081c3440 <setflags_r0>:
 81c3440:	f847 6d04 	str.w	r6, [r7, #-4]!
 81c3444:	0006      	movs	r6, r0
 81c3446:	e086      	b.n	81c3556 <Code_810>

081c3448 <Dictionary_800>:
 81c3448:	081c3478 	ldmdaeq	ip, {r3, r4, r5, r6, sl, ip, sp}
 81c344c:	63080000 	movwvs	r0, #32768	; 0x8000
 81c3450:	74736e6f 	ldrbtvc	r6, [r3], #-3695	; 0xfffff191
 81c3454:	00746e61 	rsbseq	r6, r4, r1, ror #28

081c3458 <Code_800>:
 81c3458:	b500      	push	{lr}
 81c345a:	f000 fa31 	bl	81c38c0 <Code_854>
 81c345e:	f7ff fe0f 	bl	81c3080 <Code_737>
 81c3462:	f847 6d04 	str.w	r6, [r7, #-4]!
 81c3466:	f244 7670 	movw	r6, #18288	; 0x4770
 81c346a:	f000 f8d1 	bl	81c3610 <Code_822>
 81c346e:	f7ff ff99 	bl	81c33a4 <Code_790>
 81c3472:	f000 f83a 	bl	81c34ea <Code_805>
 81c3476:	bd00      	pop	{pc}

081c3478 <Dictionary_803>:
 81c3478:	081c34dc 	ldmdaeq	ip, {r2, r3, r4, r6, r7, sl, ip, sp}
 81c347c:	32090000 	andcc	r0, r9, #0
 81c3480:	736e6f63 	cmnvc	lr, #396	; 0x18c
 81c3484:	746e6174 	strbtvc	r6, [lr], #-372	; 0xfffffe8c

081c3488 <Code_803>:
 81c3488:	b500      	push	{lr}
 81c348a:	f000 fa19 	bl	81c38c0 <Code_854>
 81c348e:	6839      	ldr	r1, [r7, #0]
 81c3490:	603e      	str	r6, [r7, #0]
 81c3492:	460e      	mov	r6, r1
 81c3494:	f7ff fdf4 	bl	81c3080 <Code_737>
 81c3498:	e7e1      	b.n	81c345e <Code_800+0x6>
 81c349a:	00000000 	andeq	r0, r0, r0
 81c349e:	0000f240 	andeq	pc, r0, r0, asr #4
 81c34a2:	0000f2c0 	andeq	pc, r0, r0, asr #5
 81c34a6:	0000f05f 	andeq	pc, r0, pc, asr r0	; <UNPREDICTABLE>
 81c34aa:	0001f07f 	andeq	pc, r1, pc, ror r0	; <UNPREDICTABLE>
 81c34ae:	0000ffc0 	andeq	pc, r0, r0, asr #31
 81c34b2:	f800ffc0 			; <UNDEFINED> instruction: 0xf800ffc0
 81c34b6:	0800f000 	stmdaeq	r0, {ip, sp, lr, pc}
 81c34ba:	87d03800 	ldrbhi	r3, [r0, r0, lsl #16]
 81c34be:	080c3800 	stmdaeq	ip, {fp, ip, sp}
 81c34c2:	47fe3800 	ldrbmi	r3, [lr, r0, lsl #16]!
 81c34c6:	87d8081c 	bfihi	r0, ip, #16, #9
 81c34ca:	08083800 	stmdaeq	r8, {fp, ip, sp}
 81c34ce:	08543800 	ldmdaeq	r4, {fp, ip, sp}^
 81c34d2:	19853800 	stmibne	r5, {fp, ip, sp}
 81c34d6:	2c5e0412 	cfldrdcs	mvd0, [lr], {18}
 81c34da:	 	strbcc	r0, [r6, #-2076]	; 0xfffff7e4

081c34dc <Dictionary_805>:
 81c34dc:	081c3546 	ldmdaeq	ip, {r1, r2, r6, r8, sl, ip, sp}
 81c34e0:	73060000 	movwvc	r0, #24576	; 0x6000
 81c34e4:	6764756d 	strbvs	r7, [r4, -sp, ror #10]!
 81c34e8:	 	strlt	r0, [r0, #-101]	; 0xffffff9b

081c34ea <Code_805>:
 81c34ea:	b500      	push	{lr}
 81c34ec:	48e3      	ldr	r0, [pc, #908]	; (81c387c <Code_853+0x14>)
 81c34ee:	6801      	ldr	r1, [r0, #0]
 81c34f0:	4ae3      	ldr	r2, [pc, #908]	; (81c3880 <Code_853+0x18>)
 81c34f2:	4291      	cmp	r1, r2
 81c34f4:	d220      	bcs.n	81c3538 <smudge_ram>
 81c34f6:	3902      	subs	r1, #2
 81c34f8:	880a      	ldrh	r2, [r1, #0]
 81c34fa:	f64f 73ff 	movw	r3, #65535	; 0xffff
 81c34fe:	429a      	cmp	r2, r3
 81c3500:	d105      	bne.n	81c350e <Code_805+0x24>
 81c3502:	f847 6d04 	str.w	r6, [r7, #-4]!
 81c3506:	f04f 0600 	mov.w	r6, #0
 81c350a:	f000 f881 	bl	81c3610 <Code_822>
 81c350e:	f000 f84e 	bl	81c35ae <Code_814>
 81c3512:	f000 f861 	bl	81c35d8 <Code_816>
 81c3516:	48db      	ldr	r0, [pc, #876]	; (81c3884 <Code_853+0x1c>)
 81c3518:	6800      	ldr	r0, [r0, #0]
 81c351a:	f847 6d04 	str.w	r6, [r7, #-4]!
 81c351e:	0006      	movs	r6, r0
 81c3520:	49d9      	ldr	r1, [pc, #868]	; (81c3888 <Code_853+0x20>)
 81c3522:	6809      	ldr	r1, [r1, #0]
 81c3524:	3104      	adds	r1, #4
 81c3526:	4ad5      	ldr	r2, [pc, #852]	; (81c387c <Code_853+0x14>)
 81c3528:	6813      	ldr	r3, [r2, #0]
 81c352a:	6011      	str	r1, [r2, #0]
 81c352c:	f000 f870 	bl	81c3610 <Code_822>
 81c3530:	6013      	str	r3, [r2, #0]
 81c3532:	f7fe fec3 	bl	81c22bc <Code_485>
 81c3536:	bd00      	pop	{pc}

081c3538 <smudge_ram>:
 81c3538:	f000 f839 	bl	81c35ae <Code_814>
 81c353c:	f847 6d04 	str.w	r6, [r7, #-4]!
 81c3540:	f04f 0600 	mov.w	r6, #0
 81c3544:	e008      	b.n	81c3558 <setflags_intern>

081c3546 <Dictionary_810>:
 81c3546:	081c358c 	ldmdaeq	ip, {r2, r3, r7, r8, sl, ip, sp}
 81c354a:	73080000 	movwvc	r0, #32768	; 0x8000
 81c354e:	6c667465 	cfstrdvs	mvd7, [r6], #-404	; 0xfffffe6c
 81c3552:	00736761 	rsbseq	r6, r3, r1, ror #14

081c3556 <Code_810>:
 81c3556:	b500      	push	{lr}

081c3558 <setflags_intern>:
 81c3558:	48c8      	ldr	r0, [pc, #800]	; (81c387c <Code_853+0x14>)
 81c355a:	6801      	ldr	r1, [r0, #0]
 81c355c:	4ac8      	ldr	r2, [pc, #800]	; (81c3880 <Code_853+0x18>)
 81c355e:	4291      	cmp	r1, r2
 81c3560:	d205      	bcs.n	81c356e <setflags_ram>
 81c3562:	48c8      	ldr	r0, [pc, #800]	; (81c3884 <Code_853+0x1c>)
 81c3564:	6801      	ldr	r1, [r0, #0]
 81c3566:	4331      	orrs	r1, r6
 81c3568:	6001      	str	r1, [r0, #0]
 81c356a:	cf40      	ldmia	r7!, {r6}
 81c356c:	bd00      	pop	{pc}

081c356e <setflags_ram>:
 81c356e:	0032      	movs	r2, r6
 81c3570:	cf40      	ldmia	r7!, {r6}
 81c3572:	48c5      	ldr	r0, [pc, #788]	; (81c3888 <Code_853+0x20>)
 81c3574:	6800      	ldr	r0, [r0, #0]
 81c3576:	3004      	adds	r0, #4
 81c3578:	8801      	ldrh	r1, [r0, #0]
 81c357a:	f64f 73ff 	movw	r3, #65535	; 0xffff
 81c357e:	4299      	cmp	r1, r3
 81c3580:	d101      	bne.n	81c3586 <setflags_ram+0x18>
 81c3582:	0011      	movs	r1, r2
 81c3584:	e000      	b.n	81c3588 <setflags_ram+0x1a>
 81c3586:	4311      	orrs	r1, r2
 81c3588:	8001      	strh	r1, [r0, #0]
 81c358a:	bd00      	pop	{pc}

081c358c <Dictionary_813>:
 81c358c:	081c35a2 	ldmdaeq	ip, {r1, r5, r7, r8, sl, ip, sp}
 81c3590:	61070041 	tstvs	r7, r1, asr #32
 81c3594:	6e67696c 	vnmulvs.f16	s13, s14, s25	; <UNPREDICTABLE>
 81c3598:	 	strcc	r6, [r3], -r5, ror #8

081c359a <Code_813>:
 81c359a:	3603      	adds	r6, #3
 81c359c:	2003      	movs	r0, #3
 81c359e:	4386      	bics	r6, r0
 81c35a0:	4770      	bx	lr

081c35a2 <Dictionary_814>:
 81c35a2:	081c35c8 	ldmdaeq	ip, {r3, r6, r7, r8, sl, ip, sp}
 81c35a6:	61050000 	mrsvs	r0, (UNDEF: 5)
 81c35aa:	6e67696c 	vnmulvs.f16	s13, s14, s25	; <UNPREDICTABLE>

081c35ae <Code_814>:
 81c35ae:	b500      	push	{lr}
 81c35b0:	48b2      	ldr	r0, [pc, #712]	; (81c387c <Code_853+0x14>)
 81c35b2:	6801      	ldr	r1, [r0, #0]
 81c35b4:	2002      	movs	r0, #2
 81c35b6:	4001      	ands	r1, r0
 81c35b8:	d005      	beq.n	81c35c6 <Code_814+0x18>
 81c35ba:	f847 6d04 	str.w	r6, [r7, #-4]!
 81c35be:	f04f 0600 	mov.w	r6, #0
 81c35c2:	f000 f825 	bl	81c3610 <Code_822>
 81c35c6:	bd00      	pop	{pc}

081c35c8 <Dictionary_816>:
 81c35c8:	081c3606 	ldmdaeq	ip, {r1, r2, r9, sl, ip, sp}
 81c35cc:	61080000 	mrsvs	r0, (UNDEF: 8)
 81c35d0:	6e67696c 	vnmulvs.f16	s13, s14, s25	; <UNPREDICTABLE>
 81c35d4:	002c3233 	eoreq	r3, ip, r3, lsr r2

081c35d8 <Code_816>:
 81c35d8:	b500      	push	{lr}
 81c35da:	48a8      	ldr	r0, [pc, #672]	; (81c387c <Code_853+0x14>)
 81c35dc:	6801      	ldr	r1, [r0, #0]
 81c35de:	201f      	movs	r0, #31
 81c35e0:	4001      	ands	r1, r0
 81c35e2:	d006      	beq.n	81c35f2 <Code_816+0x1a>
 81c35e4:	f847 6d04 	str.w	r6, [r7, #-4]!
 81c35e8:	f04f 0600 	mov.w	r6, #0
 81c35ec:	f000 f810 	bl	81c3610 <Code_822>
 81c35f0:	e7f3      	b.n	81c35da <Code_816+0x2>
 81c35f2:	bd00      	pop	{pc}

081c35f4 <nop_hkomma>:
 81c35f4:	f847 6d04 	str.w	r6, [r7, #-4]!
 81c35f8:	2636      	movs	r6, #54	; 0x36
 81c35fa:	e009      	b.n	81c3610 <Code_822>

081c35fc <drop_hkomma>:
 81c35fc:	f847 6d04 	str.w	r6, [r7, #-4]!
 81c3600:	f64c 7640 	movw	r6, #53056	; 0xcf40
 81c3604:	e004      	b.n	81c3610 <Code_822>

081c3606 <Dictionary_822>:
 81c3606:	081c364a 	ldmdaeq	ip, {r1, r3, r6, r9, sl, ip, sp}
 81c360a:	68020000 	stmdavs	r2, {}	; <UNPREDICTABLE>
 81c360e:	 	strlt	r0, [pc, #-44]	; 81c35ea <Code_816+0x12>

081c3610 <Code_822>:
 81c3610:	b50f      	push	{r0, r1, r2, r3, lr}
 81c3612:	b2b6      	uxth	r6, r6
 81c3614:	489d      	ldr	r0, [pc, #628]	; (81c388c <Code_853+0x24>)
 81c3616:	6801      	ldr	r1, [r0, #0]
 81c3618:	2900      	cmp	r1, #0
 81c361a:	d002      	beq.n	81c3622 <Code_822+0x12>
 81c361c:	3101      	adds	r1, #1
 81c361e:	d000      	beq.n	81c3622 <Code_822+0x12>
 81c3620:	6001      	str	r1, [r0, #0]
 81c3622:	4896      	ldr	r0, [pc, #600]	; (81c387c <Code_853+0x14>)
 81c3624:	6801      	ldr	r1, [r0, #0]
 81c3626:	4a96      	ldr	r2, [pc, #600]	; (81c3880 <Code_853+0x18>)
 81c3628:	4291      	cmp	r1, r2
 81c362a:	d205      	bcs.n	81c3638 <hkomma_ram>
 81c362c:	f847 6d04 	str.w	r6, [r7, #-4]!
 81c3630:	000e      	movs	r6, r1
 81c3632:	f7fe fdca 	bl	81c21ca <Code_479>
 81c3636:	e002      	b.n	81c363e <hkomma_fertig>

081c3638 <hkomma_ram>:
 81c3638:	0032      	movs	r2, r6
 81c363a:	cf40      	ldmia	r7!, {r6}
 81c363c:	800a      	strh	r2, [r1, #0]

081c363e <hkomma_fertig>:
 81c363e:	f847 6d04 	str.w	r6, [r7, #-4]!
 81c3642:	2602      	movs	r6, #2
 81c3644:	f000 f84a 	bl	81c36dc <Code_835>
 81c3648:	bd0f      	pop	{r0, r1, r2, r3, pc}

081c364a <Dictionary_828>:
 81c364a:	081c3664 	ldmdaeq	ip, {r2, r5, r6, r9, sl, ip, sp}
 81c364e:	2c010000 	stccs	0, cr0, [r1], {-0}

081c3652 <Code_828>:
 81c3652:	b501      	push	{r0, lr}
 81c3654:	f847 6d04 	str.w	r6, [r7, #-4]!
 81c3658:	f7ff ffda 	bl	81c3610 <Code_822>
 81c365c:	0c36      	lsrs	r6, r6, #16
 81c365e:	f7ff ffd7 	bl	81c3610 <Code_822>
 81c3662:	bd01      	pop	{r0, pc}

081c3664 <Dictionary_831>:
 81c3664:	081c3676 	ldmdaeq	ip, {r1, r2, r4, r5, r6, r9, sl, ip, sp}
 81c3668:	3e030000 	cdpcc	0, 0, cr0, cr3, cr0, {0}
 81c366c:	 	strlt	r2, [r1, #-3132]	; 0xfffff3c4

081c366e <Code_831>:
 81c366e:	b501      	push	{r0, lr}
 81c3670:	2010      	movs	r0, #16
 81c3672:	41c6      	rors	r6, r0
 81c3674:	e7ee      	b.n	81c3654 <Code_828+0x2>

081c3676 <Dictionary_832>:
 81c3676:	081c36d0 	ldmdaeq	ip, {r4, r6, r7, r9, sl, ip, sp}
 81c367a:	73070000 	movwvc	r0, #28672	; 0x7000
 81c367e:	6e697274 	mcrvs	2, 3, r7, cr9, cr4, {3}
 81c3682:	 	strlt	r2, [r7, #-3175]	; 0xfffff399

081c3684 <Code_832>:
 81c3684:	b507      	push	{r0, r1, r2, lr}
 81c3686:	b2f1      	uxtb	r1, r6
 81c3688:	cf01      	ldmia	r7!, {r0}
 81c368a:	2900      	cmp	r1, #0
 81c368c:	d103      	bne.n	81c3696 <Code_832+0x12>
 81c368e:	2600      	movs	r6, #0
 81c3690:	f7ff ffbe 	bl	81c3610 <Code_822>
 81c3694:	bd07      	pop	{r0, r1, r2, pc}
 81c3696:	7806      	ldrb	r6, [r0, #0]
 81c3698:	0236      	lsls	r6, r6, #8
 81c369a:	430e      	orrs	r6, r1
 81c369c:	f7ff ffb8 	bl	81c3610 <Code_822>
 81c36a0:	3001      	adds	r0, #1
 81c36a2:	3901      	subs	r1, #1
 81c36a4:	2902      	cmp	r1, #2
 81c36a6:	d30a      	bcc.n	81c36be <Code_832+0x3a>
 81c36a8:	f847 6d04 	str.w	r6, [r7, #-4]!
 81c36ac:	7846      	ldrb	r6, [r0, #1]
 81c36ae:	0236      	lsls	r6, r6, #8
 81c36b0:	7802      	ldrb	r2, [r0, #0]
 81c36b2:	4316      	orrs	r6, r2
 81c36b4:	f7ff ffac 	bl	81c3610 <Code_822>
 81c36b8:	3002      	adds	r0, #2
 81c36ba:	3902      	subs	r1, #2
 81c36bc:	e7f2      	b.n	81c36a4 <Code_832+0x20>
 81c36be:	2900      	cmp	r1, #0
 81c36c0:	d100      	bne.n	81c36c4 <Code_832+0x40>
 81c36c2:	bd07      	pop	{r0, r1, r2, pc}
 81c36c4:	f847 6d04 	str.w	r6, [r7, #-4]!
 81c36c8:	7806      	ldrb	r6, [r0, #0]
 81c36ca:	f7ff ffa1 	bl	81c3610 <Code_822>
 81c36ce:	bd07      	pop	{r0, r1, r2, pc}

081c36d0 <Dictionary_835>:
 81c36d0:	081c372c 	ldmdaeq	ip, {r2, r3, r5, r8, r9, sl, ip, sp}
 81c36d4:	61050000 	mrsvs	r0, (UNDEF: 5)
 81c36d8:	746f6c6c 	strbtvc	r6, [pc], #-3180	; 81c36e0 <Code_835+0x4>

081c36dc <Code_835>:
 81c36dc:	4867      	ldr	r0, [pc, #412]	; (81c387c <Code_853+0x14>)
 81c36de:	6801      	ldr	r1, [r0, #0]
 81c36e0:	4a67      	ldr	r2, [pc, #412]	; (81c3880 <Code_853+0x18>)
 81c36e2:	4291      	cmp	r1, r2
 81c36e4:	d210      	bcs.n	81c3708 <allot_ram>
 81c36e6:	0032      	movs	r2, r6
 81c36e8:	cf40      	ldmia	r7!, {r6}
 81c36ea:	1889      	adds	r1, r1, r2
 81c36ec:	f04f 6202 	mov.w	r2, #136314880	; 0x8200000
 81c36f0:	4291      	cmp	r1, r2
 81c36f2:	d319      	bcc.n	81c3728 <allot_ok>
 81c36f4:	f7ff fa1a 	bl	81c2b2c <dotgaensefuesschen>
 81c36f8:	616c460b 	cmnvs	ip, fp, lsl #12
 81c36fc:	66206873 			; <UNDEFINED> instruction: 0x66206873
 81c3700:	0a6c6c75 	beq	9cde8dc <FlashDictionaryEnde+0x1ade8dc>
 81c3704:	f001 b9fc 	b.w	81c4b00 <Code_1197>

081c3708 <allot_ram>:
 81c3708:	0032      	movs	r2, r6
 81c370a:	cf40      	ldmia	r7!, {r6}
 81c370c:	1889      	adds	r1, r1, r2
 81c370e:	4a60      	ldr	r2, [pc, #384]	; (81c3890 <Code_853+0x28>)
 81c3710:	6812      	ldr	r2, [r2, #0]
 81c3712:	4291      	cmp	r1, r2
 81c3714:	d308      	bcc.n	81c3728 <allot_ok>
 81c3716:	f7ff fa09 	bl	81c2b2c <dotgaensefuesschen>
 81c371a:	6d615209 	sfmvs	f5, 2, [r1, #-36]!	; 0xffffffdc
 81c371e:	6c756620 	ldclvs	6, cr6, [r5], #-128	; 0xffffff80
 81c3722:	f0010a6c 			; <UNDEFINED> instruction: 0xf0010a6c
 81c3726:	b9ec      	cbnz	r4, 81c3764 <Dictionary_846+0x4>

081c3728 <allot_ok>:
 81c3728:	6001      	str	r1, [r0, #0]
 81c372a:	4770      	bx	lr

081c372c <Dictionary_840>:
 81c372c:	081c3748 	ldmdaeq	ip, {r3, r6, r8, r9, sl, ip, sp}
 81c3730:	28080081 	stmdacs	r8, {r0, r7}
 81c3734:	6574616c 	ldrbvs	r6, [r4, #-364]!	; 0xfffffe94
 81c3738:	00297473 	eoreq	r7, r9, r3, ror r4

081c373c <Code_840>:
 81c373c:	f847 6d04 	str.w	r6, [r7, #-4]!
 81c3740:	4e54      	ldr	r6, [pc, #336]	; (81c3894 <Code_853+0x2c>)
 81c3742:	4770      	bx	lr
 81c3744:	081c01e4 	ldmdaeq	ip, {r2, r5, r6, r7, r8}

081c3748 <Dictionary_843>:
 81c3748:	081c3760 	ldmdaeq	ip, {r5, r6, r8, r9, sl, ip, sp}
 81c374c:	28040081 	stmdacs	r4, {r0, r7}
 81c3750:	00297064 	eoreq	r7, r9, r4, rrx

081c3754 <Code_843>:
 81c3754:	f847 6d04 	str.w	r6, [r7, #-4]!
 81c3758:	4e4f      	ldr	r6, [pc, #316]	; (81c3898 <Code_853+0x30>)
 81c375a:	4770      	bx	lr
 81c375c:	38001008 	stmdacc	r0, {r3, ip}

081c3760 <Dictionary_846>:
 81c3760:	081c3784 	ldmdaeq	ip, {r2, r7, r8, r9, sl, ip, sp}
 81c3764:	66090000 	strvs	r0, [r9], -r0
 81c3768:	6567726f 	strbvs	r7, [r7, #-623]!	; 0xfffffd91
 81c376c:	6d617274 	sfmvs	f7, 2, [r1, #-464]!	; 0xfffffe30

081c3770 <Code_846>:
 81c3770:	b500      	push	{lr}
 81c3772:	f000 f824 	bl	81c37be <Code_849>
 81c3776:	4848      	ldr	r0, [pc, #288]	; (81c3898 <Code_853+0x30>)
 81c3778:	4948      	ldr	r1, [pc, #288]	; (81c389c <Code_853+0x34>)
 81c377a:	6001      	str	r1, [r0, #0]
 81c377c:	4845      	ldr	r0, [pc, #276]	; (81c3894 <Code_853+0x2c>)
 81c377e:	4948      	ldr	r1, [pc, #288]	; (81c38a0 <Code_853+0x38>)
 81c3780:	6001      	str	r1, [r0, #0]
 81c3782:	bd00      	pop	{pc}

081c3784 <Dictionary_847>:
 81c3784:	081c37aa 	ldmdaeq	ip, {r1, r3, r5, r7, r8, r9, sl, ip, sp}
 81c3788:	630d0000 	movwvs	r0, #53248	; 0xd000
 81c378c:	69706d6f 	ldmdbvs	r0!, {r0, r1, r2, r3, r5, r6, r8, sl, fp, sp, lr}^
 81c3790:	6f74656c 	svcvs	0x0074656c
 81c3794:	3f6d6172 	svccc	0x006d6172

081c3798 <Code_847>:
 81c3798:	f847 6d04 	str.w	r6, [r7, #-4]!
 81c379c:	483e      	ldr	r0, [pc, #248]	; (81c3898 <Code_853+0x30>)
 81c379e:	6800      	ldr	r0, [r0, #0]
 81c37a0:	4937      	ldr	r1, [pc, #220]	; (81c3880 <Code_853+0x18>)
 81c37a2:	4288      	cmp	r0, r1
 81c37a4:	41b6      	sbcs	r6, r6
 81c37a6:	43f6      	mvns	r6, r6
 81c37a8:	4770      	bx	lr

081c37aa <Dictionary_849>:
 81c37aa:	081c37ca 	ldmdaeq	ip, {r1, r3, r6, r7, r8, r9, sl, ip, sp}
 81c37ae:	630c0000 	movwvs	r0, #49152	; 0xc000
 81c37b2:	69706d6f 	ldmdbvs	r0!, {r0, r1, r2, r3, r5, r6, r8, sl, fp, sp, lr}^
 81c37b6:	6f74656c 	svcvs	0x0074656c
 81c37ba:	006d6172 	rsbeq	r6, sp, r2, ror r1

081c37be <Code_849>:
 81c37be:	4836      	ldr	r0, [pc, #216]	; (81c3898 <Code_853+0x30>)
 81c37c0:	6800      	ldr	r0, [r0, #0]
 81c37c2:	492f      	ldr	r1, [pc, #188]	; (81c3880 <Code_853+0x18>)
 81c37c4:	4288      	cmp	r0, r1
 81c37c6:	d311      	bcc.n	81c37ec <Zweitpointertausch>
 81c37c8:	4770      	bx	lr

081c37ca <Dictionary_850>:
 81c37ca:	081c383a 	ldmdaeq	ip, {r1, r3, r4, r5, fp, ip, sp}
 81c37ce:	630e0000 	movwvs	r0, #57344	; 0xe000
 81c37d2:	69706d6f 	ldmdbvs	r0!, {r0, r1, r2, r3, r5, r6, r8, sl, fp, sp, lr}^
 81c37d6:	6f74656c 	svcvs	0x0074656c
 81c37da:	73616c66 	cmnvc	r1, #26112	; 0x6600
 81c37de:	 	stmdami	sp!, {r3, r5, r6}

081c37e0 <Code_850>:
 81c37e0:	482d      	ldr	r0, [pc, #180]	; (81c3898 <Code_853+0x30>)
 81c37e2:	6800      	ldr	r0, [r0, #0]
 81c37e4:	4926      	ldr	r1, [pc, #152]	; (81c3880 <Code_853+0x18>)
 81c37e6:	4288      	cmp	r0, r1
 81c37e8:	d200      	bcs.n	81c37ec <Zweitpointertausch>
 81c37ea:	4770      	bx	lr

081c37ec <Zweitpointertausch>:
 81c37ec:	4829      	ldr	r0, [pc, #164]	; (81c3894 <Code_853+0x2c>)
 81c37ee:	492d      	ldr	r1, [pc, #180]	; (81c38a4 <Code_853+0x3c>)
 81c37f0:	6802      	ldr	r2, [r0, #0]
 81c37f2:	680b      	ldr	r3, [r1, #0]
 81c37f4:	600a      	str	r2, [r1, #0]
 81c37f6:	6003      	str	r3, [r0, #0]
 81c37f8:	4827      	ldr	r0, [pc, #156]	; (81c3898 <Code_853+0x30>)
 81c37fa:	492b      	ldr	r1, [pc, #172]	; (81c38a8 <Code_853+0x40>)
 81c37fc:	6802      	ldr	r2, [r0, #0]
 81c37fe:	680b      	ldr	r3, [r1, #0]
 81c3800:	600a      	str	r2, [r1, #0]
 81c3802:	6003      	str	r3, [r0, #0]
 81c3804:	4822      	ldr	r0, [pc, #136]	; (81c3890 <Code_853+0x28>)
 81c3806:	6800      	ldr	r0, [r0, #0]
 81c3808:	4283      	cmp	r3, r0
 81c380a:	d315      	bcc.n	81c3838 <Zweitpointertausch+0x4c>
 81c380c:	b500      	push	{lr}
 81c380e:	f7ff f98d 	bl	81c2b2c <dotgaensefuesschen>
 81c3812:	61562023 	cmpvs	r6, r3, lsr #32
 81c3816:	62616972 	rsbvs	r6, r1, #1867776	; 0x1c8000
 81c381a:	2073656c 	rsbscs	r6, r3, ip, ror #10
 81c381e:	6c6c6f63 	stclvs	15, cr6, [ip], #-396	; 0xfffffe74
 81c3822:	20656469 	rsbcs	r6, r5, r9, ror #8
 81c3826:	68746977 	ldmdavs	r4!, {r0, r1, r2, r4, r5, r6, r8, fp, sp, lr}^
 81c382a:	63696420 	cmnvs	r9, #32, 8	; 0x20000000
 81c382e:	6e6f6974 			; <UNDEFINED> instruction: 0x6e6f6974
 81c3832:	0a797261 	beq	a0201be <FlashDictionaryEnde+0x1e201be>
 81c3836:	bd00      	pop	{pc}
 81c3838:	4770      	bx	lr

081c383a <Dictionary_852>:
 81c383a:	081c3856 	ldmdaeq	ip, {r1, r2, r4, r6, fp, ip, sp}
 81c383e:	610c0000 	mrsvs	r0, (UNDEF: 12)
 81c3842:	69726464 	ldmdbvs	r2!, {r2, r5, r6, sl, sp, lr}^
 81c3846:	616c666e 	cmnvs	ip, lr, ror #12
 81c384a:	003f6873 	eorseq	r6, pc, r3, ror r8	; <UNPREDICTABLE>

081c384e <Code_852>:
 81c384e:	4814      	ldr	r0, [pc, #80]	; (81c38a0 <Code_853+0x38>)
 81c3850:	f04f 6102 	mov.w	r1, #136314880	; 0x8200000
 81c3854:	e00a      	b.n	81c386c <Code_853+0x4>

081c3856 <Dictionary_853>:
 81c3856:	081c38b0 	ldmdaeq	ip, {r4, r5, r7, fp, ip, sp}
 81c385a:	610a0000 	mrsvs	r0, (UNDEF: 10)
 81c385e:	69726464 	ldmdbvs	r2!, {r2, r5, r6, sl, sp, lr}^
 81c3862:	6d61726e 	sfmvs	f7, 2, [r1, #-440]!	; 0xfffffe48
 81c3866:	 	stmdami	r5, {r0, r1, r2, r3, r4, r5}

081c3868 <Code_853>:
 81c3868:	4805      	ldr	r0, [pc, #20]	; (81c3880 <Code_853+0x18>)
 81c386a:	4910      	ldr	r1, [pc, #64]	; (81c38ac <Code_853+0x44>)
 81c386c:	4286      	cmp	r6, r0
 81c386e:	d302      	bcc.n	81c3876 <Code_853+0xe>
 81c3870:	428e      	cmp	r6, r1
 81c3872:	41b6      	sbcs	r6, r6
 81c3874:	4770      	bx	lr
 81c3876:	2600      	movs	r6, #0
 81c3878:	4770      	bx	lr
 81c387a:	87d00000 	ldrbhi	r0, [r0, r0]
 81c387e:	08003800 	stmdaeq	r0, {fp, ip, sp}
 81c3882:	08183800 	ldmdaeq	r8, {fp, ip, sp}
 81c3886:	87d43800 	ldrbhi	r3, [r4, r0, lsl #16]
 81c388a:	87d83800 	ldrbhi	r3, [r8, r0, lsl #16]
 81c388e:	081c3800 	ldmdaeq	ip, {fp, ip, sp}
 81c3892:	87d43800 	ldrbhi	r3, [r4, r0, lsl #16]
 81c3896:	87d03800 	ldrbhi	r3, [r0, r0, lsl #16]
 81c389a:	10083800 	andne	r3, r8, r0, lsl #16
 81c389e:	01e43800 	mvneq	r3, r0, lsl #16
 81c38a2:	0814081c 	ldmdaeq	r4, {r2, r3, r4, fp}
 81c38a6:	08103800 	ldmdaeq	r0, {fp, ip, sp}
 81c38aa:	88003800 	stmdahi	r0, {fp, ip, sp}
 81c38ae:	 	stmibcc	sl!, {fp, ip, sp}

081c38b0 <Dictionary_854>:
 81c38b0:	081c39aa 	ldmdaeq	ip, {r1, r3, r5, r7, r8, fp, ip, sp}
 81c38b4:	28080000 	stmdacs	r8, {}	; <UNPREDICTABLE>
 81c38b8:	61657263 	cmnvs	r5, r3, ror #4
 81c38bc:	00296574 	eoreq	r6, r9, r4, ror r5

081c38c0 <Code_854>:
 81c38c0:	b500      	push	{lr}
 81c38c2:	f000 fda5 	bl	81c4410 <Code_1069>
 81c38c6:	2e00      	cmp	r6, #0
 81c38c8:	d10e      	bne.n	81c38e8 <Code_854+0x28>
 81c38ca:	f7ff f92f 	bl	81c2b2c <dotgaensefuesschen>
 81c38ce:	72432015 	subvc	r2, r3, #21
 81c38d2:	65746165 	ldrbvs	r6, [r4, #-357]!	; 0xfffffe9b
 81c38d6:	65656e20 	strbvs	r6, [r5, #-3616]!	; 0xfffff1e0
 81c38da:	6e207364 	cdpvs	3, 2, cr7, cr0, cr4, {3}
 81c38de:	20656d61 	rsbcs	r6, r5, r1, ror #26
 81c38e2:	f0010a21 			; <UNDEFINED> instruction: 0xf0010a21
 81c38e6:	b90c      	cbnz	r4, 81c38ec <Code_854+0x2c>
 81c38e8:	6838      	ldr	r0, [r7, #0]
 81c38ea:	e927 0041 	stmdb	r7!, {r0, r6}
 81c38ee:	f000 f96a 	bl	81c3bc6 <Code_901>
 81c38f2:	cf40      	ldmia	r7!, {r6}
 81c38f4:	2e00      	cmp	r6, #0
 81c38f6:	cf40      	ldmia	r7!, {r6}
 81c38f8:	d00f      	beq.n	81c391a <Code_854+0x5a>
 81c38fa:	6838      	ldr	r0, [r7, #0]
 81c38fc:	e927 0041 	stmdb	r7!, {r0, r6}
 81c3900:	f7ff f914 	bl	81c2b2c <dotgaensefuesschen>
 81c3904:	64655209 	strbtvs	r5, [r5], #-521	; 0xfffffdf7
 81c3908:	6e696665 	cdpvs	6, 6, cr6, cr9, cr5, {3}
 81c390c:	f7ff2065 			; <UNDEFINED> instruction: 0xf7ff2065
 81c3910:	f961 f7ff 	vld1.64	{d31}, [r1 :256]
 81c3914:	f90b 2e02 			; <UNDEFINED> instruction: 0xf90b2e02
 81c3918:	f7ff0020 			; <UNDEFINED> instruction: 0xf7ff0020
 81c391c:	fe48 4891 	vfmal.f16	d20, s17, s2[0]
 81c3920:	6800      	ldr	r0, [r0, #0]
 81c3922:	4991      	ldr	r1, [pc, #580]	; (81c3b68 <Code_896+0x2a>)
 81c3924:	4288      	cmp	r0, r1
 81c3926:	d227      	bcs.n	81c3978 <create_ram>
 81c3928:	4890      	ldr	r0, [pc, #576]	; (81c3b6c <Code_896+0x2e>)
 81c392a:	f04f 0100 	mov.w	r1, #0
 81c392e:	6001      	str	r1, [r0, #0]
 81c3930:	f7ff fe52 	bl	81c35d8 <Code_816>
 81c3934:	f847 6d04 	str.w	r6, [r7, #-4]!
 81c3938:	261c      	movs	r6, #28
 81c393a:	f7ff fecf 	bl	81c36dc <Code_835>
 81c393e:	f000 f9fb 	bl	81c3d38 <Code_921>
 81c3942:	f847 6d04 	str.w	r6, [r7, #-4]!
 81c3946:	2606      	movs	r6, #6
 81c3948:	f7ff fec8 	bl	81c36dc <Code_835>
 81c394c:	f7fd fb78 	bl	81c1040 <Code_210>
 81c3950:	f7ff fe98 	bl	81c3684 <Code_832>
 81c3954:	4886      	ldr	r0, [pc, #536]	; (81c3b70 <Code_896+0x32>)
 81c3956:	6801      	ldr	r1, [r0, #0]
 81c3958:	680a      	ldr	r2, [r1, #0]
 81c395a:	f04f 33ff 	mov.w	r3, #4294967295	; 0xffffffff
 81c395e:	429a      	cmp	r2, r3
 81c3960:	d107      	bne.n	81c3972 <Code_854+0xb2>
 81c3962:	4a80      	ldr	r2, [pc, #512]	; (81c3b64 <Code_896+0x26>)
 81c3964:	6813      	ldr	r3, [r2, #0]
 81c3966:	6011      	str	r1, [r2, #0]
 81c3968:	f847 6d04 	str.w	r6, [r7, #-4]!
 81c396c:	f7ff fe71 	bl	81c3652 <Code_828>
 81c3970:	6013      	str	r3, [r2, #0]
 81c3972:	6006      	str	r6, [r0, #0]
 81c3974:	cf40      	ldmia	r7!, {r6}
 81c3976:	e013      	b.n	81c39a0 <create_ende>

081c3978 <create_ram>:
 81c3978:	f000 f9de 	bl	81c3d38 <Code_921>
 81c397c:	487c      	ldr	r0, [pc, #496]	; (81c3b70 <Code_896+0x32>)
 81c397e:	f847 6d04 	str.w	r6, [r7, #-4]!
 81c3982:	6806      	ldr	r6, [r0, #0]
 81c3984:	f7ff fe65 	bl	81c3652 <Code_828>
 81c3988:	f847 6d04 	str.w	r6, [r7, #-4]!
 81c398c:	f64f 76ff 	movw	r6, #65535	; 0xffff
 81c3990:	f7ff fe3e 	bl	81c3610 <Code_822>
 81c3994:	4876      	ldr	r0, [pc, #472]	; (81c3b70 <Code_896+0x32>)
 81c3996:	0031      	movs	r1, r6
 81c3998:	cf40      	ldmia	r7!, {r6}
 81c399a:	6001      	str	r1, [r0, #0]
 81c399c:	f7ff fe72 	bl	81c3684 <Code_832>

081c39a0 <create_ende>:
 81c39a0:	4870      	ldr	r0, [pc, #448]	; (81c3b64 <Code_896+0x26>)
 81c39a2:	6801      	ldr	r1, [r0, #0]
 81c39a4:	4873      	ldr	r0, [pc, #460]	; (81c3b74 <Code_896+0x36>)
 81c39a6:	6001      	str	r1, [r0, #0]
 81c39a8:	bd00      	pop	{pc}

081c39aa <Dictionary_872>:
 81c39aa:	081c39c2 	ldmdaeq	ip, {r1, r6, r7, r8, fp, ip, sp}
 81c39ae:	76080000 	strvc	r0, [r8], -r0
 81c39b2:	61697261 	cmnvs	r9, r1, ror #4
 81c39b6:	00656c62 	rsbeq	r6, r5, r2, ror #24

081c39ba <Code_872>:
 81c39ba:	f847 6d04 	str.w	r6, [r7, #-4]!
 81c39be:	2601      	movs	r6, #1
 81c39c0:	e013      	b.n	81c39ea <Code_878>

081c39c2 <Dictionary_875>:
 81c39c2:	081c39da 	ldmdaeq	ip, {r1, r3, r4, r6, r7, r8, fp, ip, sp}
 81c39c6:	32090000 	andcc	r0, r9, #0
 81c39ca:	69726176 	ldmdbvs	r2!, {r1, r2, r4, r5, r6, r8, sp, lr}^
 81c39ce:	656c6261 	strbvs	r6, [ip, #-609]!	; 0xfffffd9f

081c39d2 <Code_875>:
 81c39d2:	f847 6d04 	str.w	r6, [r7, #-4]!
 81c39d6:	2602      	movs	r6, #2
 81c39d8:	e007      	b.n	81c39ea <Code_878>

081c39da <Dictionary_878>:
 81c39da:	081c3a48 	ldmdaeq	ip, {r3, r6, r9, fp, ip, sp}
 81c39de:	6e090000 	cdpvs	0, 0, cr0, cr9, cr0, {0}
 81c39e2:	69726176 	ldmdbvs	r2!, {r1, r2, r4, r5, r6, r8, sp, lr}^
 81c39e6:	656c6261 	strbvs	r6, [ip, #-609]!	; 0xfffffd9f

081c39ea <Code_878>:
 81c39ea:	b500      	push	{lr}
 81c39ec:	f7ff ff68 	bl	81c38c0 <Code_854>
 81c39f0:	485c      	ldr	r0, [pc, #368]	; (81c3b64 <Code_896+0x26>)
 81c39f2:	6801      	ldr	r1, [r0, #0]
 81c39f4:	4a5c      	ldr	r2, [pc, #368]	; (81c3b68 <Code_896+0x2a>)
 81c39f6:	4291      	cmp	r1, r2
 81c39f8:	d218      	bcs.n	81c3a2c <variable_ram>
 81c39fa:	200f      	movs	r0, #15
 81c39fc:	4006      	ands	r6, r0
 81c39fe:	00b2      	lsls	r2, r6, #2
 81c3a00:	f000 f847 	bl	81c3a92 <prepare_var_buf_flash>
 81c3a04:	0030      	movs	r0, r6
 81c3a06:	cf40      	ldmia	r7!, {r6}
 81c3a08:	0002      	movs	r2, r0
 81c3a0a:	d006      	beq.n	81c3a1a <Code_878+0x30>
 81c3a0c:	d005      	beq.n	81c3a1a <Code_878+0x30>
 81c3a0e:	600e      	str	r6, [r1, #0]
 81c3a10:	3104      	adds	r1, #4
 81c3a12:	f7ff fe1e 	bl	81c3652 <Code_828>
 81c3a16:	3801      	subs	r0, #1
 81c3a18:	d1f9      	bne.n	81c3a0e <Code_878+0x24>
 81c3a1a:	f847 6d04 	str.w	r6, [r7, #-4]!
 81c3a1e:	2680      	movs	r6, #128	; 0x80
 81c3a20:	4316      	orrs	r6, r2
 81c3a22:	f7ff fd98 	bl	81c3556 <Code_810>
 81c3a26:	f7ff fd60 	bl	81c34ea <Code_805>
 81c3a2a:	bd00      	pop	{pc}

081c3a2c <variable_ram>:
 81c3a2c:	f000 f84b 	bl	81c3ac6 <prepare_var_buf_ram>
 81c3a30:	0030      	movs	r0, r6
 81c3a32:	cf40      	ldmia	r7!, {r6}
 81c3a34:	d003      	beq.n	81c3a3e <finish_var_buf_ram>
 81c3a36:	f7ff fe0c 	bl	81c3652 <Code_828>
 81c3a3a:	3801      	subs	r0, #1
 81c3a3c:	d1fb      	bne.n	81c3a36 <variable_ram+0xa>

081c3a3e <finish_var_buf_ram>:
 81c3a3e:	f7ff fcb1 	bl	81c33a4 <Code_790>
 81c3a42:	f7ff fd52 	bl	81c34ea <Code_805>
 81c3a46:	bd00      	pop	{pc}

081c3a48 <Dictionary_883>:
 81c3a48:	081c3afa 	ldmdaeq	ip, {r1, r3, r4, r5, r6, r7, r9, fp, ip, sp}
 81c3a4c:	62070000 	andvs	r0, r7, #0
 81c3a50:	65666675 	strbvs	r6, [r6, #-1653]!	; 0xfffff98b
 81c3a54:	 	strlt	r3, [r0, #-2674]	; 0xfffff58e

081c3a56 <Code_883>:
 81c3a56:	b500      	push	{lr}
 81c3a58:	f7ff ff32 	bl	81c38c0 <Code_854>
 81c3a5c:	2003      	movs	r0, #3
 81c3a5e:	1836      	adds	r6, r6, r0
 81c3a60:	4386      	bics	r6, r0
 81c3a62:	4840      	ldr	r0, [pc, #256]	; (81c3b64 <Code_896+0x26>)
 81c3a64:	6801      	ldr	r1, [r0, #0]
 81c3a66:	4a40      	ldr	r2, [pc, #256]	; (81c3b68 <Code_896+0x2a>)
 81c3a68:	4291      	cmp	r1, r2
 81c3a6a:	d20d      	bcs.n	81c3a88 <rambuffer_ram>
 81c3a6c:	0032      	movs	r2, r6
 81c3a6e:	f000 f810 	bl	81c3a92 <prepare_var_buf_flash>
 81c3a72:	f7ff fdee 	bl	81c3652 <Code_828>
 81c3a76:	f847 6d04 	str.w	r6, [r7, #-4]!
 81c3a7a:	f240 1640 	movw	r6, #320	; 0x140
 81c3a7e:	f7ff fd6a 	bl	81c3556 <Code_810>
 81c3a82:	f7ff fd32 	bl	81c34ea <Code_805>
 81c3a86:	bd00      	pop	{pc}

081c3a88 <rambuffer_ram>:
 81c3a88:	f000 f81d 	bl	81c3ac6 <prepare_var_buf_ram>
 81c3a8c:	f7ff fe26 	bl	81c36dc <Code_835>
 81c3a90:	e7d5      	b.n	81c3a3e <finish_var_buf_ram>

081c3a92 <prepare_var_buf_flash>:
 81c3a92:	b500      	push	{lr}
 81c3a94:	4838      	ldr	r0, [pc, #224]	; (81c3b78 <Code_896+0x3a>)
 81c3a96:	6801      	ldr	r1, [r0, #0]
 81c3a98:	1a89      	subs	r1, r1, r2
 81c3a9a:	4a38      	ldr	r2, [pc, #224]	; (81c3b7c <Code_896+0x3e>)
 81c3a9c:	4291      	cmp	r1, r2
 81c3a9e:	d20b      	bcs.n	81c3ab8 <prepare_var_buf_flash+0x26>
 81c3aa0:	f7ff f844 	bl	81c2b2c <dotgaensefuesschen>
 81c3aa4:	746f4e0f 	strbtvc	r4, [pc], #-3599	; 81c3aac <prepare_var_buf_flash+0x1a>
 81c3aa8:	6f6e6520 	svcvs	0x006e6520
 81c3aac:	20686775 	rsbcs	r6, r8, r5, ror r7
 81c3ab0:	0a4d4152 	beq	9514000 <FlashDictionaryEnde+0x1314000>
 81c3ab4:	f001 b824 	b.w	81c4b00 <Code_1197>
 81c3ab8:	6001      	str	r1, [r0, #0]
 81c3aba:	f847 6d04 	str.w	r6, [r7, #-4]!
 81c3abe:	000e      	movs	r6, r1
 81c3ac0:	f7ff fade 	bl	81c3080 <Code_737>
 81c3ac4:	e012      	b.n	81c3aec <bx_lr_komma>

081c3ac6 <prepare_var_buf_ram>:
 81c3ac6:	b500      	push	{lr}
 81c3ac8:	f000 f936 	bl	81c3d38 <Code_921>
 81c3acc:	2002      	movs	r0, #2
 81c3ace:	4006      	ands	r6, r0
 81c3ad0:	cf40      	ldmia	r7!, {r6}
 81c3ad2:	d101      	bne.n	81c3ad8 <prepare_var_buf_ram+0x12>
 81c3ad4:	f7ff fd8e 	bl	81c35f4 <nop_hkomma>
 81c3ad8:	f847 6d04 	str.w	r6, [r7, #-4]!
 81c3adc:	4e28      	ldr	r6, [pc, #160]	; (81c3b80 <Code_896+0x42>)
 81c3ade:	f7ff fdc6 	bl	81c366e <Code_831>
 81c3ae2:	f847 6d04 	str.w	r6, [r7, #-4]!
 81c3ae6:	4e27      	ldr	r6, [pc, #156]	; (81c3b84 <Code_896+0x46>)
 81c3ae8:	f7ff fdc1 	bl	81c366e <Code_831>

081c3aec <bx_lr_komma>:
 81c3aec:	f847 6d04 	str.w	r6, [r7, #-4]!
 81c3af0:	f244 7670 	movw	r6, #18288	; 0x4770
 81c3af4:	f7ff fd8c 	bl	81c3610 <Code_822>
 81c3af8:	bd00      	pop	{pc}

081c3afa <Dictionary_894>:
 81c3afa:	081c3b28 	ldmdaeq	ip, {r3, r5, r8, r9, fp, ip, sp}
 81c3afe:	640f0000 	strvs	r0, [pc], #-0	; 81c3b06 <Dictionary_894+0xc>
 81c3b02:	69746369 	ldmdbvs	r4!, {r0, r3, r5, r6, r8, r9, sp, lr}^
 81c3b06:	72616e6f 	rsbvc	r6, r1, #1776	; 0x6f0
 81c3b0a:	61747379 	cmnvs	r4, r9, ror r3
 81c3b0e:	 	ldmdami	r4, {r1, r4, r5, r6, sl, ip, sp, lr}

081c3b10 <Code_894>:
 81c3b10:	4814      	ldr	r0, [pc, #80]	; (81c3b64 <Code_896+0x26>)
 81c3b12:	6800      	ldr	r0, [r0, #0]
 81c3b14:	4914      	ldr	r1, [pc, #80]	; (81c3b68 <Code_896+0x2a>)
 81c3b16:	f847 6d04 	str.w	r6, [r7, #-4]!
 81c3b1a:	4288      	cmp	r0, r1
 81c3b1c:	d201      	bcs.n	81c3b22 <Code_894+0x12>
 81c3b1e:	4e1a      	ldr	r6, [pc, #104]	; (81c3b88 <Code_896+0x4a>)
 81c3b20:	4770      	bx	lr
 81c3b22:	4e13      	ldr	r6, [pc, #76]	; (81c3b70 <Code_896+0x32>)
 81c3b24:	6836      	ldr	r6, [r6, #0]
 81c3b26:	4770      	bx	lr

081c3b28 <Dictionary_896>:
 81c3b28:	081c3b8c 	ldmdaeq	ip, {r2, r3, r7, r8, r9, fp, ip, sp}
 81c3b2c:	640e0000 	strvs	r0, [lr], #-0
 81c3b30:	69746369 	ldmdbvs	r4!, {r0, r3, r5, r6, r8, r9, sp, lr}^
 81c3b34:	72616e6f 	rsbvc	r6, r1, #1776	; 0x6f0
 81c3b38:	78656e79 	stmdavc	r5!, {r0, r3, r4, r5, r6, r9, sl, fp, sp, lr}^
 81c3b3c:	 	strlt	r0, [r3, #-116]	; 0xffffff8c

081c3b3e <Code_896>:
 81c3b3e:	b503      	push	{r0, r1, lr}
 81c3b40:	6831      	ldr	r1, [r6, #0]
 81c3b42:	f04f 30ff 	mov.w	r0, #4294967295	; 0xffffffff
 81c3b46:	4281      	cmp	r1, r0
 81c3b48:	d007      	beq.n	81c3b5a <Code_896+0x1c>
 81c3b4a:	7988      	ldrb	r0, [r1, #6]
 81c3b4c:	28ff      	cmp	r0, #255	; 0xff
 81c3b4e:	d004      	beq.n	81c3b5a <Code_896+0x1c>
 81c3b50:	000e      	movs	r6, r1
 81c3b52:	f847 6d04 	str.w	r6, [r7, #-4]!
 81c3b56:	2600      	movs	r6, #0
 81c3b58:	bd03      	pop	{r0, r1, pc}
 81c3b5a:	f847 6d04 	str.w	r6, [r7, #-4]!
 81c3b5e:	2600      	movs	r6, #0
 81c3b60:	43f6      	mvns	r6, r6
 81c3b62:	bd03      	pop	{r0, r1, pc}
 81c3b64:	380087d0 	stmdacc	r0, {r4, r6, r7, r8, r9, sl, pc}
 81c3b68:	38000800 	stmdacc	r0, {fp}
 81c3b6c:	38000818 	stmdacc	r0, {r3, r4, fp}
 81c3b70:	380087d4 	stmdacc	r0, {r2, r4, r6, r7, r8, r9, sl, pc}
 81c3b74:	3800080c 	stmdacc	r0, {r2, r3, fp}
 81c3b78:	3800081c 	stmdacc	r0, {r2, r3, r4, fp}
 81c3b7c:	38001008 	stmdacc	r0, {r3, ip}
 81c3b80:	3f04603e 	svccc	0x0004603e
 81c3b84:	467e3602 	ldrbtmi	r3, [lr], -r2, lsl #12
 81c3b88:	081c01e4 	ldmdaeq	ip, {r2, r5, r6, r7, r8}

081c3b8c <Dictionary_900>:
 81c3b8c:	081c3bba 	ldmdaeq	ip, {r1, r3, r4, r5, r7, r8, r9, fp, ip, sp}
 81c3b90:	730a0000 	movwvc	r0, #40960	; 0xa000
 81c3b94:	7370696b 	cmnvc	r0, #1753088	; 0x1ac000
 81c3b98:	6e697274 	mcrvs	2, 3, r7, cr9, cr4, {3}
 81c3b9c:	 	ldmdavc	r1!, {r0, r1, r2, r5, r6}

081c3b9e <Code_900>:
 81c3b9e:	7831      	ldrb	r1, [r6, #0]
 81c3ba0:	3102      	adds	r1, #2
 81c3ba2:	2201      	movs	r2, #1
 81c3ba4:	4391      	bics	r1, r2
 81c3ba6:	1876      	adds	r6, r6, r1
 81c3ba8:	4770      	bx	lr

081c3baa <skipstring>:
 81c3baa:	b406      	push	{r1, r2}
 81c3bac:	7801      	ldrb	r1, [r0, #0]
 81c3bae:	3102      	adds	r1, #2
 81c3bb0:	2201      	movs	r2, #1
 81c3bb2:	4391      	bics	r1, r2
 81c3bb4:	1840      	adds	r0, r0, r1
 81c3bb6:	bc06      	pop	{r1, r2}
 81c3bb8:	4770      	bx	lr

081c3bba <Dictionary_901>:
 81c3bba:	081c3bcc 	ldmdaeq	ip, {r2, r3, r6, r7, r8, r9, fp, ip, sp}
 81c3bbe:	66040000 	strvs	r0, [r4], -r0
 81c3bc2:	00646e69 	rsbeq	r6, r4, r9, ror #28

081c3bc6 <Code_901>:
 81c3bc6:	4830      	ldr	r0, [pc, #192]	; (81c3c88 <find_not_found+0x1c>)
 81c3bc8:	6800      	ldr	r0, [r0, #0]
 81c3bca:	4687      	mov	pc, r0

081c3bcc <Dictionary_902>:
 81c3bcc:	081c3be8 	ldmdaeq	ip, {r3, r5, r6, r7, r8, r9, fp, ip, sp}
 81c3bd0:	68090081 	stmdavs	r9, {r0, r7}
 81c3bd4:	2d6b6f6f 	stclcs	15, cr6, [fp, #-444]!	; 0xfffffe44
 81c3bd8:	646e6966 	strbtvs	r6, [lr], #-2406	; 0xfffff69a

081c3bdc <Code_902>:
 81c3bdc:	f847 6d04 	str.w	r6, [r7, #-4]!
 81c3be0:	4e2a      	ldr	r6, [pc, #168]	; (81c3c8c <find_not_found+0x20>)
 81c3be2:	4770      	bx	lr
 81c3be4:	081c3bf6 	ldmdaeq	ip, {r1, r2, r4, r5, r6, r7, r8, r9, fp, ip, sp}

081c3be8 <Dictionary_905>:
 81c3be8:	081c3c94 	ldmdaeq	ip, {r2, r4, r7, sl, fp, ip, sp}
 81c3bec:	28060000 	stmdacs	r6, {}	; <UNPREDICTABLE>
 81c3bf0:	646e6966 	strbtvs	r6, [lr], #-2406	; 0xfffff69a
 81c3bf4:	 	ldrlt	r0, [r0, #-41]!	; 0xffffffd7

081c3bf6 <Code_905>:
 81c3bf6:	b530      	push	{r4, r5, lr}
 81c3bf8:	2000      	movs	r0, #0
 81c3bfa:	2100      	movs	r1, #0
 81c3bfc:	b403      	push	{r0, r1}
 81c3bfe:	0035      	movs	r5, r6
 81c3c00:	cf40      	ldmia	r7!, {r6}
 81c3c02:	0034      	movs	r4, r6
 81c3c04:	cf40      	ldmia	r7!, {r6}
 81c3c06:	f7ff ff83 	bl	81c3b10 <Code_894>
 81c3c0a:	f64f 70ff 	movw	r0, #65535	; 0xffff
 81c3c0e:	88b1      	ldrh	r1, [r6, #4]
 81c3c10:	4288      	cmp	r0, r1
 81c3c12:	d01d      	beq.n	81c3c50 <Code_905+0x5a>
 81c3c14:	79b1      	ldrb	r1, [r6, #6]
 81c3c16:	42a9      	cmp	r1, r5
 81c3c18:	d11a      	bne.n	81c3c50 <Code_905+0x5a>
 81c3c1a:	1df0      	adds	r0, r6, #7
 81c3c1c:	3901      	subs	r1, #1
 81c3c1e:	5c42      	ldrb	r2, [r0, r1]
 81c3c20:	5c63      	ldrb	r3, [r4, r1]
 81c3c22:	2a41      	cmp	r2, #65	; 0x41
 81c3c24:	d302      	bcc.n	81c3c2c <Code_905+0x36>
 81c3c26:	2a5b      	cmp	r2, #91	; 0x5b
 81c3c28:	bf38      	it	cc
 81c3c2a:	3220      	addcc	r2, #32
 81c3c2c:	2b41      	cmp	r3, #65	; 0x41
 81c3c2e:	d302      	bcc.n	81c3c36 <Code_905+0x40>
 81c3c30:	2b5b      	cmp	r3, #91	; 0x5b
 81c3c32:	bf38      	it	cc
 81c3c34:	3320      	addcc	r3, #32
 81c3c36:	429a      	cmp	r2, r3
 81c3c38:	d10a      	bne.n	81c3c50 <Code_905+0x5a>
 81c3c3a:	2900      	cmp	r1, #0
 81c3c3c:	d1ee      	bne.n	81c3c1c <Code_905+0x26>
 81c3c3e:	b002      	add	sp, #8
 81c3c40:	1db0      	adds	r0, r6, #6
 81c3c42:	f7ff ffb2 	bl	81c3baa <skipstring>
 81c3c46:	88b1      	ldrh	r1, [r6, #4]
 81c3c48:	b403      	push	{r0, r1}
 81c3c4a:	4811      	ldr	r0, [pc, #68]	; (81c3c90 <find_not_found+0x24>)
 81c3c4c:	4286      	cmp	r6, r0
 81c3c4e:	d207      	bcs.n	81c3c60 <Code_905+0x6a>
 81c3c50:	6836      	ldr	r6, [r6, #0]
 81c3c52:	f04f 30ff 	mov.w	r0, #4294967295	; 0xffffffff
 81c3c56:	4286      	cmp	r6, r0
 81c3c58:	d002      	beq.n	81c3c60 <Code_905+0x6a>
 81c3c5a:	79b0      	ldrb	r0, [r6, #6]
 81c3c5c:	28ff      	cmp	r0, #255	; 0xff
 81c3c5e:	d1d4      	bne.n	81c3c0a <Code_905+0x14>
 81c3c60:	bc03      	pop	{r0, r1}
 81c3c62:	0006      	movs	r6, r0
 81c3c64:	f847 6d04 	str.w	r6, [r7, #-4]!
 81c3c68:	000e      	movs	r6, r1
 81c3c6a:	bd30      	pop	{r4, r5, pc}

081c3c6c <find_not_found>:
 81c3c6c:	b500      	push	{lr}
 81c3c6e:	0031      	movs	r1, r6
 81c3c70:	6838      	ldr	r0, [r7, #0]
 81c3c72:	b403      	push	{r0, r1}
 81c3c74:	f7ff ffa7 	bl	81c3bc6 <Code_901>
 81c3c78:	bc03      	pop	{r0, r1}
 81c3c7a:	683a      	ldr	r2, [r7, #0]
 81c3c7c:	2a00      	cmp	r2, #0
 81c3c7e:	d101      	bne.n	81c3c84 <find_not_found+0x18>
 81c3c80:	f000 feec 	bl	81c4a5c <not_found_addr_r0_len_r1>
 81c3c84:	bd00      	pop	{pc}
 81c3c86:	87cc0000 	strbhi	r0, [ip, r0]
 81c3c8a:	87cc3800 	strbhi	r3, [ip, r0, lsl #16]
 81c3c8e:	08003800 	stmdaeq	r0, {fp, ip, sp}
 81c3c92:	 	ldclcc	8, cr3, [r2]

081c3c94 <Dictionary_912>:
 81c3c94:	081c3cf2 	ldmdaeq	ip, {r1, r4, r5, r6, r7, sl, fp, ip, sp}
 81c3c98:	63060000 	movwvs	r0, #24576	; 0x6000
 81c3c9c:	706d756a 	rsbvc	r7, sp, sl, ror #10
 81c3ca0:	 	eorseq	r0, r2, ip, lsr #32

081c3ca2 <Code_912>:
 81c3ca2:	0032      	movs	r2, r6
 81c3ca4:	cf40      	ldmia	r7!, {r6}
 81c3ca6:	0031      	movs	r1, r6
 81c3ca8:	cf40      	ldmia	r7!, {r6}
 81c3caa:	1b8b      	subs	r3, r1, r6
 81c3cac:	3b04      	subs	r3, #4
 81c3cae:	f06f 01fe 	mvn.w	r1, #254	; 0xfe
 81c3cb2:	4019      	ands	r1, r3
 81c3cb4:	2900      	cmp	r1, #0
 81c3cb6:	d00e      	beq.n	81c3cd6 <jump_too_far+0x16>
 81c3cb8:	f06f 00ff 	mvn.w	r0, #255	; 0xff
 81c3cbc:	4281      	cmp	r1, r0
 81c3cbe:	d00a      	beq.n	81c3cd6 <jump_too_far+0x16>

081c3cc0 <jump_too_far>:
 81c3cc0:	f7fe ff34 	bl	81c2b2c <dotgaensefuesschen>
 81c3cc4:	6d754a0d 	vldmdbvs	r5!, {s9-s21}
 81c3cc8:	6f742070 	svcvs	0x00742070
 81c3ccc:	6166206f 	cmnvs	r6, pc, rrx
 81c3cd0:	f0000a72 			; <UNDEFINED> instruction: 0xf0000a72
 81c3cd4:	bf15      	itete	ne
 81c3cd6:	105b      	asrne	r3, r3, #1
 81c3cd8:	21ff      	moveq	r1, #255	; 0xff
 81c3cda:	400b      	andne	r3, r1
 81c3cdc:	4313      	orreq	r3, r2
 81c3cde:	0030      	movs	r0, r6
 81c3ce0:	001e      	movs	r6, r3

081c3ce2 <sprungbefehl_einfuegen>:
 81c3ce2:	b500      	push	{lr}
 81c3ce4:	4acb      	ldr	r2, [pc, #812]	; (81c4014 <Code_975+0xe>)
 81c3ce6:	6813      	ldr	r3, [r2, #0]
 81c3ce8:	6010      	str	r0, [r2, #0]
 81c3cea:	f7ff fc91 	bl	81c3610 <Code_822>
 81c3cee:	6013      	str	r3, [r2, #0]
 81c3cf0:	bd00      	pop	{pc}

081c3cf2 <Dictionary_916>:
 81c3cf2:	081c3d2c 	ldmdaeq	ip, {r2, r3, r5, r8, sl, fp, ip, sp}
 81c3cf6:	6a050000 	bvs	8303cfe <FlashDictionaryEnde+0x103cfe>
 81c3cfa:	2c706d75 	ldclcs	13, cr6, [r0], #-468	; 0xfffffe2c

081c3cfe <Code_916>:
 81c3cfe:	0031      	movs	r1, r6
 81c3d00:	cf40      	ldmia	r7!, {r6}
 81c3d02:	0030      	movs	r0, r6
 81c3d04:	cf40      	ldmia	r7!, {r6}
 81c3d06:	1a0b      	subs	r3, r1, r0
 81c3d08:	3b04      	subs	r3, #4
 81c3d0a:	49c3      	ldr	r1, [pc, #780]	; (81c4018 <Code_975+0x12>)
 81c3d0c:	4019      	ands	r1, r3
 81c3d0e:	2900      	cmp	r1, #0
 81c3d10:	d002      	beq.n	81c3d18 <Code_916+0x1a>
 81c3d12:	4ac2      	ldr	r2, [pc, #776]	; (81c401c <Code_975+0x16>)
 81c3d14:	4291      	cmp	r1, r2
 81c3d16:	d1d3      	bne.n	81c3cc0 <jump_too_far>
 81c3d18:	105b      	asrs	r3, r3, #1
 81c3d1a:	f240 72ff 	movw	r2, #2047	; 0x7ff
 81c3d1e:	4013      	ands	r3, r2
 81c3d20:	f453 4360 	orrs.w	r3, r3, #57344	; 0xe000
 81c3d24:	f847 6d04 	str.w	r6, [r7, #-4]!
 81c3d28:	001e      	movs	r6, r3
 81c3d2a:	e7da      	b.n	81c3ce2 <sprungbefehl_einfuegen>

081c3d2c <Dictionary_921>:
 81c3d2c:	081c3d42 	ldmdaeq	ip, {r1, r6, r8, sl, fp, ip, sp}
 81c3d30:	68040000 	stmdavs	r4, {}	; <UNPREDICTABLE>
 81c3d34:	00657265 	rsbeq	r7, r5, r5, ror #4

081c3d38 <Code_921>:
 81c3d38:	f847 6d04 	str.w	r6, [r7, #-4]!
 81c3d3c:	4eb5      	ldr	r6, [pc, #724]	; (81c4014 <Code_975+0xe>)
 81c3d3e:	6836      	ldr	r6, [r6, #0]
 81c3d40:	4770      	bx	lr

081c3d42 <Dictionary_923>:
 81c3d42:	081c3e70 	ldmdaeq	ip, {r4, r5, r6, r9, sl, fp, ip, sp}
 81c3d46:	660d0000 	strvs	r0, [sp], -r0
 81c3d4a:	6873616c 	ldmdavs	r3!, {r2, r3, r5, r6, r8, sp, lr}^
 81c3d4e:	2d726176 	ldfcse	f6, [r2, #-472]!	; 0xfffffe28
 81c3d52:	65726568 	ldrbvs	r6, [r2, #-1384]!	; 0xfffffa98

081c3d56 <Code_923>:
 81c3d56:	f847 6d04 	str.w	r6, [r7, #-4]!
 81c3d5a:	4eb1      	ldr	r6, [pc, #708]	; (81c4020 <Code_975+0x1a>)
 81c3d5c:	6836      	ldr	r6, [r6, #0]
 81c3d5e:	4770      	bx	lr

081c3d60 <nullprobekomma>:
 81c3d60:	b500      	push	{lr}
 81c3d62:	f847 6d04 	str.w	r6, [r7, #-4]!
 81c3d66:	f642 6600 	movw	r6, #11776	; 0x2e00
 81c3d6a:	f7ff fc51 	bl	81c3610 <Code_822>
 81c3d6e:	f7ff fc45 	bl	81c35fc <drop_hkomma>
 81c3d72:	bd00      	pop	{pc}

081c3d74 <branch_r>:
 81c3d74:	e7e0      	b.n	81c3d38 <Code_921>

081c3d76 <r_branch_jne>:
 81c3d76:	b500      	push	{lr}
 81c3d78:	f000 f83a 	bl	81c3df0 <branch_v>
 81c3d7c:	6839      	ldr	r1, [r7, #0]
 81c3d7e:	603e      	str	r6, [r7, #0]
 81c3d80:	460e      	mov	r6, r1
 81c3d82:	f847 6d04 	str.w	r6, [r7, #-4]!
 81c3d86:	f24d 1600 	movw	r6, #53504	; 0xd100
 81c3d8a:	f7ff ff8a 	bl	81c3ca2 <Code_912>
 81c3d8e:	bd00      	pop	{pc}

081c3d90 <r_branch_jvc>:
 81c3d90:	b500      	push	{lr}
 81c3d92:	f000 f82d 	bl	81c3df0 <branch_v>
 81c3d96:	6839      	ldr	r1, [r7, #0]
 81c3d98:	603e      	str	r6, [r7, #0]
 81c3d9a:	460e      	mov	r6, r1
 81c3d9c:	f847 6d04 	str.w	r6, [r7, #-4]!
 81c3da0:	f24d 7600 	movw	r6, #55040	; 0xd700
 81c3da4:	f7ff ff7d 	bl	81c3ca2 <Code_912>
 81c3da8:	bd00      	pop	{pc}

081c3daa <r_nullbranch>:
 81c3daa:	b500      	push	{lr}
 81c3dac:	f7ff ffd8 	bl	81c3d60 <nullprobekomma>
 81c3db0:	f000 f81e 	bl	81c3df0 <branch_v>
 81c3db4:	6839      	ldr	r1, [r7, #0]
 81c3db6:	603e      	str	r6, [r7, #0]
 81c3db8:	460e      	mov	r6, r1
 81c3dba:	f847 6d04 	str.w	r6, [r7, #-4]!
 81c3dbe:	f24d 0600 	movw	r6, #53248	; 0xd000
 81c3dc2:	f7ff ff6e 	bl	81c3ca2 <Code_912>
 81c3dc6:	bd00      	pop	{pc}

081c3dc8 <r_branch>:
 81c3dc8:	b500      	push	{lr}
 81c3dca:	f000 f811 	bl	81c3df0 <branch_v>
 81c3dce:	6839      	ldr	r1, [r7, #0]
 81c3dd0:	603e      	str	r6, [r7, #0]
 81c3dd2:	460e      	mov	r6, r1
 81c3dd4:	f7ff ff93 	bl	81c3cfe <Code_916>
 81c3dd8:	bd00      	pop	{pc}

081c3dda <nullbranch_v>:
 81c3dda:	b500      	push	{lr}
 81c3ddc:	f7ff ffc0 	bl	81c3d60 <nullprobekomma>
 81c3de0:	f7ff ffaa 	bl	81c3d38 <Code_921>
 81c3de4:	f847 6d04 	str.w	r6, [r7, #-4]!
 81c3de8:	2602      	movs	r6, #2
 81c3dea:	f7ff fc77 	bl	81c36dc <Code_835>
 81c3dee:	bd00      	pop	{pc}

081c3df0 <branch_v>:
 81c3df0:	b500      	push	{lr}
 81c3df2:	f7ff ffa1 	bl	81c3d38 <Code_921>
 81c3df6:	f847 6d04 	str.w	r6, [r7, #-4]!
 81c3dfa:	2602      	movs	r6, #2
 81c3dfc:	f7ff fc6e 	bl	81c36dc <Code_835>
 81c3e00:	bd00      	pop	{pc}

081c3e02 <v_branch>:
 81c3e02:	b500      	push	{lr}
 81c3e04:	f7ff ff98 	bl	81c3d38 <Code_921>
 81c3e08:	f7ff ff79 	bl	81c3cfe <Code_916>
 81c3e0c:	bd00      	pop	{pc}

081c3e0e <v_nullbranch>:
 81c3e0e:	b500      	push	{lr}
 81c3e10:	f7ff ff92 	bl	81c3d38 <Code_921>
 81c3e14:	f847 6d04 	str.w	r6, [r7, #-4]!
 81c3e18:	f24d 0600 	movw	r6, #53248	; 0xd000
 81c3e1c:	f7ff ff41 	bl	81c3ca2 <Code_912>
 81c3e20:	bd00      	pop	{pc}

081c3e22 <v_casebranch>:
 81c3e22:	b500      	push	{lr}
 81c3e24:	f7ff ff88 	bl	81c3d38 <Code_921>
 81c3e28:	f847 6d04 	str.w	r6, [r7, #-4]!
 81c3e2c:	f24d 1600 	movw	r6, #53504	; 0xd100
 81c3e30:	f7ff ff37 	bl	81c3ca2 <Code_912>
 81c3e34:	bd00      	pop	{pc}

081c3e36 <allocator_nullsprungprobe>:
 81c3e36:	b500      	push	{lr}
 81c3e38:	f7fc fb4e 	bl	81c04d8 <expect_one_element>
 81c3e3c:	f7fc fa86 	bl	81c034c <tidyup_register_allocator_5os>
 81c3e40:	f7fc fa89 	bl	81c0356 <tidyup_register_allocator_4os>
 81c3e44:	f7fc fa8c 	bl	81c0360 <tidyup_register_allocator_3os>
 81c3e48:	6881      	ldr	r1, [r0, #8]
 81c3e4a:	2928      	cmp	r1, #40	; 0x28
 81c3e4c:	d101      	bne.n	81c3e52 <allocator_nullsprungprobe+0x1c>
 81c3e4e:	f7fc fb89 	bl	81c0564 <expect_nos_in_register>
 81c3e52:	f7fc fb7d 	bl	81c0550 <expect_tos_in_register>
 81c3e56:	f847 6d04 	str.w	r6, [r7, #-4]!
 81c3e5a:	f642 0600 	movw	r6, #10240	; 0x2800
 81c3e5e:	0209      	lsls	r1, r1, #8
 81c3e60:	430e      	orrs	r6, r1
 81c3e62:	f7ff fbd5 	bl	81c3610 <Code_822>
 81c3e66:	f7fc fa3a 	bl	81c02de <eliminiere_tos>
 81c3e6a:	f7fc fa63 	bl	81c0334 <tidyup_register_allocator>
 81c3e6e:	bd00      	pop	{pc}

081c3e70 <Dictionary_947>:
 81c3e70:	081c3e9c 	ldmdaeq	ip, {r2, r3, r4, r7, r9, sl, fp, ip, sp}
 81c3e74:	74040030 	strvc	r0, [r4], #-48	; 0xffffffd0
 81c3e78:	006e6568 	rsbeq	r6, lr, r8, ror #10

081c3e7c <Code_947>:
 81c3e7c:	2e05      	cmp	r6, #5
 81c3e7e:	d101      	bne.n	81c3e84 <Code_947+0x8>
 81c3e80:	cf40      	ldmia	r7!, {r6}
 81c3e82:	e7be      	b.n	81c3e02 <v_branch>
 81c3e84:	b2f1      	uxtb	r1, r6
 81c3e86:	2900      	cmp	r1, #0
 81c3e88:	d16d      	bne.n	81c3f66 <strukturen_passen_nicht>
 81c3e8a:	b500      	push	{lr}
 81c3e8c:	f7ff ff54 	bl	81c3d38 <Code_921>
 81c3e90:	6839      	ldr	r1, [r7, #0]
 81c3e92:	603e      	str	r6, [r7, #0]
 81c3e94:	460e      	mov	r6, r1
 81c3e96:	f7ff ff04 	bl	81c3ca2 <Code_912>
 81c3e9a:	bd00      	pop	{pc}

081c3e9c <Dictionary_950>:
 81c3e9c:	081c3eb8 	ldmdaeq	ip, {r3, r4, r5, r7, r9, sl, fp, ip, sp}
 81c3ea0:	65040030 	strvs	r0, [r4, #-48]	; 0xffffffd0
 81c3ea4:	0065736c 	rsbeq	r7, r5, ip, ror #6

081c3ea8 <Code_950>:
 81c3ea8:	b500      	push	{lr}
 81c3eaa:	f000 f836 	bl	81c3f1a <Code_959>
 81c3eae:	f7fc fbde 	bl	81c066e <Code_72>
 81c3eb2:	f7ff ffe3 	bl	81c3e7c <Code_947>
 81c3eb6:	bd00      	pop	{pc}

081c3eb8 <Dictionary_951>:
 81c3eb8:	081c3f0e 	ldmdaeq	ip, {r1, r2, r3, r8, r9, sl, fp, ip, sp}
 81c3ebc:	69020630 	stmdbvs	r2, {r4, r5, r9, sl}
 81c3ec0:	 	strlt	r0, [r0, #-102]	; 0xffffff9a

081c3ec2 <Code_951>:
 81c3ec2:	b500      	push	{lr}
 81c3ec4:	f7ff ff89 	bl	81c3dda <nullbranch_v>
 81c3ec8:	f847 6d04 	str.w	r6, [r7, #-4]!
 81c3ecc:	f24d 0600 	movw	r6, #53248	; 0xd000
 81c3ed0:	bd00      	pop	{pc}

081c3ed2 <struktur_if_allokator>:
 81c3ed2:	b500      	push	{lr}
 81c3ed4:	f7fc fb93 	bl	81c05fe <push_lr_nachholen>
 81c3ed8:	f7fd fc65 	bl	81c17a6 <eliminiere_tos_wenn_bmi>
 81c3edc:	6a81      	ldr	r1, [r0, #40]	; 0x28
 81c3ede:	2900      	cmp	r1, #0
 81c3ee0:	d007      	beq.n	81c3ef2 <struktur_if_allokator+0x20>
 81c3ee2:	b402      	push	{r1}
 81c3ee4:	f7fc fa26 	bl	81c0334 <tidyup_register_allocator>
 81c3ee8:	f7ff ff82 	bl	81c3df0 <branch_v>
 81c3eec:	f847 6d04 	str.w	r6, [r7, #-4]!
 81c3ef0:	bd40      	pop	{r6, pc}
 81c3ef2:	f7ff ffa0 	bl	81c3e36 <allocator_nullsprungprobe>
 81c3ef6:	f7ff ff1f 	bl	81c3d38 <Code_921>
 81c3efa:	f847 6d04 	str.w	r6, [r7, #-4]!
 81c3efe:	2602      	movs	r6, #2
 81c3f00:	f7ff fbec 	bl	81c36dc <Code_835>
 81c3f04:	f847 6d04 	str.w	r6, [r7, #-4]!
 81c3f08:	f24d 0600 	movw	r6, #53248	; 0xd000
 81c3f0c:	bd00      	pop	{pc}

081c3f0e <Dictionary_959>:
 81c3f0e:	081c3f28 	ldmdaeq	ip, {r3, r5, r8, r9, sl, fp, ip, sp}
 81c3f12:	61050030 	tstvs	r5, r0, lsr r0
 81c3f16:	64616568 	strbtvs	r6, [r1], #-1384	; 0xfffffa98

081c3f1a <Code_959>:
 81c3f1a:	b500      	push	{lr}
 81c3f1c:	f7ff ff68 	bl	81c3df0 <branch_v>
 81c3f20:	f847 6d04 	str.w	r6, [r7, #-4]!
 81c3f24:	2605      	movs	r6, #5
 81c3f26:	bd00      	pop	{pc}

081c3f28 <Dictionary_962>:
 81c3f28:	081c3f42 	ldmdaeq	ip, {r1, r6, r8, r9, sl, fp, ip, sp}
 81c3f2c:	72060030 	andvc	r0, r6, #48	; 0x30
 81c3f30:	61657065 	cmnvs	r5, r5, rrx
 81c3f34:	 	strlt	r0, [r0, #-116]	; 0xffffff8c

081c3f36 <Code_962>:
 81c3f36:	b500      	push	{lr}
 81c3f38:	f000 f85b 	bl	81c3ff2 <Code_973>
 81c3f3c:	f7ff ff9e 	bl	81c3e7c <Code_947>
 81c3f40:	bd00      	pop	{pc}

081c3f42 <Dictionary_963>:
 81c3f42:	081c3f86 	ldmdaeq	ip, {r1, r2, r7, r8, r9, sl, fp, ip, sp}
 81c3f46:	77050630 	smladxvc	r5, r0, r6, r0
 81c3f4a:	656c6968 	strbvs	r6, [ip, #-2408]!	; 0xfffff698

081c3f4e <Code_963>:
 81c3f4e:	b500      	push	{lr}
 81c3f50:	f7ff ffb7 	bl	81c3ec2 <Code_951>
 81c3f54:	f7fc fb8b 	bl	81c066e <Code_72>
 81c3f58:	bd00      	pop	{pc}
 81c3f5a:	b500      	push	{lr}
 81c3f5c:	f7ff ffb9 	bl	81c3ed2 <struktur_if_allokator>
 81c3f60:	f7fc fb85 	bl	81c066e <Code_72>
 81c3f64:	bd00      	pop	{pc}

081c3f66 <strukturen_passen_nicht>:
 81c3f66:	f7fe fde1 	bl	81c2b2c <dotgaensefuesschen>
 81c3f6a:	72745317 	rsbsvc	r5, r4, #1543503872	; 0x5c000000
 81c3f6e:	75746375 	ldrbvc	r6, [r4, #-885]!	; 0xfffffc8b
 81c3f72:	20736572 	rsbscs	r6, r3, r2, ror r5
 81c3f76:	276e6f64 	strbcs	r6, [lr, -r4, ror #30]!
 81c3f7a:	616d2074 	smcvs	53764	; 0xd204
 81c3f7e:	0a686374 	beq	9bdcd56 <FlashDictionaryEnde+0x19dcd56>
 81c3f82:	f000 bdbd 	b.w	81c4b00 <Code_1197>

081c3f86 <Dictionary_965>:
 81c3f86:	081c3fe6 	ldmdaeq	ip, {r1, r2, r5, r6, r7, r8, r9, sl, fp, ip, sp}
 81c3f8a:	75050630 	strvc	r0, [r5, #-1584]	; 0xfffff9d0
 81c3f8e:	6c69746e 	cfstrdvs	mvd7, [r9], #-440	; 0xfffffe48

081c3f92 <Code_965>:
 81c3f92:	2e01      	cmp	r6, #1
 81c3f94:	d1e7      	bne.n	81c3f66 <strukturen_passen_nicht>
 81c3f96:	cf40      	ldmia	r7!, {r6}
 81c3f98:	e707      	b.n	81c3daa <r_nullbranch>
 81c3f9a:	4770      	bx	lr
 81c3f9c:	2e01      	cmp	r6, #1
 81c3f9e:	d1e2      	bne.n	81c3f66 <strukturen_passen_nicht>
 81c3fa0:	cf40      	ldmia	r7!, {r6}
 81c3fa2:	b500      	push	{lr}
 81c3fa4:	f7fd fbff 	bl	81c17a6 <eliminiere_tos_wenn_bmi>
 81c3fa8:	6a81      	ldr	r1, [r0, #40]	; 0x28
 81c3faa:	2900      	cmp	r1, #0
 81c3fac:	d00d      	beq.n	81c3fca <Code_965+0x38>
 81c3fae:	b402      	push	{r1}
 81c3fb0:	f7fc f9c0 	bl	81c0334 <tidyup_register_allocator>
 81c3fb4:	f7ff ff1c 	bl	81c3df0 <branch_v>
 81c3fb8:	6839      	ldr	r1, [r7, #0]
 81c3fba:	603e      	str	r6, [r7, #0]
 81c3fbc:	460e      	mov	r6, r1
 81c3fbe:	f847 6d04 	str.w	r6, [r7, #-4]!
 81c3fc2:	bc40      	pop	{r6}
 81c3fc4:	f7ff fe6d 	bl	81c3ca2 <Code_912>
 81c3fc8:	bd00      	pop	{pc}
 81c3fca:	f7ff ff34 	bl	81c3e36 <allocator_nullsprungprobe>
 81c3fce:	f7ff ff0f 	bl	81c3df0 <branch_v>
 81c3fd2:	6839      	ldr	r1, [r7, #0]
 81c3fd4:	603e      	str	r6, [r7, #0]
 81c3fd6:	460e      	mov	r6, r1
 81c3fd8:	f847 6d04 	str.w	r6, [r7, #-4]!
 81c3fdc:	f24d 0600 	movw	r6, #53248	; 0xd000
 81c3fe0:	f7ff fe5f 	bl	81c3ca2 <Code_912>
 81c3fe4:	bd00      	pop	{pc}

081c3fe6 <Dictionary_973>:
 81c3fe6:	081c3ffa 	ldmdaeq	ip, {r1, r3, r4, r5, r6, r7, r8, r9, sl, fp, ip, sp}
 81c3fea:	61050030 	tstvs	r5, r0, lsr r0
 81c3fee:	6e696167 	powvsez	f6, f1, f7

081c3ff2 <Code_973>:
 81c3ff2:	2e01      	cmp	r6, #1
 81c3ff4:	d1b7      	bne.n	81c3f66 <strukturen_passen_nicht>
 81c3ff6:	cf40      	ldmia	r7!, {r6}
 81c3ff8:	e6e6      	b.n	81c3dc8 <r_branch>

081c3ffa <Dictionary_975>:
 81c3ffa:	081c4024 	ldmdaeq	ip, {r2, r5, lr}
 81c3ffe:	62050030 	andvs	r0, r5, #48	; 0x30
 81c4002:	6e696765 	cdpvs	7, 6, cr6, cr9, cr5, {3}

081c4006 <Code_975>:
 81c4006:	b500      	push	{lr}
 81c4008:	f7ff feb4 	bl	81c3d74 <branch_r>
 81c400c:	f847 6d04 	str.w	r6, [r7, #-4]!
 81c4010:	2601      	movs	r6, #1
 81c4012:	bd00      	pop	{pc}
 81c4014:	380087d0 	stmdacc	r0, {r4, r6, r7, r8, r9, sl, pc}
 81c4018:	fffff801 			; <UNDEFINED> instruction: 0xfffff801
 81c401c:	fffff800 			; <UNDEFINED> instruction: 0xfffff800
 81c4020:	3800081c 	stmdacc	r0, {r2, r3, r4, fp}

081c4024 <Dictionary_978>:
 81c4024:	081c403e 	ldmdaeq	ip, {r1, r2, r3, r4, r5, lr}
 81c4028:	6b010220 	blvs	82048b0 <FlashDictionaryEnde+0x48b0>

081c402c <Code_978>:
 81c402c:	f847 6d04 	str.w	r6, [r7, #-4]!
 81c4030:	9e02      	ldr	r6, [sp, #8]
 81c4032:	4770      	bx	lr
 81c4034:	f847 6d04 	str.w	r6, [r7, #-4]!
 81c4038:	f649 0602 	movw	r6, #38914	; 0x9802
 81c403c:	e00b      	b.n	81c4056 <loop_j_allocator>

081c403e <Dictionary_982>:
 81c403e:	081c406c 	ldmdaeq	ip, {r2, r3, r5, r6, lr}
 81c4042:	6a010220 	bvs	82048ca <FlashDictionaryEnde+0x48ca>

081c4046 <Code_982>:
 81c4046:	f847 6d04 	str.w	r6, [r7, #-4]!
 81c404a:	9e00      	ldr	r6, [sp, #0]
 81c404c:	4770      	bx	lr

081c404e <rfetch_allocator>:
 81c404e:	f847 6d04 	str.w	r6, [r7, #-4]!
 81c4052:	f649 0600 	movw	r6, #38912	; 0x9800

081c4056 <loop_j_allocator>:
 81c4056:	b500      	push	{lr}
 81c4058:	f7fc f937 	bl	81c02ca <befreie_tos>
 81c405c:	f7fc fa08 	bl	81c0470 <get_free_register>
 81c4060:	6003      	str	r3, [r0, #0]
 81c4062:	021b      	lsls	r3, r3, #8
 81c4064:	431e      	orrs	r6, r3
 81c4066:	f7ff fad3 	bl	81c3610 <Code_822>
 81c406a:	bd00      	pop	{pc}

081c406c <Dictionary_986>:
 81c406c:	081c4098 	ldmdaeq	ip, {r3, r4, r7, lr}
 81c4070:	69010220 	stmdbvs	r1, {r5, r9}

081c4074 <Code_986>:
 81c4074:	f847 6d04 	str.w	r6, [r7, #-4]!
 81c4078:	0026      	movs	r6, r4
 81c407a:	4770      	bx	lr
 81c407c:	b500      	push	{lr}
 81c407e:	f847 6d04 	str.w	r6, [r7, #-4]!
 81c4082:	f240 0620 	movw	r6, #32
 81c4086:	f7fc f920 	bl	81c02ca <befreie_tos>
 81c408a:	f7fc f9f1 	bl	81c0470 <get_free_register>
 81c408e:	6003      	str	r3, [r0, #0]
 81c4090:	431e      	orrs	r6, r3
 81c4092:	f7ff fabd 	bl	81c3610 <Code_822>
 81c4096:	bd00      	pop	{pc}

081c4098 <Dictionary_991>:
 81c4098:	081c40d6 	ldmdaeq	ip, {r1, r2, r4, r6, r7, lr}
 81c409c:	6c050030 	stcvs	0, cr0, [r5], {48}	; 0x30
 81c40a0:	65766165 	ldrbvs	r6, [r6, #-357]!	; 0xfffffe9b

081c40a4 <Code_991>:
 81c40a4:	b500      	push	{lr}
 81c40a6:	4875      	ldr	r0, [pc, #468]	; (81c427c <gemeinsame_schleifenoptimierung+0x82>)
 81c40a8:	6801      	ldr	r1, [r0, #0]
 81c40aa:	003b      	movs	r3, r7
 81c40ac:	3f04      	subs	r7, #4
 81c40ae:	681a      	ldr	r2, [r3, #0]
 81c40b0:	3b04      	subs	r3, #4
 81c40b2:	601a      	str	r2, [r3, #0]
 81c40b4:	3308      	adds	r3, #8
 81c40b6:	428b      	cmp	r3, r1
 81c40b8:	d1f9      	bne.n	81c40ae <Code_991+0xa>
 81c40ba:	b403      	push	{r0, r1}
 81c40bc:	f7ff fe98 	bl	81c3df0 <branch_v>
 81c40c0:	bc03      	pop	{r0, r1}
 81c40c2:	0033      	movs	r3, r6
 81c40c4:	cf40      	ldmia	r7!, {r6}
 81c40c6:	3904      	subs	r1, #4
 81c40c8:	600b      	str	r3, [r1, #0]
 81c40ca:	6001      	str	r1, [r0, #0]
 81c40cc:	3904      	subs	r1, #4
 81c40ce:	680a      	ldr	r2, [r1, #0]
 81c40d0:	3201      	adds	r2, #1
 81c40d2:	600a      	str	r2, [r1, #0]
 81c40d4:	bd00      	pop	{pc}

081c40d6 <Dictionary_993>:
 81c40d6:	081c40e8 	ldmdaeq	ip, {r3, r5, r6, r7, lr}
 81c40da:	75060020 	strvc	r0, [r6, #-32]	; 0xffffffe0
 81c40de:	6f6f6c6e 	svcvs	0x006f6c6e
 81c40e2:	 	ldclt	0, cr0, [r0], #-448	; 0xfffffe40

081c40e4 <Code_993>:
 81c40e4:	bc30      	pop	{r4, r5}
 81c40e6:	4770      	bx	lr

081c40e8 <Dictionary_994>:
 81c40e8:	081c4120 	ldmdaeq	ip, {r5, r8, lr}
 81c40ec:	2b050030 	blcs	83041b4 <FlashDictionaryEnde+0x1041b4>
 81c40f0:	706f6f6c 	rsbvc	r6, pc, ip, ror #30

081c40f4 <Code_994>:
 81c40f4:	2e03      	cmp	r6, #3
 81c40f6:	d000      	beq.n	81c40fa <Code_994+0x6>
 81c40f8:	e735      	b.n	81c3f66 <strukturen_passen_nicht>
 81c40fa:	cf40      	ldmia	r7!, {r6}
 81c40fc:	b500      	push	{lr}
 81c40fe:	f847 6d04 	str.w	r6, [r7, #-4]!
 81c4102:	4e5f      	ldr	r6, [pc, #380]	; (81c4280 <gemeinsame_schleifenoptimierung+0x86>)
 81c4104:	f7ff f871 	bl	81c31ea <Code_761>
 81c4108:	f7ff fe42 	bl	81c3d90 <r_branch_jvc>
 81c410c:	e01a      	b.n	81c4144 <loop_intern>

081c410e <struktur_plusloop>:
 81c410e:	f114 4400 	adds.w	r4, r4, #2147483648	; 0x80000000
 81c4112:	1b64      	subs	r4, r4, r5
 81c4114:	19a4      	adds	r4, r4, r6
 81c4116:	cf40      	ldmia	r7!, {r6}
 81c4118:	442c      	add	r4, r5
 81c411a:	f1a4 4400 	sub.w	r4, r4, #2147483648	; 0x80000000
 81c411e:	4770      	bx	lr

081c4120 <Dictionary_998>:
 81c4120:	081c4162 	ldmdaeq	ip, {r1, r5, r6, r8, lr}
 81c4124:	6c040030 	stcvs	0, cr0, [r4], {48}	; 0x30
 81c4128:	00706f6f 	rsbseq	r6, r0, pc, ror #30

081c412c <Code_998>:
 81c412c:	2e03      	cmp	r6, #3
 81c412e:	d000      	beq.n	81c4132 <Code_998+0x6>
 81c4130:	e719      	b.n	81c3f66 <strukturen_passen_nicht>
 81c4132:	cf40      	ldmia	r7!, {r6}
 81c4134:	b500      	push	{lr}
 81c4136:	f847 6d04 	str.w	r6, [r7, #-4]!
 81c413a:	4e52      	ldr	r6, [pc, #328]	; (81c4284 <gemeinsame_schleifenoptimierung+0x8a>)
 81c413c:	f7ff f855 	bl	81c31ea <Code_761>
 81c4140:	f7ff fe19 	bl	81c3d76 <r_branch_jne>

081c4144 <loop_intern>:
 81c4144:	f000 f94a 	bl	81c43dc <spruenge_einpflegen>
 81c4148:	484c      	ldr	r0, [pc, #304]	; (81c427c <gemeinsame_schleifenoptimierung+0x82>)
 81c414a:	0031      	movs	r1, r6
 81c414c:	cf40      	ldmia	r7!, {r6}
 81c414e:	6001      	str	r1, [r0, #0]
 81c4150:	f847 6d04 	str.w	r6, [r7, #-4]!
 81c4154:	4e4c      	ldr	r6, [pc, #304]	; (81c4288 <gemeinsame_schleifenoptimierung+0x8e>)
 81c4156:	f7ff f848 	bl	81c31ea <Code_761>
 81c415a:	bd00      	pop	{pc}

081c415c <struktur_loop>:
 81c415c:	3401      	adds	r4, #1
 81c415e:	42ac      	cmp	r4, r5
 81c4160:	4770      	bx	lr

081c4162 <Dictionary_1003>:
 81c4162:	081c41aa 	ldmdaeq	ip, {r1, r3, r5, r7, r8, lr}
 81c4166:	64020230 	strvs	r0, [r2], #-560	; 0xfffffdd0
 81c416a:	 	strlt	r0, [r0, #-111]	; 0xffffff91

081c416c <Code_1003>:
 81c416c:	b500      	push	{lr}
 81c416e:	f847 6d04 	str.w	r6, [r7, #-4]!
 81c4172:	4e46      	ldr	r6, [pc, #280]	; (81c428c <gemeinsame_schleifenoptimierung+0x92>)
 81c4174:	f7ff f839 	bl	81c31ea <Code_761>

081c4178 <do_rest_der_schleifenstruktur>:
 81c4178:	4840      	ldr	r0, [pc, #256]	; (81c427c <gemeinsame_schleifenoptimierung+0x82>)
 81c417a:	6801      	ldr	r1, [r0, #0]
 81c417c:	f847 6d04 	str.w	r6, [r7, #-4]!
 81c4180:	000e      	movs	r6, r1
 81c4182:	f847 6d04 	str.w	r6, [r7, #-4]!
 81c4186:	2600      	movs	r6, #0
 81c4188:	6007      	str	r7, [r0, #0]
 81c418a:	f7ff fdf3 	bl	81c3d74 <branch_r>
 81c418e:	f847 6d04 	str.w	r6, [r7, #-4]!
 81c4192:	2603      	movs	r6, #3
 81c4194:	bd00      	pop	{pc}
 81c4196:	b500      	push	{lr}
 81c4198:	f000 f82f 	bl	81c41fa <gemeinsame_schleifenoptimierung>
 81c419c:	e7ec      	b.n	81c4178 <do_rest_der_schleifenstruktur>

081c419e <struktur_do>:
 81c419e:	b430      	push	{r4, r5}
 81c41a0:	0034      	movs	r4, r6
 81c41a2:	cf40      	ldmia	r7!, {r6}
 81c41a4:	0035      	movs	r5, r6
 81c41a6:	cf40      	ldmia	r7!, {r6}
 81c41a8:	4770      	bx	lr

081c41aa <Dictionary_1013>:
 81c41aa:	081c4290 	ldmdaeq	ip, {r4, r7, r9, lr}
 81c41ae:	3f030230 	svccc	0x00030230
 81c41b2:	 	strlt	r6, [r0, #-3940]	; 0xfffff09c

081c41b4 <Code_1013>:
 81c41b4:	b500      	push	{lr}
 81c41b6:	f847 6d04 	str.w	r6, [r7, #-4]!
 81c41ba:	4e34      	ldr	r6, [pc, #208]	; (81c428c <gemeinsame_schleifenoptimierung+0x92>)
 81c41bc:	f7ff f815 	bl	81c31ea <Code_761>

081c41c0 <qdo_rest_der_schleifenstruktur>:
 81c41c0:	f847 6d04 	str.w	r6, [r7, #-4]!
 81c41c4:	f244 26ac 	movw	r6, #17068	; 0x42ac
 81c41c8:	f7ff fa22 	bl	81c3610 <Code_822>
 81c41cc:	482b      	ldr	r0, [pc, #172]	; (81c427c <gemeinsame_schleifenoptimierung+0x82>)
 81c41ce:	6801      	ldr	r1, [r0, #0]
 81c41d0:	f847 6d04 	str.w	r6, [r7, #-4]!
 81c41d4:	000e      	movs	r6, r1
 81c41d6:	f7ff fe0b 	bl	81c3df0 <branch_v>
 81c41da:	3601      	adds	r6, #1
 81c41dc:	f847 6d04 	str.w	r6, [r7, #-4]!
 81c41e0:	2601      	movs	r6, #1
 81c41e2:	4826      	ldr	r0, [pc, #152]	; (81c427c <gemeinsame_schleifenoptimierung+0x82>)
 81c41e4:	6007      	str	r7, [r0, #0]
 81c41e6:	f7ff fdc5 	bl	81c3d74 <branch_r>
 81c41ea:	f847 6d04 	str.w	r6, [r7, #-4]!
 81c41ee:	2603      	movs	r6, #3
 81c41f0:	bd00      	pop	{pc}
 81c41f2:	b500      	push	{lr}
 81c41f4:	f000 f801 	bl	81c41fa <gemeinsame_schleifenoptimierung>
 81c41f8:	e7e2      	b.n	81c41c0 <qdo_rest_der_schleifenstruktur>

081c41fa <gemeinsame_schleifenoptimierung>:
 81c41fa:	b500      	push	{lr}
 81c41fc:	f7fc f9ff 	bl	81c05fe <push_lr_nachholen>
 81c4200:	f7fc f974 	bl	81c04ec <expect_two_elements>
 81c4204:	f7fc f8a2 	bl	81c034c <tidyup_register_allocator_5os>
 81c4208:	f7fc f8a5 	bl	81c0356 <tidyup_register_allocator_4os>
 81c420c:	f7fc f8a8 	bl	81c0360 <tidyup_register_allocator_3os>
 81c4210:	f847 6d04 	str.w	r6, [r7, #-4]!
 81c4214:	f24b 4630 	movw	r6, #46128	; 0xb430
 81c4218:	f7ff f9fa 	bl	81c3610 <Code_822>
 81c421c:	6801      	ldr	r1, [r0, #0]
 81c421e:	2928      	cmp	r1, #40	; 0x28
 81c4220:	d008      	beq.n	81c4234 <gemeinsame_schleifenoptimierung+0x3a>
 81c4222:	f847 6d04 	str.w	r6, [r7, #-4]!
 81c4226:	f240 0604 	movw	r6, #4
 81c422a:	00c9      	lsls	r1, r1, #3
 81c422c:	430e      	orrs	r6, r1
 81c422e:	f7ff f9ef 	bl	81c3610 <Code_822>
 81c4232:	e007      	b.n	81c4244 <gemeinsame_schleifenoptimierung+0x4a>
 81c4234:	f847 6d04 	str.w	r6, [r7, #-4]!
 81c4238:	6846      	ldr	r6, [r0, #4]
 81c423a:	f847 6d04 	str.w	r6, [r7, #-4]!
 81c423e:	2604      	movs	r6, #4
 81c4240:	f7fe fe8c 	bl	81c2f5c <Code_720>
 81c4244:	6881      	ldr	r1, [r0, #8]
 81c4246:	2928      	cmp	r1, #40	; 0x28
 81c4248:	d008      	beq.n	81c425c <gemeinsame_schleifenoptimierung+0x62>
 81c424a:	f847 6d04 	str.w	r6, [r7, #-4]!
 81c424e:	f240 0605 	movw	r6, #5
 81c4252:	00c9      	lsls	r1, r1, #3
 81c4254:	430e      	orrs	r6, r1
 81c4256:	f7ff f9db 	bl	81c3610 <Code_822>
 81c425a:	e007      	b.n	81c426c <gemeinsame_schleifenoptimierung+0x72>
 81c425c:	f847 6d04 	str.w	r6, [r7, #-4]!
 81c4260:	68c6      	ldr	r6, [r0, #12]
 81c4262:	f847 6d04 	str.w	r6, [r7, #-4]!
 81c4266:	2605      	movs	r6, #5
 81c4268:	f7fe fe78 	bl	81c2f5c <Code_720>
 81c426c:	f7fc f837 	bl	81c02de <eliminiere_tos>
 81c4270:	f7fc f835 	bl	81c02de <eliminiere_tos>
 81c4274:	f7fc f87e 	bl	81c0374 <tidyup_register_allocator_tos>
 81c4278:	bd00      	pop	{pc}
 81c427a:	08040000 	stmdaeq	r4, {}	; <UNPREDICTABLE>
 81c427e:	410e3800 	tstmi	lr, r0, lsl #16
 81c4282:	415c081c 	cmpmi	ip, ip, lsl r8
 81c4286:	40e4081c 	rscmi	r0, r4, ip, lsl r8
 81c428a:	419e081c 	orrsmi	r0, lr, ip, lsl r8
 81c428e:	 	adcsmi	r0, r0, #28, 16	; 0x1c0000

081c4290 <Dictionary_1035>:
 81c4290:	081c42b0 	ldmdaeq	ip, {r4, r5, r7, r9, lr}
 81c4294:	63040030 	movwvs	r0, #16432	; 0x4030
 81c4298:	00657361 	rsbeq	r7, r5, r1, ror #6

081c429c <Code_1035>:
 81c429c:	b500      	push	{lr}
 81c429e:	f7fc f9ae 	bl	81c05fe <push_lr_nachholen>
 81c42a2:	f847 6d04 	str.w	r6, [r7, #-4]!
 81c42a6:	2600      	movs	r6, #0
 81c42a8:	f847 6d04 	str.w	r6, [r7, #-4]!
 81c42ac:	2608      	movs	r6, #8
 81c42ae:	bd00      	pop	{pc}

081c42b0 <Dictionary_1040>:
 81c42b0:	081c42c6 	ldmdaeq	ip, {r1, r2, r6, r7, r9, lr}
 81c42b4:	3f030030 	svccc	0x00030030
 81c42b8:	 	stmdami	fp!, {r0, r1, r2, r3, r5, r6, r9, sl, sp, lr}^

081c42ba <Code_1040>:
 81c42ba:	486b      	ldr	r0, [pc, #428]	; (81c4468 <Code_1071+0x44>)
 81c42bc:	e009      	b.n	81c42d2 <of_inneneinsprung>

081c42be <struktur_qof>:
 81c42be:	3e01      	subs	r6, #1
 81c42c0:	41b6      	sbcs	r6, r6
 81c42c2:	cf40      	ldmia	r7!, {r6}
 81c42c4:	4770      	bx	lr

081c42c6 <Dictionary_1042>:
 81c42c6:	081c4384 	ldmdaeq	ip, {r2, r7, r8, r9, lr}
 81c42ca:	6f020230 	svcvs	0x00020230
 81c42ce:	 	stmdami	r6!, {r1, r2, r5, r6}^

081c42d0 <Code_1042>:
 81c42d0:	4866      	ldr	r0, [pc, #408]	; (81c446c <Code_1071+0x48>)

081c42d2 <of_inneneinsprung>:
 81c42d2:	2e08      	cmp	r6, #8
 81c42d4:	d000      	beq.n	81c42d8 <of_inneneinsprung+0x6>
 81c42d6:	e646      	b.n	81c3f66 <strukturen_passen_nicht>
 81c42d8:	cf40      	ldmia	r7!, {r6}
 81c42da:	b500      	push	{lr}
 81c42dc:	f847 6d04 	str.w	r6, [r7, #-4]!
 81c42e0:	0006      	movs	r6, r0
 81c42e2:	f7fe ff82 	bl	81c31ea <Code_761>

081c42e6 <of_opcodiereinsprung>:
 81c42e6:	f7ff fd83 	bl	81c3df0 <branch_v>
 81c42ea:	6839      	ldr	r1, [r7, #0]
 81c42ec:	603e      	str	r6, [r7, #0]
 81c42ee:	460e      	mov	r6, r1
 81c42f0:	3601      	adds	r6, #1
 81c42f2:	f847 6d04 	str.w	r6, [r7, #-4]!
 81c42f6:	2609      	movs	r6, #9
 81c42f8:	f7ff f980 	bl	81c35fc <drop_hkomma>
 81c42fc:	bd00      	pop	{pc}
 81c42fe:	2e08      	cmp	r6, #8
 81c4300:	d000      	beq.n	81c4304 <of_opcodiereinsprung+0x1e>
 81c4302:	e630      	b.n	81c3f66 <strukturen_passen_nicht>
 81c4304:	cf40      	ldmia	r7!, {r6}
 81c4306:	b500      	push	{lr}
 81c4308:	f7fc f8f0 	bl	81c04ec <expect_two_elements>
 81c430c:	f7fc f81e 	bl	81c034c <tidyup_register_allocator_5os>
 81c4310:	f7fc f821 	bl	81c0356 <tidyup_register_allocator_4os>
 81c4314:	f7fc f824 	bl	81c0360 <tidyup_register_allocator_3os>
 81c4318:	f847 6d04 	str.w	r6, [r7, #-4]!
 81c431c:	f244 2680 	movw	r6, #17024	; 0x4280
 81c4320:	f7fc f920 	bl	81c0564 <expect_nos_in_register>
 81c4324:	430e      	orrs	r6, r1
 81c4326:	6802      	ldr	r2, [r0, #0]
 81c4328:	2a28      	cmp	r2, #40	; 0x28
 81c432a:	d11e      	bne.n	81c436a <of_opcodiereinsprung+0x84>
 81c432c:	6842      	ldr	r2, [r0, #4]
 81c432e:	2aff      	cmp	r2, #255	; 0xff
 81c4330:	d808      	bhi.n	81c4344 <of_opcodiereinsprung+0x5e>
 81c4332:	cf40      	ldmia	r7!, {r6}
 81c4334:	f847 6d04 	str.w	r6, [r7, #-4]!
 81c4338:	f642 0600 	movw	r6, #10240	; 0x2800
 81c433c:	4316      	orrs	r6, r2
 81c433e:	0209      	lsls	r1, r1, #8
 81c4340:	430e      	orrs	r6, r1
 81c4342:	e014      	b.n	81c436e <of_opcodiereinsprung+0x88>
 81c4344:	f847 6d04 	str.w	r6, [r7, #-4]!
 81c4348:	6846      	ldr	r6, [r0, #4]
 81c434a:	f7fe fd53 	bl	81c2df4 <Code_711>
 81c434e:	cf04      	ldmia	r7!, {r2}
 81c4350:	2e00      	cmp	r6, #0
 81c4352:	cf40      	ldmia	r7!, {r6}
 81c4354:	d006      	beq.n	81c4364 <of_opcodiereinsprung+0x7e>
 81c4356:	4e46      	ldr	r6, [pc, #280]	; (81c4470 <Code_1071+0x4c>)
 81c4358:	4316      	orrs	r6, r2
 81c435a:	ea56 4601 	orrs.w	r6, r6, r1, lsl #16
 81c435e:	f7ff f986 	bl	81c366e <Code_831>
 81c4362:	e006      	b.n	81c4372 <of_opcodiereinsprung+0x8c>
 81c4364:	f7fc f8f4 	bl	81c0550 <expect_tos_in_register>
 81c4368:	000a      	movs	r2, r1
 81c436a:	00d2      	lsls	r2, r2, #3
 81c436c:	4316      	orrs	r6, r2
 81c436e:	f7ff f94f 	bl	81c3610 <Code_822>
 81c4372:	f7fb ffb4 	bl	81c02de <eliminiere_tos>
 81c4376:	f7fb fffd 	bl	81c0374 <tidyup_register_allocator_tos>
 81c437a:	e7b4      	b.n	81c42e6 <of_opcodiereinsprung>

081c437c <struktur_of>:
 81c437c:	0030      	movs	r0, r6
 81c437e:	cf40      	ldmia	r7!, {r6}
 81c4380:	42b0      	cmp	r0, r6
 81c4382:	4770      	bx	lr

081c4384 <Dictionary_1058>:
 81c4384:	081c43ba 	ldmdaeq	ip, {r1, r3, r4, r5, r7, r8, r9, lr}
 81c4388:	65050030 	strvs	r0, [r5, #-48]	; 0xffffffd0
 81c438c:	666f646e 	strbtvs	r6, [pc], -lr, ror #8

081c4390 <Code_1058>:
 81c4390:	2e09      	cmp	r6, #9
 81c4392:	d000      	beq.n	81c4396 <Code_1058+0x6>
 81c4394:	e5e7      	b.n	81c3f66 <strukturen_passen_nicht>
 81c4396:	cf40      	ldmia	r7!, {r6}
 81c4398:	b500      	push	{lr}
 81c439a:	b440      	push	{r6}
 81c439c:	cf40      	ldmia	r7!, {r6}
 81c439e:	f7ff fd27 	bl	81c3df0 <branch_v>
 81c43a2:	6839      	ldr	r1, [r7, #0]
 81c43a4:	603e      	str	r6, [r7, #0]
 81c43a6:	460e      	mov	r6, r1
 81c43a8:	f7ff fd3b 	bl	81c3e22 <v_casebranch>
 81c43ac:	f847 6d04 	str.w	r6, [r7, #-4]!
 81c43b0:	bc40      	pop	{r6}
 81c43b2:	f847 6d04 	str.w	r6, [r7, #-4]!
 81c43b6:	2608      	movs	r6, #8
 81c43b8:	bd00      	pop	{pc}

081c43ba <Dictionary_1066>:
 81c43ba:	081c4404 	ldmdaeq	ip, {r2, sl, lr}
 81c43be:	65070030 	strvs	r0, [r7, #-48]	; 0xffffffd0
 81c43c2:	6163646e 	cmnvs	r3, lr, ror #8
 81c43c6:	 	cfrshl64cs	mvdx8, mvdx3, r6

081c43c8 <Code_1066>:
 81c43c8:	2e08      	cmp	r6, #8
 81c43ca:	d000      	beq.n	81c43ce <Code_1066+0x6>
 81c43cc:	e5cb      	b.n	81c3f66 <strukturen_passen_nicht>
 81c43ce:	cf40      	ldmia	r7!, {r6}
 81c43d0:	b500      	push	{lr}
 81c43d2:	f7ff f913 	bl	81c35fc <drop_hkomma>
 81c43d6:	f000 f801 	bl	81c43dc <spruenge_einpflegen>
 81c43da:	bd00      	pop	{pc}

081c43dc <spruenge_einpflegen>:
 81c43dc:	b500      	push	{lr}
 81c43de:	0030      	movs	r0, r6
 81c43e0:	cf40      	ldmia	r7!, {r6}
 81c43e2:	2800      	cmp	r0, #0
 81c43e4:	d00d      	beq.n	81c4402 <spruenge_einpflegen+0x26>
 81c43e6:	b403      	push	{r0, r1}
 81c43e8:	2101      	movs	r1, #1
 81c43ea:	4031      	ands	r1, r6
 81c43ec:	2900      	cmp	r1, #0
 81c43ee:	d003      	beq.n	81c43f8 <spruenge_einpflegen+0x1c>
 81c43f0:	3e01      	subs	r6, #1
 81c43f2:	f7ff fd0c 	bl	81c3e0e <v_nullbranch>
 81c43f6:	e001      	b.n	81c43fc <spruenge_einpflegen+0x20>
 81c43f8:	f7ff fd03 	bl	81c3e02 <v_branch>
 81c43fc:	bc03      	pop	{r0, r1}
 81c43fe:	3801      	subs	r0, #1
 81c4400:	e7ef      	b.n	81c43e2 <spruenge_einpflegen+0x6>
 81c4402:	bd00      	pop	{pc}

081c4404 <Dictionary_1069>:
 81c4404:	081c4418 	ldmdaeq	ip, {r3, r4, sl, lr}
 81c4408:	74050000 	strvc	r0, [r5], #-0
 81c440c:	6e656b6f 	vnmulvs.f64	d22, d5, d31

081c4410 <Code_1069>:
 81c4410:	f847 6d04 	str.w	r6, [r7, #-4]!
 81c4414:	2620      	movs	r6, #32
 81c4416:	e005      	b.n	81c4424 <Code_1071>

081c4418 <Dictionary_1071>:
 81c4418:	081c447c 	ldmdaeq	ip, {r2, r3, r4, r5, r6, sl, lr}
 81c441c:	70050000 	andvc	r0, r5, r0
 81c4420:	65737261 	ldrbvs	r7, [r3, #-609]!	; 0xfffffd9f

081c4424 <Code_1071>:
 81c4424:	b510      	push	{r4, lr}
 81c4426:	4813      	ldr	r0, [pc, #76]	; (81c4474 <Code_1071+0x50>)
 81c4428:	6801      	ldr	r1, [r0, #0]
 81c442a:	6840      	ldr	r0, [r0, #4]
 81c442c:	4a12      	ldr	r2, [pc, #72]	; (81c4478 <Code_1071+0x54>)
 81c442e:	6812      	ldr	r2, [r2, #0]
 81c4430:	1884      	adds	r4, r0, r2
 81c4432:	2e20      	cmp	r6, #32
 81c4434:	d107      	bne.n	81c4446 <Code_1071+0x22>
 81c4436:	4291      	cmp	r1, r2
 81c4438:	d00f      	beq.n	81c445a <Code_1071+0x36>
 81c443a:	5c83      	ldrb	r3, [r0, r2]
 81c443c:	42b3      	cmp	r3, r6
 81c443e:	d102      	bne.n	81c4446 <Code_1071+0x22>
 81c4440:	3201      	adds	r2, #1
 81c4442:	1884      	adds	r4, r0, r2
 81c4444:	e7f7      	b.n	81c4436 <Code_1071+0x12>
 81c4446:	4291      	cmp	r1, r2
 81c4448:	d007      	beq.n	81c445a <Code_1071+0x36>
 81c444a:	5c83      	ldrb	r3, [r0, r2]
 81c444c:	3201      	adds	r2, #1
 81c444e:	42b3      	cmp	r3, r6
 81c4450:	d1f9      	bne.n	81c4446 <Code_1071+0x22>
 81c4452:	1886      	adds	r6, r0, r2
 81c4454:	1b36      	subs	r6, r6, r4
 81c4456:	3e01      	subs	r6, #1
 81c4458:	e001      	b.n	81c445e <Code_1071+0x3a>
 81c445a:	1886      	adds	r6, r0, r2
 81c445c:	1b36      	subs	r6, r6, r4
 81c445e:	3f04      	subs	r7, #4
 81c4460:	603c      	str	r4, [r7, #0]
 81c4462:	4805      	ldr	r0, [pc, #20]	; (81c4478 <Code_1071+0x54>)
 81c4464:	6002      	str	r2, [r0, #0]
 81c4466:	bd10      	pop	{r4, pc}
 81c4468:	081c42be 	ldmdaeq	ip, {r1, r2, r3, r4, r5, r7, r9, lr}
 81c446c:	081c437c 	ldmdaeq	ip, {r2, r3, r4, r5, r6, r8, r9, lr}
 81c4470:	f1b00f00 			; <UNDEFINED> instruction: 0xf1b00f00
 81c4474:	380087dc 	stmdacc	r0, {r2, r3, r4, r6, r7, r8, r9, sl, pc}
 81c4478:	380087e4 	stmdacc	r0, {r2, r5, r6, r7, r8, r9, sl, pc}

081c447c <Dictionary_1072>:
 81c447c:	081c44ba 	ldmdaeq	ip, {r1, r3, r4, r5, r7, sl, lr}
 81c4480:	64050000 	strvs	r0, [r5], #-0
 81c4484:	74696769 	strbtvc	r6, [r9], #-1897	; 0xfffff897

081c4488 <Code_1072>:
 81c4488:	4bcf      	ldr	r3, [pc, #828]	; (81c47c8 <Code_1135+0xa>)
 81c448a:	681b      	ldr	r3, [r3, #0]

081c448c <digit_base_r3>:
 81c448c:	3e30      	subs	r6, #48	; 0x30
 81c448e:	d30b      	bcc.n	81c44a8 <digit_base_r3+0x1c>
 81c4490:	2e0a      	cmp	r6, #10
 81c4492:	d30b      	bcc.n	81c44ac <digit_base_r3+0x20>
 81c4494:	3e07      	subs	r6, #7
 81c4496:	2e0a      	cmp	r6, #10
 81c4498:	d306      	bcc.n	81c44a8 <digit_base_r3+0x1c>
 81c449a:	2e24      	cmp	r6, #36	; 0x24
 81c449c:	d306      	bcc.n	81c44ac <digit_base_r3+0x20>
 81c449e:	3e20      	subs	r6, #32
 81c44a0:	2e0a      	cmp	r6, #10
 81c44a2:	d301      	bcc.n	81c44a8 <digit_base_r3+0x1c>
 81c44a4:	2e24      	cmp	r6, #36	; 0x24
 81c44a6:	d301      	bcc.n	81c44ac <digit_base_r3+0x20>
 81c44a8:	2600      	movs	r6, #0
 81c44aa:	4770      	bx	lr
 81c44ac:	429e      	cmp	r6, r3
 81c44ae:	d2fb      	bcs.n	81c44a8 <digit_base_r3+0x1c>
 81c44b0:	f847 6d04 	str.w	r6, [r7, #-4]!
 81c44b4:	2600      	movs	r6, #0
 81c44b6:	43f6      	mvns	r6, r6
 81c44b8:	4770      	bx	lr

081c44ba <Dictionary_1074>:
 81c44ba:	081c45c4 	ldmdaeq	ip, {r2, r6, r7, r8, sl, lr}
 81c44be:	6e060000 	cdpvs	0, 0, cr0, cr6, cr0, {0}
 81c44c2:	65626d75 	strbvs	r6, [r2, #-3445]!	; 0xfffff28b
 81c44c6:	 	ldrlt	r0, [pc, #-114]!	; 81c445c <Code_1071+0x38>

081c44c8 <Code_1074>:
 81c44c8:	b53f      	push	{r0, r1, r2, r3, r4, r5, lr}
 81c44ca:	0031      	movs	r1, r6
 81c44cc:	cf40      	ldmia	r7!, {r6}
 81c44ce:	1e70      	subs	r0, r6, #1
 81c44d0:	2601      	movs	r6, #1
 81c44d2:	2201      	movs	r2, #1
 81c44d4:	b404      	push	{r2}
 81c44d6:	4bbc      	ldr	r3, [pc, #752]	; (81c47c8 <Code_1135+0xa>)
 81c44d8:	681b      	ldr	r3, [r3, #0]
 81c44da:	2400      	movs	r4, #0
 81c44dc:	2500      	movs	r5, #0
 81c44de:	2900      	cmp	r1, #0
 81c44e0:	d03c      	beq.n	81c455c <Code_1074+0x94>
 81c44e2:	3001      	adds	r0, #1
 81c44e4:	3901      	subs	r1, #1
 81c44e6:	7802      	ldrb	r2, [r0, #0]
 81c44e8:	2a2d      	cmp	r2, #45	; 0x2d
 81c44ea:	d104      	bne.n	81c44f6 <Code_1074+0x2e>
 81c44ec:	b001      	add	sp, #4
 81c44ee:	2200      	movs	r2, #0
 81c44f0:	43d2      	mvns	r2, r2
 81c44f2:	b404      	push	{r2}
 81c44f4:	e7f3      	b.n	81c44de <Code_1074+0x16>
 81c44f6:	2a23      	cmp	r2, #35	; 0x23
 81c44f8:	d101      	bne.n	81c44fe <Code_1074+0x36>
 81c44fa:	230a      	movs	r3, #10
 81c44fc:	e7ef      	b.n	81c44de <Code_1074+0x16>
 81c44fe:	2a24      	cmp	r2, #36	; 0x24
 81c4500:	d101      	bne.n	81c4506 <Code_1074+0x3e>
 81c4502:	2310      	movs	r3, #16
 81c4504:	e7eb      	b.n	81c44de <Code_1074+0x16>
 81c4506:	2a25      	cmp	r2, #37	; 0x25
 81c4508:	d101      	bne.n	81c450e <Code_1074+0x46>
 81c450a:	2302      	movs	r3, #2
 81c450c:	e7e7      	b.n	81c44de <Code_1074+0x16>
 81c450e:	2a2e      	cmp	r2, #46	; 0x2e
 81c4510:	d101      	bne.n	81c4516 <Code_1074+0x4e>
 81c4512:	2602      	movs	r6, #2
 81c4514:	e7e3      	b.n	81c44de <Code_1074+0x16>
 81c4516:	2a2c      	cmp	r2, #44	; 0x2c
 81c4518:	d036      	beq.n	81c4588 <number_nachkommastellen>
 81c451a:	f847 6d04 	str.w	r6, [r7, #-4]!
 81c451e:	0016      	movs	r6, r2
 81c4520:	f7ff ffb4 	bl	81c448c <digit_base_r3>
 81c4524:	2e00      	cmp	r6, #0
 81c4526:	cf40      	ldmia	r7!, {r6}
 81c4528:	d02b      	beq.n	81c4582 <Code_1074+0xba>
 81c452a:	f847 6d04 	str.w	r6, [r7, #-4]!
 81c452e:	0026      	movs	r6, r4
 81c4530:	f847 6d04 	str.w	r6, [r7, #-4]!
 81c4534:	002e      	movs	r6, r5
 81c4536:	f847 6d04 	str.w	r6, [r7, #-4]!
 81c453a:	001e      	movs	r6, r3
 81c453c:	f847 6d04 	str.w	r6, [r7, #-4]!
 81c4540:	2600      	movs	r6, #0
 81c4542:	b40f      	push	{r0, r1, r2, r3}
 81c4544:	f7fc fa63 	bl	81c0a0e <Code_116>
 81c4548:	bc0f      	pop	{r0, r1, r2, r3}
 81c454a:	0035      	movs	r5, r6
 81c454c:	cf40      	ldmia	r7!, {r6}
 81c454e:	0034      	movs	r4, r6
 81c4550:	cf40      	ldmia	r7!, {r6}
 81c4552:	2200      	movs	r2, #0
 81c4554:	19a4      	adds	r4, r4, r6
 81c4556:	4155      	adcs	r5, r2
 81c4558:	cf40      	ldmia	r7!, {r6}
 81c455a:	e7c0      	b.n	81c44de <Code_1074+0x16>
 81c455c:	bc04      	pop	{r2}
 81c455e:	2a00      	cmp	r2, #0
 81c4560:	d504      	bpl.n	81c456c <Code_1074+0xa4>
 81c4562:	2200      	movs	r2, #0
 81c4564:	43e4      	mvns	r4, r4
 81c4566:	43ed      	mvns	r5, r5
 81c4568:	3401      	adds	r4, #1
 81c456a:	4155      	adcs	r5, r2
 81c456c:	0033      	movs	r3, r6
 81c456e:	0026      	movs	r6, r4
 81c4570:	2b01      	cmp	r3, #1
 81c4572:	d002      	beq.n	81c457a <Code_1074+0xb2>
 81c4574:	f847 6d04 	str.w	r6, [r7, #-4]!
 81c4578:	002e      	movs	r6, r5
 81c457a:	f847 6d04 	str.w	r6, [r7, #-4]!
 81c457e:	001e      	movs	r6, r3
 81c4580:	bd3f      	pop	{r0, r1, r2, r3, r4, r5, pc}
 81c4582:	b001      	add	sp, #4
 81c4584:	2600      	movs	r6, #0
 81c4586:	bd3f      	pop	{r0, r1, r2, r3, r4, r5, pc}

081c4588 <number_nachkommastellen>:
 81c4588:	0025      	movs	r5, r4
 81c458a:	2400      	movs	r4, #0
 81c458c:	2602      	movs	r6, #2
 81c458e:	2900      	cmp	r1, #0
 81c4590:	d0e4      	beq.n	81c455c <Code_1074+0x94>
 81c4592:	5c42      	ldrb	r2, [r0, r1]
 81c4594:	3901      	subs	r1, #1
 81c4596:	2a2e      	cmp	r2, #46	; 0x2e
 81c4598:	d0f9      	beq.n	81c458e <number_nachkommastellen+0x6>
 81c459a:	f847 6d04 	str.w	r6, [r7, #-4]!
 81c459e:	0016      	movs	r6, r2
 81c45a0:	f7ff ff74 	bl	81c448c <digit_base_r3>
 81c45a4:	2e00      	cmp	r6, #0
 81c45a6:	cf40      	ldmia	r7!, {r6}
 81c45a8:	d0eb      	beq.n	81c4582 <Code_1074+0xba>
 81c45aa:	3f04      	subs	r7, #4
 81c45ac:	603c      	str	r4, [r7, #0]
 81c45ae:	f847 6d04 	str.w	r6, [r7, #-4]!
 81c45b2:	001e      	movs	r6, r3
 81c45b4:	b40f      	push	{r0, r1, r2, r3}
 81c45b6:	f7fc fad9 	bl	81c0b6c <Code_152>
 81c45ba:	bc0f      	pop	{r0, r1, r2, r3}
 81c45bc:	0034      	movs	r4, r6
 81c45be:	cf40      	ldmia	r7!, {r6}
 81c45c0:	cf40      	ldmia	r7!, {r6}
 81c45c2:	e7e4      	b.n	81c458e <number_nachkommastellen+0x6>

081c45c4 <Dictionary_1101>:
 81c45c4:	081c45e6 	ldmdaeq	ip, {r1, r2, r5, r6, r7, r8, sl, lr}
 81c45c8:	2e060000 	cdpcs	0, 0, cr0, cr6, cr0, {0}
 81c45cc:	69676964 	stmdbvs	r7!, {r2, r5, r6, r8, fp, sp, lr}^
 81c45d0:	 	mcrcs	0, 0, r0, cr10, cr4, {3}

081c45d2 <Code_1101>:
 81c45d2:	2e0a      	cmp	r6, #10
 81c45d4:	d201      	bcs.n	81c45da <Code_1101+0x8>
 81c45d6:	3630      	adds	r6, #48	; 0x30
 81c45d8:	4770      	bx	lr
 81c45da:	2e24      	cmp	r6, #36	; 0x24
 81c45dc:	d201      	bcs.n	81c45e2 <Code_1101+0x10>
 81c45de:	3637      	adds	r6, #55	; 0x37
 81c45e0:	4770      	bx	lr
 81c45e2:	2623      	movs	r6, #35	; 0x23
 81c45e4:	4770      	bx	lr

081c45e6 <Dictionary_1102>:
 81c45e6:	081c461c 	ldmdaeq	ip, {r2, r3, r4, r9, sl, lr}
 81c45ea:	68040000 	stmdavs	r4, {}	; <UNPREDICTABLE>
 81c45ee:	00646c6f 	rsbeq	r6, r4, pc, ror #24

081c45f2 <Code_1102>:
 81c45f2:	0033      	movs	r3, r6
 81c45f4:	cf40      	ldmia	r7!, {r6}
 81c45f6:	4875      	ldr	r0, [pc, #468]	; (81c47cc <Code_1135+0xe>)
 81c45f8:	7801      	ldrb	r1, [r0, #0]
 81c45fa:	2943      	cmp	r1, #67	; 0x43
 81c45fc:	d20d      	bcs.n	81c461a <Code_1102+0x28>
 81c45fe:	3101      	adds	r1, #1
 81c4600:	7001      	strb	r1, [r0, #0]
 81c4602:	1840      	adds	r0, r0, r1
 81c4604:	2901      	cmp	r1, #1
 81c4606:	d007      	beq.n	81c4618 <Code_1102+0x26>
 81c4608:	3801      	subs	r0, #1
 81c460a:	7802      	ldrb	r2, [r0, #0]
 81c460c:	3001      	adds	r0, #1
 81c460e:	7002      	strb	r2, [r0, #0]
 81c4610:	3801      	subs	r0, #1
 81c4612:	3901      	subs	r1, #1
 81c4614:	2901      	cmp	r1, #1
 81c4616:	d1f7      	bne.n	81c4608 <Code_1102+0x16>
 81c4618:	7003      	strb	r3, [r0, #0]
 81c461a:	4770      	bx	lr

081c461c <Dictionary_1104>:
 81c461c:	081c463c 	ldmdaeq	ip, {r2, r3, r4, r5, r9, sl, lr}
 81c4620:	68050000 	stmdavs	r5, {}	; <UNPREDICTABLE>
 81c4624:	3c646c6f 	stclcc	12, cr6, [r4], #-444	; 0xfffffe44

081c4628 <Code_1104>:
 81c4628:	0033      	movs	r3, r6
 81c462a:	cf40      	ldmia	r7!, {r6}
 81c462c:	4867      	ldr	r0, [pc, #412]	; (81c47cc <Code_1135+0xe>)
 81c462e:	7801      	ldrb	r1, [r0, #0]
 81c4630:	2943      	cmp	r1, #67	; 0x43
 81c4632:	d202      	bcs.n	81c463a <Code_1104+0x12>
 81c4634:	3101      	adds	r1, #1
 81c4636:	7001      	strb	r1, [r0, #0]
 81c4638:	5443      	strb	r3, [r0, r1]
 81c463a:	4770      	bx	lr

081c463c <Dictionary_1106>:
 81c463c:	081c4654 	ldmdaeq	ip, {r2, r4, r6, r9, sl, lr}
 81c4640:	73040000 	movwvc	r0, #16384	; 0x4000
 81c4644:	006e6769 	rsbeq	r6, lr, r9, ror #14

081c4648 <Code_1106>:
 81c4648:	2e00      	cmp	r6, #0
 81c464a:	d401      	bmi.n	81c4650 <Code_1106+0x8>
 81c464c:	cf40      	ldmia	r7!, {r6}
 81c464e:	4770      	bx	lr
 81c4650:	262d      	movs	r6, #45	; 0x2d
 81c4652:	e7ce      	b.n	81c45f2 <Code_1102>

081c4654 <Dictionary_1108>:
 81c4654:	081c4668 	ldmdaeq	ip, {r3, r5, r6, r9, sl, lr}
 81c4658:	23020000 	movwcs	r0, #8192	; 0x2000
 81c465c:	 	ldmdami	fp, {r1, r2, r3, r4, r5}^

081c465e <Code_1108>:
 81c465e:	485b      	ldr	r0, [pc, #364]	; (81c47cc <Code_1135+0xe>)
 81c4660:	7806      	ldrb	r6, [r0, #0]
 81c4662:	3001      	adds	r0, #1
 81c4664:	6038      	str	r0, [r7, #0]
 81c4666:	4770      	bx	lr

081c4668 <Dictionary_1109>:
 81c4668:	081c4680 	ldmdaeq	ip, {r7, r9, sl, lr}
 81c466c:	66030000 	strvs	r0, [r3], -r0
 81c4670:	 	ldrlt	r5, [r0, #-803]	; 0xfffffcdd

081c4672 <Code_1109>:
 81c4672:	b510      	push	{r4, lr}
 81c4674:	2420      	movs	r4, #32
 81c4676:	f000 f808 	bl	81c468a <Code_1110>
 81c467a:	3c01      	subs	r4, #1
 81c467c:	d1fb      	bne.n	81c4676 <Code_1109+0x4>
 81c467e:	bd10      	pop	{r4, pc}

081c4680 <Dictionary_1110>:
 81c4680:	081c46a2 	ldmdaeq	ip, {r1, r5, r7, r9, sl, lr}
 81c4684:	66020000 	strvs	r0, [r2], -r0
 81c4688:	 	strlt	r0, [r0, #-35]	; 0xffffffdd

081c468a <Code_1110>:
 81c468a:	b500      	push	{lr}
 81c468c:	f847 6d04 	str.w	r6, [r7, #-4]!
 81c4690:	4e4d      	ldr	r6, [pc, #308]	; (81c47c8 <Code_1135+0xa>)
 81c4692:	6836      	ldr	r6, [r6, #0]
 81c4694:	f7fc f97d 	bl	81c0992 <Code_112>
 81c4698:	f7ff ff9b 	bl	81c45d2 <Code_1101>
 81c469c:	f7ff ffc4 	bl	81c4628 <Code_1104>
 81c46a0:	bd00      	pop	{pc}

081c46a2 <Dictionary_1112>:
 81c46a2:	081c46be 	ldmdaeq	ip, {r1, r2, r3, r4, r5, r7, r9, sl, lr}
 81c46a6:	23020000 	movwcs	r0, #8192	; 0x2000
 81c46aa:	 	strlt	r0, [r0, #-83]	; 0xffffffad

081c46ac <Code_1112>:
 81c46ac:	b500      	push	{lr}
 81c46ae:	f000 f80a 	bl	81c46c6 <Code_1113>
 81c46b2:	2e00      	cmp	r6, #0
 81c46b4:	d1fb      	bne.n	81c46ae <Code_1112+0x2>
 81c46b6:	6838      	ldr	r0, [r7, #0]
 81c46b8:	2800      	cmp	r0, #0
 81c46ba:	d1f8      	bne.n	81c46ae <Code_1112+0x2>
 81c46bc:	bd00      	pop	{pc}

081c46be <Dictionary_1113>:
 81c46be:	081c46ea 	ldmdaeq	ip, {r1, r3, r5, r6, r7, r9, sl, lr}
 81c46c2:	23010000 	movwcs	r0, #4096	; 0x1000

081c46c6 <Code_1113>:
 81c46c6:	b500      	push	{lr}
 81c46c8:	f847 6d04 	str.w	r6, [r7, #-4]!
 81c46cc:	4e3e      	ldr	r6, [pc, #248]	; (81c47c8 <Code_1135+0xa>)
 81c46ce:	6836      	ldr	r6, [r6, #0]
 81c46d0:	f847 6d04 	str.w	r6, [r7, #-4]!
 81c46d4:	2600      	movs	r6, #0
 81c46d6:	f7fc fa68 	bl	81c0baa <Code_161>
 81c46da:	f7fb ffc8 	bl	81c066e <Code_72>
 81c46de:	cf40      	ldmia	r7!, {r6}
 81c46e0:	f7ff ff77 	bl	81c45d2 <Code_1101>
 81c46e4:	f7ff ff85 	bl	81c45f2 <Code_1102>
 81c46e8:	bd00      	pop	{pc}

081c46ea <Dictionary_1118>:
 81c46ea:	081c46fc 	ldmdaeq	ip, {r2, r3, r4, r5, r6, r7, r9, sl, lr}
 81c46ee:	3c020000 	stccc	0, cr0, [r2], {-0}
 81c46f2:	 	ldmdami	r5!, {r0, r1, r5}

081c46f4 <Code_1118>:
 81c46f4:	4835      	ldr	r0, [pc, #212]	; (81c47cc <Code_1135+0xe>)
 81c46f6:	2100      	movs	r1, #0
 81c46f8:	7001      	strb	r1, [r0, #0]
 81c46fa:	4770      	bx	lr

081c46fc <Dictionary_1119>:
 81c46fc:	081c470e 	ldmdaeq	ip, {r1, r2, r3, r8, r9, sl, lr}
 81c4700:	66020000 	strvs	r0, [r2], -r0
 81c4704:	 			; <UNDEFINED> instruction: 0xf847002e

081c4706 <Code_1119>:
 81c4706:	f847 6d04 	str.w	r6, [r7, #-4]!
 81c470a:	2620      	movs	r6, #32
 81c470c:	e004      	b.n	81c4718 <Code_1122>

081c470e <Dictionary_1122>:
 81c470e:	081c475c 	ldmdaeq	ip, {r2, r3, r4, r6, r8, r9, sl, lr}
 81c4712:	66030000 	strvs	r0, [r3], -r0
 81c4716:	 	strlt	r6, [r0, #-3630]	; 0xfffff1d2

081c4718 <Code_1122>:
 81c4718:	b500      	push	{lr}
 81c471a:	b410      	push	{r4}
 81c471c:	0034      	movs	r4, r6
 81c471e:	cf40      	ldmia	r7!, {r6}
 81c4720:	f7fc fc60 	bl	81c0fe4 <Code_208>
 81c4724:	f7fc f8ba 	bl	81c089c <Code_100>
 81c4728:	f847 6d04 	str.w	r6, [r7, #-4]!
 81c472c:	2600      	movs	r6, #0
 81c472e:	f7ff ffe1 	bl	81c46f4 <Code_1118>
 81c4732:	f7ff ffbb 	bl	81c46ac <Code_1112>
 81c4736:	cf40      	ldmia	r7!, {r6}
 81c4738:	262c      	movs	r6, #44	; 0x2c
 81c473a:	f7ff ff75 	bl	81c4628 <Code_1104>
 81c473e:	2c00      	cmp	r4, #0
 81c4740:	d003      	beq.n	81c474a <Code_1122+0x32>
 81c4742:	f7ff ffa2 	bl	81c468a <Code_1110>
 81c4746:	3c01      	subs	r4, #1
 81c4748:	d1fb      	bne.n	81c4742 <Code_1122+0x2a>
 81c474a:	bc10      	pop	{r4}
 81c474c:	cf40      	ldmia	r7!, {r6}
 81c474e:	f7ff ff7b 	bl	81c4648 <Code_1106>
 81c4752:	f847 6d04 	str.w	r6, [r7, #-4]!
 81c4756:	f847 6d04 	str.w	r6, [r7, #-4]!
 81c475a:	e01c      	b.n	81c4796 <abschluss_zahlenausgabe>

081c475c <Dictionary_1130>:
 81c475c:	081c4772 	ldmdaeq	ip, {r1, r4, r5, r6, r8, r9, sl, lr}
 81c4760:	75030000 	strvc	r0, [r3, #-0]
 81c4764:	 	strlt	r2, [r0, #-3684]	; 0xfffff19c

081c4766 <Code_1130>:
 81c4766:	b500      	push	{lr}
 81c4768:	f7ff ffc4 	bl	81c46f4 <Code_1118>
 81c476c:	f7ff ff9e 	bl	81c46ac <Code_1112>
 81c4770:	e011      	b.n	81c4796 <abschluss_zahlenausgabe>

081c4772 <Dictionary_1131>:
 81c4772:	081c47a4 	ldmdaeq	ip, {r2, r5, r7, r8, r9, sl, lr}
 81c4776:	64020000 	strvs	r0, [r2], #-0
 81c477a:	 	strlt	r0, [r0, #-46]	; 0xffffffd2

081c477c <Code_1131>:
 81c477c:	b500      	push	{lr}
 81c477e:	f7fc fc31 	bl	81c0fe4 <Code_208>
 81c4782:	f7fc f88b 	bl	81c089c <Code_100>
 81c4786:	f7ff ffb5 	bl	81c46f4 <Code_1118>
 81c478a:	f7ff ff8f 	bl	81c46ac <Code_1112>
 81c478e:	f7fc fc3b 	bl	81c1008 <Code_209>
 81c4792:	f7ff ff59 	bl	81c4648 <Code_1106>

081c4796 <abschluss_zahlenausgabe>:
 81c4796:	f7ff ff62 	bl	81c465e <Code_1108>
 81c479a:	f7fe fa1b 	bl	81c2bd4 <Code_671>
 81c479e:	f7fe f974 	bl	81c2a8a <Code_639>
 81c47a2:	bd00      	pop	{pc}

081c47a4 <Dictionary_1132>:
 81c47a4:	081c47b6 	ldmdaeq	ip, {r1, r2, r4, r5, r7, r8, r9, sl, lr}
 81c47a8:	75020000 	strvc	r0, [r2, #-0]
 81c47ac:	 			; <UNDEFINED> instruction: 0xf847002e

081c47ae <Code_1132>:
 81c47ae:	f847 6d04 	str.w	r6, [r7, #-4]!
 81c47b2:	2600      	movs	r6, #0
 81c47b4:	e7d7      	b.n	81c4766 <Code_1130>

081c47b6 <Dictionary_1135>:
 81c47b6:	081c498c 	ldmdaeq	ip, {r2, r3, r7, r8, fp, lr}
 81c47ba:	2e010000 	cdpcs	0, 0, cr0, cr1, cr0, {0}

081c47be <Code_1135>:
 81c47be:	f847 6d04 	str.w	r6, [r7, #-4]!
 81c47c2:	17f6      	asrs	r6, r6, #31
 81c47c4:	e7da      	b.n	81c477c <Code_1131>
 81c47c6:	87fc0000 	ldrbhi	r0, [ip, r0]!
 81c47ca:	087c3800 	ldmdaeq	ip!, {fp, ip, sp}^
 81c47ce:	 	ldrlt	r3, [r0, #-2048]!	; 0xfffff800

081c47d0 <konstantenfaltungszeiger_setzen>:
 81c47d0:	b530      	push	{r4, r5, lr}
 81c47d2:	4cdc      	ldr	r4, [pc, #880]	; (81c4b44 <quit_innenschleife+0x14>)
 81c47d4:	6825      	ldr	r5, [r4, #0]
 81c47d6:	2d00      	cmp	r5, #0
 81c47d8:	d101      	bne.n	81c47de <konstantenfaltungszeiger_setzen+0xe>
 81c47da:	003d      	movs	r5, r7
 81c47dc:	6025      	str	r5, [r4, #0]
 81c47de:	bd30      	pop	{r4, r5, pc}

081c47e0 <konstantenfaltungszeiger_neusetzen>:
 81c47e0:	b530      	push	{r4, r5, lr}
 81c47e2:	4cd8      	ldr	r4, [pc, #864]	; (81c4b44 <quit_innenschleife+0x14>)
 81c47e4:	003d      	movs	r5, r7
 81c47e6:	6025      	str	r5, [r4, #0]
 81c47e8:	bd30      	pop	{r4, r5, pc}

081c47ea <konstantenfaltungszeiger_loeschen>:
 81c47ea:	b530      	push	{r4, r5, lr}
 81c47ec:	4cd5      	ldr	r4, [pc, #852]	; (81c4b44 <quit_innenschleife+0x14>)
 81c47ee:	2500      	movs	r5, #0
 81c47f0:	6025      	str	r5, [r4, #0]
 81c47f2:	bd30      	pop	{r4, r5, pc}

081c47f4 <wievielefaltkonstanten>:
 81c47f4:	4bd3      	ldr	r3, [pc, #844]	; (81c4b44 <quit_innenschleife+0x14>)
 81c47f6:	681b      	ldr	r3, [r3, #0]
 81c47f8:	1bdb      	subs	r3, r3, r7
 81c47fa:	089b      	lsrs	r3, r3, #2
 81c47fc:	4770      	bx	lr

081c47fe <kompilator>:
 81c47fe:	b500      	push	{lr}
 81c4800:	0031      	movs	r1, r6
 81c4802:	cf40      	ldmia	r7!, {r6}
 81c4804:	f44f 5080 	mov.w	r0, #4096	; 0x1000
 81c4808:	4008      	ands	r0, r1
 81c480a:	d002      	beq.n	81c4812 <kompilator+0x14>
 81c480c:	f000 f8a6 	bl	81c495c <inline_cache_parser>
 81c4810:	bd00      	pop	{pc}
 81c4812:	f44f 6080 	mov.w	r0, #1024	; 0x400
 81c4816:	4008      	ands	r0, r1
 81c4818:	d101      	bne.n	81c481e <kompilator+0x20>
 81c481a:	f7fc ff7d 	bl	81c1718 <sprungschreiber_flaggenerator>
 81c481e:	0032      	movs	r2, r6
 81c4820:	cf40      	ldmia	r7!, {r6}
 81c4822:	f7ff ffd5 	bl	81c47d0 <konstantenfaltungszeiger_setzen>
 81c4826:	f44f 5000 	mov.w	r0, #8192	; 0x2000
 81c482a:	4008      	ands	r0, r1
 81c482c:	d003      	beq.n	81c4836 <kompilator+0x38>
 81c482e:	f847 6d04 	str.w	r6, [r7, #-4]!
 81c4832:	0016      	movs	r6, r2
 81c4834:	bd00      	pop	{pc}
 81c4836:	f7ff ffdd 	bl	81c47f4 <wievielefaltkonstanten>
 81c483a:	2080      	movs	r0, #128	; 0x80
 81c483c:	4008      	ands	r0, r1
 81c483e:	d106      	bne.n	81c484e <.interpret_faltoptimierung>
 81c4840:	2040      	movs	r0, #64	; 0x40
 81c4842:	4008      	ands	r0, r1
 81c4844:	d009      	beq.n	81c485a <.interpret_allocator>

081c4846 <.interpret_genugkonstanten>:
 81c4846:	200f      	movs	r0, #15
 81c4848:	4008      	ands	r0, r1
 81c484a:	4283      	cmp	r3, r0
 81c484c:	d305      	bcc.n	81c485a <.interpret_allocator>

081c484e <.interpret_faltoptimierung>:
 81c484e:	f847 6d04 	str.w	r6, [r7, #-4]!
 81c4852:	0016      	movs	r6, r2
 81c4854:	f7fe fd7c 	bl	81c3350 <Code_785>
 81c4858:	bd00      	pop	{pc}

081c485a <.interpret_allocator>:
 81c485a:	f44f 7000 	mov.w	r0, #512	; 0x200
 81c485e:	4008      	ands	r0, r1
 81c4860:	d014      	beq.n	81c488c <.interpret_allocator_finished>
 81c4862:	f7fb fcd4 	bl	81c020e <Code_31>
 81c4866:	f847 6d04 	str.w	r6, [r7, #-4]!
 81c486a:	0016      	movs	r6, r2
 81c486c:	f847 6d04 	str.w	r6, [r7, #-4]!
 81c4870:	000e      	movs	r6, r1
 81c4872:	f000 f831 	bl	81c48d8 <add_to_inline_cache>
 81c4876:	0010      	movs	r0, r2
 81c4878:	f7fe fcce 	bl	81c3218 <suchedefinitionsende>
 81c487c:	1c42      	adds	r2, r0, #1
 81c487e:	48b2      	ldr	r0, [pc, #712]	; (81c4b48 <quit_innenschleife+0x18>)
 81c4880:	4790      	blx	r2
 81c4882:	f7ff ffad 	bl	81c47e0 <konstantenfaltungszeiger_neusetzen>
 81c4886:	f7fb fcd1 	bl	81c022c <nfaltkonstanten_aufschwimmen>
 81c488a:	bd00      	pop	{pc}

081c488c <.interpret_allocator_finished>:
 81c488c:	f7fb fcbf 	bl	81c020e <Code_31>
 81c4890:	f847 6d04 	str.w	r6, [r7, #-4]!
 81c4894:	0016      	movs	r6, r2
 81c4896:	f847 6d04 	str.w	r6, [r7, #-4]!
 81c489a:	000e      	movs	r6, r1
 81c489c:	f000 f81c 	bl	81c48d8 <add_to_inline_cache>
 81c48a0:	f7fb fd48 	bl	81c0334 <tidyup_register_allocator>
 81c48a4:	f7ff ffa1 	bl	81c47ea <konstantenfaltungszeiger_loeschen>
 81c48a8:	f44f 6000 	mov.w	r0, #2048	; 0x800
 81c48ac:	4008      	ands	r0, r1
 81c48ae:	d101      	bne.n	81c48b4 <.prepared_for_classic>
 81c48b0:	f7fb fea5 	bl	81c05fe <push_lr_nachholen>

081c48b4 <.prepared_for_classic>:
 81c48b4:	f847 6d04 	str.w	r6, [r7, #-4]!
 81c48b8:	0016      	movs	r6, r2
 81c48ba:	2210      	movs	r2, #16
 81c48bc:	400a      	ands	r2, r1
 81c48be:	d002      	beq.n	81c48c6 <.prepared_for_classic+0x12>
 81c48c0:	f7fe fd46 	bl	81c3350 <Code_785>
 81c48c4:	bd00      	pop	{pc}
 81c48c6:	2220      	movs	r2, #32
 81c48c8:	400a      	ands	r2, r1
 81c48ca:	d002      	beq.n	81c48d2 <.prepared_for_classic+0x1e>
 81c48cc:	f7fe fc8d 	bl	81c31ea <Code_761>
 81c48d0:	bd00      	pop	{pc}
 81c48d2:	f7fe fba0 	bl	81c3016 <Code_732>
 81c48d6:	bd00      	pop	{pc}

081c48d8 <add_to_inline_cache>:
 81c48d8:	b50f      	push	{r0, r1, r2, r3, lr}
 81c48da:	0032      	movs	r2, r6
 81c48dc:	cf40      	ldmia	r7!, {r6}
 81c48de:	0033      	movs	r3, r6
 81c48e0:	cf40      	ldmia	r7!, {r6}
 81c48e2:	489a      	ldr	r0, [pc, #616]	; (81c4b4c <quit_innenschleife+0x1c>)
 81c48e4:	6801      	ldr	r1, [r0, #0]
 81c48e6:	2906      	cmp	r1, #6
 81c48e8:	d207      	bcs.n	81c48fa <add_to_inline_cache+0x22>
 81c48ea:	2006      	movs	r0, #6
 81c48ec:	4341      	muls	r1, r0
 81c48ee:	4898      	ldr	r0, [pc, #608]	; (81c4b50 <quit_innenschleife+0x20>)
 81c48f0:	1840      	adds	r0, r0, r1
 81c48f2:	8003      	strh	r3, [r0, #0]
 81c48f4:	0c1b      	lsrs	r3, r3, #16
 81c48f6:	8043      	strh	r3, [r0, #2]
 81c48f8:	8082      	strh	r2, [r0, #4]
 81c48fa:	4894      	ldr	r0, [pc, #592]	; (81c4b4c <quit_innenschleife+0x1c>)
 81c48fc:	6801      	ldr	r1, [r0, #0]
 81c48fe:	3101      	adds	r1, #1
 81c4900:	6001      	str	r1, [r0, #0]
 81c4902:	bd0f      	pop	{r0, r1, r2, r3, pc}

081c4904 <inline_cache_schreiben>:
 81c4904:	b50f      	push	{r0, r1, r2, r3, lr}
 81c4906:	4891      	ldr	r0, [pc, #580]	; (81c4b4c <quit_innenschleife+0x1c>)
 81c4908:	6801      	ldr	r1, [r0, #0]
 81c490a:	2906      	cmp	r1, #6
 81c490c:	d81f      	bhi.n	81c494e <inline_cache_schreiben+0x4a>
 81c490e:	4890      	ldr	r0, [pc, #576]	; (81c4b50 <quit_innenschleife+0x20>)
 81c4910:	3901      	subs	r1, #1
 81c4912:	d01d      	beq.n	81c4950 <inline_cache_schreiben+0x4c>
 81c4914:	f847 6d04 	str.w	r6, [r7, #-4]!
 81c4918:	000e      	movs	r6, r1
 81c491a:	f7fe fe79 	bl	81c3610 <Code_822>
 81c491e:	f847 6d04 	str.w	r6, [r7, #-4]!
 81c4922:	8806      	ldrh	r6, [r0, #0]
 81c4924:	f7fe fe74 	bl	81c3610 <Code_822>
 81c4928:	f847 6d04 	str.w	r6, [r7, #-4]!
 81c492c:	8846      	ldrh	r6, [r0, #2]
 81c492e:	f7fe fe6f 	bl	81c3610 <Code_822>
 81c4932:	f847 6d04 	str.w	r6, [r7, #-4]!
 81c4936:	8886      	ldrh	r6, [r0, #4]
 81c4938:	f7fe fe6a 	bl	81c3610 <Code_822>
 81c493c:	3006      	adds	r0, #6
 81c493e:	3901      	subs	r1, #1
 81c4940:	d1ed      	bne.n	81c491e <inline_cache_schreiben+0x1a>
 81c4942:	f847 6d04 	str.w	r6, [r7, #-4]!
 81c4946:	f241 0600 	movw	r6, #4096	; 0x1000
 81c494a:	f7fe fe04 	bl	81c3556 <Code_810>
 81c494e:	bd0f      	pop	{r0, r1, r2, r3, pc}
 81c4950:	f847 6d04 	str.w	r6, [r7, #-4]!
 81c4954:	2640      	movs	r6, #64	; 0x40
 81c4956:	f7fe fdfe 	bl	81c3556 <Code_810>
 81c495a:	bd0f      	pop	{r0, r1, r2, r3, pc}

081c495c <inline_cache_parser>:
 81c495c:	b500      	push	{lr}
 81c495e:	0030      	movs	r0, r6
 81c4960:	cf40      	ldmia	r7!, {r6}
 81c4962:	f7fe fc59 	bl	81c3218 <suchedefinitionsende>
 81c4966:	8801      	ldrh	r1, [r0, #0]
 81c4968:	3002      	adds	r0, #2
 81c496a:	f847 6d04 	str.w	r6, [r7, #-4]!
 81c496e:	8806      	ldrh	r6, [r0, #0]
 81c4970:	8842      	ldrh	r2, [r0, #2]
 81c4972:	0412      	lsls	r2, r2, #16
 81c4974:	4316      	orrs	r6, r2
 81c4976:	f847 6d04 	str.w	r6, [r7, #-4]!
 81c497a:	8886      	ldrh	r6, [r0, #4]
 81c497c:	b403      	push	{r0, r1}
 81c497e:	f7ff ff3e 	bl	81c47fe <kompilator>
 81c4982:	bc03      	pop	{r0, r1}
 81c4984:	3006      	adds	r0, #6
 81c4986:	3901      	subs	r1, #1
 81c4988:	d1ef      	bne.n	81c496a <inline_cache_parser+0xe>
 81c498a:	bd00      	pop	{pc}

081c498c <Dictionary_1167>:
 81c498c:	081c49d4 	ldmdaeq	ip, {r2, r4, r6, r7, r8, fp, lr}
 81c4990:	65080000 	strvs	r0, [r8, #-0]
 81c4994:	756c6176 	strbvc	r6, [ip, #-374]!	; 0xfffffe8a
 81c4998:	00657461 	rsbeq	r7, r5, r1, ror #8

081c499c <Code_1167>:
 81c499c:	b500      	push	{lr}
 81c499e:	f7fe f812 	bl	81c29c6 <Code_623>
 81c49a2:	cf01      	ldmia	r7!, {r0}
 81c49a4:	b401      	push	{r0}
 81c49a6:	b440      	push	{r6}
 81c49a8:	cf40      	ldmia	r7!, {r6}
 81c49aa:	486a      	ldr	r0, [pc, #424]	; (81c4b54 <quit_innenschleife+0x24>)
 81c49ac:	6801      	ldr	r1, [r0, #0]
 81c49ae:	b402      	push	{r1}
 81c49b0:	2100      	movs	r1, #0
 81c49b2:	6001      	str	r1, [r0, #0]
 81c49b4:	f7fd fffa 	bl	81c29ac <Code_621>
 81c49b8:	f000 f814 	bl	81c49e4 <Code_1169>
 81c49bc:	4865      	ldr	r0, [pc, #404]	; (81c4b54 <quit_innenschleife+0x24>)
 81c49be:	bc02      	pop	{r1}
 81c49c0:	6001      	str	r1, [r0, #0]
 81c49c2:	f847 6d04 	str.w	r6, [r7, #-4]!
 81c49c6:	bc40      	pop	{r6}
 81c49c8:	bc01      	pop	{r0}
 81c49ca:	3f04      	subs	r7, #4
 81c49cc:	6038      	str	r0, [r7, #0]
 81c49ce:	f7fd ffed 	bl	81c29ac <Code_621>
 81c49d2:	bd00      	pop	{pc}

081c49d4 <Dictionary_1169>:
 81c49d4:	081c4ad8 	ldmdaeq	ip, {r3, r4, r6, r7, r9, fp, lr}
 81c49d8:	69090000 	stmdbvs	r9, {}	; <UNPREDICTABLE>
 81c49dc:	7265746e 	rsbvc	r7, r5, #1845493760	; 0x6e000000
 81c49e0:	74657270 	strbtvc	r7, [r5], #-624	; 0xfffffd90

081c49e4 <Code_1169>:
 81c49e4:	b500      	push	{lr}
 81c49e6:	485c      	ldr	r0, [pc, #368]	; (81c4b58 <quit_innenschleife+0x28>)
 81c49e8:	4287      	cmp	r7, r0
 81c49ea:	d90b      	bls.n	81c4a04 <Code_1169+0x20>
 81c49ec:	f7fe f89e 	bl	81c2b2c <dotgaensefuesschen>
 81c49f0:	61745310 	cmnvs	r4, r0, lsl r3
 81c49f4:	75206b63 	strvc	r6, [r0, #-2915]!	; 0xfffff49d
 81c49f8:	7265646e 	rsbvc	r6, r5, #1845493760	; 0x6e000000
 81c49fc:	776f6c66 	strbvc	r6, [pc, -r6, ror #24]!
 81c4a00:	e07d000a 	rsbs	r0, sp, sl
 81c4a04:	4855      	ldr	r0, [pc, #340]	; (81c4b5c <quit_innenschleife+0x2c>)
 81c4a06:	4287      	cmp	r7, r0
 81c4a08:	d20a      	bcs.n	81c4a20 <Code_1169+0x3c>
 81c4a0a:	f7fe f88f 	bl	81c2b2c <dotgaensefuesschen>
 81c4a0e:	6174530f 	cmnvs	r4, pc, lsl #6
 81c4a12:	6f206b63 	svcvs	0x00206b63
 81c4a16:	66726576 			; <UNDEFINED> instruction: 0x66726576
 81c4a1a:	0a776f6c 	beq	9fa07d2 <FlashDictionaryEnde+0x1da07d2>
 81c4a1e:	e06f      	b.n	81c4b00 <Code_1197>
 81c4a20:	f7ff fed6 	bl	81c47d0 <konstantenfaltungszeiger_setzen>
 81c4a24:	f7ff fcf4 	bl	81c4410 <Code_1069>
 81c4a28:	2e00      	cmp	r6, #0
 81c4a2a:	d102      	bne.n	81c4a32 <Code_1169+0x4e>
 81c4a2c:	3704      	adds	r7, #4
 81c4a2e:	cf40      	ldmia	r7!, {r6}
 81c4a30:	bd00      	pop	{pc}
 81c4a32:	6838      	ldr	r0, [r7, #0]
 81c4a34:	e927 0041 	stmdb	r7!, {r0, r6}
 81c4a38:	f7ff f8c5 	bl	81c3bc6 <Code_901>
 81c4a3c:	0031      	movs	r1, r6
 81c4a3e:	cf40      	ldmia	r7!, {r6}
 81c4a40:	0032      	movs	r2, r6
 81c4a42:	cf40      	ldmia	r7!, {r6}
 81c4a44:	2a00      	cmp	r2, #0
 81c4a46:	d11b      	bne.n	81c4a80 <.interpret_token_found>
 81c4a48:	6838      	ldr	r0, [r7, #0]
 81c4a4a:	0031      	movs	r1, r6
 81c4a4c:	f7fc fe64 	bl	81c1718 <sprungschreiber_flaggenerator>
 81c4a50:	f7ff fd3a 	bl	81c44c8 <Code_1074>
 81c4a54:	0032      	movs	r2, r6
 81c4a56:	cf40      	ldmia	r7!, {r6}
 81c4a58:	2a00      	cmp	r2, #0
 81c4a5a:	d1c4      	bne.n	81c49e6 <Code_1169+0x2>

081c4a5c <not_found_addr_r0_len_r1>:
 81c4a5c:	f847 6d04 	str.w	r6, [r7, #-4]!
 81c4a60:	0006      	movs	r6, r0
 81c4a62:	f847 6d04 	str.w	r6, [r7, #-4]!
 81c4a66:	000e      	movs	r6, r1
 81c4a68:	f7fe f8b4 	bl	81c2bd4 <Code_671>
 81c4a6c:	f7fe f85e 	bl	81c2b2c <dotgaensefuesschen>
 81c4a70:	6f6e200c 	svcvs	0x006e200c
 81c4a74:	6f662074 	svcvs	0x00662074
 81c4a78:	2e646e75 	mcrcs	14, 3, r6, cr4, cr5, {3}
 81c4a7c:	e03f000a 	eors	r0, pc, sl

081c4a80 <.interpret_token_found>:
 81c4a80:	4b37      	ldr	r3, [pc, #220]	; (81c4b60 <quit_innenschleife+0x30>)
 81c4a82:	681b      	ldr	r3, [r3, #0]
 81c4a84:	2b00      	cmp	r3, #0
 81c4a86:	d11c      	bne.n	81c4ac2 <.ausfuehren+0x10>
 81c4a88:	f7ff feaf 	bl	81c47ea <konstantenfaltungszeiger_loeschen>
 81c4a8c:	2330      	movs	r3, #48	; 0x30
 81c4a8e:	400b      	ands	r3, r1
 81c4a90:	2b30      	cmp	r3, #48	; 0x30
 81c4a92:	d10e      	bne.n	81c4ab2 <.ausfuehren>
 81c4a94:	f7fe f89e 	bl	81c2bd4 <Code_671>
 81c4a98:	f7fe f848 	bl	81c2b2c <dotgaensefuesschen>
 81c4a9c:	73692012 	cmnvc	r9, #18
 81c4aa0:	6d6f6320 	stclvs	3, cr6, [pc, #-128]!	; 81c4a28 <Code_1169+0x44>
 81c4aa4:	656c6970 	strbvs	r6, [ip, #-2416]!	; 0xfffff690
 81c4aa8:	6c6e6f2d 	stclvs	15, cr6, [lr], #-180	; 0xffffff4c
 81c4aac:	000a2e79 	andeq	r2, sl, r9, ror lr
 81c4ab0:	e026      	b.n	81c4b00 <Code_1197>

081c4ab2 <.ausfuehren>:
 81c4ab2:	3704      	adds	r7, #4
 81c4ab4:	cf40      	ldmia	r7!, {r6}
 81c4ab6:	f847 6d04 	str.w	r6, [r7, #-4]!
 81c4aba:	0016      	movs	r6, r2
 81c4abc:	f7fe fc48 	bl	81c3350 <Code_785>
 81c4ac0:	e791      	b.n	81c49e6 <Code_1169+0x2>
 81c4ac2:	3704      	adds	r7, #4
 81c4ac4:	cf40      	ldmia	r7!, {r6}
 81c4ac6:	f847 6d04 	str.w	r6, [r7, #-4]!
 81c4aca:	0016      	movs	r6, r2
 81c4acc:	f847 6d04 	str.w	r6, [r7, #-4]!
 81c4ad0:	000e      	movs	r6, r1
 81c4ad2:	f7ff fe94 	bl	81c47fe <kompilator>
 81c4ad6:	e786      	b.n	81c49e6 <Code_1169+0x2>

081c4ad8 <Dictionary_1194>:
 81c4ad8:	081c4af4 	ldmdaeq	ip, {r2, r4, r5, r6, r7, r9, fp, lr}
 81c4adc:	68090081 	stmdavs	r9, {r0, r7}
 81c4ae0:	2d6b6f6f 	stclcs	15, cr6, [fp, #-444]!	; 0xfffffe44
 81c4ae4:	74697571 	strbtvc	r7, [r9], #-1393	; 0xfffffa8f

081c4ae8 <Code_1194>:
 81c4ae8:	f847 6d04 	str.w	r6, [r7, #-4]!
 81c4aec:	4e1d      	ldr	r6, [pc, #116]	; (81c4b64 <quit_innenschleife+0x34>)
 81c4aee:	4770      	bx	lr
 81c4af0:	081c4b30 	ldmdaeq	ip, {r4, r5, r8, r9, fp, lr}

081c4af4 <Dictionary_1197>:
 81c4af4:	081c4b78 	ldmdaeq	ip, {r3, r4, r5, r6, r8, r9, fp, lr}
 81c4af8:	71040000 	mrsvc	r0, (UNDEF: 4)
 81c4afc:	00746975 	rsbseq	r6, r4, r5, ror r9

081c4b00 <Code_1197>:
 81c4b00:	f8df d064 	ldr.w	sp, [pc, #100]	; 81c4b68 <quit_innenschleife+0x38>
 81c4b04:	4f14      	ldr	r7, [pc, #80]	; (81c4b58 <quit_innenschleife+0x28>)
 81c4b06:	f7fd faf7 	bl	81c20f8 <Code_464>
 81c4b0a:	4818      	ldr	r0, [pc, #96]	; (81c4b6c <quit_innenschleife+0x3c>)
 81c4b0c:	210a      	movs	r1, #10
 81c4b0e:	6001      	str	r1, [r0, #0]
 81c4b10:	4813      	ldr	r0, [pc, #76]	; (81c4b60 <quit_innenschleife+0x30>)
 81c4b12:	2100      	movs	r1, #0
 81c4b14:	6001      	str	r1, [r0, #0]
 81c4b16:	480b      	ldr	r0, [pc, #44]	; (81c4b44 <quit_innenschleife+0x14>)
 81c4b18:	6001      	str	r1, [r0, #0]
 81c4b1a:	f7fb fc52 	bl	81c03c2 <init_register_allocator>
 81c4b1e:	480d      	ldr	r0, [pc, #52]	; (81c4b54 <quit_innenschleife+0x24>)
 81c4b20:	6001      	str	r1, [r0, #0]
 81c4b22:	4813      	ldr	r0, [pc, #76]	; (81c4b70 <quit_innenschleife+0x40>)
 81c4b24:	6001      	str	r1, [r0, #0]
 81c4b26:	4913      	ldr	r1, [pc, #76]	; (81c4b74 <quit_innenschleife+0x44>)
 81c4b28:	6041      	str	r1, [r0, #4]

081c4b2a <quit_intern>:
 81c4b2a:	480e      	ldr	r0, [pc, #56]	; (81c4b64 <quit_innenschleife+0x34>)
 81c4b2c:	6800      	ldr	r0, [r0, #0]
 81c4b2e:	4687      	mov	pc, r0

081c4b30 <quit_innenschleife>:
 81c4b30:	f7fd ff57 	bl	81c29e2 <Code_625>
 81c4b34:	f7ff ff56 	bl	81c49e4 <Code_1169>
 81c4b38:	f7fd fff8 	bl	81c2b2c <dotgaensefuesschen>
 81c4b3c:	6b6f2005 	blvs	9d8cb58 <FlashDictionaryEnde+0x1b8cb58>
 81c4b40:	e7f50a2e 	ldrb	r0, [r5, lr, lsr #20]!
 81c4b44:	38000800 	stmdacc	r0, {fp}
 81c4b48:	38000820 	stmdacc	r0, {r5, fp}
 81c4b4c:	38000854 	stmdacc	r0, {r2, r4, r6, fp}
 81c4b50:	38000858 	stmdacc	r0, {r3, r4, r6, fp}
 81c4b54:	380087e4 	stmdacc	r0, {r2, r5, r6, r7, r8, r9, sl, pc}
 81c4b58:	38000a88 	stmdacc	r0, {r3, r7, r9, fp}
 81c4b5c:	38000988 	stmdacc	r0, {r3, r7, r8, fp}
 81c4b60:	380087d8 	stmdacc	r0, {r3, r4, r6, r7, r8, r9, sl, pc}
 81c4b64:	380087c8 	stmdacc	r0, {r3, r6, r7, r8, r9, sl, pc}
 81c4b68:	38000b88 	stmdacc	r0, {r3, r7, r8, r9, fp}
 81c4b6c:	380087fc 	stmdacc	r0, {r2, r3, r4, r5, r6, r7, r8, r9, sl, pc}
 81c4b70:	380087dc 	stmdacc	r0, {r2, r3, r4, r6, r7, r8, r9, sl, pc}
 81c4b74:	380008c0 	stmdacc	r0, {r6, r7, fp}

081c4b78 <Dictionary_1199>:
 81c4b78:	081c4b92 	ldmdaeq	ip, {r1, r4, r7, r8, r9, fp, lr}
 81c4b7c:	65050000 	strvs	r0, [r5, #-0]
 81c4b80:	3f746e69 	svccc	0x00746e69

081c4b84 <Code_1199>:
 81c4b84:	f847 6d04 	str.w	r6, [r7, #-4]!
 81c4b88:	f3ef 8610 	mrs	r6, PRIMASK
 81c4b8c:	3e01      	subs	r6, #1
 81c4b8e:	41b6      	sbcs	r6, r6
 81c4b90:	4770      	bx	lr

081c4b92 <Dictionary_1201>:
 81c4b92:	081c4ba2 	ldmdaeq	ip, {r1, r5, r7, r8, r9, fp, lr}
 81c4b96:	65040020 	strvs	r0, [r4, #-32]	; 0xffffffe0
 81c4b9a:	00746e69 	rsbseq	r6, r4, r9, ror #28

081c4b9e <Code_1201>:
 81c4b9e:	b662      	cpsie	i
 81c4ba0:	4770      	bx	lr

081c4ba2 <Dictionary_1202>:
 81c4ba2:	081c4bb2 	ldmdaeq	ip, {r1, r4, r5, r7, r8, r9, fp, lr}
 81c4ba6:	64040020 	strvs	r0, [r4], #-32	; 0xffffffe0
 81c4baa:	00746e69 	rsbseq	r6, r4, r9, ror #28

081c4bae <Code_1202>:
 81c4bae:	b672      	cpsid	i
 81c4bb0:	4770      	bx	lr

081c4bb2 <Dictionary_1203>:
 81c4bb2:	081c4bc8 	ldmdaeq	ip, {r3, r6, r7, r8, r9, fp, lr}
 81c4bb6:	69040020 	stmdbvs	r4, {r5}
 81c4bba:	00727370 	rsbseq	r7, r2, r0, ror r3

081c4bbe <Code_1203>:
 81c4bbe:	f847 6d04 	str.w	r6, [r7, #-4]!
 81c4bc2:	f3ef 8605 	mrs	r6, IPSR
 81c4bc6:	4770      	bx	lr

081c4bc8 <Dictionary_1205>:
 81c4bc8:	081c4bd4 	ldmdaeq	ip, {r2, r4, r6, r7, r8, r9, fp, lr}
 81c4bcc:	6e030000 	cdpvs	0, 0, cr0, cr3, cr0, {0}
 81c4bd0:	 	ldrbmi	r7, [r0, -pc, rrx]!

081c4bd2 <Code_1205>:
 81c4bd2:	4770      	bx	lr

081c4bd4 <Dictionary_1206>:
 81c4bd4:	081c4c16 	ldmdaeq	ip, {r1, r2, r4, sl, fp, lr}
 81c4bd8:	75090000 	strvc	r0, [r9, #-0]
 81c4bdc:	6e61686e 	cdpvs	8, 6, cr6, cr1, cr14, {3}
 81c4be0:	64656c64 	strbtvs	r6, [r5], #-3172	; 0xfffff39c

081c4be4 <Code_1206>:
 81c4be4:	b500      	push	{lr}
 81c4be6:	f7fd ffa1 	bl	81c2b2c <dotgaensefuesschen>
 81c4bea:	686e5514 	stmdavs	lr!, {r2, r4, r8, sl, ip, lr}^
 81c4bee:	6c646e61 	stclvs	14, cr6, [r4], #-388	; 0xfffffe7c
 81c4bf2:	49206465 	stmdbmi	r0!, {r0, r2, r5, r6, sl, sp, lr}
 81c4bf6:	7265746e 	rsbvc	r7, r5, #1845493760	; 0x6e000000
 81c4bfa:	74707572 	ldrbtvc	r7, [r0], #-1394	; 0xfffffa8e
 81c4bfe:	f8470020 			; <UNDEFINED> instruction: 0xf8470020
 81c4c02:	6d04      	ldr	r4, [r0, #80]	; 0x50
 81c4c04:	f3ef 8605 	mrs	r6, IPSR
 81c4c08:	f7fd fff8 	bl	81c2bfc <Code_674>
 81c4c0c:	f7fd ff8e 	bl	81c2b2c <dotgaensefuesschen>
 81c4c10:	000a2102 	andeq	r2, sl, r2, lsl #2
 81c4c14:	bd00      	pop	{pc}

081c4c16 <Dictionary_1210>:
 81c4c16:	081c4c28 	ldmdaeq	ip, {r3, r5, sl, fp, lr}
 81c4c1a:	72050000 	andvc	r0, r5, #0
 81c4c1e:	74657365 	strbtvc	r7, [r5], #-869	; 0xfffffc9b

081c4c22 <Code_1210>:
 81c4c22:	48c6      	ldr	r0, [pc, #792]	; (81c4f3c <init_name+0x4>)
 81c4c24:	49c6      	ldr	r1, [pc, #792]	; (81c4f40 <init_name+0x8>)
 81c4c26:	6001      	str	r1, [r0, #0]

081c4c28 <Dictionary_1212>:
 81c4c28:	081c4c52 	ldmdaeq	ip, {r1, r4, r6, sl, fp, lr}
 81c4c2c:	690b0081 	stmdbvs	fp, {r0, r7}
 81c4c30:	732d7172 			; <UNDEFINED> instruction: 0x732d7172
 81c4c34:	69747379 	ldmdbvs	r4!, {r0, r3, r4, r5, r6, r8, r9, ip, sp, lr}^
 81c4c38:	 			; <UNDEFINED> instruction: 0xf8476b63

081c4c3a <Code_1212>:
 81c4c3a:	f847 6d04 	str.w	r6, [r7, #-4]!
 81c4c3e:	4ec1      	ldr	r6, [pc, #772]	; (81c4f44 <init_name+0xc>)
 81c4c40:	4770      	bx	lr
 81c4c42:	081c4be4 	ldmdaeq	ip, {r2, r5, r6, r7, r8, r9, fp, lr}

081c4c46 <irq_vektor_systick>:
 81c4c46:	f248 70c4 	movw	r0, #34756	; 0x87c4
 81c4c4a:	f6c3 0000 	movt	r0, #14336	; 0x3800
 81c4c4e:	6800      	ldr	r0, [r0, #0]
 81c4c50:	4687      	mov	pc, r0

081c4c52 <Dictionary_1216>:
 81c4c52:	081c4c7a 	ldmdaeq	ip, {r1, r3, r4, r5, r6, sl, fp, lr}
 81c4c56:	69090081 	stmdbvs	r9, {r0, r7}
 81c4c5a:	662d7172 			; <UNDEFINED> instruction: 0x662d7172
 81c4c5e:	746c7561 	strbtvc	r7, [ip], #-1377	; 0xfffffa9f

081c4c62 <Code_1216>:
 81c4c62:	f847 6d04 	str.w	r6, [r7, #-4]!
 81c4c66:	4eb8      	ldr	r6, [pc, #736]	; (81c4f48 <init_name+0x10>)
 81c4c68:	4770      	bx	lr
 81c4c6a:	081c4be4 	ldmdaeq	ip, {r2, r5, r6, r7, r8, r9, fp, lr}

081c4c6e <faulthandler>:
 81c4c6e:	f248 70c0 	movw	r0, #34752	; 0x87c0
 81c4c72:	f6c3 0000 	movt	r0, #14336	; 0x3800
 81c4c76:	6800      	ldr	r0, [r0, #0]
 81c4c78:	4687      	mov	pc, r0

081c4c7a <Dictionary_1220>:
 81c4c7a:	081c4ca8 	ldmdaeq	ip, {r3, r5, r7, sl, fp, lr}
 81c4c7e:	690e0081 	stmdbvs	lr, {r0, r7}
 81c4c82:	632d7172 			; <UNDEFINED> instruction: 0x632d7172
 81c4c86:	656c6c6f 	strbvs	r6, [ip, #-3183]!	; 0xfffff391
 81c4c8a:	6f697463 	svcvs	0x00697463
 81c4c8e:	 			; <UNDEFINED> instruction: 0xf847006e

081c4c90 <Code_1220>:
 81c4c90:	f847 6d04 	str.w	r6, [r7, #-4]!
 81c4c94:	4ead      	ldr	r6, [pc, #692]	; (81c4f4c <init_name+0x14>)
 81c4c96:	4770      	bx	lr
 81c4c98:	081c4be4 	ldmdaeq	ip, {r2, r5, r6, r7, r8, r9, fp, lr}

081c4c9c <nullhandler>:
 81c4c9c:	f248 70bc 	movw	r0, #34748	; 0x87bc
 81c4ca0:	f6c3 0000 	movt	r0, #14336	; 0x3800
 81c4ca4:	6800      	ldr	r0, [r0, #0]
 81c4ca6:	4687      	mov	pc, r0

081c4ca8 <Dictionary_1224>:
 81c4ca8:	081c4cd0 	ldmdaeq	ip, {r4, r6, r7, sl, fp, lr}
 81c4cac:	69090081 	stmdbvs	r9, {r0, r7}
 81c4cb0:	652d7172 	strvs	r7, [sp, #-370]!	; 0xfffffe8e
 81c4cb4:	30697478 	rsbcc	r7, r9, r8, ror r4

081c4cb8 <Code_1224>:
 81c4cb8:	f847 6d04 	str.w	r6, [r7, #-4]!
 81c4cbc:	4ea4      	ldr	r6, [pc, #656]	; (81c4f50 <init_name+0x18>)
 81c4cbe:	4770      	bx	lr
 81c4cc0:	081c4be4 	ldmdaeq	ip, {r2, r5, r6, r7, r8, r9, fp, lr}

081c4cc4 <irq_vektor_exti0>:
 81c4cc4:	f248 70b8 	movw	r0, #34744	; 0x87b8
 81c4cc8:	f6c3 0000 	movt	r0, #14336	; 0x3800
 81c4ccc:	6800      	ldr	r0, [r0, #0]
 81c4cce:	4687      	mov	pc, r0

081c4cd0 <Dictionary_1228>:
 81c4cd0:	081c4cf8 	ldmdaeq	ip, {r3, r4, r5, r6, r7, sl, fp, lr}
 81c4cd4:	69090081 	stmdbvs	r9, {r0, r7}
 81c4cd8:	652d7172 	strvs	r7, [sp, #-370]!	; 0xfffffe8e
 81c4cdc:	31697478 	smccc	38728	; 0x9748

081c4ce0 <Code_1228>:
 81c4ce0:	f847 6d04 	str.w	r6, [r7, #-4]!
 81c4ce4:	4e9b      	ldr	r6, [pc, #620]	; (81c4f54 <init_name+0x1c>)
 81c4ce6:	4770      	bx	lr
 81c4ce8:	081c4be4 	ldmdaeq	ip, {r2, r5, r6, r7, r8, r9, fp, lr}

081c4cec <irq_vektor_exti1>:
 81c4cec:	f248 70b4 	movw	r0, #34740	; 0x87b4
 81c4cf0:	f6c3 0000 	movt	r0, #14336	; 0x3800
 81c4cf4:	6800      	ldr	r0, [r0, #0]
 81c4cf6:	4687      	mov	pc, r0

081c4cf8 <Dictionary_1232>:
 81c4cf8:	081c4d20 	ldmdaeq	ip, {r5, r8, sl, fp, lr}
 81c4cfc:	69090081 	stmdbvs	r9, {r0, r7}
 81c4d00:	652d7172 	strvs	r7, [sp, #-370]!	; 0xfffffe8e
 81c4d04:	32697478 	rsbcc	r7, r9, #120, 8	; 0x78000000

081c4d08 <Code_1232>:
 81c4d08:	f847 6d04 	str.w	r6, [r7, #-4]!
 81c4d0c:	4e92      	ldr	r6, [pc, #584]	; (81c4f58 <init_name+0x20>)
 81c4d0e:	4770      	bx	lr
 81c4d10:	081c4be4 	ldmdaeq	ip, {r2, r5, r6, r7, r8, r9, fp, lr}

081c4d14 <irq_vektor_exti2>:
 81c4d14:	f248 70b0 	movw	r0, #34736	; 0x87b0
 81c4d18:	f6c3 0000 	movt	r0, #14336	; 0x3800
 81c4d1c:	6800      	ldr	r0, [r0, #0]
 81c4d1e:	4687      	mov	pc, r0

081c4d20 <Dictionary_1236>:
 81c4d20:	081c4d48 	ldmdaeq	ip, {r3, r6, r8, sl, fp, lr}
 81c4d24:	69090081 	stmdbvs	r9, {r0, r7}
 81c4d28:	652d7172 	strvs	r7, [sp, #-370]!	; 0xfffffe8e
 81c4d2c:	33697478 	cmncc	r9, #120, 8	; 0x78000000

081c4d30 <Code_1236>:
 81c4d30:	f847 6d04 	str.w	r6, [r7, #-4]!
 81c4d34:	4e89      	ldr	r6, [pc, #548]	; (81c4f5c <init_name+0x24>)
 81c4d36:	4770      	bx	lr
 81c4d38:	081c4be4 	ldmdaeq	ip, {r2, r5, r6, r7, r8, r9, fp, lr}

081c4d3c <irq_vektor_exti3>:
 81c4d3c:	f248 70ac 	movw	r0, #34732	; 0x87ac
 81c4d40:	f6c3 0000 	movt	r0, #14336	; 0x3800
 81c4d44:	6800      	ldr	r0, [r0, #0]
 81c4d46:	4687      	mov	pc, r0

081c4d48 <Dictionary_1240>:
 81c4d48:	081c4d70 	ldmdaeq	ip, {r4, r5, r6, r8, sl, fp, lr}
 81c4d4c:	69090081 	stmdbvs	r9, {r0, r7}
 81c4d50:	652d7172 	strvs	r7, [sp, #-370]!	; 0xfffffe8e
 81c4d54:	34697478 	strbtcc	r7, [r9], #-1144	; 0xfffffb88

081c4d58 <Code_1240>:
 81c4d58:	f847 6d04 	str.w	r6, [r7, #-4]!
 81c4d5c:	4e80      	ldr	r6, [pc, #512]	; (81c4f60 <init_name+0x28>)
 81c4d5e:	4770      	bx	lr
 81c4d60:	081c4be4 	ldmdaeq	ip, {r2, r5, r6, r7, r8, r9, fp, lr}

081c4d64 <irq_vektor_exti4>:
 81c4d64:	f248 70a8 	movw	r0, #34728	; 0x87a8
 81c4d68:	f6c3 0000 	movt	r0, #14336	; 0x3800
 81c4d6c:	6800      	ldr	r0, [r0, #0]
 81c4d6e:	4687      	mov	pc, r0

081c4d70 <Dictionary_1244>:
 81c4d70:	081c4d96 	ldmdaeq	ip, {r1, r2, r4, r7, r8, sl, fp, lr}
 81c4d74:	69070081 	stmdbvs	r7, {r0, r7}
 81c4d78:	612d7172 			; <UNDEFINED> instruction: 0x612d7172
 81c4d7c:	 			; <UNDEFINED> instruction: 0xf8476364

081c4d7e <Code_1244>:
 81c4d7e:	f847 6d04 	str.w	r6, [r7, #-4]!
 81c4d82:	4e78      	ldr	r6, [pc, #480]	; (81c4f64 <init_name+0x2c>)
 81c4d84:	4770      	bx	lr
 81c4d86:	081c4be4 	ldmdaeq	ip, {r2, r5, r6, r7, r8, r9, fp, lr}

081c4d8a <irq_vektor_adc>:
 81c4d8a:	f248 70a4 	movw	r0, #34724	; 0x87a4
 81c4d8e:	f6c3 0000 	movt	r0, #14336	; 0x3800
 81c4d92:	6800      	ldr	r0, [r0, #0]
 81c4d94:	4687      	mov	pc, r0

081c4d96 <Dictionary_1248>:
 81c4d96:	081c4dbe 	ldmdaeq	ip, {r1, r2, r3, r4, r5, r7, r8, sl, fp, lr}
 81c4d9a:	69080081 	stmdbvs	r8, {r0, r7}
 81c4d9e:	742d7172 	strtvc	r7, [sp], #-370	; 0xfffffe8e
 81c4da2:	00326d69 	eorseq	r6, r2, r9, ror #26

081c4da6 <Code_1248>:
 81c4da6:	f847 6d04 	str.w	r6, [r7, #-4]!
 81c4daa:	4e6f      	ldr	r6, [pc, #444]	; (81c4f68 <init_name+0x30>)
 81c4dac:	4770      	bx	lr
 81c4dae:	081c4be4 	ldmdaeq	ip, {r2, r5, r6, r7, r8, r9, fp, lr}

081c4db2 <irq_vektor_tim2>:
 81c4db2:	f248 70a0 	movw	r0, #34720	; 0x87a0
 81c4db6:	f6c3 0000 	movt	r0, #14336	; 0x3800
 81c4dba:	6800      	ldr	r0, [r0, #0]
 81c4dbc:	4687      	mov	pc, r0

081c4dbe <Dictionary_1252>:
 81c4dbe:	081c4de6 	ldmdaeq	ip, {r1, r2, r5, r6, r7, r8, sl, fp, lr}
 81c4dc2:	69080081 	stmdbvs	r8, {r0, r7}
 81c4dc6:	742d7172 	strtvc	r7, [sp], #-370	; 0xfffffe8e
 81c4dca:	00336d69 	eorseq	r6, r3, r9, ror #26

081c4dce <Code_1252>:
 81c4dce:	f847 6d04 	str.w	r6, [r7, #-4]!
 81c4dd2:	4e66      	ldr	r6, [pc, #408]	; (81c4f6c <init_name+0x34>)
 81c4dd4:	4770      	bx	lr
 81c4dd6:	081c4be4 	ldmdaeq	ip, {r2, r5, r6, r7, r8, r9, fp, lr}

081c4dda <irq_vektor_tim3>:
 81c4dda:	f248 709c 	movw	r0, #34716	; 0x879c
 81c4dde:	f6c3 0000 	movt	r0, #14336	; 0x3800
 81c4de2:	6800      	ldr	r0, [r0, #0]
 81c4de4:	4687      	mov	pc, r0

081c4de6 <Dictionary_1256>:
 81c4de6:	081c4e0e 	ldmdaeq	ip, {r1, r2, r3, r9, sl, fp, lr}
 81c4dea:	69080081 	stmdbvs	r8, {r0, r7}
 81c4dee:	742d7172 	strtvc	r7, [sp], #-370	; 0xfffffe8e
 81c4df2:	00346d69 	eorseq	r6, r4, r9, ror #26

081c4df6 <Code_1256>:
 81c4df6:	f847 6d04 	str.w	r6, [r7, #-4]!
 81c4dfa:	4e5d      	ldr	r6, [pc, #372]	; (81c4f70 <init_name+0x38>)
 81c4dfc:	4770      	bx	lr
 81c4dfe:	081c4be4 	ldmdaeq	ip, {r2, r5, r6, r7, r8, r9, fp, lr}

081c4e02 <irq_vektor_tim4>:
 81c4e02:	f248 7098 	movw	r0, #34712	; 0x8798
 81c4e06:	f6c3 0000 	movt	r0, #14336	; 0x3800
 81c4e0a:	6800      	ldr	r0, [r0, #0]
 81c4e0c:	4687      	mov	pc, r0

081c4e0e <Dictionary_1259>:
 81c4e0e:	081e001c 	ldmdaeq	lr, {r2, r3, r4}
 81c4e12:	2d18ffff 	ldccs	15, cr15, [r8, #-1020]	; 0xfffffc04
 81c4e16:	46202d2d 	strtmi	r2, [r0], -sp, lsr #26
 81c4e1a:	6873616c 	ldmdavs	r3!, {r2, r3, r5, r6, r8, sp, lr}^
 81c4e1e:	63694420 	cmnvs	r9, #32, 8	; 0x20000000
 81c4e22:	6e6f6974 			; <UNDEFINED> instruction: 0x6e6f6974
 81c4e26:	20797261 	rsbscs	r7, r9, r1, ror #4
 81c4e2a:	002d2d2d 	eoreq	r2, sp, sp, lsr #26

081c4e2e <Code_1259>:
 81c4e2e:	f7fd fc93 	bl	81c2758 <uart_init>
 81c4e32:	4850      	ldr	r0, [pc, #320]	; (81c4f74 <init_name+0x3c>)
 81c4e34:	4685      	mov	sp, r0
 81c4e36:	4f50      	ldr	r7, [pc, #320]	; (81c4f78 <init_name+0x40>)
 81c4e38:	262a      	movs	r6, #42	; 0x2a
 81c4e3a:	f847 6d04 	str.w	r6, [r7, #-4]!
 81c4e3e:	4e4f      	ldr	r6, [pc, #316]	; (81c4f7c <init_name+0x44>)
 81c4e40:	4d4f      	ldr	r5, [pc, #316]	; (81c4f80 <init_name+0x48>)

081c4e42 <SucheFlashPointer_Hangelschleife>:
 81c4e42:	88b1      	ldrh	r1, [r6, #4]
 81c4e44:	f64f 73ff 	movw	r3, #65535	; 0xffff
 81c4e48:	4299      	cmp	r1, r3
 81c4e4a:	d020      	beq.n	81c4e8e <Sucheflashpointer_Speicherbelegung_fertig>
 81c4e4c:	f44f 7380 	mov.w	r3, #256	; 0x100
 81c4e50:	400b      	ands	r3, r1
 81c4e52:	d00a      	beq.n	81c4e6a <SucheFlashPointer_Hangelschleife+0x28>
 81c4e54:	1db0      	adds	r0, r6, #6
 81c4e56:	f7fe fea8 	bl	81c3baa <skipstring>
 81c4e5a:	f7fe f9dd 	bl	81c3218 <suchedefinitionsende>
 81c4e5e:	8803      	ldrh	r3, [r0, #0]
 81c4e60:	8840      	ldrh	r0, [r0, #2]
 81c4e62:	0400      	lsls	r0, r0, #16
 81c4e64:	4303      	orrs	r3, r0
 81c4e66:	1aed      	subs	r5, r5, r3
 81c4e68:	e011      	b.n	81c4e8e <Sucheflashpointer_Speicherbelegung_fertig>
 81c4e6a:	2380      	movs	r3, #128	; 0x80
 81c4e6c:	400b      	ands	r3, r1
 81c4e6e:	d00e      	beq.n	81c4e8e <Sucheflashpointer_Speicherbelegung_fertig>
 81c4e70:	0709      	lsls	r1, r1, #28
 81c4e72:	0e89      	lsrs	r1, r1, #26
 81c4e74:	1a6d      	subs	r5, r5, r1
 81c4e76:	1db0      	adds	r0, r6, #6
 81c4e78:	f7fe fe97 	bl	81c3baa <skipstring>
 81c4e7c:	f7fe f9cc 	bl	81c3218 <suchedefinitionsende>
 81c4e80:	3f0c      	subs	r7, #12
 81c4e82:	60be      	str	r6, [r7, #8]
 81c4e84:	6078      	str	r0, [r7, #4]
 81c4e86:	603d      	str	r5, [r7, #0]
 81c4e88:	000e      	movs	r6, r1
 81c4e8a:	f7fc fd0b 	bl	81c18a4 <Code_373>

081c4e8e <Sucheflashpointer_Speicherbelegung_fertig>:
 81c4e8e:	f7fe fe56 	bl	81c3b3e <Code_896>
 81c4e92:	0030      	movs	r0, r6
 81c4e94:	cf40      	ldmia	r7!, {r6}
 81c4e96:	d0d4      	beq.n	81c4e42 <SucheFlashPointer_Hangelschleife>
 81c4e98:	483a      	ldr	r0, [pc, #232]	; (81c4f84 <init_name+0x4c>)
 81c4e9a:	6006      	str	r6, [r0, #0]
 81c4e9c:	cf40      	ldmia	r7!, {r6}
 81c4e9e:	483a      	ldr	r0, [pc, #232]	; (81c4f88 <init_name+0x50>)
 81c4ea0:	6005      	str	r5, [r0, #0]
 81c4ea2:	f04f 6002 	mov.w	r0, #136314880	; 0x8200000
 81c4ea6:	4939      	ldr	r1, [pc, #228]	; (81c4f8c <init_name+0x54>)
 81c4ea8:	f64f 72ff 	movw	r2, #65535	; 0xffff
 81c4eac:	4288      	cmp	r0, r1
 81c4eae:	d004      	beq.n	81c4eba <Sucheflashpointer_Speicherbelegung_fertig+0x2c>
 81c4eb0:	3802      	subs	r0, #2
 81c4eb2:	8803      	ldrh	r3, [r0, #0]
 81c4eb4:	4293      	cmp	r3, r2
 81c4eb6:	d0f9      	beq.n	81c4eac <Sucheflashpointer_Speicherbelegung_fertig+0x1e>
 81c4eb8:	3002      	adds	r0, #2
 81c4eba:	4935      	ldr	r1, [pc, #212]	; (81c4f90 <init_name+0x58>)
 81c4ebc:	6008      	str	r0, [r1, #0]
 81c4ebe:	f7fd f91b 	bl	81c20f8 <Code_464>
 81c4ec2:	f7fd fe33 	bl	81c2b2c <dotgaensefuesschen>
 81c4ec6:	63654d49 	cmnvs	r5, #4672	; 0x1240
 81c4eca:	70736972 	rsbsvc	r6, r3, r2, ror r9
 81c4ece:	6574532d 	ldrbvs	r5, [r4, #-813]!	; 0xfffffcd3
 81c4ed2:	72616c6c 	rsbvc	r6, r1, #108, 24	; 0x6c00
 81c4ed6:	52207369 	eorpl	r7, r0, #-1543503871	; 0xa4000001
 81c4eda:	2e332041 	cdpcs	0, 3, cr2, cr3, cr1, {2}
 81c4ede:	20302e30 	eorscs	r2, r0, r0, lsr lr
 81c4ee2:	20726f66 	rsbscs	r6, r2, r6, ror #30
 81c4ee6:	334d5453 	movtcc	r5, #54355	; 0xd453
 81c4eea:	34374832 	ldrtcc	r4, [r7], #-2098	; 0xfffff7ce
 81c4eee:	4d435f35 	stclmi	15, cr5, [r3, #-212]	; 0xffffff2c
 81c4ef2:	30762034 	rsbscc	r2, r6, r4, lsr r0
 81c4ef6:	6220342e 	eorvs	r3, r0, #771751936	; 0x2e000000
 81c4efa:	614d2079 	hvcvs	53769	; 0xd209
 81c4efe:	69687474 	stmdbvs	r8!, {r2, r4, r5, r6, sl, ip, sp, lr}^
 81c4f02:	4b207361 	blmi	89e1c8e <FlashDictionaryEnde+0x7e1c8e>
 81c4f06:	2068636f 	rsbcs	r6, r8, pc, ror #6
 81c4f0a:	61207465 			; <UNDEFINED> instruction: 0x61207465
 81c4f0e:	48200a6c 	stmdami	r0!, {r2, r3, r5, r6, r9, fp}
 81c4f12:	2100      	movs	r1, #0
 81c4f14:	6001      	str	r1, [r0, #0]
 81c4f16:	f7fb fa54 	bl	81c03c2 <init_register_allocator>
 81c4f1a:	3f08      	subs	r7, #8
 81c4f1c:	607e      	str	r6, [r7, #4]
 81c4f1e:	4e1e      	ldr	r6, [pc, #120]	; (81c4f98 <init_name+0x60>)
 81c4f20:	603e      	str	r6, [r7, #0]
 81c4f22:	2604      	movs	r6, #4
 81c4f24:	f7fe fe4f 	bl	81c3bc6 <Code_901>
 81c4f28:	cf40      	ldmia	r7!, {r6}
 81c4f2a:	2e00      	cmp	r6, #0
 81c4f2c:	d002      	beq.n	81c4f34 <Sucheflashpointer_Speicherbelegung_fertig+0xa6>
 81c4f2e:	f7fe fa0f 	bl	81c3350 <Code_785>
 81c4f32:	e5fa      	b.n	81c4b2a <quit_intern>
 81c4f34:	cf40      	ldmia	r7!, {r6}
 81c4f36:	e5e3      	b.n	81c4b00 <Code_1197>

081c4f38 <init_name>:
 81c4f38:	74696e69 	strbtvc	r6, [r9], #-3689	; 0xfffff197
 81c4f3c:	e000ed0c 	and	lr, r0, ip, lsl #26
 81c4f40:	05fa0004 	ldrbeq	r0, [sl, #4]!
 81c4f44:	380087c4 	stmdacc	r0, {r2, r6, r7, r8, r9, sl, pc}
 81c4f48:	380087c0 	stmdacc	r0, {r6, r7, r8, r9, sl, pc}
 81c4f4c:	380087bc 	stmdacc	r0, {r2, r3, r4, r5, r7, r8, r9, sl, pc}
 81c4f50:	380087b8 	stmdacc	r0, {r3, r4, r5, r7, r8, r9, sl, pc}
 81c4f54:	380087b4 	stmdacc	r0, {r2, r4, r5, r7, r8, r9, sl, pc}
 81c4f58:	380087b0 	stmdacc	r0, {r4, r5, r7, r8, r9, sl, pc}
 81c4f5c:	380087ac 	stmdacc	r0, {r2, r3, r5, r7, r8, r9, sl, pc}
 81c4f60:	380087a8 	stmdacc	r0, {r3, r5, r7, r8, r9, sl, pc}
 81c4f64:	380087a4 	stmdacc	r0, {r2, r5, r7, r8, r9, sl, pc}
 81c4f68:	380087a0 	stmdacc	r0, {r5, r7, r8, r9, sl, pc}
 81c4f6c:	3800879c 	stmdacc	r0, {r2, r3, r4, r7, r8, r9, sl, pc}
 81c4f70:	38008798 	stmdacc	r0, {r3, r4, r7, r8, r9, sl, pc}
 81c4f74:	38000b88 	stmdacc	r0, {r3, r7, r8, r9, fp}
 81c4f78:	38000a88 	stmdacc	r0, {r3, r7, r9, fp}
 81c4f7c:	081c01e4 	ldmdaeq	ip, {r2, r5, r6, r7, r8}
 81c4f80:	38008800 	stmdacc	r0, {fp, pc}
 81c4f84:	38000814 	stmdacc	r0, {r2, r4, fp}
 81c4f88:	3800081c 	stmdacc	r0, {r2, r3, r4, fp}
 81c4f8c:	081e0000 	ldmdaeq	lr, {}	; <UNPREDICTABLE>
 81c4f90:	38000810 	stmdacc	r0, {r4, fp}
 81c4f94:	38000800 	stmdacc	r0, {fp}
 81c4f98:	081c4f38 	ldmdaeq	ip, {r3, r4, r5, r8, r9, sl, fp, lr}

Disassembly of section .ARM.attributes:

00000000 <.ARM.attributes>:
   0:	00002041 	andeq	r2, r0, r1, asr #32
   4:	61656100 	cmnvs	r5, r0, lsl #2
   8:	01006962 	tsteq	r0, r2, ror #18
   c:	00000016 	andeq	r0, r0, r6, lsl r0
  10:	726f4305 	rsbvc	r4, pc, #335544320	; 0x14000000
  14:	2d786574 	cfldr64cs	mvdx6, [r8, #-464]!	; 0xfffffe30
  18:	0600344d 	streq	r3, [r0], -sp, asr #8
  1c:	094d070d 	stmdbeq	sp, {r0, r2, r3, r8, r9, sl}^
  20:	Address 0x0000000000000020 is out of bounds.


Disassembly of section .debug_line:

00000000 <.debug_line>:
       0:	0000195f 	andeq	r1, r0, pc, asr r9
       4:	02630003 	rsbeq	r0, r3, #3
       8:	01020000 	mrseq	r0, (UNDEF: 2)
       c:	000d0efb 	strdeq	r0, [sp], -fp
      10:	01010101 	tsteq	r1, r1, lsl #2
      14:	01000000 	mrseq	r0, (UNDEF: 0)
      18:	2e010000 	cdpcs	0, 0, cr0, cr1, cr0, {0}
      1c:	6f632f2e 	svcvs	0x00632f2e
      20:	6e6f6d6d 	cdpvs	13, 6, cr6, cr15, cr13, {3}
      24:	0061722f 	rsbeq	r7, r1, pc, lsr #4
      28:	632f2e2e 			; <UNDEFINED> instruction: 0x632f2e2e
      2c:	6f6d6d6f 	svcvs	0x006d6d6f
      30:	7200006e 	andvc	r0, r0, #110	; 0x6e
      34:	6e692d61 	cdpvs	13, 6, cr2, cr9, cr1, {3}
      38:	73617266 	cmnvc	r1, #1610612742	; 0x60000006
      3c:	63757274 	cmnvs	r5, #116, 4	; 0x40000007
      40:	65727574 	ldrbvs	r7, [r2, #-1396]!	; 0xfffffa8c
      44:	0100732e 	tsteq	r0, lr, lsr #6
      48:	61720000 	cmnvs	r2, r0
      4c:	6f6f742d 	svcvs	0x006f742d
      50:	732e736c 			; <UNDEFINED> instruction: 0x732e736c
      54:	00000100 	andeq	r0, r0, r0, lsl #2
      58:	62756f64 	rsbsvs	r6, r5, #100, 30	; 0x190
      5c:	732e656c 			; <UNDEFINED> instruction: 0x732e656c
      60:	00000100 	andeq	r0, r0, r0, lsl #2
      64:	63617473 	cmnvs	r1, #1929379840	; 0x73000000
      68:	67756a6b 	ldrbvs	r6, [r5, -fp, ror #20]!
      6c:	72656c67 	rsbvc	r6, r5, #26368	; 0x6700
      70:	00732e73 	rsbseq	r2, r3, r3, ror lr
      74:	72000001 	andvc	r0, r0, #1
      78:	2e6c6c6f 	cdpcs	12, 6, cr6, cr12, cr15, {3}
      7c:	00020073 	andeq	r0, r2, r3, ror r0
      80:	676f6c00 	strbvs	r6, [pc, -r0, lsl #24]!
      84:	732e6369 			; <UNDEFINED> instruction: 0x732e6369
      88:	00000100 	andeq	r0, r0, r0, lsl #2
      8c:	6c2d6172 	stfvss	f6, [sp], #-456	; 0xfffffe38
      90:	6369676f 	cmnvs	r9, #29097984	; 0x1bc0000
      94:	0100732e 	tsteq	r0, lr, lsr #6
      98:	6f630000 	svcvs	0x00630000
      9c:	7261706d 	rsbvc	r7, r1, #109	; 0x6d
      a0:	6f697369 	svcvs	0x00697369
      a4:	732e736e 			; <UNDEFINED> instruction: 0x732e736e
      a8:	00000100 	andeq	r0, r0, r0, lsl #2
      ac:	6f6d656d 	svcvs	0x006d656d
      b0:	732e7972 			; <UNDEFINED> instruction: 0x732e7972
      b4:	00000100 	andeq	r0, r0, r0, lsl #2
      b8:	73616c66 	cmnvc	r1, #26112	; 0x6600
      bc:	00732e68 	rsbseq	r2, r3, r8, ror #28
      c0:	66000000 	strvs	r0, [r0], -r0
      c4:	6873616c 	ldmdavs	r3!, {r2, r3, r5, r6, r8, sp, lr}^
      c8:	79623233 	stmdbvc	r2!, {r0, r1, r4, r5, r9, ip, sp}^
      cc:	62736574 	rsbsvs	r6, r3, #116, 10	; 0x1d000000
      d0:	6b636f6c 	blvs	18dbe88 <BIT24+0x8dbe88>
      d4:	74697277 	strbtvc	r7, [r9], #-631	; 0xfffffd89
      d8:	00732e65 	rsbseq	r2, r3, r5, ror #28
      dc:	63000002 	movwvs	r0, #2
      e0:	75636c61 	strbvc	r6, [r3, #-3169]!	; 0xfffff39f
      e4:	6974616c 	ldmdbvs	r4!, {r2, r3, r5, r6, r8, sp, lr}^
      e8:	2e736e6f 	cdpcs	14, 7, cr6, cr3, cr15, {3}
      ec:	00010073 	andeq	r0, r1, r3, ror r0
      f0:	64777300 	ldrbtvs	r7, [r7], #-768	; 0xfffffd00
      f4:	6d6d6f63 	stclvs	15, cr6, [sp, #-396]!	; 0xfffffe74
      f8:	0000732e 	andeq	r7, r0, lr, lsr #6
      fc:	65740000 	ldrbvs	r0, [r4, #-0]!
     100:	6e696d72 	mcrvs	13, 3, r6, cr9, cr2, {3}
     104:	732e6c61 			; <UNDEFINED> instruction: 0x732e6c61
     108:	00000000 	andeq	r0, r0, r0
     10c:	6d726574 	cfldr64vs	mvdx6, [r2, #-464]!	; 0xfffffe30
     110:	6c616e69 	stclvs	14, cr6, [r1], #-420	; 0xfffffe5c
     114:	6b6f6f68 	blvs	1bdbebc <BIT24+0xbdbebc>
     118:	00732e73 	rsbseq	r2, r3, r3, ror lr
     11c:	71000002 	tstvc	r0, r2
     120:	79726575 	ldmdbvc	r2!, {r0, r2, r4, r5, r6, r8, sl, sp, lr}^
     124:	0200732e 	andeq	r7, r0, #-1207959552	; 0xb8000000
     128:	74730000 	ldrbtvc	r0, [r3], #-0
     12c:	676e6972 			; <UNDEFINED> instruction: 0x676e6972
     130:	00732e73 	rsbseq	r2, r3, r3, ror lr
     134:	64000002 	strvs	r0, [r0], #-2
     138:	69706565 	ldmdbvs	r0!, {r0, r2, r5, r6, r8, sl, sp, lr}^
     13c:	6769736e 	strbvs	r7, [r9, -lr, ror #6]!
     140:	732e7468 			; <UNDEFINED> instruction: 0x732e7468
     144:	00000200 	andeq	r0, r0, r0, lsl #4
     148:	65646f63 	strbvs	r6, [r4, #-3939]!	; 0xfffff09d
     14c:	656e6567 	strbvs	r6, [lr, #-1383]!	; 0xfffffa99
     150:	6f746172 	svcvs	0x00746172
     154:	336d2d72 	cmncc	sp, #7296	; 0x1c80
     158:	0200732e 	andeq	r7, r0, #-1207959552	; 0xb8000000
     15c:	6f630000 	svcvs	0x00630000
     160:	6c69706d 	stclvs	0, cr7, [r9], #-436	; 0xfffffe4c
     164:	732e7265 			; <UNDEFINED> instruction: 0x732e7265
     168:	00000200 	andeq	r0, r0, r0, lsl #4
     16c:	706d6f63 	rsbvc	r6, sp, r3, ror #30
     170:	72656c69 	rsbvc	r6, r5, #26880	; 0x6900
     174:	616c662d 	cmnvs	ip, sp, lsr #12
     178:	732e6873 			; <UNDEFINED> instruction: 0x732e6873
     17c:	00000200 	andeq	r0, r0, r0, lsl #4
     180:	746e6f63 	strbtvc	r6, [lr], #-3939	; 0xfffff09d
     184:	736c6f72 	cmnvc	ip, #456	; 0x1c8
     188:	63757274 	cmnvs	r5, #116, 4	; 0x40000007
     18c:	65727574 	ldrbvs	r7, [r2, #-1396]!	; 0xfffffa8c
     190:	00732e73 	rsbseq	r2, r3, r3, ror lr
     194:	64000001 	strvs	r0, [r0], #-1
     198:	6f6f6c6f 	svcvs	0x006f6c6f
     19c:	00732e70 	rsbseq	r2, r3, r0, ror lr
     1a0:	63000001 	movwvs	r0, #1
     1a4:	2e657361 	cdpcs	3, 6, cr7, cr5, cr1, {3}
     1a8:	00010073 	andeq	r0, r1, r3, ror r0
     1ac:	6b6f7400 	blvs	1bdd1b4 <BIT24+0xbdd1b4>
     1b0:	732e6e65 			; <UNDEFINED> instruction: 0x732e6e65
     1b4:	00000200 	andeq	r0, r0, r0, lsl #4
     1b8:	626d756e 	rsbvs	r7, sp, #461373440	; 0x1b800000
     1bc:	74737265 	ldrbtvc	r7, [r3], #-613	; 0xfffffd9b
     1c0:	676e6972 			; <UNDEFINED> instruction: 0x676e6972
     1c4:	00732e73 	rsbseq	r2, r3, r3, ror lr
     1c8:	72000002 	andvc	r0, r0, #2
     1cc:	6f6b2d61 	svcvs	0x006b2d61
     1d0:	6c69706d 	stclvs	0, cr7, [r9], #-436	; 0xfffffe4c
     1d4:	726f7461 	rsbvc	r7, pc, #1627389952	; 0x61000000
     1d8:	0100732e 	tsteq	r0, lr, lsr #6
     1dc:	61720000 	cmnvs	r2, r0
     1e0:	6c6e692d 			; <UNDEFINED> instruction: 0x6c6e692d
     1e4:	2e656e69 	cdpcs	14, 6, cr6, cr5, cr9, {3}
     1e8:	00010073 	andeq	r0, r1, r3, ror r0
     1ec:	746e6900 	strbtvc	r6, [lr], #-2304	; 0xfffff700
     1f0:	72707265 	rsbsvc	r7, r0, #1342177286	; 0x50000006
     1f4:	72657465 	rsbvc	r7, r5, #1694498816	; 0x65000000
     1f8:	0100732e 	tsteq	r0, lr, lsr #6
     1fc:	6e690000 	cdpvs	0, 6, cr0, cr9, cr0, {0}
     200:	72726574 	rsbsvc	r6, r2, #116, 10	; 0x1d000000
     204:	73747075 	cmnvc	r4, #117	; 0x75
     208:	6d6f632d 	stclvs	3, cr6, [pc, #-180]!	; 15c <Flag_buffer_foldable+0x1c>
     20c:	2e6e6f6d 	cdpcs	15, 6, cr6, cr14, cr13, {3}
     210:	00020073 	andeq	r0, r2, r3, ror r0
     214:	746e6900 	strbtvc	r6, [lr], #-2304	; 0xfffff700
     218:	75727265 	ldrbvc	r7, [r2, #-613]!	; 0xfffffd9b
     21c:	2e737470 	mrccs	4, 3, r7, cr3, cr0, {3}
     220:	00000073 	andeq	r0, r0, r3, ror r0
     224:	63656d00 	cmnvs	r5, #0, 26
     228:	70736972 	rsbsvc	r6, r3, r2, ror r9
     22c:	6574732d 	ldrbvs	r7, [r4, #-813]!	; 0xfffffcd3
     230:	72616c6c 	rsbvc	r6, r1, #108, 24	; 0x6c00
     234:	732d7369 			; <UNDEFINED> instruction: 0x732d7369
     238:	32336d74 	eorscc	r6, r3, #116, 26	; 0x1d00
     23c:	35343768 	ldrcc	r3, [r4, #-1896]!	; 0xfffff898
     240:	344d435f 	strbcc	r4, [sp], #-863	; 0xfffffca1
     244:	0000732e 	andeq	r7, r0, lr, lsr #6
     248:	61630000 	cmnvs	r3, r0
     24c:	66686374 			; <UNDEFINED> instruction: 0x66686374
     250:	6873616c 	ldmdavs	r3!, {r2, r3, r5, r6, r8, sp, lr}^
     254:	6e696f70 	mcrvs	15, 3, r6, cr9, cr0, {3}
     258:	73726574 	cmnvc	r2, #116, 10	; 0x1d000000
     25c:	0200732e 	andeq	r7, r0, #-1207959552	; 0xb8000000
     260:	6f620000 	svcvs	0x00620000
     264:	732e746f 			; <UNDEFINED> instruction: 0x732e746f
     268:	00000200 	andeq	r0, r0, r0, lsl #4
     26c:	02050000 	andeq	r0, r5, #0
     270:	081c020e 	ldmdaeq	ip, {r1, r2, r3, r9}
     274:	21012b03 	tstcs	r1, r3, lsl #22
     278:	2f252123 	svccs	0x00252123
     27c:	2121302f 			; <UNDEFINED> instruction: 0x2121302f
     280:	21282321 			; <UNDEFINED> instruction: 0x21282321
     284:	21212221 			; <UNDEFINED> instruction: 0x21212221
     288:	2f2f2123 	svccs	0x002f2123
     28c:	3d222823 	stccc	8, cr2, [r2, #-140]!	; 0xffffff74
     290:	212f213d 			; <UNDEFINED> instruction: 0x212f213d
     294:	2f222f24 	svccs	0x00222f24
     298:	2228302f 	eorcs	r3, r8, #47	; 0x2f
     29c:	2f213d21 	svccs	0x00213d21
     2a0:	2f2f2322 	svccs	0x002f2322
     2a4:	22212530 	eorcs	r2, r1, #48, 10	; 0xc000000
     2a8:	30212121 	eorcc	r2, r1, r1, lsr #2
     2ac:	21200c03 			; <UNDEFINED> instruction: 0x21200c03
     2b0:	21212121 			; <UNDEFINED> instruction: 0x21212121
     2b4:	21232121 			; <UNDEFINED> instruction: 0x21232121
     2b8:	21212121 			; <UNDEFINED> instruction: 0x21212121
     2bc:	21222121 			; <UNDEFINED> instruction: 0x21222121
     2c0:	21232522 			; <UNDEFINED> instruction: 0x21232522
     2c4:	2f232121 	svccs	0x00232121
     2c8:	21222531 			; <UNDEFINED> instruction: 0x21222531
     2cc:	25212121 	strcs	r2, [r1, #-289]!	; 0xfffffedf
     2d0:	21212122 			; <UNDEFINED> instruction: 0x21212122
     2d4:	21212122 			; <UNDEFINED> instruction: 0x21212122
     2d8:	21212122 			; <UNDEFINED> instruction: 0x21212122
     2dc:	25222122 	strcs	r2, [r2, #-290]!	; 0xfffffede
     2e0:	23212322 			; <UNDEFINED> instruction: 0x23212322
     2e4:	23212221 			; <UNDEFINED> instruction: 0x23212221
     2e8:	03212321 			; <UNDEFINED> instruction: 0x03212321
     2ec:	212f2e10 			; <UNDEFINED> instruction: 0x212f2e10
     2f0:	2127322f 			; <UNDEFINED> instruction: 0x2127322f
     2f4:	2f2f2f2f 	svccs	0x002f2f2f
     2f8:	2121252f 			; <UNDEFINED> instruction: 0x2121252f
     2fc:	2121252f 			; <UNDEFINED> instruction: 0x2121252f
     300:	2121252f 			; <UNDEFINED> instruction: 0x2121252f
     304:	2121252f 			; <UNDEFINED> instruction: 0x2121252f
     308:	2126262f 			; <UNDEFINED> instruction: 0x2126262f
     30c:	21282122 			; <UNDEFINED> instruction: 0x21282122
     310:	232f4b22 			; <UNDEFINED> instruction: 0x232f4b22
     314:	3d232421 	cfstrscc	mvf2, [r3, #-132]!	; 0xffffff7c
     318:	21242f3d 			; <UNDEFINED> instruction: 0x21242f3d
     31c:	21214b22 			; <UNDEFINED> instruction: 0x21214b22
     320:	22282f34 	eorcs	r2, r8, #52, 30	; 0xd0
     324:	21212121 			; <UNDEFINED> instruction: 0x21212121
     328:	22212222 	eorcs	r2, r1, #536870914	; 0x20000002
     32c:	02042221 	andeq	r2, r4, #268435458	; 0x10000002
     330:	207cfb03 	rsbscs	pc, ip, r3, lsl #22
     334:	3d2f3d21 	stccc	13, cr3, [pc, #-132]!	; 2b8 <BIT9+0xb8>
     338:	2123262f 			; <UNDEFINED> instruction: 0x2123262f
     33c:	21212121 			; <UNDEFINED> instruction: 0x21212121
     340:	21252121 			; <UNDEFINED> instruction: 0x21252121
     344:	21212221 			; <UNDEFINED> instruction: 0x21212221
     348:	22212122 	eorcs	r2, r1, #-2147483640	; 0x80000008
     34c:	21222121 			; <UNDEFINED> instruction: 0x21222121
     350:	3d212421 	cfstrscc	mvf2, [r1, #-132]!	; 0xffffff7c
     354:	21212f3d 			; <UNDEFINED> instruction: 0x21212f3d
     358:	2f3d2321 	svccs	0x003d2321
     35c:	01042f3d 	tsteq	r4, sp, lsr pc
     360:	032e5503 			; <UNDEFINED> instruction: 0x032e5503
     364:	23032e3e 	movwcs	r2, #15934	; 0x3e3e
     368:	018a032e 	orreq	r0, sl, lr, lsr #6
     36c:	2e21032e 	cdpcs	3, 2, cr0, cr1, cr14, {1}
     370:	02043636 	andeq	r3, r4, #56623104	; 0x3600000
     374:	2e7e9603 	cdpcs	6, 7, cr9, cr14, cr3, {0}
     378:	21212122 			; <UNDEFINED> instruction: 0x21212122
     37c:	21222121 			; <UNDEFINED> instruction: 0x21222121
     380:	21302130 	teqcs	r0, r0, lsr r1
     384:	22302130 	eorscs	r2, r0, #48, 2
     388:	23222121 			; <UNDEFINED> instruction: 0x23222121
     38c:	21212121 			; <UNDEFINED> instruction: 0x21212121
     390:	21212121 			; <UNDEFINED> instruction: 0x21212121
     394:	21212121 			; <UNDEFINED> instruction: 0x21212121
     398:	21214c24 			; <UNDEFINED> instruction: 0x21214c24
     39c:	222f2321 	eorcs	r2, pc, #-2080374784	; 0x84000000
     3a0:	25222121 	strcs	r2, [r2, #-289]!	; 0xfffffedf
     3a4:	22212125 	eorcs	r2, r1, #1073741833	; 0x40000009
     3a8:	252f3021 	strcs	r3, [pc, #-33]!	; 38f <BIT9+0x18f>
     3ac:	22212124 	eorcs	r2, r1, #36, 2
     3b0:	30213021 	eorcc	r3, r1, r1, lsr #32
     3b4:	2124252f 			; <UNDEFINED> instruction: 0x2124252f
     3b8:	30212221 	eorcc	r2, r1, r1, lsr #4
     3bc:	30213021 	eorcc	r3, r1, r1, lsr #32
     3c0:	2124252f 			; <UNDEFINED> instruction: 0x2124252f
     3c4:	30212221 	eorcc	r2, r1, r1, lsr #4
     3c8:	30213021 	eorcc	r3, r1, r1, lsr #32
     3cc:	032f3021 			; <UNDEFINED> instruction: 0x032f3021
     3d0:	03207eee 			; <UNDEFINED> instruction: 0x03207eee
     3d4:	242e019a 	strtcs	r0, [lr], #-410	; 0xfffffe66
     3d8:	21212121 			; <UNDEFINED> instruction: 0x21212121
     3dc:	2723212f 	strcs	r2, [r3, -pc, lsr #2]!
     3e0:	21212124 			; <UNDEFINED> instruction: 0x21212124
     3e4:	23212f21 			; <UNDEFINED> instruction: 0x23212f21
     3e8:	21212426 			; <UNDEFINED> instruction: 0x21212426
     3ec:	212f2121 			; <UNDEFINED> instruction: 0x212f2121
     3f0:	200b0323 	andcs	r0, fp, r3, lsr #6
     3f4:	21212122 			; <UNDEFINED> instruction: 0x21212122
     3f8:	21212122 			; <UNDEFINED> instruction: 0x21212122
     3fc:	21232121 			; <UNDEFINED> instruction: 0x21232121
     400:	2f212f23 	svccs	0x00212f23
     404:	26302121 	ldrtcs	r2, [r0], -r1, lsr #2
     408:	21212122 			; <UNDEFINED> instruction: 0x21212122
     40c:	21212221 			; <UNDEFINED> instruction: 0x21212221
     410:	21212121 			; <UNDEFINED> instruction: 0x21212121
     414:	2f242121 	svccs	0x00242121
     418:	21212f21 			; <UNDEFINED> instruction: 0x21212f21
     41c:	2f222530 	svccs	0x00222530
     420:	25212f2f 	strcs	r2, [r1, #-3887]!	; 0xfffff0d1
     424:	21212121 			; <UNDEFINED> instruction: 0x21212121
     428:	23212122 			; <UNDEFINED> instruction: 0x23212122
     42c:	7303304b 	movwvc	r3, #12363	; 0x304b
     430:	03030420 	movweq	r0, #13344	; 0x3420
     434:	21827d96 			; <UNDEFINED> instruction: 0x21827d96
     438:	2121212f 			; <UNDEFINED> instruction: 0x2121212f
     43c:	7a2f2f21 	bvc	bcc0c8 <BIT23+0x3cc0c8>
     440:	21212121 			; <UNDEFINED> instruction: 0x21212121
     444:	217a2f2f 	cmncs	sl, pc, lsr #30
     448:	212f2121 			; <UNDEFINED> instruction: 0x212f2121
     44c:	22232121 	eorcs	r2, r3, #1073741832	; 0x40000008
     450:	21212130 			; <UNDEFINED> instruction: 0x21212130
     454:	21212122 			; <UNDEFINED> instruction: 0x21212122
     458:	21212122 			; <UNDEFINED> instruction: 0x21212122
     45c:	21212122 			; <UNDEFINED> instruction: 0x21212122
     460:	21217a22 			; <UNDEFINED> instruction: 0x21217a22
     464:	2f212221 	svccs	0x00212221
     468:	792f2f2f 	stmdbvc	pc!, {r0, r1, r2, r3, r5, r8, r9, sl, fp, sp}	; <UNPREDICTABLE>
     46c:	21212f21 			; <UNDEFINED> instruction: 0x21212f21
     470:	21217921 			; <UNDEFINED> instruction: 0x21217921
     474:	21212f21 			; <UNDEFINED> instruction: 0x21212f21
     478:	21212121 			; <UNDEFINED> instruction: 0x21212121
     47c:	2221217a 	eorcs	r2, r1, #-2147483618	; 0x8000001e
     480:	21222121 			; <UNDEFINED> instruction: 0x21222121
     484:	7a222121 	bvc	888910 <BIT23+0x88910>
     488:	21222121 			; <UNDEFINED> instruction: 0x21222121
     48c:	21212221 			; <UNDEFINED> instruction: 0x21212221
     490:	0f032221 	svceq	0x00032221
     494:	21212166 			; <UNDEFINED> instruction: 0x21212166
     498:	2f212121 	svccs	0x00212121
     49c:	6c2f2f2f 	stcvs	15, cr2, [pc], #-188	; 3e8 <BIT9+0x1e8>
     4a0:	2121212f 			; <UNDEFINED> instruction: 0x2121212f
     4a4:	2f212121 	svccs	0x00212121
     4a8:	6b2f2f2f 	blvs	bcc16c <BIT23+0x3cc16c>
     4ac:	212f212f 			; <UNDEFINED> instruction: 0x212f212f
     4b0:	4b2f2121 	blmi	bc893c <BIT23+0x3c893c>
     4b4:	21872f2f 	orrcs	r2, r7, pc, lsr #30
     4b8:	4b2f2121 	blmi	bc8944 <BIT23+0x3c8944>
     4bc:	660b032f 	strvs	r0, [fp], -pc, lsr #6
     4c0:	21212121 			; <UNDEFINED> instruction: 0x21212121
     4c4:	216b2121 	cmncs	fp, r1, lsr #2
     4c8:	21212121 			; <UNDEFINED> instruction: 0x21212121
     4cc:	21212179 			; <UNDEFINED> instruction: 0x21212179
     4d0:	79212121 	stmdbvc	r1!, {r0, r5, r8, sp}
     4d4:	21212121 			; <UNDEFINED> instruction: 0x21212121
     4d8:	2f302122 	svccs	0x00302122
     4dc:	302f2f30 	eorcc	r2, pc, r0, lsr pc	; <UNPREDICTABLE>
     4e0:	4b2f303d 	blmi	bcc5dc <BIT23+0x3cc5dc>
     4e4:	21217a2f 			; <UNDEFINED> instruction: 0x21217a2f
     4e8:	21820e03 	orrcs	r0, r2, r3, lsl #28
     4ec:	21212121 			; <UNDEFINED> instruction: 0x21212121
     4f0:	216b2121 	cmncs	fp, r1, lsr #2
     4f4:	21222121 			; <UNDEFINED> instruction: 0x21222121
     4f8:	2f212221 	svccs	0x00212221
     4fc:	2f2f2f2f 	svccs	0x002f2f2f
     500:	2f2f2f2f 	svccs	0x002f2f2f
     504:	6b2f4b2f 	blvs	bd31c8 <BIT23+0x3d31c8>
     508:	21212121 			; <UNDEFINED> instruction: 0x21212121
     50c:	2f212221 	svccs	0x00212221
     510:	2f2f2f2f 	svccs	0x002f2f2f
     514:	2f2f2f2f 	svccs	0x002f2f2f
     518:	6b2f4b2f 	blvs	bd31dc <BIT23+0x3d31dc>
     51c:	2121212f 			; <UNDEFINED> instruction: 0x2121212f
     520:	2f4b2f2f 	svccs	0x004b2f2f
     524:	21662003 	cmncs	r6, r3
     528:	2f22212f 	svccs	0x0022212f
     52c:	2f2f2132 	svccs	0x002f2132
     530:	21222132 			; <UNDEFINED> instruction: 0x21222132
     534:	2f302f31 	svccs	0x00302f31
     538:	2f30222f 	svccs	0x0030222f
     53c:	2f30222f 	svccs	0x0030222f
     540:	21661e03 	cmncs	r6, r3, lsl #28
     544:	2f22212f 	svccs	0x0022212f
     548:	6610032f 	ldrvs	r0, [r0], -pc, lsr #6
     54c:	24212124 	strtcs	r2, [r1], #-292	; 0xfffffedc
     550:	22212121 	eorcs	r2, r1, #1073741832	; 0x40000008
     554:	21212121 			; <UNDEFINED> instruction: 0x21212121
     558:	21212221 			; <UNDEFINED> instruction: 0x21212221
     55c:	21222121 			; <UNDEFINED> instruction: 0x21222121
     560:	21222121 			; <UNDEFINED> instruction: 0x21222121
     564:	740c0322 	strvc	r0, [ip], #-802	; 0xfffffcde
     568:	212f2321 			; <UNDEFINED> instruction: 0x212f2321
     56c:	2f30212f 	svccs	0x0030212f
     570:	2f212f32 	svccs	0x00212f32
     574:	222f2121 	eorcs	r2, pc, #1073741832	; 0x40000008
     578:	212f322f 			; <UNDEFINED> instruction: 0x212f322f
     57c:	2f21222f 	svccs	0x0021222f
     580:	22212123 	eorcs	r2, r1, #-1073741816	; 0xc0000008
     584:	24212121 	strtcs	r2, [r1], #-289	; 0xfffffedf
     588:	222f212f 	eorcs	r2, pc, #-1073741813	; 0xc000000b
     58c:	21232f21 			; <UNDEFINED> instruction: 0x21232f21
     590:	21212221 			; <UNDEFINED> instruction: 0x21212221
     594:	21212321 			; <UNDEFINED> instruction: 0x21212321
     598:	216d2221 	cmncs	sp, r1, lsr #4
     59c:	2f3d2f2f 	svccs	0x003d2f2f
     5a0:	2f217a21 	svccs	0x00217a21
     5a4:	6d2f3d2f 	stcvs	13, cr3, [pc, #-188]!	; 4f0 <BIT10+0xf0>
     5a8:	3d2f2f21 	stccc	15, cr2, [pc, #-132]!	; 52c <BIT10+0x12c>
     5ac:	2188212f 	orrcs	r2, r8, pc, lsr #2
     5b0:	2f3d2f2f 	svccs	0x003d2f2f
     5b4:	2f3d2189 	svccs	0x003d2189
     5b8:	217b2121 	cmncs	fp, r1, lsr #2
     5bc:	212f212f 			; <UNDEFINED> instruction: 0x212f212f
     5c0:	82250321 	eorhi	r0, r5, #-2080374784	; 0x84000000
     5c4:	21200903 			; <UNDEFINED> instruction: 0x21200903
     5c8:	21262121 			; <UNDEFINED> instruction: 0x21262121
     5cc:	21bb2223 			; <UNDEFINED> instruction: 0x21bb2223
     5d0:	21212123 			; <UNDEFINED> instruction: 0x21212123
     5d4:	22282122 	eorcs	r2, r8, #-2147483640	; 0x80000008
     5d8:	22212121 	eorcs	r2, r1, #1073741832	; 0x40000008
     5dc:	21740903 	cmncs	r4, r3, lsl #18
     5e0:	2f2f2221 	svccs	0x002f2221
     5e4:	2f2f2221 	svccs	0x002f2221
     5e8:	2f2f2f30 	svccs	0x002f2f30
     5ec:	2f2f2f23 	svccs	0x002f2f23
     5f0:	22212f23 	eorcs	r2, r1, #35, 30	; 0x8c
     5f4:	2f30302f 	svccs	0x0030302f
     5f8:	232f2f2f 			; <UNDEFINED> instruction: 0x232f2f2f
     5fc:	216b2f2f 	cmncs	fp, pc, lsr #30
     600:	0d032f2f 	stceq	15, cr2, [r3, #-188]	; 0xffffff44
     604:	22212166 	eorcs	r2, r1, #-2147483623	; 0x80000019
     608:	23212f2f 			; <UNDEFINED> instruction: 0x23212f2f
     60c:	21213031 			; <UNDEFINED> instruction: 0x21213031
     610:	212f2322 			; <UNDEFINED> instruction: 0x212f2322
     614:	21303122 	teqcs	r0, r2, lsr #2
     618:	6d2f2221 	sfmvs	f2, 4, [pc, #-132]!	; 59c <BIT10+0x19c>
     61c:	2f222121 	svccs	0x00222121
     620:	2f23212f 	svccs	0x0023212f
     624:	232f2f2f 			; <UNDEFINED> instruction: 0x232f2f2f
     628:	2f23212f 	svccs	0x0023212f
     62c:	2f2f2f2f 	svccs	0x002f2f2f
     630:	21660a03 	cmncs	r6, r3, lsl #20
     634:	22212121 	eorcs	r2, r1, #1073741832	; 0x40000008
     638:	21213021 			; <UNDEFINED> instruction: 0x21213021
     63c:	212f3122 			; <UNDEFINED> instruction: 0x212f3122
     640:	4b222122 	blmi	888ad0 <BIT23+0x88ad0>
     644:	2121232f 			; <UNDEFINED> instruction: 0x2121232f
     648:	21216b2f 			; <UNDEFINED> instruction: 0x21216b2f
     64c:	21222121 			; <UNDEFINED> instruction: 0x21222121
     650:	23212130 			; <UNDEFINED> instruction: 0x23212130
     654:	2f2f304b 	svccs	0x002f304b
     658:	21212123 			; <UNDEFINED> instruction: 0x21212123
     65c:	032f2f30 			; <UNDEFINED> instruction: 0x032f2f30
     660:	2121660c 			; <UNDEFINED> instruction: 0x2121660c
     664:	216c2122 	cmncs	ip, r2, lsr #2
     668:	6d212221 	sfmvs	f2, 4, [r1, #-132]!	; 0xffffff7c
     66c:	21222121 			; <UNDEFINED> instruction: 0x21222121
     670:	21216c21 			; <UNDEFINED> instruction: 0x21216c21
     674:	22212122 	eorcs	r2, r1, #-2147483640	; 0x80000008
     678:	216b2121 	cmncs	fp, r1, lsr #2
     67c:	2f212221 	svccs	0x00212221
     680:	21216b2f 			; <UNDEFINED> instruction: 0x21216b2f
     684:	21222121 			; <UNDEFINED> instruction: 0x21222121
     688:	6b2f2f4b 	blvs	bcc3bc <BIT23+0x3cc3bc>
     68c:	22212122 	eorcs	r2, r1, #-2147483640	; 0x80000008
     690:	22222121 	eorcs	r2, r2, #1073741832	; 0x40000008
     694:	6b2f2f21 	blvs	bcc320 <BIT23+0x3cc320>
     698:	22212122 	eorcs	r2, r1, #-2147483640	; 0x80000008
     69c:	21222221 			; <UNDEFINED> instruction: 0x21222221
     6a0:	21232f2f 			; <UNDEFINED> instruction: 0x21232f2f
     6a4:	2f2f2f2f 	svccs	0x002f2f2f
     6a8:	b0032f2f 	andlt	r2, r3, pc, lsr #30
     6ac:	c603207a 			; <UNDEFINED> instruction: 0xc603207a
     6b0:	04042e00 	streq	r2, [r4], #-3584	; 0xfffff200
     6b4:	747ca503 	ldrbtvc	sl, [ip], #-1283	; 0xfffffafd
     6b8:	216b212f 	cmncs	fp, pc, lsr #2
     6bc:	212f6b21 			; <UNDEFINED> instruction: 0x212f6b21
     6c0:	6d21216b 	stfvss	f2, [r1, #-428]!	; 0xfffffe54
     6c4:	3021232f 	eorcc	r2, r1, pc, lsr #6
     6c8:	21302221 	teqcs	r0, r1, lsr #4
     6cc:	23217a22 			; <UNDEFINED> instruction: 0x23217a22
     6d0:	22212125 	eorcs	r2, r1, #1073741833	; 0x40000009
     6d4:	2f232f4b 	svccs	0x00232f4b
     6d8:	2f212179 	svccs	0x00212179
     6dc:	21212179 			; <UNDEFINED> instruction: 0x21212179
     6e0:	21312223 	teqcs	r1, r3, lsr #4
     6e4:	21222121 			; <UNDEFINED> instruction: 0x21222121
     6e8:	6b222121 	blvs	888b74 <BIT23+0x88b74>
     6ec:	0a032321 	beq	c9378 <BIT19+0x49378>
     6f0:	21213020 			; <UNDEFINED> instruction: 0x21213020
     6f4:	4b242f22 	blmi	90c384 <BIT23+0x10c384>
     6f8:	212f792f 			; <UNDEFINED> instruction: 0x212f792f
     6fc:	21302223 	teqcs	r0, r3, lsr #4
     700:	22213022 	eorcs	r3, r1, #34	; 0x22
     704:	2121217b 			; <UNDEFINED> instruction: 0x2121217b
     708:	2f212221 	svccs	0x00212221
     70c:	216c2f2f 	cmncs	ip, pc, lsr #30
     710:	21212121 			; <UNDEFINED> instruction: 0x21212121
     714:	21352123 	teqcs	r5, r3, lsr #2
     718:	21212221 			; <UNDEFINED> instruction: 0x21212221
     71c:	22212122 	eorcs	r2, r1, #-2147483640	; 0x80000008
     720:	7a212121 	bvc	848bac <BIT23+0x48bac>
     724:	21212121 			; <UNDEFINED> instruction: 0x21212121
     728:	2f212321 	svccs	0x00212321
     72c:	740a032f 	strvc	r0, [sl], #-815	; 0xfffffcd1
     730:	21217c2f 			; <UNDEFINED> instruction: 0x21217c2f
     734:	2f87212f 	svccs	0x0087212f
     738:	21212121 			; <UNDEFINED> instruction: 0x21212121
     73c:	2321216d 			; <UNDEFINED> instruction: 0x2321216d
     740:	302f2f21 	eorcc	r2, pc, r1, lsr #30
     744:	2221214c 	eorcs	r2, r1, #76, 2
     748:	2f6b2f2f 	svccs	0x006b2f2f
     74c:	2f212321 	svccs	0x00212321
     750:	4c222f2f 	stcmi	15, cr2, [r2], #-188	; 0xffffff44
     754:	2f222121 	svccs	0x00222121
     758:	21212f6b 			; <UNDEFINED> instruction: 0x21212f6b
     75c:	792f2f21 	stmdbvc	pc!, {r0, r5, r8, r9, sl, fp, sp}	; <UNPREDICTABLE>
     760:	2f212121 	svccs	0x00212121
     764:	21792f4b 	cmncs	r9, fp, asr #30
     768:	a4032121 	strge	r2, [r3], #-289	; 0xfffffedf
     76c:	0b03207f 	bleq	c8970 <BIT19+0x48970>
     770:	0305042e 	movweq	r0, #21550	; 0x542e
     774:	21827dfc 	strdcs	r7, [r2, ip]
     778:	21222121 			; <UNDEFINED> instruction: 0x21222121
     77c:	22201503 	eorcs	r1, r0, #12582912	; 0xc00000
     780:	22212121 	eorcs	r2, r1, #1073741832	; 0x40000008
     784:	21232221 			; <UNDEFINED> instruction: 0x21232221
     788:	21740903 	cmncs	r4, r3, lsl #18
     78c:	27252121 	strcs	r2, [r5, -r1, lsr #2]!
     790:	21212123 			; <UNDEFINED> instruction: 0x21212123
     794:	21232321 			; <UNDEFINED> instruction: 0x21232321
     798:	b1030604 	tstlt	r3, r4, lsl #12
     79c:	2121667f 			; <UNDEFINED> instruction: 0x2121667f
     7a0:	216b4b22 	cmncs	fp, r2, lsr #22
     7a4:	4b222121 	blmi	888c30 <BIT23+0x88c30>
     7a8:	2321216c 			; <UNDEFINED> instruction: 0x2321216c
     7ac:	21216c4b 			; <UNDEFINED> instruction: 0x21216c4b
     7b0:	215d4b23 	cmpcs	sp, r3, lsr #22
     7b4:	034b2221 	movteq	r2, #45601	; 0xb221
     7b8:	222f661d 	eorcs	r6, pc, #30408704	; 0x1d00000
     7bc:	212f2f21 			; <UNDEFINED> instruction: 0x212f2f21
     7c0:	3030212f 	eorscc	r2, r0, pc, lsr #2
     7c4:	2603302f 	strcs	r3, [r3], -pc, lsr #32
     7c8:	03212166 			; <UNDEFINED> instruction: 0x03212166
     7cc:	2121c80e 			; <UNDEFINED> instruction: 0x2121c80e
     7d0:	21e40e03 	mvncs	r0, r3, lsl #28
     7d4:	4b222121 	blmi	888c60 <BIT23+0x88c60>
     7d8:	21212188 	smlawbcs	r1, r8, r1, r2
     7dc:	4c4b2123 	stfmie	f2, [fp], {35}	; 0x23
     7e0:	21212130 			; <UNDEFINED> instruction: 0x21212130
     7e4:	21882121 	orrcs	r2, r8, r1, lsr #2
     7e8:	21232121 			; <UNDEFINED> instruction: 0x21232121
     7ec:	21884b4b 	orrcs	r4, r8, fp, asr #22
     7f0:	21232121 			; <UNDEFINED> instruction: 0x21232121
     7f4:	21303e4b 	teqcs	r0, fp, asr #28
     7f8:	2f212221 	svccs	0x00212221
     7fc:	30212323 	eorcc	r2, r1, r3, lsr #6
     800:	23212121 			; <UNDEFINED> instruction: 0x23212121
     804:	22212221 	eorcs	r2, r1, #268435458	; 0x10000002
     808:	2f232121 	svccs	0x00232121
     80c:	21232f22 			; <UNDEFINED> instruction: 0x21232f22
     810:	21214b30 			; <UNDEFINED> instruction: 0x21214b30
     814:	0307042f 	movweq	r0, #29743	; 0x742f
     818:	22207def 	eorcs	r7, r0, #15296	; 0x3bc0
     81c:	0323252f 			; <UNDEFINED> instruction: 0x0323252f
     820:	21212e09 			; <UNDEFINED> instruction: 0x21212e09
     824:	21213421 			; <UNDEFINED> instruction: 0x21213421
     828:	21313421 	teqcs	r1, r1, lsr #8
     82c:	212f2221 			; <UNDEFINED> instruction: 0x212f2221
     830:	2121222f 			; <UNDEFINED> instruction: 0x2121222f
     834:	21212f25 			; <UNDEFINED> instruction: 0x21212f25
     838:	21212f23 			; <UNDEFINED> instruction: 0x21212f23
     83c:	212f2421 			; <UNDEFINED> instruction: 0x212f2421
     840:	212f2321 			; <UNDEFINED> instruction: 0x212f2321
     844:	30262122 	eorcc	r2, r6, r2, lsr #2
     848:	21242130 			; <UNDEFINED> instruction: 0x21242130
     84c:	252f3022 	strcs	r3, [pc, #-34]!	; 832 <BIT11+0x32>
     850:	31222225 			; <UNDEFINED> instruction: 0x31222225
     854:	2f2f3031 	svccs	0x002f3031
     858:	042f3022 	strteq	r3, [pc], #-34	; 860 <BIT11+0x60>
     85c:	20510306 	subscs	r0, r1, r6, lsl #6
     860:	66030704 	strvs	r0, [r3], -r4, lsl #14
     864:	3635352e 	ldrtcc	r3, [r5], -lr, lsr #10
     868:	b1030804 	tstlt	r3, r4, lsl #16
     86c:	2121747f 			; <UNDEFINED> instruction: 0x2121747f
     870:	2f2f2123 	svccs	0x002f2123
     874:	6b212f30 	blvs	84c53c <BIT23+0x4c53c>
     878:	23212121 			; <UNDEFINED> instruction: 0x23212121
     87c:	302f2f21 	eorcc	r2, pc, r1, lsr #30
     880:	216b212f 	cmncs	fp, pc, lsr #2
     884:	4b302123 	blmi	c08d18 <BIT23+0x408d18>
     888:	7c212f30 	stcvc	15, cr2, [r1], #-192	; 0xffffff40
     88c:	79212130 	stmdbvc	r1!, {r4, r5, r8, sp}
     890:	216b212f 	cmncs	fp, pc, lsr #2
     894:	22212121 	eorcs	r2, r1, #1073741832	; 0x40000008
     898:	216b4b4b 	cmncs	fp, fp, asr #22
     89c:	22212121 	eorcs	r2, r1, #1073741832	; 0x40000008
     8a0:	215e4b4b 	cmpcs	lr, fp, asr #22
     8a4:	22212121 	eorcs	r2, r1, #1073741832	; 0x40000008
     8a8:	215e4b4b 	cmpcs	lr, fp, asr #22
     8ac:	22212121 	eorcs	r2, r1, #1073741832	; 0x40000008
     8b0:	216b4b4b 	cmncs	fp, fp, asr #22
     8b4:	22212121 	eorcs	r2, r1, #1073741832	; 0x40000008
     8b8:	216b4b4b 	cmncs	fp, fp, asr #22
     8bc:	22212121 	eorcs	r2, r1, #1073741832	; 0x40000008
     8c0:	216b4b4b 	cmncs	fp, fp, asr #22
     8c4:	4b222121 	blmi	888d50 <BIT23+0x88d50>
     8c8:	21216b4b 			; <UNDEFINED> instruction: 0x21216b4b
     8cc:	4b4b2221 	blmi	12c9158 <BIT24+0x2c9158>
     8d0:	2122216c 			; <UNDEFINED> instruction: 0x2122216c
     8d4:	4b222121 	blmi	888d60 <BIT23+0x88d60>
     8d8:	22215e2f 	eorcs	r5, r1, #752	; 0x2f0
     8dc:	4b222121 	blmi	888d68 <BIT23+0x88d68>
     8e0:	3321272f 			; <UNDEFINED> instruction: 0x3321272f
     8e4:	302f2f2f 	eorcc	r2, pc, pc, lsr #30
     8e8:	0b032126 	bleq	c8d88 <BIT19+0x48d88>
     8ec:	312f2f2e 			; <UNDEFINED> instruction: 0x312f2f2e
     8f0:	2f212121 	svccs	0x00212121
     8f4:	2124233d 			; <UNDEFINED> instruction: 0x2124233d
     8f8:	21212121 			; <UNDEFINED> instruction: 0x21212121
     8fc:	21214b22 			; <UNDEFINED> instruction: 0x21214b22
     900:	212f2721 			; <UNDEFINED> instruction: 0x212f2721
     904:	2121222f 			; <UNDEFINED> instruction: 0x2121222f
     908:	21212f24 			; <UNDEFINED> instruction: 0x21212f24
     90c:	272f2f21 	strcs	r2, [pc, -r1, lsr #30]!
     910:	21244d31 			; <UNDEFINED> instruction: 0x21244d31
     914:	322f3222 	eorcc	r3, pc, #536870914	; 0x20000002
     918:	22252121 	eorcs	r2, r5, #1073741832	; 0x40000008
     91c:	22212121 	eorcs	r2, r1, #1073741832	; 0x40000008
     920:	2821212f 	stmdacs	r1!, {r0, r1, r2, r3, r5, r8, sp}
     924:	21222124 			; <UNDEFINED> instruction: 0x21222124
     928:	222f2f24 	eorcs	r2, pc, #36, 30	; 0x90
     92c:	2f2f2121 	svccs	0x002f2121
     930:	2f212123 	svccs	0x00212123
     934:	22252f2f 	eorcs	r2, r5, #47, 30	; 0xbc
     938:	302f4b30 	eorcc	r4, pc, r0, lsr fp	; <UNPREDICTABLE>
     93c:	304b2f4b 	subcc	r2, fp, fp, asr #30
     940:	2f2f2123 	svccs	0x002f2123
     944:	2f212121 	svccs	0x00212121
     948:	21212223 			; <UNDEFINED> instruction: 0x21212223
     94c:	6c2f2121 	stfvss	f2, [pc], #-132	; 8d0 <BIT11+0xd0>
     950:	21212121 			; <UNDEFINED> instruction: 0x21212121
     954:	216c4b22 	cmncs	ip, r2, lsr #22
     958:	22212121 	eorcs	r2, r1, #1073741832	; 0x40000008
     95c:	2121794b 			; <UNDEFINED> instruction: 0x2121794b
     960:	4b222121 	blmi	888dec <BIT23+0x88dec>
     964:	21212179 			; <UNDEFINED> instruction: 0x21212179
     968:	214d2221 	cmpcs	sp, r1, lsr #4
     96c:	21212130 			; <UNDEFINED> instruction: 0x21212130
     970:	242f2121 	strtcs	r2, [pc], #-289	; 978 <BIT11+0x178>
     974:	21332121 	teqcs	r3, r1, lsr #2
     978:	2f312121 	svccs	0x00312121
     97c:	4b222332 	blmi	88964c <BIT23+0x8964c>
     980:	2f2f2121 	svccs	0x002f2121
     984:	3021214b 	eorcc	r2, r1, fp, asr #2
     988:	7ea0032f 	cdpvc	3, 10, cr0, cr0, cr15, {1}
     98c:	2e2b032e 	cdpcs	3, 2, cr0, cr11, cr14, {1}
     990:	b8030904 	stmdalt	r3, {r2, r8, fp}
     994:	2f22827d 	svccs	0x0022827d
     998:	21232132 			; <UNDEFINED> instruction: 0x21232132
     99c:	23212221 			; <UNDEFINED> instruction: 0x23212221
     9a0:	21212121 			; <UNDEFINED> instruction: 0x21212121
     9a4:	21212123 			; <UNDEFINED> instruction: 0x21212123
     9a8:	21222121 			; <UNDEFINED> instruction: 0x21222121
     9ac:	21312f7c 	teqcs	r1, ip, ror pc
     9b0:	22212122 	eorcs	r2, r1, #-2147483640	; 0x80000008
     9b4:	23215e21 			; <UNDEFINED> instruction: 0x23215e21
     9b8:	2131214d 	teqcs	r1, sp, asr #2
     9bc:	21232121 			; <UNDEFINED> instruction: 0x21232121
     9c0:	21222121 			; <UNDEFINED> instruction: 0x21222121
     9c4:	23213122 			; <UNDEFINED> instruction: 0x23213122
     9c8:	5e2f2130 	mcrpl	1, 1, r2, cr15, cr0, {1}
     9cc:	23212121 			; <UNDEFINED> instruction: 0x23212121
     9d0:	2131214d 	teqcs	r1, sp, asr #2
     9d4:	21232121 			; <UNDEFINED> instruction: 0x21232121
     9d8:	21222121 			; <UNDEFINED> instruction: 0x21222121
     9dc:	21232f22 			; <UNDEFINED> instruction: 0x21232f22
     9e0:	21212124 			; <UNDEFINED> instruction: 0x21212124
     9e4:	30213021 	eorcc	r3, r1, r1, lsr #32
     9e8:	216c2f2f 	cmncs	ip, pc, lsr #30
     9ec:	21212121 			; <UNDEFINED> instruction: 0x21212121
     9f0:	2f2f2122 	svccs	0x002f2122
     9f4:	2f2f2f2f 	svccs	0x002f2f2f
     9f8:	6611032f 	ldrvs	r0, [r1], -pc, lsr #6
     9fc:	2f212321 	svccs	0x00212321
     a00:	2121214d 			; <UNDEFINED> instruction: 0x2121214d
     a04:	21212123 			; <UNDEFINED> instruction: 0x21212123
     a08:	31222122 			; <UNDEFINED> instruction: 0x31222122
     a0c:	21302321 	teqcs	r0, r1, lsr #6
     a10:	21216c2f 			; <UNDEFINED> instruction: 0x21216c2f
     a14:	2f212321 	svccs	0x00212321
     a18:	2121214d 			; <UNDEFINED> instruction: 0x2121214d
     a1c:	21212123 			; <UNDEFINED> instruction: 0x21212123
     a20:	2f222122 	svccs	0x00222122
     a24:	21242123 			; <UNDEFINED> instruction: 0x21242123
     a28:	30212121 	eorcc	r2, r1, r1, lsr #2
     a2c:	2f2f3021 	svccs	0x002f3021
     a30:	2121216d 			; <UNDEFINED> instruction: 0x2121216d
     a34:	21222121 			; <UNDEFINED> instruction: 0x21222121
     a38:	2f2f2f2f 	svccs	0x002f2f2f
     a3c:	6d2f2f2f 	stcvs	15, cr2, [pc, #-188]!	; 988 <BIT11+0x188>
     a40:	2f212321 	svccs	0x00212321
     a44:	2121214d 			; <UNDEFINED> instruction: 0x2121214d
     a48:	21212123 			; <UNDEFINED> instruction: 0x21212123
     a4c:	31222122 			; <UNDEFINED> instruction: 0x31222122
     a50:	21302321 	teqcs	r0, r1, lsr #6
     a54:	21216c2f 			; <UNDEFINED> instruction: 0x21216c2f
     a58:	2f212321 	svccs	0x00212321
     a5c:	2121214d 			; <UNDEFINED> instruction: 0x2121214d
     a60:	21212123 			; <UNDEFINED> instruction: 0x21212123
     a64:	2f222122 	svccs	0x00222122
     a68:	21242123 			; <UNDEFINED> instruction: 0x21242123
     a6c:	30212121 	eorcc	r2, r1, r1, lsr #2
     a70:	2f2f3021 	svccs	0x002f3021
     a74:	2121216c 			; <UNDEFINED> instruction: 0x2121216c
     a78:	21222121 			; <UNDEFINED> instruction: 0x21222121
     a7c:	2f2f2f2f 	svccs	0x002f2f2f
     a80:	7c2f2f2f 	stcvc	15, cr2, [pc], #-188	; 9cc <BIT11+0x1cc>
     a84:	21212121 			; <UNDEFINED> instruction: 0x21212121
     a88:	4b212221 	blmi	849314 <BIT23+0x49314>
     a8c:	2121217a 			; <UNDEFINED> instruction: 0x2121217a
     a90:	21222121 			; <UNDEFINED> instruction: 0x21222121
     a94:	2f2f2f2f 	svccs	0x002f2f2f
     a98:	2f2f2f4b 	svccs	0x002f2f4b
     a9c:	2121217a 			; <UNDEFINED> instruction: 0x2121217a
     aa0:	21222121 			; <UNDEFINED> instruction: 0x21222121
     aa4:	2f2f2f4c 	svccs	0x002f2f4c
     aa8:	2f2f2f30 	svccs	0x002f2f30
     aac:	2821217a 	stmdacs	r1!, {r1, r3, r4, r5, r6, r8, sp}
     ab0:	21232f21 			; <UNDEFINED> instruction: 0x21232f21
     ab4:	2f4b302f 	svccs	0x004b302f
     ab8:	21217a2f 			; <UNDEFINED> instruction: 0x21217a2f
     abc:	22212121 	eorcs	r2, r1, #1073741832	; 0x40000008
     ac0:	217a4b21 	cmncs	sl, r1, lsr #22
     ac4:	21212121 			; <UNDEFINED> instruction: 0x21212121
     ac8:	2f2f2122 	svccs	0x002f2122
     acc:	2f4b2f2f 	svccs	0x004b2f2f
     ad0:	217a2f2f 	cmncs	sl, pc, lsr #30
     ad4:	21212121 			; <UNDEFINED> instruction: 0x21212121
     ad8:	2f4c2122 	svccs	0x004c2122
     adc:	2f302f2f 	svccs	0x00302f2f
     ae0:	217a2f2f 	cmncs	sl, pc, lsr #30
     ae4:	2f212821 	svccs	0x00212821
     ae8:	2f2f2123 	svccs	0x002f2123
     aec:	2121217a 			; <UNDEFINED> instruction: 0x2121217a
     af0:	21222121 			; <UNDEFINED> instruction: 0x21222121
     af4:	21217a4b 			; <UNDEFINED> instruction: 0x21217a4b
     af8:	22212121 	eorcs	r2, r1, #1073741832	; 0x40000008
     afc:	2f2f2f21 	svccs	0x002f2f21
     b00:	2f2f4b2f 	svccs	0x002f4b2f
     b04:	21217a2f 			; <UNDEFINED> instruction: 0x21217a2f
     b08:	22212121 	eorcs	r2, r1, #1073741832	; 0x40000008
     b0c:	2f2f4c21 	svccs	0x002f4c21
     b10:	2f2f302f 	svccs	0x002f302f
     b14:	21217a2f 			; <UNDEFINED> instruction: 0x21217a2f
     b18:	232f2128 			; <UNDEFINED> instruction: 0x232f2128
     b1c:	042f2f21 	strteq	r2, [pc], #-3873	; b24 <BIT11+0x324>
     b20:	7af9030a 	bvc	ffe41750 <erasedword+0xffe41751>
     b24:	21212120 			; <UNDEFINED> instruction: 0x21212120
     b28:	21222121 			; <UNDEFINED> instruction: 0x21222121
     b2c:	23212121 			; <UNDEFINED> instruction: 0x23212121
     b30:	2f212122 	svccs	0x00212122
     b34:	22212f21 	eorcs	r2, r1, #33, 30	; 0x84
     b38:	222f2121 	eorcs	r2, pc, #1073741832	; 0x40000008
     b3c:	212f2121 			; <UNDEFINED> instruction: 0x212f2121
     b40:	21232621 			; <UNDEFINED> instruction: 0x21232621
     b44:	22212121 	eorcs	r2, r1, #1073741832	; 0x40000008
     b48:	232f2121 			; <UNDEFINED> instruction: 0x232f2121
     b4c:	2321212f 			; <UNDEFINED> instruction: 0x2321212f
     b50:	222f2121 	eorcs	r2, pc, #1073741832	; 0x40000008
     b54:	2f21312f 	svccs	0x0021312f
     b58:	22212f2f 	eorcs	r2, r1, #47, 30	; 0xbc
     b5c:	032f302f 			; <UNDEFINED> instruction: 0x032f302f
     b60:	2121200a 			; <UNDEFINED> instruction: 0x2121200a
     b64:	2121232f 			; <UNDEFINED> instruction: 0x2121232f
     b68:	2121232f 			; <UNDEFINED> instruction: 0x2121232f
     b6c:	2f140822 	svccs	0x00140822
     b70:	15082f21 	strne	r2, [r8, #-3873]	; 0xfffff0df
     b74:	2121b208 			; <UNDEFINED> instruction: 0x2121b208
     b78:	5b082121 	blpl	209004 <BIT21+0x9004>
     b7c:	21222121 			; <UNDEFINED> instruction: 0x21222121
     b80:	21212221 			; <UNDEFINED> instruction: 0x21212221
     b84:	21212121 			; <UNDEFINED> instruction: 0x21212121
     b88:	21212121 			; <UNDEFINED> instruction: 0x21212121
     b8c:	21212121 			; <UNDEFINED> instruction: 0x21212121
     b90:	21212121 			; <UNDEFINED> instruction: 0x21212121
     b94:	22ce2f21 	sbccs	r2, lr, #33, 30	; 0x84
     b98:	22212121 	eorcs	r2, r1, #1073741832	; 0x40000008
     b9c:	21212121 			; <UNDEFINED> instruction: 0x21212121
     ba0:	312f9122 			; <UNDEFINED> instruction: 0x312f9122
     ba4:	2f21212f 	svccs	0x0021212f
     ba8:	40082f21 	andmi	r2, r8, r1, lsr #30
     bac:	2f2f2121 	svccs	0x002f2121
     bb0:	2f222121 	svccs	0x00222121
     bb4:	2f212123 	svccs	0x00212123
     bb8:	232f212f 			; <UNDEFINED> instruction: 0x232f212f
     bbc:	212f2121 			; <UNDEFINED> instruction: 0x212f2121
     bc0:	2192d82f 	orrscs	sp, r2, pc, lsr #16
     bc4:	229e1b03 	addscs	r1, lr, #3072	; 0xc00
     bc8:	30bce624 	adcscc	lr, ip, r4, lsr #12
     bcc:	3c7dfc03 	ldclcc	12, cr15, [sp], #-12
     bd0:	24033330 	strcs	r3, [r3], #-816	; 0xfffffcd0
     bd4:	31302f2e 	teqcc	r0, lr, lsr #30
     bd8:	2e00d903 	vmlacs.f16	s26, s0, s6	; <UNPREDICTABLE>
     bdc:	2e00f403 	cdpcs	4, 0, cr15, cr0, cr3, {0}
     be0:	f1030b04 			; <UNDEFINED> instruction: 0xf1030b04
     be4:	2f21ba7d 	svccs	0x0021ba7d
     be8:	21212122 			; <UNDEFINED> instruction: 0x21212122
     bec:	21228a22 			; <UNDEFINED> instruction: 0x21228a22
     bf0:	224b2122 	subcs	r2, fp, #-2147483640	; 0x80000008
     bf4:	7521212f 	strvc	r2, [r1, #-303]!	; 0xfffffed1
     bf8:	75213021 	strvc	r3, [r1, #-33]!	; 0xffffffdf
     bfc:	30212f22 	eorcc	r2, r1, r2, lsr #30
     c00:	2f30212f 	svccs	0x0030212f
     c04:	212f3021 			; <UNDEFINED> instruction: 0x212f3021
     c08:	30212f30 	eorcc	r2, r1, r0, lsr pc
     c0c:	2f30212f 	svccs	0x0030212f
     c10:	212f3021 			; <UNDEFINED> instruction: 0x212f3021
     c14:	224b2130 	subcs	r2, fp, #48, 2
     c18:	03222121 			; <UNDEFINED> instruction: 0x03222121
     c1c:	32248210 	eorcc	r8, r4, #16, 4
     c20:	40082121 	andmi	r2, r8, r1, lsr #2
     c24:	08222121 	stmdaeq	r2!, {r0, r5, r8, sp}
     c28:	22212218 	eorcs	r2, r1, #24, 4	; 0x80000001
     c2c:	24212221 	strtcs	r2, [r1], #-545	; 0xfffffddf
     c30:	21252121 			; <UNDEFINED> instruction: 0x21252121
     c34:	24222122 	strtcs	r2, [r2], #-290	; 0xfffffede
     c38:	08222121 	stmdaeq	r2!, {r0, r5, r8, sp}
     c3c:	21222152 			; <UNDEFINED> instruction: 0x21222152
     c40:	21212121 			; <UNDEFINED> instruction: 0x21212121
     c44:	03212121 			; <UNDEFINED> instruction: 0x03212121
     c48:	2121200a 			; <UNDEFINED> instruction: 0x2121200a
     c4c:	21232121 			; <UNDEFINED> instruction: 0x21232121
     c50:	25212321 	strcs	r2, [r1, #-801]!	; 0xfffffcdf
     c54:	312f2321 			; <UNDEFINED> instruction: 0x312f2321
     c58:	222122a5 	eorcs	r2, r1, #1342177290	; 0x5000000a
     c5c:	2f212121 	svccs	0x00212121
     c60:	22212130 	eorcs	r2, r1, #48, 2
     c64:	2f212f25 	svccs	0x00212f25
     c68:	2f212f21 	svccs	0x00212f21
     c6c:	2f212f21 	svccs	0x00212f21
     c70:	2f212f21 	svccs	0x00212f21
     c74:	21212f22 			; <UNDEFINED> instruction: 0x21212f22
     c78:	21212221 			; <UNDEFINED> instruction: 0x21212221
     c7c:	2e7dfe03 	cdpcs	14, 7, cr15, cr13, cr3, {0}
     c80:	2e00eb03 	vmlacs.f64	d14, d0, d3
     c84:	9a030c04 	bls	c3c9c <BIT19+0x43c9c>
     c88:	2121667f 			; <UNDEFINED> instruction: 0x2121667f
     c8c:	4c302124 	ldfmis	f2, [r0], #-144	; 0xffffff70
     c90:	214d222f 	cmpcs	sp, pc, lsr #4
     c94:	5e2f2121 	sufplep	f2, f7, f1
     c98:	21242121 			; <UNDEFINED> instruction: 0x21242121
     c9c:	222f4c30 	eorcs	r4, pc, #48, 24	; 0x3000
     ca0:	2121364e 			; <UNDEFINED> instruction: 0x2121364e
     ca4:	21212121 			; <UNDEFINED> instruction: 0x21212121
     ca8:	21302423 	teqcs	r0, r3, lsr #8
     cac:	30212121 	eorcc	r2, r1, r1, lsr #2
     cb0:	2f3d262f 	svccs	0x003d262f
     cb4:	23212122 			; <UNDEFINED> instruction: 0x23212122
     cb8:	22222221 	eorcs	r2, r2, #268435458	; 0x10000002
     cbc:	302f3031 	eorcc	r3, pc, r1, lsr r0	; <UNPREDICTABLE>
     cc0:	2623252f 	strtcs	r2, [r3], -pc, lsr #10
     cc4:	24212232 	strtcs	r2, [r1], #-562	; 0xfffffdce
     cc8:	30312421 	eorscc	r2, r1, r1, lsr #8
     ccc:	216d3021 	cmncs	sp, r1, lsr #32
     cd0:	216c4b23 	cmncs	ip, r3, lsr #22
     cd4:	216c4b22 	cmncs	ip, r2, lsr #22
     cd8:	216c4b22 	cmncs	ip, r2, lsr #22
     cdc:	21794b22 	cmncs	r9, r2, lsr #22
     ce0:	21874b22 	orrcs	r4, r7, r2, lsr #22
     ce4:	2f214d23 	svccs	0x00214d23
     ce8:	2f212121 	svccs	0x00212121
     cec:	216b2f21 	cmncs	fp, r1, lsr #30
     cf0:	216b4b23 	cmncs	fp, r3, lsr #22
     cf4:	216b4b22 	cmncs	fp, r2, lsr #22
     cf8:	22216b22 	eorcs	r6, r1, #34816	; 0x8800
     cfc:	2221793d 	eorcs	r7, r1, #999424	; 0xf4000
     d00:	22216c3d 	eorcs	r6, r1, #15616	; 0x3d00
     d04:	21216c4b 			; <UNDEFINED> instruction: 0x21216c4b
     d08:	30212221 	eorcc	r2, r1, r1, lsr #4
     d0c:	2121213d 			; <UNDEFINED> instruction: 0x2121213d
     d10:	4b30212f 	blmi	c091d4 <BIT23+0x4091d4>
     d14:	2c032f30 	stccs	15, cr2, [r3], {48}	; 0x30
     d18:	2f212174 	svccs	0x00212174
     d1c:	21212121 			; <UNDEFINED> instruction: 0x21212121
     d20:	21743b03 	cmncs	r4, r3, lsl #22
     d24:	21212f21 			; <UNDEFINED> instruction: 0x21212f21
     d28:	216d2121 	cmncs	sp, r1, lsr #2
     d2c:	1003212f 	andne	r2, r3, pc, lsr #2
     d30:	222f2158 	eorcs	r2, pc, #88, 2
     d34:	312f2f21 			; <UNDEFINED> instruction: 0x312f2f21
     d38:	2221222f 	eorcs	r2, r1, #-268435454	; 0xf0000002
     d3c:	30303021 	eorscc	r3, r0, r1, lsr #32
     d40:	217b2f2f 	cmncs	fp, pc, lsr #30
     d44:	11032121 	tstne	r3, r1, lsr #2
     d48:	a4212f74 	strtge	r2, [r1], #-3956	; 0xfffff08c
     d4c:	87212121 	strhi	r2, [r1, -r1, lsr #2]!
     d50:	6b212121 	blvs	8491dc <BIT23+0x491dc>
     d54:	03212121 			; <UNDEFINED> instruction: 0x03212121
     d58:	03207c86 			; <UNDEFINED> instruction: 0x03207c86
     d5c:	9b032e1b 	blls	cc5d0 <BIT19+0x4c5d0>
     d60:	2a032e03 	bcs	cc574 <BIT19+0x4c574>
     d64:	030d042e 	movweq	r0, #54318	; 0xd42e
     d68:	2f747cb4 	svccs	0x00747cb4
     d6c:	9009032f 	andls	r0, r9, pc, lsr #6
     d70:	21212f22 			; <UNDEFINED> instruction: 0x21212f22
     d74:	30219631 	eorcc	r9, r1, r1, lsr r6
     d78:	2221212f 	eorcs	r2, r1, #-1073741813	; 0xc000000b
     d7c:	22212121 	eorcs	r2, r1, #1073741832	; 0x40000008
     d80:	2f302196 	svccs	0x00302196
     d84:	21212121 			; <UNDEFINED> instruction: 0x21212121
     d88:	21212121 			; <UNDEFINED> instruction: 0x21212121
     d8c:	21308822 	teqcs	r0, r2, lsr #16
     d90:	22212121 	eorcs	r2, r1, #1073741832	; 0x40000008
     d94:	22212221 	eorcs	r2, r1, #268435458	; 0x10000002
     d98:	21212196 			; <UNDEFINED> instruction: 0x21212196
     d9c:	22212121 	eorcs	r2, r1, #1073741832	; 0x40000008
     da0:	2122222f 			; <UNDEFINED> instruction: 0x2122222f
     da4:	f5030e04 			; <UNDEFINED> instruction: 0xf5030e04
     da8:	0f04207e 	svceq	0x0004207e
     dac:	b3212f8e 			; <UNDEFINED> instruction: 0xb3212f8e
     db0:	2fc1212f 	svccs	0x00c1212f
     db4:	212fb321 			; <UNDEFINED> instruction: 0x212fb321
     db8:	97212fc1 	strls	r2, [r1, -r1, asr #31]!
     dbc:	6c2f2121 	stfvss	f2, [pc], #-132	; d40 <BIT11+0x540>
     dc0:	792f2121 	stmdbvc	pc!, {r0, r5, r8, sp}	; <UNPREDICTABLE>
     dc4:	21792121 	cmncs	r9, r1, lsr #2
     dc8:	21217a21 			; <UNDEFINED> instruction: 0x21217a21
     dcc:	0e042124 	adfeqsp	f2, f4, f4
     dd0:	9e7fb703 	cdpls	7, 7, cr11, cr15, cr3, {0}
     dd4:	04a4b2a4 	strteq	fp, [r4], #676	; 0x2a4
     dd8:	2064030f 	rsbcs	r0, r4, pc, lsl #6
     ddc:	032e0903 			; <UNDEFINED> instruction: 0x032e0903
     de0:	09032e09 	stmdbeq	r3, {r0, r3, r9, sl, fp, sp}
     de4:	2e09032e 	cdpcs	3, 0, cr0, cr9, cr14, {1}
     de8:	5a031004 	bpl	c4e00 <BIT19+0x44e00>
     dec:	21212190 			; <UNDEFINED> instruction: 0x21212190
     df0:	212f2121 			; <UNDEFINED> instruction: 0x212f2121
     df4:	03882121 	orreq	r2, r8, #1073741832	; 0x40000008
     df8:	21212009 			; <UNDEFINED> instruction: 0x21212009
     dfc:	21302f23 	teqcs	r0, r3, lsr #30
     e00:	21242122 			; <UNDEFINED> instruction: 0x21242122
     e04:	21212122 			; <UNDEFINED> instruction: 0x21212122
     e08:	21222122 			; <UNDEFINED> instruction: 0x21222122
     e0c:	4a1a0322 	bmi	681a9c <BIT22+0x281a9c>
     e10:	25212421 	strcs	r2, [r1, #-1057]!	; 0xfffffbdf
     e14:	21282121 			; <UNDEFINED> instruction: 0x21282121
     e18:	24242121 	strtcs	r2, [r4], #-289	; 0xfffffedf
     e1c:	2f3d2221 	svccs	0x003d2221
     e20:	21232121 			; <UNDEFINED> instruction: 0x21232121
     e24:	212f6c2f 			; <UNDEFINED> instruction: 0x212f6c2f
     e28:	dd212f6c 	stcle	15, cr2, [r1, #-432]!	; 0xfffffe50
     e2c:	0903212f 	stmdbeq	r3, {r0, r1, r2, r3, r5, r8, sp}
     e30:	212121c8 	smlawtcs	r1, r8, r1, r2
     e34:	2f882121 	svccs	0x00882121
     e38:	21212122 			; <UNDEFINED> instruction: 0x21212122
     e3c:	21227a21 			; <UNDEFINED> instruction: 0x21227a21
     e40:	2f2f2221 	svccs	0x002f2221
     e44:	03302f3d 	teqeq	r0, #61, 30	; 0xf4
     e48:	03362e41 	teqeq	r6, #1040	; 0x410
     e4c:	11042e09 	tstne	r4, r9, lsl #28
     e50:	907f8d03 	rsbsls	r8, pc, r3, lsl #26
     e54:	22212f22 	eorcs	r2, r1, #34, 30	; 0x88
     e58:	22212423 	eorcs	r2, r1, #587202560	; 0x23000000
     e5c:	59232121 	stmdbpl	r3!, {r0, r5, r8, sp}
     e60:	2123215a 			; <UNDEFINED> instruction: 0x2123215a
     e64:	6b212123 	blvs	8492f8 <BIT23+0x492f8>
     e68:	3d6b3d21 	stclcc	13, cr3, [fp, #-132]!	; 0xffffff7c
     e6c:	21873d7a 	orrcs	r3, r7, sl, ror sp
     e70:	212f2221 			; <UNDEFINED> instruction: 0x212f2221
     e74:	7a882122 	bvc	fe209304 <erasedword+0xfe209305>
     e78:	21212f21 			; <UNDEFINED> instruction: 0x21212f21
     e7c:	3e5d3d5d 	mrccc	13, 2, r3, cr13, cr13, {2}
     e80:	6b2f2f21 	blvs	bccb0c <BIT23+0x3ccb0c>
     e84:	303d2122 	eorscc	r2, sp, r2, lsr #2
     e88:	262f2f3d 	qasxcs	r2, pc, sp	; <UNPREDICTABLE>
     e8c:	21212f22 			; <UNDEFINED> instruction: 0x21212f22
     e90:	21212124 			; <UNDEFINED> instruction: 0x21212124
     e94:	6b213127 	blvs	84d338 <BIT23+0x4d338>
     e98:	212f2621 			; <UNDEFINED> instruction: 0x212f2621
     e9c:	21212421 			; <UNDEFINED> instruction: 0x21212421
     ea0:	6b312721 	blvs	c4ab2c <BIT23+0x44ab2c>
     ea4:	212f2621 			; <UNDEFINED> instruction: 0x212f2621
     ea8:	2124212f 			; <UNDEFINED> instruction: 0x2124212f
     eac:	31272121 			; <UNDEFINED> instruction: 0x31272121
     eb0:	212f217b 			; <UNDEFINED> instruction: 0x212f217b
     eb4:	2f217a21 	svccs	0x00217a21
     eb8:	22217a2f 	eorcs	r7, r1, #192512	; 0x2f000
     ebc:	212f2421 			; <UNDEFINED> instruction: 0x212f2421
     ec0:	2221212f 	eorcs	r2, r1, #-1073741813	; 0xc000000b
     ec4:	03120421 	tsteq	r2, #553648128	; 0x21000000
     ec8:	21747de8 	cmncs	r4, r8, ror #27
     ecc:	2122212f 			; <UNDEFINED> instruction: 0x2122212f
     ed0:	21222130 			; <UNDEFINED> instruction: 0x21222130
     ed4:	21212121 			; <UNDEFINED> instruction: 0x21212121
     ed8:	22212f23 	eorcs	r2, r1, #35, 30	; 0x8c
     edc:	21216c2f 			; <UNDEFINED> instruction: 0x21216c2f
     ee0:	6c21216c 	stfvss	f2, [r1], #-432	; 0xfffffe50
     ee4:	22212321 	eorcs	r2, r1, #-2080374784	; 0x84000000
     ee8:	22232121 	eorcs	r2, r3, #1073741832	; 0x40000008
     eec:	23212121 			; <UNDEFINED> instruction: 0x23212121
     ef0:	21212122 			; <UNDEFINED> instruction: 0x21212122
     ef4:	23212123 			; <UNDEFINED> instruction: 0x23212123
     ef8:	21232122 			; <UNDEFINED> instruction: 0x21232122
     efc:	22212221 	eorcs	r2, r1, #268435458	; 0x10000002
     f00:	4d2f3d75 	stcmi	13, cr3, [pc, #-468]!	; d34 <BIT11+0x534>
     f04:	23212121 			; <UNDEFINED> instruction: 0x23212121
     f08:	22232221 	eorcs	r2, r3, #268435458	; 0x10000002
     f0c:	22213d21 	eorcs	r3, r1, #2112	; 0x840
     f10:	67232121 	strvs	r2, [r3, -r1, lsr #2]!
     f14:	0359223d 	cmpeq	r9, #-805306365	; 0xd0000003
     f18:	217400f0 	ldrshcs	r0, [r4, #-0]!
     f1c:	2f75313e 	svccs	0x0075313e
     f20:	212f6731 			; <UNDEFINED> instruction: 0x212f6731
     f24:	212f6731 			; <UNDEFINED> instruction: 0x212f6731
     f28:	2f216731 	svccs	0x00216731
     f2c:	2f67303d 	svccs	0x0067303d
     f30:	2f3e3021 	svccs	0x003e3021
     f34:	8821222f 	stmdahi	r1!, {r0, r1, r2, r3, r5, r9, sp}
     f38:	22213021 	eorcs	r3, r1, #33	; 0x21
     f3c:	31232421 			; <UNDEFINED> instruction: 0x31232421
     f40:	03110421 	tsteq	r1, #553648128	; 0x21000000
     f44:	03207ed7 			; <UNDEFINED> instruction: 0x03207ed7
     f48:	20032e2b 	andcs	r2, r3, fp, lsr #28
     f4c:	0312042e 	tsteq	r2, #771751936	; 0x2e000000
     f50:	362e7ecd 	strtcc	r7, [lr], -sp, asr #29
     f54:	23033136 	movwcs	r3, #12598	; 0x3136
     f58:	2e16032e 	cdpcs	3, 1, cr0, cr6, cr14, {1}
     f5c:	2e01b603 	cfmadd32cs	mvax0, mvfx11, mvfx1, mvfx3
     f60:	03130431 	tsteq	r3, #822083584	; 0x31000000
     f64:	23ba7dfd 			; <UNDEFINED> instruction: 0x23ba7dfd
     f68:	2f2f2221 	svccs	0x002f2221
     f6c:	22212f27 	eorcs	r2, r1, #39, 30	; 0x9c
     f70:	2121212f 			; <UNDEFINED> instruction: 0x2121212f
     f74:	2f2f2f22 	svccs	0x002f2f22
     f78:	212f262f 			; <UNDEFINED> instruction: 0x212f262f
     f7c:	21212f22 			; <UNDEFINED> instruction: 0x21212f22
     f80:	2f212221 	svccs	0x00212221
     f84:	262f2f2f 	strtcs	r2, [pc], -pc, lsr #30
     f88:	21222121 			; <UNDEFINED> instruction: 0x21222121
     f8c:	21222121 			; <UNDEFINED> instruction: 0x21222121
     f90:	21222121 			; <UNDEFINED> instruction: 0x21222121
     f94:	2f222121 	svccs	0x00222121
     f98:	032f2f2f 			; <UNDEFINED> instruction: 0x032f2f2f
     f9c:	2421200a 	strtcs	r2, [r1], #-10
     fa0:	2f312123 	svccs	0x00312123
     fa4:	21232121 			; <UNDEFINED> instruction: 0x21232121
     fa8:	03212f24 			; <UNDEFINED> instruction: 0x03212f24
     fac:	2821200f 	stmdacs	r1!, {r0, r1, r2, r3, sp}
     fb0:	212f3521 			; <UNDEFINED> instruction: 0x212f3521
     fb4:	22212f22 	eorcs	r2, r1, #34, 30	; 0x88
     fb8:	2f22212f 	svccs	0x0022212f
     fbc:	302f262f 	eorcc	r2, pc, pc, lsr #12
     fc0:	22212f2f 	eorcs	r2, r1, #47, 30	; 0xbc
     fc4:	22212f2f 	eorcs	r2, r1, #47, 30	; 0xbc
     fc8:	22212f2f 	eorcs	r2, r1, #47, 30	; 0xbc
     fcc:	22233021 	eorcs	r3, r3, #33	; 0x21
     fd0:	2f302f26 	svccs	0x00302f26
     fd4:	2f22212f 	svccs	0x0022212f
     fd8:	2f22212f 	svccs	0x0022212f
     fdc:	2f22212f 	svccs	0x0022212f
     fe0:	2223212f 	eorcs	r2, r3, #-1073741813	; 0xc000000b
     fe4:	252f22cf 	strcs	r2, [pc, #-719]!	; d1d <BIT11+0x51d>
     fe8:	212f2221 			; <UNDEFINED> instruction: 0x212f2221
     fec:	2130232f 	teqcs	r0, pc, lsr #6
     ff0:	212f2121 			; <UNDEFINED> instruction: 0x212f2121
     ff4:	21242f21 			; <UNDEFINED> instruction: 0x21242f21
     ff8:	21212130 			; <UNDEFINED> instruction: 0x21212130
     ffc:	2f21212f 	svccs	0x0021212f
    1000:	22972222 	addscs	r2, r7, #536870914	; 0x20000002
    1004:	3432232f 	ldrtcc	r2, [r2], #-815	; 0xfffffcd1
    1008:	30222f2f 	eorcc	r2, r2, pc, lsr #30
    100c:	21201103 			; <UNDEFINED> instruction: 0x21201103
    1010:	2f212f22 	svccs	0x00212f22
    1014:	200b0330 	andcs	r0, fp, r0, lsr r3
    1018:	313d2221 	teqcc	sp, r1, lsr #4
    101c:	0c032f4b 	stceq	15, cr2, [r3], {75}	; 0x4b
    1020:	2f232174 	svccs	0x00232174
    1024:	2f282130 	svccs	0x00282130
    1028:	2f222121 	svccs	0x00222121
    102c:	262f2121 	strtcs	r2, [pc], -r1, lsr #2
    1030:	2f302127 	svccs	0x00302127
    1034:	2f222221 	svccs	0x00222221
    1038:	22222121 	eorcs	r2, r2, #1073741832	; 0x40000008
    103c:	3d23212f 	stfccs	f2, [r3, #-188]!	; 0xffffff44
    1040:	4b229630 	blmi	8a6908 <BIT23+0xa6908>
    1044:	3d304b2f 	fldmdbxcc	r0!, {d4-d26}	;@ Deprecated
    1048:	34218730 	strtcc	r8, [r1], #-1840	; 0xfffff8d0
    104c:	2f263030 	svccs	0x00263030
    1050:	23242133 			; <UNDEFINED> instruction: 0x23242133
    1054:	740e0323 	strvc	r0, [lr], #-803	; 0xfffffcdd
    1058:	2f263030 	svccs	0x00263030
    105c:	20150332 	andscs	r0, r5, r2, lsr r3
    1060:	2221362f 	eorcs	r3, r1, #49283072	; 0x2f00000
    1064:	20300321 	eorscs	r0, r0, r1, lsr #6
    1068:	21232421 			; <UNDEFINED> instruction: 0x21232421
    106c:	21212121 			; <UNDEFINED> instruction: 0x21212121
    1070:	21212126 			; <UNDEFINED> instruction: 0x21212126
    1074:	2f212523 	svccs	0x00212523
    1078:	09032f22 	stmdbeq	r3, {r1, r5, r8, r9, sl, fp, sp}
    107c:	c2032182 	andgt	r2, r3, #-2147483616	; 0x80000020
    1080:	22212e00 	eorcs	r2, r1, #0, 28
    1084:	2f262421 	svccs	0x00262421
    1088:	21212121 			; <UNDEFINED> instruction: 0x21212121
    108c:	2f262f21 	svccs	0x00262f21
    1090:	21212121 			; <UNDEFINED> instruction: 0x21212121
    1094:	3d304b31 	fldmdbxcc	r0!, {d4-d27}	;@ Deprecated
    1098:	0314042f 	tsteq	r4, #788529152	; 0x2f000000
    109c:	5e6679ff 			; <UNDEFINED> instruction: 0x5e6679ff
    10a0:	2f2f2f21 	svccs	0x002f2f21
    10a4:	21342296 	teqcs	r4, r6	; <illegal shifter operand>
    10a8:	2f2f2f21 	svccs	0x002f2f21
    10ac:	1d032f21 	stcne	15, cr2, [r3, #-132]	; 0xffffff7c
    10b0:	20100382 	andscs	r0, r0, r2, lsl #7
    10b4:	21312f2f 	teqcs	r1, pc, lsr #30
    10b8:	21212121 			; <UNDEFINED> instruction: 0x21212121
    10bc:	303d2221 	eorscc	r2, sp, r1, lsr #4
    10c0:	28212221 	stmdacs	r1!, {r0, r5, r9, sp}
    10c4:	21322f26 	teqcs	r2, r6, lsr #30
    10c8:	21212122 			; <UNDEFINED> instruction: 0x21212122
    10cc:	7a4b7c22 	bvc	12e015c <BIT24+0x2e015c>
    10d0:	2f820903 	svccs	0x00820903
    10d4:	2f7a2121 	svccs	0x007a2121
    10d8:	21217b21 			; <UNDEFINED> instruction: 0x21217b21
    10dc:	215e2121 	cmpcs	lr, r1, lsr #2
    10e0:	225d2121 	subscs	r2, sp, #1073741832	; 0x40000008
    10e4:	21332221 	teqcs	r3, r1, lsr #4
    10e8:	21212321 			; <UNDEFINED> instruction: 0x21212321
    10ec:	03200b03 			; <UNDEFINED> instruction: 0x03200b03
    10f0:	21225809 			; <UNDEFINED> instruction: 0x21225809
    10f4:	21222121 			; <UNDEFINED> instruction: 0x21222121
    10f8:	2f212221 	svccs	0x00212221
    10fc:	212121ec 			; <UNDEFINED> instruction: 0x212121ec
    1100:	4b212121 	blmi	84958c <BIT23+0x4958c>
    1104:	2f344b2f 	svccs	0x00344b2f
    1108:	30304b24 	eorscc	r4, r0, r4, lsr #22
    110c:	952f8830 	strls	r8, [pc, #-2096]!	; 8e4 <BIT11+0xe4>
    1110:	a3218821 			; <UNDEFINED> instruction: 0xa3218821
    1114:	a321a421 			; <UNDEFINED> instruction: 0xa321a421
    1118:	a321a321 			; <UNDEFINED> instruction: 0xa321a321
    111c:	a321a321 			; <UNDEFINED> instruction: 0xa321a321
    1120:	a321a321 			; <UNDEFINED> instruction: 0xa321a321
    1124:	21953d24 	orrscs	r3, r5, r4, lsr #26
    1128:	2f4b2f2f 	svccs	0x004b2f2f
    112c:	21952f2f 	orrscs	r2, r5, pc, lsr #30
    1130:	042f3d2f 	strteq	r3, [pc], #-3375	; 1138 <BIT12+0x138>
    1134:	7ed40313 	mrcvc	3, 6, r0, cr4, cr3, {0}
    1138:	2e20032e 	cdpcs	3, 2, cr0, cr0, cr14, {1}
    113c:	032e3603 			; <UNDEFINED> instruction: 0x032e3603
    1140:	ee032e0e 	cdp	14, 0, cr2, cr3, cr14, {0}
    1144:	03332e00 	teqeq	r3, #0, 28
    1148:	c3032e12 	movwgt	r2, #15890	; 0x3e12
    114c:	c6032e00 	strgt	r2, [r3], -r0, lsl #28
    1150:	04312e00 	ldrteq	r2, [r1], #-3584	; 0xfffff200
    1154:	7be40314 	blvc	ff901dac <erasedword+0xff901dad>
    1158:	0180032e 	orreq	r0, r0, lr, lsr #6
    115c:	2e1c032e 	cdpcs	3, 1, cr0, cr12, cr14, {1}
    1160:	032e0d03 			; <UNDEFINED> instruction: 0x032e0d03
    1164:	04322e1d 	ldrteq	r2, [r2], #-3613	; 0xfffff1e3
    1168:	7e960315 	mrcvc	3, 4, r0, cr6, cr5, {0}
    116c:	22212290 	eorcs	r2, r1, #144, 4
    1170:	0f032421 	svceq	0x00032421
    1174:	2f212120 	svccs	0x00212120
    1178:	2f2f2221 	svccs	0x002f2221
    117c:	2e0b0331 	mcrcs	3, 0, r0, cr11, cr1, {1}
    1180:	3e212132 	mcrcc	1, 1, r2, cr1, cr2, {1}
    1184:	21242121 			; <UNDEFINED> instruction: 0x21242121
    1188:	242f2122 	strtcs	r2, [pc], #-290	; 1190 <BIT12+0x190>
    118c:	2f302531 	svccs	0x00302531
    1190:	21239730 			; <UNDEFINED> instruction: 0x21239730
    1194:	25242122 	strcs	r2, [r4, #-290]!	; 0xfffffede
    1198:	21212121 			; <UNDEFINED> instruction: 0x21212121
    119c:	21302721 	teqcs	r0, r1, lsr #14
    11a0:	2f212221 	svccs	0x00212221
    11a4:	21212122 			; <UNDEFINED> instruction: 0x21212122
    11a8:	21872123 	orrcs	r2, r7, r3, lsr #2
    11ac:	1d032121 	stfnes	f2, [r3, #-132]	; 0xffffff7c
    11b0:	22212674 	eorcs	r2, r1, #116, 12	; 0x7400000
    11b4:	2f222221 	svccs	0x00222221
    11b8:	3403312f 	strcc	r3, [r3], #-303	; 0xfffffed1
    11bc:	22212290 	eorcs	r2, r1, #144, 4
    11c0:	2f222121 	svccs	0x00222121
    11c4:	03222f2f 			; <UNDEFINED> instruction: 0x03222f2f
    11c8:	233d2025 	teqcs	sp, #37	; 0x25
    11cc:	27216c4b 	strcs	r6, [r1, -fp, asr #24]!
    11d0:	21212121 			; <UNDEFINED> instruction: 0x21212121
    11d4:	21242121 			; <UNDEFINED> instruction: 0x21242121
    11d8:	24242125 	strtcs	r2, [r4], #-293	; 0xfffffedb
    11dc:	2f23303d 	svccs	0x0023303d
    11e0:	09033d23 	stmdbeq	r3, {r0, r1, r5, r8, sl, fp, ip, sp}
    11e4:	2f215f2e 	svccs	0x00215f2e
    11e8:	6c2f2130 	stfvss	f2, [pc], #-192	; 1130 <BIT12+0x130>
    11ec:	88212121 	stmdahi	r1!, {r0, r5, r8, sp}
    11f0:	21222128 			; <UNDEFINED> instruction: 0x21222128
    11f4:	232f2121 			; <UNDEFINED> instruction: 0x232f2121
    11f8:	2f212121 	svccs	0x00212121
    11fc:	22212221 	eorcs	r2, r1, #268435458	; 0x10000002
    1200:	2121212f 			; <UNDEFINED> instruction: 0x2121212f
    1204:	21212f21 			; <UNDEFINED> instruction: 0x21212f21
    1208:	23212123 			; <UNDEFINED> instruction: 0x23212123
    120c:	7b2f212f 	blvc	bc96d0 <BIT23+0x3c96d0>
    1210:	24212221 	strtcs	r2, [r1], #-545	; 0xfffffddf
    1214:	30222f24 	eorcc	r2, r2, r4, lsr #30
    1218:	2fa22121 	svccs	0x00a22121
    121c:	21222123 			; <UNDEFINED> instruction: 0x21222123
    1220:	96219321 	strtls	r9, [r1], -r1, lsr #6
    1224:	2f97212f 	svccs	0x0097212f
    1228:	ac0a0321 	stcge	3, cr0, [sl], {33}	; 0x21
    122c:	21213121 			; <UNDEFINED> instruction: 0x21213121
    1230:	21212124 			; <UNDEFINED> instruction: 0x21212124
    1234:	222131b1 	eorcs	r3, r1, #1073741868	; 0x4000002c
    1238:	23232221 			; <UNDEFINED> instruction: 0x23232221
    123c:	212221b3 			; <UNDEFINED> instruction: 0x212221b3
    1240:	21c12224 	biccs	r2, r1, r4, lsr #4
    1244:	22242122 	eorcs	r2, r4, #-2147483640	; 0x80000008
    1248:	21212124 			; <UNDEFINED> instruction: 0x21212124
    124c:	21222121 			; <UNDEFINED> instruction: 0x21222121
    1250:	21212121 			; <UNDEFINED> instruction: 0x21212121
    1254:	21212128 			; <UNDEFINED> instruction: 0x21212128
    1258:	3d082127 	stfccs	f2, [r8, #-156]	; 0xffffff64
    125c:	2f21b122 	svccs	0x0021b122
    1260:	212221a3 			; <UNDEFINED> instruction: 0x212221a3
    1264:	22212121 	eorcs	r2, r1, #1073741832	; 0x40000008
    1268:	7b8c0321 	blvc	fe301ef4 <erasedword+0xfe301ef5>
    126c:	2e03312e 	adfcssp	f3, f3, #0.5
    1270:	8203322e 	andhi	r3, r3, #-536870910	; 0xe0000002
    1274:	9a032e02 	bls	cca84 <BIT19+0x4ca84>
    1278:	10032e01 	andne	r2, r3, r1, lsl #28
    127c:	2e09032e 	cdpcs	3, 0, cr0, cr9, cr14, {1}
    1280:	342e1003 	strtcc	r1, [lr], #-3
    1284:	352e3d03 	strcc	r3, [lr, #-3331]!	; 0xfffff2fd
    1288:	032e2703 			; <UNDEFINED> instruction: 0x032e2703
    128c:	31219e15 			; <UNDEFINED> instruction: 0x31219e15
    1290:	3ee82221 	cdpcc	2, 14, cr2, cr8, cr1, {1}
    1294:	22212430 	eorcs	r2, r1, #48, 8	; 0x30000000
    1298:	3c0a0321 	stccc	3, cr0, [sl], {33}	; 0x21
    129c:	31512f75 	cmpcc	r1, r5, ror pc
    12a0:	24212221 	strtcs	r2, [r1], #-545	; 0xfffffddf
    12a4:	032f2127 			; <UNDEFINED> instruction: 0x032f2127
    12a8:	3d2f200f 	stccc	0, cr2, [pc, #-60]!	; 1274 <BIT12+0x274>
    12ac:	303d2f31 	eorscc	r2, sp, r1, lsr pc
    12b0:	2221352f 	eorcs	r3, r1, #197132288	; 0xbc00000
    12b4:	26212f22 	strtcs	r2, [r1], -r2, lsr #30
    12b8:	2f212121 	svccs	0x00212121
    12bc:	2221242f 	eorcs	r2, r1, #788529152	; 0x2f000000
    12c0:	2f213126 	svccs	0x00213126
    12c4:	2f2f3121 	svccs	0x002f3121
    12c8:	232f2131 			; <UNDEFINED> instruction: 0x232f2131
    12cc:	21212132 			; <UNDEFINED> instruction: 0x21212132
    12d0:	953d9623 	ldrls	r9, [sp, #-1571]!	; 0xfffff9dd
    12d4:	3021973d 	eorcc	r9, r1, sp, lsr r7
    12d8:	24212221 	strtcs	r2, [r1], #-545	; 0xfffffddf
    12dc:	21201503 			; <UNDEFINED> instruction: 0x21201503
    12e0:	2f342124 	svccs	0x00342124
    12e4:	21222121 			; <UNDEFINED> instruction: 0x21222121
    12e8:	24212f21 	strtcs	r2, [r1], #-3873	; 0xfffff0df
    12ec:	2f2f213d 	svccs	0x002f213d
    12f0:	222f3226 	eorcs	r3, pc, #1610612738	; 0x60000002
    12f4:	2f24212f 	svccs	0x0024212f
    12f8:	31218a2f 			; <UNDEFINED> instruction: 0x31218a2f
    12fc:	21222121 			; <UNDEFINED> instruction: 0x21222121
    1300:	28242122 	stmdacs	r4!, {r1, r5, r8, sp}
    1304:	4b313121 	blmi	c4d790 <BIT23+0x44d790>
    1308:	30262f2f 	eorcc	r2, r6, pc, lsr #30
    130c:	21222430 			; <UNDEFINED> instruction: 0x21222430
    1310:	21212121 			; <UNDEFINED> instruction: 0x21212121
    1314:	3d23bb21 	fstmdbxcc	r3!, {d11-d26}	;@ Deprecated
    1318:	2f23242f 	svccs	0x0023242f
    131c:	21212121 			; <UNDEFINED> instruction: 0x21212121
    1320:	2f212f31 	svccs	0x00212f31
    1324:	4b30212f 	blmi	c097e8 <BIT23+0x4097e8>
    1328:	ba0c0330 	blt	301ff0 <BIT21+0x101ff0>
    132c:	2f212221 	svccs	0x00212221
    1330:	22212224 	eorcs	r2, r1, #36, 4	; 0x40000002
    1334:	20032121 	andcs	r2, r3, r1, lsr #2
    1338:	2f2121ba 	svccs	0x002121ba
    133c:	21212121 			; <UNDEFINED> instruction: 0x21212121
    1340:	223d2121 	eorscs	r2, sp, #1073741832	; 0x40000008
    1344:	0321212f 			; <UNDEFINED> instruction: 0x0321212f
    1348:	31207d83 	smlawbcc	r0, r3, sp, r7
    134c:	032e0c03 			; <UNDEFINED> instruction: 0x032e0c03
    1350:	38032e22 	stmdacc	r3, {r1, r5, r9, sl, fp, sp}
    1354:	01a4032e 			; <UNDEFINED> instruction: 0x01a4032e
    1358:	1903312e 	stmdbne	r3, {r1, r2, r3, r5, r8, ip, sp}
    135c:	1d03312e 	stfnes	f3, [r3, #-184]	; 0xffffff48
    1360:	00c1032e 	sbceq	r0, r1, lr, lsr #6
    1364:	212221ac 			; <UNDEFINED> instruction: 0x212221ac
    1368:	22252121 	eorcs	r2, r5, #1073741832	; 0x40000008
    136c:	21212221 			; <UNDEFINED> instruction: 0x21212221
    1370:	09032121 	stmdbeq	r3, {r0, r5, r8, sp}
    1374:	96212174 			; <UNDEFINED> instruction: 0x96212174
    1378:	1103212f 	tstne	r3, pc, lsr #2
    137c:	2121279e 			; <UNDEFINED> instruction: 0x2121279e
    1380:	31302f22 	teqcc	r0, r2, lsr #30
    1384:	2421212f 	strtcs	r2, [r1], #-303	; 0xfffffed1
    1388:	24252121 	strtcs	r2, [r5], #-289	; 0xfffffedf
    138c:	59232121 	stmdbpl	r3!, {r0, r5, r8, sp}
    1390:	2123215a 			; <UNDEFINED> instruction: 0x2123215a
    1394:	2f212124 	svccs	0x00212124
    1398:	24212321 	strtcs	r2, [r1], #-801	; 0xfffffcdf
    139c:	212f2128 			; <UNDEFINED> instruction: 0x212f2128
    13a0:	25212121 	strcs	r2, [r1, #-289]!	; 0xfffffedf
    13a4:	253e2121 	ldrcs	r2, [lr, #-289]!	; 0xfffffedf
    13a8:	21222122 			; <UNDEFINED> instruction: 0x21222122
    13ac:	2121222f 			; <UNDEFINED> instruction: 0x2121222f
    13b0:	fc032f21 	stc2	15, cr2, [r3], {33}	; 0x21
    13b4:	09032e7e 	stmdbeq	r3, {r1, r2, r3, r4, r5, r6, r9, sl, fp, sp}
    13b8:	00cd032e 	sbceq	r0, sp, lr, lsr #6
    13bc:	0316042e 	tsteq	r6, #771751936	; 0x2e000000
    13c0:	2f9076d3 	svccs	0x009076d3
    13c4:	2f282132 	svccs	0x00282132
    13c8:	2f222121 	svccs	0x00222121
    13cc:	21b02321 	lsrscs	r2, r1, #6
    13d0:	21212221 			; <UNDEFINED> instruction: 0x21212221
    13d4:	22212423 	eorcs	r2, r1, #587202560	; 0x23000000
    13d8:	7b212f21 	blvc	84d064 <BIT23+0x4d064>
    13dc:	2821302f 	stmdacs	r1!, {r0, r1, r2, r3, r5, ip, sp}
    13e0:	22212121 	eorcs	r2, r1, #1073741832	; 0x40000008
    13e4:	21242121 			; <UNDEFINED> instruction: 0x21242121
    13e8:	3d30262f 	ldccc	6, cr2, [r0, #-188]!	; 0xffffff44
    13ec:	21212f7a 			; <UNDEFINED> instruction: 0x21212f7a
    13f0:	21212fb2 			; <UNDEFINED> instruction: 0x21212fb2
    13f4:	2f4b2128 	svccs	0x004b2128
    13f8:	2123232f 			; <UNDEFINED> instruction: 0x2123232f
    13fc:	2f4b3d2f 	svccs	0x004b3d2f
    1400:	3d2f2123 	stfccs	f2, [pc, #-140]!	; 137c <BIT12+0x37c>
    1404:	21232f4b 			; <UNDEFINED> instruction: 0x21232f4b
    1408:	4b3d2f2f 	blmi	f4d0cc <BIT23+0x74d0cc>
    140c:	2f21232f 	svccs	0x0021232f
    1410:	21242f3d 			; <UNDEFINED> instruction: 0x21242f3d
    1414:	2f3d2f2f 	svccs	0x003d2f2f
    1418:	3d2f2123 	stfccs	f2, [pc, #-140]!	; 1394 <BIT12+0x394>
    141c:	2f21242f 	svccs	0x0021242f
    1420:	2f21232f 	svccs	0x0021232f
    1424:	21232f4b 			; <UNDEFINED> instruction: 0x21232f4b
    1428:	262f4b2f 	strtcs	r4, [pc], -pc, lsr #22
    142c:	2f2f3027 	svccs	0x002f3027
    1430:	21212130 			; <UNDEFINED> instruction: 0x21212130
    1434:	214b322f 	cmpcs	fp, pc, lsr #4
    1438:	30303021 	eorscc	r3, r0, r1, lsr #32
    143c:	2121217c 			; <UNDEFINED> instruction: 0x2121217c
    1440:	22212122 	eorcs	r2, r1, #-2147483640	; 0x80000008
    1444:	2f3d2f21 	svccs	0x003d2f21
    1448:	2f2f2179 	svccs	0x002f2179
    144c:	2f216d2f 	svccs	0x00216d2f
    1450:	3022234b 	eorcc	r2, r2, fp, asr #6
    1454:	22212130 	eorcs	r2, r1, #48, 2
    1458:	2f303121 	svccs	0x00303121
    145c:	3d2f2f22 	stccc	15, cr2, [pc, #-136]!	; 13dc <BIT12+0x3dc>
    1460:	217a4b30 	cmncs	sl, r0, lsr fp
    1464:	21873d2f 	orrcs	r3, r7, pc, lsr #26
    1468:	21792f2f 	cmncs	r9, pc, lsr #30
    146c:	21222f2f 			; <UNDEFINED> instruction: 0x21222f2f
    1470:	08242f2f 	stmdaeq	r4!, {r0, r1, r2, r3, r5, r8, r9, sl, fp, sp}
    1474:	2121215e 			; <UNDEFINED> instruction: 0x2121215e
    1478:	21212221 			; <UNDEFINED> instruction: 0x21212221
    147c:	21302122 	teqcs	r0, r2, lsr #2
    1480:	31222221 			; <UNDEFINED> instruction: 0x31222221
    1484:	222f3e30 	eorcs	r3, pc, #48, 28	; 0x300
    1488:	2f2f222f 	svccs	0x002f222f
    148c:	7a2f4b3d 	bvc	bd4188 <BIT23+0x3d4188>
    1490:	7a212121 	bvc	84991c <BIT23+0x4991c>
    1494:	033d2f21 	teqeq	sp, #33, 30	; 0x84
    1498:	03207da4 			; <UNDEFINED> instruction: 0x03207da4
    149c:	03332e19 	teqeq	r3, #400	; 0x190
    14a0:	17042e21 	strne	r2, [r4, -r1, lsr #28]
    14a4:	667f9a03 	ldrbtvs	r9, [pc], -r3, lsl #20
    14a8:	4b22212f 	blmi	88996c <BIT23+0x8996c>
    14ac:	24212f5e 	strtcs	r2, [r1], #-3934	; 0xfffff0a2
    14b0:	2f2f214c 	svccs	0x002f214c
    14b4:	2f212121 	svccs	0x00212121
    14b8:	21223d5e 			; <UNDEFINED> instruction: 0x21223d5e
    14bc:	212f2f4b 			; <UNDEFINED> instruction: 0x212f2f4b
    14c0:	28032f21 	stmdacs	r3, {r0, r5, r8, r9, sl, fp, sp}
    14c4:	200a0374 	andcs	r0, sl, r4, ror r3
    14c8:	23212221 			; <UNDEFINED> instruction: 0x23212221
    14cc:	21232121 			; <UNDEFINED> instruction: 0x21232121
    14d0:	2f212621 	svccs	0x00212621
    14d4:	23213122 			; <UNDEFINED> instruction: 0x23213122
    14d8:	21222123 			; <UNDEFINED> instruction: 0x21222123
    14dc:	03218922 			; <UNDEFINED> instruction: 0x03218922
    14e0:	2121740d 			; <UNDEFINED> instruction: 0x2121740d
    14e4:	2f212221 	svccs	0x00212221
    14e8:	03312f21 	teqeq	r1, #33, 30	; 0x84
    14ec:	222f2011 	eorcs	r2, pc, #17
    14f0:	2f212222 	svccs	0x00212222
    14f4:	21740b03 	cmncs	r4, r3, lsl #22
    14f8:	21222121 			; <UNDEFINED> instruction: 0x21222121
    14fc:	312f212f 			; <UNDEFINED> instruction: 0x312f212f
    1500:	222f2130 	eorcs	r2, pc, #48, 2
    1504:	232f212f 			; <UNDEFINED> instruction: 0x232f212f
    1508:	0a032121 	beq	c9994 <BIT19+0x49994>
    150c:	212f2266 			; <UNDEFINED> instruction: 0x212f2266
    1510:	3d212131 	stfccs	f2, [r1, #-196]!	; 0xffffff3c
    1514:	3f2f223d 	svccc	0x002f223d
    1518:	232f2124 			; <UNDEFINED> instruction: 0x232f2124
    151c:	032f2f21 			; <UNDEFINED> instruction: 0x032f2f21
    1520:	2f21660d 	svccs	0x0021660d
    1524:	304b3121 	subcc	r3, fp, r1, lsr #2
    1528:	2f402121 	svccs	0x00402121
    152c:	22213d23 	eorcs	r3, r1, #2240	; 0x8c0
    1530:	21243d2f 			; <UNDEFINED> instruction: 0x21243d2f
    1534:	2f21262f 	svccs	0x0021262f
    1538:	302f2f30 	eorcc	r2, pc, r0, lsr pc	; <UNPREDICTABLE>
    153c:	2121304b 			; <UNDEFINED> instruction: 0x2121304b
    1540:	21214b22 			; <UNDEFINED> instruction: 0x21214b22
    1544:	212f222f 			; <UNDEFINED> instruction: 0x212f222f
    1548:	2121333d 			; <UNDEFINED> instruction: 0x2121333d
    154c:	21214b22 			; <UNDEFINED> instruction: 0x21214b22
    1550:	212f222f 			; <UNDEFINED> instruction: 0x212f222f
    1554:	302f313d 	eorcc	r3, pc, sp, lsr r1	; <UNPREDICTABLE>
    1558:	7deb0332 	stclvc	3, cr0, [fp, #200]!	; 0xc8
    155c:	00c4032e 	sbceq	r0, r4, lr, lsr #6
    1560:	2e31032e 	cdpcs	3, 3, cr0, cr1, cr14, {1}
    1564:	032e0c03 			; <UNDEFINED> instruction: 0x032e0c03
    1568:	18042e14 	stmdane	r4, {r2, r4, r9, sl, fp, sp}
    156c:	827e8d03 	rsbshi	r8, lr, #3, 26	; 0xc0
    1570:	3d3d2f21 	ldccc	15, cr2, [sp, #-132]!	; 0xffffff7c
    1574:	21660c03 	cmncs	r6, r3, lsl #24
    1578:	22212123 	eorcs	r2, r1, #-1073741816	; 0xc0000008
    157c:	2121236c 			; <UNDEFINED> instruction: 0x2121236c
    1580:	3d222221 	sfmcc	f2, 4, [r2, #-132]!	; 0xffffff7c
    1584:	223d2f33 	eorscs	r2, sp, #51, 30	; 0xcc
    1588:	2124303e 			; <UNDEFINED> instruction: 0x2124303e
    158c:	23222121 			; <UNDEFINED> instruction: 0x23222121
    1590:	332f2f30 			; <UNDEFINED> instruction: 0x332f2f30
    1594:	21232f4b 			; <UNDEFINED> instruction: 0x21232f4b
    1598:	21212321 			; <UNDEFINED> instruction: 0x21212321
    159c:	214b2122 	cmpcs	fp, r2, lsr #2
    15a0:	2f282121 	svccs	0x00282121
    15a4:	21222f21 			; <UNDEFINED> instruction: 0x21222f21
    15a8:	22212621 	eorcs	r2, r1, #34603008	; 0x2100000
    15ac:	2f262f2f 	svccs	0x00262f2f
    15b0:	30222123 	eorcc	r2, r2, r3, lsr #2
    15b4:	2f24302f 	svccs	0x0024302f
    15b8:	74150321 	ldrvc	r0, [r5], #-801	; 0xfffffcdf
    15bc:	22212121 	eorcs	r2, r1, #1073741832	; 0x40000008
    15c0:	3d2f3021 	stccc	0, cr3, [pc, #-132]!	; 1544 <BIT12+0x544>
    15c4:	893d3d30 	ldmdbhi	sp!, {r4, r5, r8, sl, fp, ip, sp}
    15c8:	22212121 	eorcs	r2, r1, #1073741832	; 0x40000008
    15cc:	262f3021 	strtcs	r3, [pc], -r1, lsr #32
    15d0:	22213023 	eorcs	r3, r1, #35	; 0x23
    15d4:	21222121 			; <UNDEFINED> instruction: 0x21222121
    15d8:	222f2121 	eorcs	r2, pc, #1073741832	; 0x40000008
    15dc:	22212230 	eorcs	r2, r1, #48, 4
    15e0:	9d031904 	vstrls.16	s2, [r3, #-8]	; <UNPREDICTABLE>
    15e4:	212f747e 			; <UNDEFINED> instruction: 0x212f747e
    15e8:	2121237a 			; <UNDEFINED> instruction: 0x2121237a
    15ec:	23222122 			; <UNDEFINED> instruction: 0x23222122
    15f0:	21212221 			; <UNDEFINED> instruction: 0x21212221
    15f4:	21212121 			; <UNDEFINED> instruction: 0x21212121
    15f8:	21212321 			; <UNDEFINED> instruction: 0x21212321
    15fc:	22212121 	eorcs	r2, r1, #1073741832	; 0x40000008
    1600:	23212121 			; <UNDEFINED> instruction: 0x23212121
    1604:	23212321 			; <UNDEFINED> instruction: 0x23212321
    1608:	18042221 	stmdane	r4, {r0, r5, r9, sp}
    160c:	03205703 			; <UNDEFINED> instruction: 0x03205703
    1610:	d5032e0e 	strle	r2, [r3, #-3598]	; 0xfffff1f2
    1614:	19042e00 	stmdbne	r4, {r9, sl, fp, sp}
    1618:	2e7f9703 	cdpcs	7, 7, cr9, cr15, cr3, {0}
    161c:	031a0432 	tsteq	sl, #838860800	; 0x32000000
    1620:	23218277 			; <UNDEFINED> instruction: 0x23218277
    1624:	26212221 	strtcs	r2, [r1], -r1, lsr #4
    1628:	21232121 			; <UNDEFINED> instruction: 0x21232121
    162c:	23212125 			; <UNDEFINED> instruction: 0x23212125
    1630:	20090321 	andcs	r0, r9, r1, lsr #6
    1634:	22212621 	eorcs	r2, r1, #34603008	; 0x2100000
    1638:	0321212f 			; <UNDEFINED> instruction: 0x0321212f
    163c:	2f22821c 	svccs	0x0022821c
    1640:	22212222 	eorcs	r2, r1, #536870914	; 0x20000002
    1644:	26212221 	strtcs	r2, [r1], -r1, lsr #4
    1648:	21212321 			; <UNDEFINED> instruction: 0x21212321
    164c:	21212123 			; <UNDEFINED> instruction: 0x21212123
    1650:	22212121 	eorcs	r2, r1, #1073741832	; 0x40000008
    1654:	22212121 	eorcs	r2, r1, #1073741832	; 0x40000008
    1658:	22212121 	eorcs	r2, r1, #1073741832	; 0x40000008
    165c:	22212121 	eorcs	r2, r1, #1073741832	; 0x40000008
    1660:	22212121 	eorcs	r2, r1, #1073741832	; 0x40000008
    1664:	2f3d2421 	svccs	0x003d2421
    1668:	3d252121 	stfccs	f2, [r5, #-132]!	; 0xffffff7c
    166c:	213e3d3d 	teqcs	lr, sp, lsr sp
    1670:	302f222f 	eorcc	r2, pc, pc, lsr #4
    1674:	22212121 	eorcs	r2, r1, #1073741832	; 0x40000008
    1678:	23212125 			; <UNDEFINED> instruction: 0x23212125
    167c:	21212121 			; <UNDEFINED> instruction: 0x21212121
    1680:	21212122 			; <UNDEFINED> instruction: 0x21212122
    1684:	243e3d21 	ldrtcs	r3, [lr], #-3361	; 0xfffff2df
    1688:	21252121 			; <UNDEFINED> instruction: 0x21252121
    168c:	23212321 			; <UNDEFINED> instruction: 0x23212321
    1690:	24212221 	strtcs	r2, [r1], #-545	; 0xfffffddf
    1694:	21212f3d 			; <UNDEFINED> instruction: 0x21212f3d
    1698:	3f212124 	svccc	0x00212124
    169c:	2f212f21 	svccs	0x00212f21
    16a0:	820f0322 	andhi	r0, pc, #-2013265920	; 0x88000000
    16a4:	22212121 	eorcs	r2, r1, #1073741832	; 0x40000008
    16a8:	22212121 	eorcs	r2, r1, #1073741832	; 0x40000008
    16ac:	74130321 	ldrvc	r0, [r3], #-801	; 0xfffffcdf
    16b0:	21222130 			; <UNDEFINED> instruction: 0x21222130
    16b4:	23232123 			; <UNDEFINED> instruction: 0x23232123
    16b8:	21212321 			; <UNDEFINED> instruction: 0x21212321
    16bc:	21222121 			; <UNDEFINED> instruction: 0x21222121
    16c0:	7a222321 	bvc	88a34c <BIT23+0x8a34c>
    16c4:	21222130 			; <UNDEFINED> instruction: 0x21222130
    16c8:	21212122 			; <UNDEFINED> instruction: 0x21212122
    16cc:	21740903 	cmncs	r4, r3, lsl #18
    16d0:	21222121 			; <UNDEFINED> instruction: 0x21222121
    16d4:	2121216e 			; <UNDEFINED> instruction: 0x2121216e
    16d8:	22216d21 	eorcs	r6, r1, #2112	; 0x840
    16dc:	0322212f 			; <UNDEFINED> instruction: 0x0322212f
    16e0:	2f216609 	svccs	0x00216609
    16e4:	2f2f2121 	svccs	0x002f2121
    16e8:	6609032f 	strvs	r0, [r9], -pc, lsr #6
    16ec:	22212f21 	eorcs	r2, r1, #33, 30	; 0x84
    16f0:	03212121 			; <UNDEFINED> instruction: 0x03212121
    16f4:	2f21580c 	svccs	0x0021580c
    16f8:	303e2121 	eorscc	r2, lr, r1, lsr #2
    16fc:	30302230 	eorscc	r2, r0, r0, lsr r2
    1700:	2121216e 			; <UNDEFINED> instruction: 0x2121216e
    1704:	216e3d6d 	cmncs	lr, sp, ror #26
    1708:	302f3121 	eorcc	r3, pc, r1, lsr #2
    170c:	222f303d 	eorcs	r3, pc, #61	; 0x3d
    1710:	22213021 	eorcs	r3, r1, #33	; 0x21
    1714:	2122212f 			; <UNDEFINED> instruction: 0x2122212f
    1718:	2f2f3021 	svccs	0x002f3021
    171c:	2f2f216d 	svccs	0x002f216d
    1720:	302f216c 	eorcc	r2, pc, ip, ror #2
    1724:	312f2f2f 			; <UNDEFINED> instruction: 0x312f2f2f
    1728:	032f2f2f 			; <UNDEFINED> instruction: 0x032f2f2f
    172c:	603d660a 	eorsvs	r6, sp, sl, lsl #12
    1730:	e103212f 	tst	r3, pc, lsr #2
    1734:	9e032e7b 	mcrls	14, 0, r2, cr3, cr11, {3}
    1738:	1b042e02 	blne	10cf48 <BIT20+0xcf48>
    173c:	2e7dd803 	cdpcs	8, 7, cr13, cr13, cr3, {0}
    1740:	21212124 			; <UNDEFINED> instruction: 0x21212124
    1744:	25222123 	strcs	r2, [r2, #-291]!	; 0xfffffedd
    1748:	21212121 			; <UNDEFINED> instruction: 0x21212121
    174c:	21212125 			; <UNDEFINED> instruction: 0x21212125
    1750:	21212521 			; <UNDEFINED> instruction: 0x21212521
    1754:	21252121 			; <UNDEFINED> instruction: 0x21252121
    1758:	21212f30 			; <UNDEFINED> instruction: 0x21212f30
    175c:	212f232f 			; <UNDEFINED> instruction: 0x212f232f
    1760:	312f3221 			; <UNDEFINED> instruction: 0x312f3221
    1764:	3d21212f 	stfccs	f2, [r1, #-188]!	; 0xffffff44
    1768:	2e0c0323 	cdpcs	3, 0, cr0, cr12, cr3, {1}
    176c:	21252121 			; <UNDEFINED> instruction: 0x21252121
    1770:	22212521 	eorcs	r2, r1, #138412032	; 0x8400000
    1774:	2f3d2521 	svccs	0x003d2521
    1778:	2f200f03 	svccs	0x00200f03
    177c:	3d332221 	lfmcc	f2, 4, [r3, #-132]!	; 0xffffff7c
    1780:	2f21313d 	svccs	0x0021313d
    1784:	30242122 	eorcc	r2, r4, r2, lsr #2
    1788:	3d30272f 	ldccc	7, cr2, [r0, #-188]!	; 0xffffff44
    178c:	332f303d 			; <UNDEFINED> instruction: 0x332f303d
    1790:	3321212f 			; <UNDEFINED> instruction: 0x3321212f
    1794:	2221213e 	eorcs	r2, r1, #-2147483633	; 0x8000000f
    1798:	2121222f 			; <UNDEFINED> instruction: 0x2121222f
    179c:	2f222f22 	svccs	0x00222f22
    17a0:	bf031c04 	svclt	0x00031c04
    17a4:	2f22207e 	svccs	0x0022207e
    17a8:	21222130 			; <UNDEFINED> instruction: 0x21222130
    17ac:	21222123 			; <UNDEFINED> instruction: 0x21222123
    17b0:	22212123 	eorcs	r2, r1, #-1073741816	; 0xc0000008
    17b4:	21212124 			; <UNDEFINED> instruction: 0x21212124
    17b8:	21222522 			; <UNDEFINED> instruction: 0x21222522
    17bc:	21242122 			; <UNDEFINED> instruction: 0x21242122
    17c0:	313d2221 	teqcc	sp, r1, lsr #4
    17c4:	2f30212f 	svccs	0x0030212f
    17c8:	212f3021 			; <UNDEFINED> instruction: 0x212f3021
    17cc:	23212130 			; <UNDEFINED> instruction: 0x23212130
    17d0:	3d23314b 	stfccs	f3, [r3, #-300]!	; 0xfffffed4
    17d4:	2f22252f 	svccs	0x0022252f
    17d8:	2f24212f 	svccs	0x0024212f
    17dc:	22212121 	eorcs	r2, r1, #1073741832	; 0x40000008
    17e0:	2f21222f 	svccs	0x0021222f
    17e4:	22212121 	eorcs	r2, r1, #1073741832	; 0x40000008
    17e8:	92031d04 	andls	r1, r3, #4, 26	; 0x100
    17ec:	3121907f 			; <UNDEFINED> instruction: 0x3121907f
    17f0:	22212121 	eorcs	r2, r1, #1073741832	; 0x40000008
    17f4:	21212121 			; <UNDEFINED> instruction: 0x21212121
    17f8:	21302f22 	teqcs	r0, r2, lsr #30
    17fc:	212f2321 			; <UNDEFINED> instruction: 0x212f2321
    1800:	30222121 	eorcc	r2, r2, r1, lsr #2
    1804:	21212896 			; <UNDEFINED> instruction: 0x21212896
    1808:	2121bc21 			; <UNDEFINED> instruction: 0x2121bc21
    180c:	3231b121 	eorscc	fp, r1, #1073741832	; 0x40000008
    1810:	032f2121 			; <UNDEFINED> instruction: 0x032f2121
    1814:	313d200b 	teqcc	sp, fp
    1818:	2421362f 	strtcs	r3, [r1], #-1583	; 0xfffff9d1
    181c:	35302221 	ldrcc	r2, [r0, #-545]!	; 0xfffffddf
    1820:	3d24212f 	stfccs	f2, [r4, #-188]!	; 0xffffff44
    1824:	0c032f3d 	stceq	15, cr2, [r3], {61}	; 0x3d
    1828:	2121219e 			; <UNDEFINED> instruction: 0x2121219e
    182c:	21213022 			; <UNDEFINED> instruction: 0x21213022
    1830:	cb2f2121 	blgt	bc9cbc <BIT23+0x3c9cbc>
    1834:	282f3d2f 	stmdacs	pc!, {r0, r1, r2, r3, r5, r8, sl, fp, ip, sp}	; <UNPREDICTABLE>
    1838:	2f3e3d30 	svccs	0x003e3d30
    183c:	03212f97 			; <UNDEFINED> instruction: 0x03212f97
    1840:	2331900e 	teqcs	r1, #14
    1844:	22212133 	eorcs	r2, r1, #-1073741812	; 0xc000000c
    1848:	22222121 	eorcs	r2, r2, #1073741832	; 0x40000008
    184c:	22223022 	eorcs	r3, r2, #34	; 0x22
    1850:	23212122 			; <UNDEFINED> instruction: 0x23212122
    1854:	2f232121 	svccs	0x00232121
    1858:	592e2103 	stmdbpl	lr!, {r0, r1, r8, sp}
    185c:	fc031b04 	stc2	11, cr1, [r3], {4}	; <UNPREDICTABLE>
    1860:	8b03207d 	blhi	c9a5c <BIT19+0x49a5c>
    1864:	1c042e01 	stcne	14, cr2, [r4], {1}
    1868:	2e7ef803 	cdpcs	8, 7, cr15, cr14, cr3, {0}
    186c:	042e0a03 	strteq	r0, [lr], #-2563	; 0xfffff5fd
    1870:	2403291d 	strcs	r2, [r3], #-2333	; 0xfffff6e3
    1874:	d003332e 	andle	r3, r3, lr, lsr #6
    1878:	28032e00 	stmdacs	r3, {r9, sl, fp, sp}
    187c:	2e0f032e 	cdpcs	3, 0, cr0, cr15, cr14, {1}
    1880:	032e0b03 			; <UNDEFINED> instruction: 0x032e0b03
    1884:	04312e12 	ldrteq	r2, [r1], #-3602	; 0xfffff1ee
    1888:	7ea6031e 	mcrvc	3, 5, r0, cr6, cr14, {0}
    188c:	212f2f82 	smlawbcs	pc, r2, pc, r2	; <UNPREDICTABLE>
    1890:	79217921 	stmdbvc	r1!, {r0, r5, r8, fp, ip, sp, lr}
    1894:	2f2f7921 	svccs	0x002f7921
    1898:	c922966c 	stmdbgt	r2!, {r2, r3, r5, r6, r9, sl, ip, pc}
    189c:	4b2f2f2f 	blmi	bcd560 <BIT23+0x3cd560>
    18a0:	0321217a 			; <UNDEFINED> instruction: 0x0321217a
    18a4:	089e00c5 	ldmeq	lr, {r0, r2, r6, r7}
    18a8:	0467083d 	strbteq	r0, [r7], #-2109	; 0xfffff7c3
    18ac:	7f8a031f 	svcvc	0x008a031f
    18b0:	3d083c08 	stccc	12, cr3, [r8, #-32]	; 0xffffffe0
    18b4:	3d083d08 	stccc	13, cr3, [r8, #-32]	; 0xffffffe0
    18b8:	2f083d08 	svccs	0x00083d08
    18bc:	3d083d08 	stccc	13, cr3, [r8, #-32]	; 0xffffffe0
    18c0:	20043d08 	andcs	r3, r4, r8, lsl #26
    18c4:	ac082d03 	stcge	13, cr2, [r8], {3}
    18c8:	4c032104 	stfmis	f2, [r3], {4}
    18cc:	2524212e 	strcs	r2, [r4, #-302]!	; 0xfffffed2
    18d0:	2f200d03 	svccs	0x00200d03
    18d4:	30222321 	eorcc	r2, r2, r1, lsr #6
    18d8:	212f2421 			; <UNDEFINED> instruction: 0x212f2421
    18dc:	32302123 	eorscc	r2, r0, #-1073741816	; 0xc0000008
    18e0:	23212121 			; <UNDEFINED> instruction: 0x23212121
    18e4:	22212221 	eorcs	r2, r1, #268435458	; 0x10000002
    18e8:	03212127 			; <UNDEFINED> instruction: 0x03212127
    18ec:	3021200b 	eorcc	r2, r1, fp
    18f0:	21212131 			; <UNDEFINED> instruction: 0x21212131
    18f4:	2f352121 	svccs	0x00352121
    18f8:	2121232f 			; <UNDEFINED> instruction: 0x2121232f
    18fc:	2f262122 	svccs	0x00262122
    1900:	22213221 	eorcs	r3, r1, #268435458	; 0x10000002
    1904:	23212121 			; <UNDEFINED> instruction: 0x23212121
    1908:	04232123 	strteq	r2, [r3], #-291	; 0xfffffedd
    190c:	7fb00320 	svcvc	0x00b00320
    1910:	0322042e 			; <UNDEFINED> instruction: 0x0322042e
    1914:	01270242 			; <UNDEFINED> instruction: 0x01270242
    1918:	33232121 			; <UNDEFINED> instruction: 0x33232121
    191c:	21212121 			; <UNDEFINED> instruction: 0x21212121
    1920:	21212f21 			; <UNDEFINED> instruction: 0x21212f21
    1924:	21222f22 			; <UNDEFINED> instruction: 0x21222f22
    1928:	19031e04 	stmdbne	r3, {r2, r9, sl, fp, ip}
    192c:	c6032f3c 			; <UNDEFINED> instruction: 0xc6032f3c
    1930:	2f2f2e00 	svccs	0x002f2e00
    1934:	8a031f04 	bhi	c954c <BIT19+0x4954c>
    1938:	2f2f2e7f 	svccs	0x002f2e7f
    193c:	2f2f2f2f 	svccs	0x002f2f2f
    1940:	21042f2f 	tstcs	r4, pc, lsr #30
    1944:	332e7903 			; <UNDEFINED> instruction: 0x332e7903
    1948:	2f2e1303 	svccs	0x002e1303
    194c:	2e00cf03 	cdpcs	15, 0, cr12, cr0, cr3, {0}
    1950:	11033632 	tstne	r3, r2, lsr r6
    1954:	0322042e 			; <UNDEFINED> instruction: 0x0322042e
    1958:	032e7ef6 			; <UNDEFINED> instruction: 0x032e7ef6
    195c:	02022e0c 	andeq	r2, r2, #12, 28	; 0xc0
    1960:	Address 0x0000000000001960 is out of bounds.


Disassembly of section .debug_info:

00000000 <.debug_info>:
   0:	00000022 	andeq	r0, r0, r2, lsr #32
   4:	00000002 	andeq	r0, r0, r2
   8:	01040000 	mrseq	r0, (UNDEF: 4)
   c:	00000000 	andeq	r0, r0, r0
  10:	081c0000 	ldmdaeq	ip, {}	; <UNPREDICTABLE>
  14:	081c4f9c 	ldmdaeq	ip, {r2, r3, r4, r7, r8, r9, sl, fp, lr}
  18:	00000000 	andeq	r0, r0, r0
  1c:	00000021 	andeq	r0, r0, r1, lsr #32
  20:	00000070 	andeq	r0, r0, r0, ror r0
  24:	Address 0x0000000000000024 is out of bounds.


Disassembly of section .debug_abbrev:

00000000 <.debug_abbrev>:
   0:	10001101 	andne	r1, r0, r1, lsl #2
   4:	12011106 	andne	r1, r1, #-2147483647	; 0x80000001
   8:	1b0e0301 	blne	380c14 <BIT21+0x180c14>
   c:	130e250e 	movwne	r2, #58638	; 0xe50e
  10:	00000005 	andeq	r0, r0, r5

Disassembly of section .debug_aranges:

00000000 <.debug_aranges>:
   0:	0000001c 	andeq	r0, r0, ip, lsl r0
   4:	00000002 	andeq	r0, r0, r2
   8:	00040000 	andeq	r0, r4, r0
   c:	00000000 	andeq	r0, r0, r0
  10:	081c0000 	ldmdaeq	ip, {}	; <UNPREDICTABLE>
  14:	00004f9c 	muleq	r0, ip, pc	; <UNPREDICTABLE>
	...

Disassembly of section .debug_str:

00000000 <.debug_str>:
   0:	632f2e2e 			; <UNDEFINED> instruction: 0x632f2e2e
   4:	6f6d6d6f 	svcvs	0x006d6d6f
   8:	61722f6e 	cmnvs	r2, lr, ror #30
   c:	2d61722f 	sfmcs	f7, 2, [r1, #-188]!	; 0xffffff44
  10:	72666e69 	rsbvc	r6, r6, #1680	; 0x690
  14:	72747361 	rsbsvc	r7, r4, #-2080374783	; 0x84000001
  18:	75746375 	ldrbvc	r6, [r4, #-885]!	; 0xfffffc8b
  1c:	732e6572 			; <UNDEFINED> instruction: 0x732e6572
  20:	6f682f00 	svcvs	0x00682f00
  24:	6d2f656d 	cfstr32vs	mvfx6, [pc, #-436]!	; fffffe78 <erasedword+0xfffffe79>
  28:	6972726f 	ldmdbvs	r2!, {r0, r1, r2, r3, r5, r6, r9, ip, sp, lr}^
  2c:	74532f73 	ldrbvc	r2, [r3], #-3955	; 0xfffff08d
  30:	2f666675 	svccs	0x00666675
  34:	74726f66 	ldrbtvc	r6, [r2], #-3942	; 0xfffff09a
  38:	656d2f68 	strbvs	r2, [sp, #-3944]!	; 0xfffff098
  3c:	73697263 	cmnvc	r9, #805306374	; 0x30000006
  40:	69672d70 	stmdbvs	r7!, {r4, r5, r6, r8, sl, fp, sp}^
  44:	656d2f74 	strbvs	r2, [sp, #-3956]!	; 0xfffff08c
  48:	73697263 	cmnvc	r9, #805306374	; 0x30000006
  4c:	74732d70 	ldrbtvc	r2, [r3], #-3440	; 0xfffff290
  50:	616c6c65 	cmnvs	ip, r5, ror #24
  54:	2d736972 			; <UNDEFINED> instruction: 0x2d736972
  58:	72756f73 	rsbsvc	r6, r5, #460	; 0x1cc
  5c:	732f6563 			; <UNDEFINED> instruction: 0x732f6563
  60:	32336d74 	eorscc	r6, r3, #116, 26	; 0x1d00
  64:	35343768 	ldrcc	r3, [r4, #-1896]!	; 0xfffff898
  68:	344d435f 	strbcc	r4, [sp], #-863	; 0xfffffca1
  6c:	0061722d 	rsbeq	r7, r1, sp, lsr #4
  70:	20554e47 	subscs	r4, r5, r7, asr #28
  74:	32205341 	eorcc	r5, r0, #67108865	; 0x4000001
  78:	0038332e 	eorseq	r3, r8, lr, lsr #6
