
mecrisp-stellaris-stm32h750.elf:     file format elf32-littlearm


Disassembly of section .text:

00000000 <KernelAnfang>:
       0:	20000388 	andcs	r0, r0, r8, lsl #7
       4:	08005297 	stmdaeq	r0, {r0, r1, r2, r4, r7, r9, ip, lr}
       8:	000050d7 	ldrdeq	r5, [r0], -r7
       c:	000050d7 	ldrdeq	r5, [r0], -r7
      10:	000050d7 	ldrdeq	r5, [r0], -r7
      14:	000050d7 	ldrdeq	r5, [r0], -r7
      18:	000050d7 	ldrdeq	r5, [r0], -r7
	...
      2c:	00005105 	andeq	r5, r0, r5, lsl #2
      30:	00005105 	andeq	r5, r0, r5, lsl #2
      34:	00000000 	andeq	r0, r0, r0
      38:	00005105 	andeq	r5, r0, r5, lsl #2
      3c:	000050af 	andeq	r5, r0, pc, lsr #1
      40:	00005105 	andeq	r5, r0, r5, lsl #2
      44:	00005105 	andeq	r5, r0, r5, lsl #2
      48:	00005105 	andeq	r5, r0, r5, lsl #2
      4c:	00005105 	andeq	r5, r0, r5, lsl #2
      50:	00005105 	andeq	r5, r0, r5, lsl #2
      54:	00005105 	andeq	r5, r0, r5, lsl #2
      58:	0000512d 	andeq	r5, r0, sp, lsr #2
      5c:	00005155 	andeq	r5, r0, r5, asr r1
      60:	0000517d 	andeq	r5, r0, sp, ror r1
      64:	000051a5 	andeq	r5, r0, r5, lsr #3
      68:	000051cd 	andeq	r5, r0, sp, asr #3
      6c:	00005105 	andeq	r5, r0, r5, lsl #2
      70:	00005105 	andeq	r5, r0, r5, lsl #2
      74:	00005105 	andeq	r5, r0, r5, lsl #2
      78:	00005105 	andeq	r5, r0, r5, lsl #2
      7c:	00005105 	andeq	r5, r0, r5, lsl #2
      80:	00005105 	andeq	r5, r0, r5, lsl #2
      84:	00005105 	andeq	r5, r0, r5, lsl #2
      88:	000051f3 	strdeq	r5, [r0], -r3
      8c:	00005105 	andeq	r5, r0, r5, lsl #2
      90:	00005105 	andeq	r5, r0, r5, lsl #2
      94:	00005105 	andeq	r5, r0, r5, lsl #2
      98:	00005105 	andeq	r5, r0, r5, lsl #2
      9c:	00005105 	andeq	r5, r0, r5, lsl #2
      a0:	00005105 	andeq	r5, r0, r5, lsl #2
      a4:	00005105 	andeq	r5, r0, r5, lsl #2
      a8:	00005105 	andeq	r5, r0, r5, lsl #2
      ac:	00005105 	andeq	r5, r0, r5, lsl #2
      b0:	0000521b 	andeq	r5, r0, fp, lsl r2
      b4:	00005243 	andeq	r5, r0, r3, asr #4
      b8:	0000526b 	andeq	r5, r0, fp, ror #4
      bc:	00005105 	andeq	r5, r0, r5, lsl #2
      c0:	00005105 	andeq	r5, r0, r5, lsl #2
      c4:	00005105 	andeq	r5, r0, r5, lsl #2
      c8:	00005105 	andeq	r5, r0, r5, lsl #2
      cc:	00005105 	andeq	r5, r0, r5, lsl #2
      d0:	00005105 	andeq	r5, r0, r5, lsl #2
      d4:	00005105 	andeq	r5, r0, r5, lsl #2
      d8:	00005105 	andeq	r5, r0, r5, lsl #2
      dc:	00005105 	andeq	r5, r0, r5, lsl #2
      e0:	00005105 	andeq	r5, r0, r5, lsl #2
      e4:	00005105 	andeq	r5, r0, r5, lsl #2
      e8:	00005105 	andeq	r5, r0, r5, lsl #2
      ec:	00005105 	andeq	r5, r0, r5, lsl #2
      f0:	00005105 	andeq	r5, r0, r5, lsl #2
      f4:	00005105 	andeq	r5, r0, r5, lsl #2
      f8:	00005105 	andeq	r5, r0, r5, lsl #2
      fc:	00005105 	andeq	r5, r0, r5, lsl #2
     100:	00005105 	andeq	r5, r0, r5, lsl #2
     104:	00005105 	andeq	r5, r0, r5, lsl #2
     108:	00005105 	andeq	r5, r0, r5, lsl #2
     10c:	00005105 	andeq	r5, r0, r5, lsl #2
     110:	00005105 	andeq	r5, r0, r5, lsl #2
     114:	00005105 	andeq	r5, r0, r5, lsl #2
     118:	00005105 	andeq	r5, r0, r5, lsl #2
     11c:	00005105 	andeq	r5, r0, r5, lsl #2
     120:	00005105 	andeq	r5, r0, r5, lsl #2
     124:	00005105 	andeq	r5, r0, r5, lsl #2
     128:	00005105 	andeq	r5, r0, r5, lsl #2
     12c:	00005105 	andeq	r5, r0, r5, lsl #2
     130:	00005105 	andeq	r5, r0, r5, lsl #2
     134:	00005105 	andeq	r5, r0, r5, lsl #2
     138:	00005105 	andeq	r5, r0, r5, lsl #2
     13c:	00005105 	andeq	r5, r0, r5, lsl #2
     140:	00005105 	andeq	r5, r0, r5, lsl #2
     144:	00005105 	andeq	r5, r0, r5, lsl #2
     148:	00005105 	andeq	r5, r0, r5, lsl #2
     14c:	00005105 	andeq	r5, r0, r5, lsl #2
     150:	00005105 	andeq	r5, r0, r5, lsl #2
     154:	00005105 	andeq	r5, r0, r5, lsl #2
     158:	00005105 	andeq	r5, r0, r5, lsl #2
     15c:	00005105 	andeq	r5, r0, r5, lsl #2
     160:	00005105 	andeq	r5, r0, r5, lsl #2
     164:	00005105 	andeq	r5, r0, r5, lsl #2
     168:	00005105 	andeq	r5, r0, r5, lsl #2
     16c:	00005105 	andeq	r5, r0, r5, lsl #2
     170:	00005105 	andeq	r5, r0, r5, lsl #2
     174:	00005105 	andeq	r5, r0, r5, lsl #2
     178:	00005105 	andeq	r5, r0, r5, lsl #2
     17c:	00005105 	andeq	r5, r0, r5, lsl #2
     180:	00005105 	andeq	r5, r0, r5, lsl #2
     184:	00005105 	andeq	r5, r0, r5, lsl #2
     188:	00005105 	andeq	r5, r0, r5, lsl #2
     18c:	00005105 	andeq	r5, r0, r5, lsl #2
     190:	00005105 	andeq	r5, r0, r5, lsl #2
     194:	00005105 	andeq	r5, r0, r5, lsl #2
     198:	00005105 	andeq	r5, r0, r5, lsl #2
     19c:	00005105 	andeq	r5, r0, r5, lsl #2
     1a0:	00005105 	andeq	r5, r0, r5, lsl #2
     1a4:	00005105 	andeq	r5, r0, r5, lsl #2
     1a8:	00005105 	andeq	r5, r0, r5, lsl #2
     1ac:	00005105 	andeq	r5, r0, r5, lsl #2
     1b0:	00005105 	andeq	r5, r0, r5, lsl #2
     1b4:	00005105 	andeq	r5, r0, r5, lsl #2
     1b8:	00005105 	andeq	r5, r0, r5, lsl #2
     1bc:	00005105 	andeq	r5, r0, r5, lsl #2
     1c0:	00005105 	andeq	r5, r0, r5, lsl #2
     1c4:	00005105 	andeq	r5, r0, r5, lsl #2
     1c8:	00005105 	andeq	r5, r0, r5, lsl #2
     1cc:	00005105 	andeq	r5, r0, r5, lsl #2
     1d0:	00005105 	andeq	r5, r0, r5, lsl #2
     1d4:	00005105 	andeq	r5, r0, r5, lsl #2
     1d8:	00005105 	andeq	r5, r0, r5, lsl #2
     1dc:	00005105 	andeq	r5, r0, r5, lsl #2
     1e0:	00005105 	andeq	r5, r0, r5, lsl #2

000001e4 <CoreDictionaryAnfang>:
     1e4:	00000620 	andeq	r0, r0, r0, lsr #12
     1e8:	2d22ffff 	stccs	15, cr15, [r2, #-1020]!	; 0xfffffc04
     1ec:	4d202d2d 	stcmi	13, cr2, [r0, #-180]!	; 0xffffff4c
     1f0:	69726365 	ldmdbvs	r2!, {r0, r2, r5, r6, r8, r9, sp, lr}^
     1f4:	532d7073 			; <UNDEFINED> instruction: 0x532d7073
     1f8:	6c6c6574 	cfstr64vs	mvdx6, [ip], #-464	; 0xfffffe30
     1fc:	73697261 	cmnvc	r9, #268435462	; 0x10000006
     200:	20415220 	subcs	r5, r1, r0, lsr #4
     204:	2e362e32 	mrccs	14, 1, r2, cr6, cr2, {1}
     208:	2d2d2035 	stccs	0, cr2, [sp, #-212]!	; 0xffffff2c
     20c:	 	strlt	r0, [r7, #-45]	; 0xffffffd3

0000020e <Code_30>:
     20e:	b507      	push	{r0, r1, r2, lr}
     210:	4890      	ldr	r0, [pc, #576]	; (454 <r0_unfrei+0x18>)
     212:	2b00      	cmp	r3, #0
     214:	d009      	beq.n	22a <Code_30+0x1c>
     216:	f000 f83d 	bl	294 <free_5os_element>
     21a:	f000 f843 	bl	2a4 <elemente_einen_weiterrutschen_lassen>
     21e:	f000 f828 	bl	272 <nget_faltkonstante>
     222:	6042      	str	r2, [r0, #4]
     224:	2128      	movs	r1, #40	; 0x28
     226:	6001      	str	r1, [r0, #0]
     228:	e7f3      	b.n	212 <Code_30+0x4>
     22a:	bd07      	pop	{r0, r1, r2, pc}

0000022c <nfaltkonstanten_aufschwimmen>:
     22c:	b500      	push	{lr}
     22e:	4889      	ldr	r0, [pc, #548]	; (454 <r0_unfrei+0x18>)
     230:	2300      	movs	r3, #0
     232:	6801      	ldr	r1, [r0, #0]
     234:	2928      	cmp	r1, #40	; 0x28
     236:	d105      	bne.n	244 <nfaltkonstanten_aufschwimmen+0x18>
     238:	6842      	ldr	r2, [r0, #4]
     23a:	f000 f804 	bl	246 <npush_faltkonstante>
     23e:	f000 f84e 	bl	2de <eliminiere_tos>
     242:	e7f6      	b.n	232 <nfaltkonstanten_aufschwimmen+0x6>
     244:	bd00      	pop	{pc}

00000246 <npush_faltkonstante>:
     246:	b503      	push	{r0, r1, lr}
     248:	f847 6d04 	str.w	r6, [r7, #-4]!
     24c:	0016      	movs	r6, r2
     24e:	f847 6d04 	str.w	r6, [r7, #-4]!
     252:	001e      	movs	r6, r3
     254:	b408      	push	{r3}
     256:	f000 ff9f 	bl	1198 <Code_230>
     25a:	bc08      	pop	{r3}
     25c:	3301      	adds	r3, #1
     25e:	f847 6d04 	str.w	r6, [r7, #-4]!
     262:	4e7d      	ldr	r6, [pc, #500]	; (458 <r0_unfrei+0x1c>)
     264:	f847 6d04 	str.w	r6, [r7, #-4]!
     268:	f240 2661 	movw	r6, #609	; 0x261
     26c:	f004 fd32 	bl	4cd4 <add_to_inline_cache>
     270:	bd03      	pop	{r0, r1, pc}

00000272 <nget_faltkonstante>:
     272:	b503      	push	{r0, r1, lr}
     274:	3b01      	subs	r3, #1
     276:	f847 6d04 	str.w	r6, [r7, #-4]!
     27a:	001e      	movs	r6, r3
     27c:	b408      	push	{r3}
     27e:	f000 ff75 	bl	116c <Code_228>
     282:	bc08      	pop	{r3}
     284:	0032      	movs	r2, r6
     286:	f847 6d04 	str.w	r6, [r7, #-4]!
     28a:	f44f 5600 	mov.w	r6, #8192	; 0x2000
     28e:	f004 fd21 	bl	4cd4 <add_to_inline_cache>
     292:	bd03      	pop	{r0, r1, pc}

00000294 <free_5os_element>:
     294:	b503      	push	{r0, r1, lr}
     296:	4871      	ldr	r0, [pc, #452]	; (45c <r0_unfrei+0x20>)
     298:	6801      	ldr	r1, [r0, #0]
     29a:	291e      	cmp	r1, #30
     29c:	d001      	beq.n	2a2 <free_5os_element+0xe>
     29e:	f000 f834 	bl	30a <element_to_stack>
     2a2:	bd03      	pop	{r0, r1, pc}

000002a4 <elemente_einen_weiterrutschen_lassen>:
     2a4:	6981      	ldr	r1, [r0, #24]
     2a6:	6201      	str	r1, [r0, #32]
     2a8:	6901      	ldr	r1, [r0, #16]
     2aa:	6181      	str	r1, [r0, #24]
     2ac:	6881      	ldr	r1, [r0, #8]
     2ae:	6101      	str	r1, [r0, #16]
     2b0:	6801      	ldr	r1, [r0, #0]
     2b2:	6081      	str	r1, [r0, #8]
     2b4:	69c1      	ldr	r1, [r0, #28]
     2b6:	6241      	str	r1, [r0, #36]	; 0x24
     2b8:	6941      	ldr	r1, [r0, #20]
     2ba:	61c1      	str	r1, [r0, #28]
     2bc:	68c1      	ldr	r1, [r0, #12]
     2be:	6141      	str	r1, [r0, #20]
     2c0:	6841      	ldr	r1, [r0, #4]
     2c2:	60c1      	str	r1, [r0, #12]
     2c4:	211e      	movs	r1, #30
     2c6:	6001      	str	r1, [r0, #0]
     2c8:	4770      	bx	lr

000002ca <befreie_tos>:
     2ca:	b50f      	push	{r0, r1, r2, r3, lr}
     2cc:	4861      	ldr	r0, [pc, #388]	; (454 <r0_unfrei+0x18>)
     2ce:	6801      	ldr	r1, [r0, #0]
     2d0:	291e      	cmp	r1, #30
     2d2:	d003      	beq.n	2dc <befreie_tos+0x12>
     2d4:	f7ff ffde 	bl	294 <free_5os_element>
     2d8:	f7ff ffe4 	bl	2a4 <elemente_einen_weiterrutschen_lassen>
     2dc:	bd0f      	pop	{r0, r1, r2, r3, pc}

000002de <eliminiere_tos>:
     2de:	b502      	push	{r1, lr}
     2e0:	6881      	ldr	r1, [r0, #8]
     2e2:	6001      	str	r1, [r0, #0]
     2e4:	68c1      	ldr	r1, [r0, #12]
     2e6:	6041      	str	r1, [r0, #4]
     2e8:	e000      	b.n	2ec <eliminiere_nos+0x2>

000002ea <eliminiere_nos>:
     2ea:	b502      	push	{r1, lr}
     2ec:	6901      	ldr	r1, [r0, #16]
     2ee:	6081      	str	r1, [r0, #8]
     2f0:	6941      	ldr	r1, [r0, #20]
     2f2:	60c1      	str	r1, [r0, #12]
     2f4:	6981      	ldr	r1, [r0, #24]
     2f6:	6101      	str	r1, [r0, #16]
     2f8:	69c1      	ldr	r1, [r0, #28]
     2fa:	6141      	str	r1, [r0, #20]
     2fc:	6a01      	ldr	r1, [r0, #32]
     2fe:	6181      	str	r1, [r0, #24]
     300:	6a41      	ldr	r1, [r0, #36]	; 0x24
     302:	61c1      	str	r1, [r0, #28]
     304:	211e      	movs	r1, #30
     306:	6201      	str	r1, [r0, #32]
     308:	bd02      	pop	{r1, pc}

0000030a <element_to_stack>:
     30a:	b508      	push	{r3, lr}
     30c:	6801      	ldr	r1, [r0, #0]
     30e:	221e      	movs	r2, #30
     310:	6002      	str	r2, [r0, #0]
     312:	2908      	cmp	r1, #8
     314:	d201      	bcs.n	31a <element_to_stack+0x10>
     316:	000b      	movs	r3, r1
     318:	e004      	b.n	324 <element_to_stack+0x1a>
     31a:	2928      	cmp	r1, #40	; 0x28
     31c:	d109      	bne.n	332 <element_to_stack+0x28>
     31e:	6843      	ldr	r3, [r0, #4]
     320:	f000 f85b 	bl	3da <generiere_konstante>
     324:	f847 6d04 	str.w	r6, [r7, #-4]!
     328:	4e4d      	ldr	r6, [pc, #308]	; (460 <r0_unfrei+0x24>)
     32a:	ea56 3603 	orrs.w	r6, r6, r3, lsl #12
     32e:	f003 fb67 	bl	3a00 <Code_858>
     332:	bd08      	pop	{r3, pc}

00000334 <tidyup_register_allocator>:
     334:	b500      	push	{lr}
     336:	f000 f809 	bl	34c <tidyup_register_allocator_5os>
     33a:	f000 f80c 	bl	356 <tidyup_register_allocator_4os>
     33e:	f000 f80f 	bl	360 <tidyup_register_allocator_3os>
     342:	f000 f812 	bl	36a <tidyup_register_allocator_nos>
     346:	f000 f815 	bl	374 <tidyup_register_allocator_tos>
     34a:	bd00      	pop	{pc}

0000034c <tidyup_register_allocator_5os>:
     34c:	b50f      	push	{r0, r1, r2, r3, lr}
     34e:	4843      	ldr	r0, [pc, #268]	; (45c <r0_unfrei+0x20>)
     350:	f7ff ffdb 	bl	30a <element_to_stack>
     354:	bd0f      	pop	{r0, r1, r2, r3, pc}

00000356 <tidyup_register_allocator_4os>:
     356:	b50f      	push	{r0, r1, r2, r3, lr}
     358:	4842      	ldr	r0, [pc, #264]	; (464 <r0_unfrei+0x28>)
     35a:	f7ff ffd6 	bl	30a <element_to_stack>
     35e:	bd0f      	pop	{r0, r1, r2, r3, pc}

00000360 <tidyup_register_allocator_3os>:
     360:	b50f      	push	{r0, r1, r2, r3, lr}
     362:	4841      	ldr	r0, [pc, #260]	; (468 <r0_unfrei+0x2c>)
     364:	f7ff ffd1 	bl	30a <element_to_stack>
     368:	bd0f      	pop	{r0, r1, r2, r3, pc}

0000036a <tidyup_register_allocator_nos>:
     36a:	b50f      	push	{r0, r1, r2, r3, lr}
     36c:	483f      	ldr	r0, [pc, #252]	; (46c <r0_unfrei+0x30>)
     36e:	f7ff ffcc 	bl	30a <element_to_stack>
     372:	bd0f      	pop	{r0, r1, r2, r3, pc}

00000374 <tidyup_register_allocator_tos>:
     374:	b50f      	push	{r0, r1, r2, r3, lr}
     376:	4837      	ldr	r0, [pc, #220]	; (454 <r0_unfrei+0x18>)
     378:	6801      	ldr	r1, [r0, #0]
     37a:	2206      	movs	r2, #6
     37c:	6002      	str	r2, [r0, #0]
     37e:	291e      	cmp	r1, #30
     380:	d106      	bne.n	390 <tidyup_register_allocator_tos+0x1c>
     382:	f847 6d04 	str.w	r6, [r7, #-4]!
     386:	f64c 7640 	movw	r6, #53056	; 0xcf40
     38a:	f003 fb09 	bl	39a0 <Code_849>
     38e:	e015      	b.n	3bc <tidyup_finish>
     390:	2928      	cmp	r1, #40	; 0x28
     392:	d109      	bne.n	3a8 <tidyup_register_allocator_tos+0x34>
     394:	6843      	ldr	r3, [r0, #4]
     396:	f847 6d04 	str.w	r6, [r7, #-4]!
     39a:	001e      	movs	r6, r3
     39c:	f847 6d04 	str.w	r6, [r7, #-4]!
     3a0:	2606      	movs	r6, #6
     3a2:	f002 ff8f 	bl	32c4 <Code_718>
     3a6:	e009      	b.n	3bc <tidyup_finish>
     3a8:	2906      	cmp	r1, #6
     3aa:	d007      	beq.n	3bc <tidyup_finish>
     3ac:	f847 6d04 	str.w	r6, [r7, #-4]!
     3b0:	f244 6606 	movw	r6, #17926	; 0x4606
     3b4:	00c9      	lsls	r1, r1, #3
     3b6:	430e      	orrs	r6, r1
     3b8:	f003 faf2 	bl	39a0 <Code_849>

000003bc <tidyup_finish>:
     3bc:	f000 f801 	bl	3c2 <init_register_allocator>
     3c0:	bd0f      	pop	{r0, r1, r2, r3, pc}

000003c2 <init_register_allocator>:
     3c2:	4824      	ldr	r0, [pc, #144]	; (454 <r0_unfrei+0x18>)
     3c4:	211e      	movs	r1, #30
     3c6:	6201      	str	r1, [r0, #32]
     3c8:	6181      	str	r1, [r0, #24]
     3ca:	6101      	str	r1, [r0, #16]
     3cc:	6081      	str	r1, [r0, #8]
     3ce:	62c1      	str	r1, [r0, #44]	; 0x2c
     3d0:	2106      	movs	r1, #6
     3d2:	6001      	str	r1, [r0, #0]
     3d4:	2100      	movs	r1, #0
     3d6:	6281      	str	r1, [r0, #40]	; 0x28
     3d8:	4770      	bx	lr

000003da <generiere_konstante>:
     3da:	b507      	push	{r0, r1, r2, lr}
     3dc:	f847 6d04 	str.w	r6, [r7, #-4]!
     3e0:	001e      	movs	r6, r3
     3e2:	f000 f845 	bl	470 <get_free_register>
     3e6:	f847 6d04 	str.w	r6, [r7, #-4]!
     3ea:	001e      	movs	r6, r3
     3ec:	f002 ff6a 	bl	32c4 <Code_718>
     3f0:	bd07      	pop	{r0, r1, r2, pc}

000003f2 <generiere_adresskonstante>:
     3f2:	b507      	push	{r0, r1, r2, lr}
     3f4:	6ac1      	ldr	r1, [r0, #44]	; 0x2c
     3f6:	2928      	cmp	r1, #40	; 0x28
     3f8:	d104      	bne.n	404 <ADC12_Common_CSR_JQOVF_MST+0x4>
     3fa:	6b01      	ldr	r1, [r0, #48]	; 0x30
     3fc:	4299      	cmp	r1, r3
     3fe:	d101      	bne.n	404 <ADC12_Common_CSR_JQOVF_MST+0x4>
     400:	2300      	movs	r3, #0
     402:	bd07      	pop	{r0, r1, r2, pc}
     404:	6801      	ldr	r1, [r0, #0]
     406:	2900      	cmp	r1, #0
     408:	d018      	beq.n	43c <r0_unfrei>
     40a:	6881      	ldr	r1, [r0, #8]
     40c:	2900      	cmp	r1, #0
     40e:	d015      	beq.n	43c <r0_unfrei>
     410:	6901      	ldr	r1, [r0, #16]
     412:	2900      	cmp	r1, #0
     414:	d012      	beq.n	43c <r0_unfrei>
     416:	6981      	ldr	r1, [r0, #24]
     418:	2900      	cmp	r1, #0
     41a:	d00f      	beq.n	43c <r0_unfrei>
     41c:	6a01      	ldr	r1, [r0, #32]
     41e:	2900      	cmp	r1, #0
     420:	d00c      	beq.n	43c <r0_unfrei>
     422:	6303      	str	r3, [r0, #48]	; 0x30
     424:	f847 6d04 	str.w	r6, [r7, #-4]!
     428:	001e      	movs	r6, r3
     42a:	f847 6d04 	str.w	r6, [r7, #-4]!
     42e:	2600      	movs	r6, #0
     430:	f002 ff48 	bl	32c4 <Code_718>
     434:	2128      	movs	r1, #40	; 0x28
     436:	62c1      	str	r1, [r0, #44]	; 0x2c
     438:	2300      	movs	r3, #0
     43a:	bd07      	pop	{r0, r1, r2, pc}

0000043c <r0_unfrei>:
     43c:	f847 6d04 	str.w	r6, [r7, #-4]!
     440:	001e      	movs	r6, r3
     442:	f000 f815 	bl	470 <get_free_register>
     446:	f847 6d04 	str.w	r6, [r7, #-4]!
     44a:	001e      	movs	r6, r3
     44c:	f002 ff3a 	bl	32c4 <Code_718>
     450:	bd07      	pop	{r0, r1, r2, pc}
     452:	00200000 	eoreq	r0, r0, r0
     456:	0f202000 	svceq	0x00202000
     45a:	00400000 	subeq	r0, r0, r0
     45e:	0d042000 	stceq	0, cr2, [r4, #-0]
     462:	0038f847 	eorseq	pc, r8, r7, asr #16
     466:	00302000 	eorseq	r2, r0, r0
     46a:	00282000 	eoreq	r2, r8, r0
     46e:	 	ldrlt	r2, [r7, #-0]!

00000470 <get_free_register>:
     470:	b537      	push	{r0, r1, r2, r4, r5, lr}
     472:	4836      	ldr	r0, [pc, #216]	; (54c <expect_four_elements+0x26>)
     474:	6801      	ldr	r1, [r0, #0]
     476:	6882      	ldr	r2, [r0, #8]
     478:	6903      	ldr	r3, [r0, #16]
     47a:	6984      	ldr	r4, [r0, #24]
     47c:	6a05      	ldr	r5, [r0, #32]
     47e:	2006      	movs	r0, #6
     480:	f000 f80e 	bl	4a0 <get_free_register_intern>
     484:	2003      	movs	r0, #3
     486:	f000 f80b 	bl	4a0 <get_free_register_intern>
     48a:	2002      	movs	r0, #2
     48c:	f000 f808 	bl	4a0 <get_free_register_intern>
     490:	2001      	movs	r0, #1
     492:	f000 f805 	bl	4a0 <get_free_register_intern>
     496:	2300      	movs	r3, #0
     498:	482c      	ldr	r0, [pc, #176]	; (54c <expect_four_elements+0x26>)
     49a:	211e      	movs	r1, #30
     49c:	62c1      	str	r1, [r0, #44]	; 0x2c
     49e:	bd37      	pop	{r0, r1, r2, r4, r5, pc}

000004a0 <get_free_register_intern>:
     4a0:	4281      	cmp	r1, r0
     4a2:	d009      	beq.n	4b8 <get_free_register_intern+0x18>
     4a4:	4282      	cmp	r2, r0
     4a6:	d007      	beq.n	4b8 <get_free_register_intern+0x18>
     4a8:	4283      	cmp	r3, r0
     4aa:	d005      	beq.n	4b8 <get_free_register_intern+0x18>
     4ac:	4284      	cmp	r4, r0
     4ae:	d003      	beq.n	4b8 <get_free_register_intern+0x18>
     4b0:	4285      	cmp	r5, r0
     4b2:	d001      	beq.n	4b8 <get_free_register_intern+0x18>
     4b4:	0003      	movs	r3, r0
     4b6:	bd37      	pop	{r0, r1, r2, r4, r5, pc}
     4b8:	4770      	bx	lr

000004ba <erstes_element_belegen>:
     4ba:	f847 6d04 	str.w	r6, [r7, #-4]!
     4be:	f64c 7600 	movw	r6, #52992	; 0xcf00

000004c2 <element_belegen>:
     4c2:	b500      	push	{lr}
     4c4:	5881      	ldr	r1, [r0, r2]
     4c6:	291e      	cmp	r1, #30
     4c8:	d105      	bne.n	4d6 <element_belegen+0x14>
     4ca:	f7ff ffd1 	bl	470 <get_free_register>
     4ce:	5083      	str	r3, [r0, r2]
     4d0:	2101      	movs	r1, #1
     4d2:	4099      	lsls	r1, r3
     4d4:	430e      	orrs	r6, r1
     4d6:	bd00      	pop	{pc}

000004d8 <expect_one_element>:
     4d8:	b500      	push	{lr}
     4da:	6801      	ldr	r1, [r0, #0]
     4dc:	291e      	cmp	r1, #30
     4de:	d104      	bne.n	4ea <expect_one_element+0x12>
     4e0:	2200      	movs	r2, #0
     4e2:	f7ff ffea 	bl	4ba <erstes_element_belegen>
     4e6:	f003 fa5b 	bl	39a0 <Code_849>
     4ea:	bd00      	pop	{pc}

000004ec <expect_two_elements>:
     4ec:	b500      	push	{lr}
     4ee:	6881      	ldr	r1, [r0, #8]
     4f0:	291e      	cmp	r1, #30
     4f2:	d107      	bne.n	504 <expect_two_elements+0x18>
     4f4:	2208      	movs	r2, #8
     4f6:	f7ff ffe0 	bl	4ba <erstes_element_belegen>
     4fa:	2200      	movs	r2, #0
     4fc:	f7ff ffe1 	bl	4c2 <element_belegen>
     500:	f003 fa4e 	bl	39a0 <Code_849>
     504:	bd00      	pop	{pc}

00000506 <expect_three_elements>:
     506:	b500      	push	{lr}
     508:	6901      	ldr	r1, [r0, #16]
     50a:	291e      	cmp	r1, #30
     50c:	d10a      	bne.n	524 <expect_three_elements+0x1e>
     50e:	2210      	movs	r2, #16
     510:	f7ff ffd3 	bl	4ba <erstes_element_belegen>
     514:	2208      	movs	r2, #8
     516:	f7ff ffd4 	bl	4c2 <element_belegen>
     51a:	2200      	movs	r2, #0
     51c:	f7ff ffd1 	bl	4c2 <element_belegen>
     520:	f003 fa3e 	bl	39a0 <Code_849>
     524:	bd00      	pop	{pc}

00000526 <expect_four_elements>:
     526:	b500      	push	{lr}
     528:	6981      	ldr	r1, [r0, #24]
     52a:	291e      	cmp	r1, #30
     52c:	d10d      	bne.n	54a <expect_four_elements+0x24>
     52e:	2218      	movs	r2, #24
     530:	f7ff ffc3 	bl	4ba <erstes_element_belegen>
     534:	2210      	movs	r2, #16
     536:	f7ff ffc4 	bl	4c2 <element_belegen>
     53a:	2208      	movs	r2, #8
     53c:	f7ff ffc1 	bl	4c2 <element_belegen>
     540:	2200      	movs	r2, #0
     542:	f7ff ffbe 	bl	4c2 <element_belegen>
     546:	f003 fa2b 	bl	39a0 <Code_849>
     54a:	bd00      	pop	{pc}
     54c:	20000020 	andcs	r0, r0, r0, lsr #32

00000550 <expect_tos_in_register>:
     550:	b500      	push	{lr}
     552:	6801      	ldr	r1, [r0, #0]
     554:	2928      	cmp	r1, #40	; 0x28
     556:	d104      	bne.n	562 <expect_tos_in_register+0x12>
     558:	6843      	ldr	r3, [r0, #4]
     55a:	f7ff ff3e 	bl	3da <generiere_konstante>
     55e:	6003      	str	r3, [r0, #0]
     560:	0019      	movs	r1, r3
     562:	bd00      	pop	{pc}

00000564 <expect_nos_in_register>:
     564:	b500      	push	{lr}
     566:	6881      	ldr	r1, [r0, #8]
     568:	2928      	cmp	r1, #40	; 0x28
     56a:	d104      	bne.n	576 <expect_nos_in_register+0x12>
     56c:	68c3      	ldr	r3, [r0, #12]
     56e:	f7ff ff34 	bl	3da <generiere_konstante>
     572:	6083      	str	r3, [r0, #8]
     574:	0019      	movs	r1, r3
     576:	bd00      	pop	{pc}

00000578 <expect_3os_in_register>:
     578:	b500      	push	{lr}
     57a:	6901      	ldr	r1, [r0, #16]
     57c:	2928      	cmp	r1, #40	; 0x28
     57e:	d104      	bne.n	58a <expect_3os_in_register+0x12>
     580:	6943      	ldr	r3, [r0, #20]
     582:	f7ff ff2a 	bl	3da <generiere_konstante>
     586:	6103      	str	r3, [r0, #16]
     588:	0019      	movs	r1, r3
     58a:	bd00      	pop	{pc}

0000058c <nos_change_tos_away_later>:
     58c:	b53e      	push	{r1, r2, r3, r4, r5, lr}
     58e:	6882      	ldr	r2, [r0, #8]
     590:	6903      	ldr	r3, [r0, #16]
     592:	6984      	ldr	r4, [r0, #24]
     594:	6a05      	ldr	r5, [r0, #32]
     596:	429a      	cmp	r2, r3
     598:	d003      	beq.n	5a2 <nos_change_tos_away_later+0x16>
     59a:	42a2      	cmp	r2, r4
     59c:	d001      	beq.n	5a2 <nos_change_tos_away_later+0x16>
     59e:	42aa      	cmp	r2, r5
     5a0:	d10a      	bne.n	5b8 <nos_change_tos_away_later+0x2c>
     5a2:	2a07      	cmp	r2, #7
     5a4:	d808      	bhi.n	5b8 <nos_change_tos_away_later+0x2c>
     5a6:	f847 6d04 	str.w	r6, [r7, #-4]!
     5aa:	00d6      	lsls	r6, r2, #3
     5ac:	f7ff ff60 	bl	470 <get_free_register>
     5b0:	431e      	orrs	r6, r3
     5b2:	6083      	str	r3, [r0, #8]
     5b4:	f003 f9f4 	bl	39a0 <Code_849>
     5b8:	bd3e      	pop	{r1, r2, r3, r4, r5, pc}

000005ba <make_tos_changeable>:
     5ba:	b53e      	push	{r1, r2, r3, r4, r5, lr}
     5bc:	6801      	ldr	r1, [r0, #0]
     5be:	6882      	ldr	r2, [r0, #8]
     5c0:	6903      	ldr	r3, [r0, #16]
     5c2:	6984      	ldr	r4, [r0, #24]
     5c4:	6a05      	ldr	r5, [r0, #32]
     5c6:	4291      	cmp	r1, r2
     5c8:	d006      	beq.n	5d8 <make_tos_changeable+0x1e>
     5ca:	4299      	cmp	r1, r3
     5cc:	d004      	beq.n	5d8 <make_tos_changeable+0x1e>
     5ce:	42a1      	cmp	r1, r4
     5d0:	d002      	beq.n	5d8 <make_tos_changeable+0x1e>
     5d2:	42a9      	cmp	r1, r5
     5d4:	d000      	beq.n	5d8 <make_tos_changeable+0x1e>
     5d6:	bd3e      	pop	{r1, r2, r3, r4, r5, pc}
     5d8:	f847 6d04 	str.w	r6, [r7, #-4]!
     5dc:	00ce      	lsls	r6, r1, #3
     5de:	f7ff ff47 	bl	470 <get_free_register>
     5e2:	431e      	orrs	r6, r3
     5e4:	6003      	str	r3, [r0, #0]
     5e6:	f003 f9db 	bl	39a0 <Code_849>
     5ea:	bd3e      	pop	{r1, r2, r3, r4, r5, pc}

000005ec <tos_registerwechsel>:
     5ec:	b500      	push	{lr}
     5ee:	f7ff fe76 	bl	2de <eliminiere_tos>
     5f2:	f7ff fe6a 	bl	2ca <befreie_tos>
     5f6:	f7ff ff3b 	bl	470 <get_free_register>
     5fa:	6003      	str	r3, [r0, #0]
     5fc:	bd00      	pop	{pc}

000005fe <push_lr_nachholen>:
     5fe:	b501      	push	{r0, lr}
     600:	4806      	ldr	r0, [pc, #24]	; (61c <push_lr_nachholen+0x1e>)
     602:	6803      	ldr	r3, [r0, #0]
     604:	3301      	adds	r3, #1
     606:	d008      	beq.n	61a <push_lr_nachholen+0x1c>
     608:	2300      	movs	r3, #0
     60a:	43db      	mvns	r3, r3
     60c:	6003      	str	r3, [r0, #0]
     60e:	f847 6d04 	str.w	r6, [r7, #-4]!
     612:	f24b 5600 	movw	r6, #46336	; 0xb500
     616:	f003 f9c3 	bl	39a0 <Code_849>
     61a:	bd01      	pop	{r0, pc}
     61c:	2001ffd8 	ldrdcs	pc, [r1], -r8

00000620 <Dictionary_67>:
     620:	00000644 	andeq	r0, r0, r4, asr #12
     624:	32040242 	andcc	r0, r4, #536870916	; 0x20000004
     628:	00707564 	rsbseq	r7, r0, r4, ror #10

0000062c <Code_67>:
     62c:	6838      	ldr	r0, [r7, #0]
     62e:	f847 6d04 	str.w	r6, [r7, #-4]!
     632:	3f04      	subs	r7, #4
     634:	6038      	str	r0, [r7, #0]
     636:	4770      	bx	lr
     638:	b500      	push	{lr}
     63a:	f000 fcc3 	bl	fc4 <over_allocator>
     63e:	f000 fcc1 	bl	fc4 <over_allocator>
     642:	bd00      	pop	{pc}

00000644 <Dictionary_69>:
     644:	00000662 	andeq	r0, r0, r2, ror #12
     648:	32050262 	andcc	r0, r5, #536870918	; 0x20000006
     64c:	706f7264 	rsbvc	r7, pc, r4, ror #4

00000650 <Code_69>:
     650:	3704      	adds	r7, #4
     652:	cf40      	ldmia	r7!, {r6}
     654:	4770      	bx	lr
     656:	b500      	push	{lr}
     658:	f000 fc64 	bl	f24 <drop_allocator>
     65c:	f000 fc62 	bl	f24 <drop_allocator>
     660:	bd00      	pop	{pc}

00000662 <Dictionary_71>:
     662:	000006a8 	andeq	r0, r0, r8, lsr #13
     666:	32050244 	andcc	r0, r5, #68, 4	; 0x40000004
     66a:	70617773 	rsbvc	r7, r1, r3, ror r7

0000066e <Code_71>:
     66e:	cf07      	ldmia	r7!, {r0, r1, r2}
     670:	3f04      	subs	r7, #4
     672:	6038      	str	r0, [r7, #0]
     674:	f847 6d04 	str.w	r6, [r7, #-4]!
     678:	3f04      	subs	r7, #4
     67a:	603a      	str	r2, [r7, #0]
     67c:	000e      	movs	r6, r1
     67e:	4770      	bx	lr

00000680 <dswap_allocator>:
     680:	b500      	push	{lr}
     682:	f7ff ff50 	bl	526 <expect_four_elements>
     686:	6802      	ldr	r2, [r0, #0]
     688:	6903      	ldr	r3, [r0, #16]
     68a:	6003      	str	r3, [r0, #0]
     68c:	6102      	str	r2, [r0, #16]
     68e:	6842      	ldr	r2, [r0, #4]
     690:	6943      	ldr	r3, [r0, #20]
     692:	6043      	str	r3, [r0, #4]
     694:	6142      	str	r2, [r0, #20]
     696:	6882      	ldr	r2, [r0, #8]
     698:	6983      	ldr	r3, [r0, #24]
     69a:	6083      	str	r3, [r0, #8]
     69c:	6182      	str	r2, [r0, #24]
     69e:	68c2      	ldr	r2, [r0, #12]
     6a0:	69c3      	ldr	r3, [r0, #28]
     6a2:	60c3      	str	r3, [r0, #12]
     6a4:	61c2      	str	r2, [r0, #28]
     6a6:	bd00      	pop	{pc}

000006a8 <Dictionary_73>:
     6a8:	000006d0 	ldrdeq	r0, [r0], -r0	; <UNPREDICTABLE>
     6ac:	32040262 	andcc	r0, r4, #536870918	; 0x20000006
     6b0:	0070696e 	rsbseq	r6, r0, lr, ror #18

000006b4 <Code_73>:
     6b4:	cf07      	ldmia	r7!, {r0, r1, r2}
     6b6:	3f04      	subs	r7, #4
     6b8:	6038      	str	r0, [r7, #0]
     6ba:	4770      	bx	lr
     6bc:	b500      	push	{lr}
     6be:	f7ff ff32 	bl	526 <expect_four_elements>
     6c2:	f7ff ffdd 	bl	680 <dswap_allocator>
     6c6:	f7ff fe0a 	bl	2de <eliminiere_tos>
     6ca:	f7ff fe08 	bl	2de <eliminiere_tos>
     6ce:	bd00      	pop	{pc}

000006d0 <Dictionary_74>:
     6d0:	000006ea 	andeq	r0, r0, sl, ror #13
     6d4:	32050044 	andcc	r0, r5, #68	; 0x44
     6d8:	7265766f 	rsbvc	r7, r5, #116391936	; 0x6f00000

000006dc <Code_74>:
     6dc:	68b8      	ldr	r0, [r7, #8]
     6de:	f847 6d04 	str.w	r6, [r7, #-4]!
     6e2:	3f04      	subs	r7, #4
     6e4:	6038      	str	r0, [r7, #0]
     6e6:	68fe      	ldr	r6, [r7, #12]
     6e8:	4770      	bx	lr

000006ea <Dictionary_76>:
     6ea:	0000070e 	andeq	r0, r0, lr, lsl #14
     6ee:	32050044 	andcc	r0, r5, #68	; 0x44
     6f2:	6b637574 	blvs	18ddcca <RCC_PLL1DIVR_Value+0x8ada2b>

000006f6 <Code_76>:
     6f6:	cf07      	ldmia	r7!, {r0, r1, r2}
     6f8:	3f04      	subs	r7, #4
     6fa:	6038      	str	r0, [r7, #0]
     6fc:	f847 6d04 	str.w	r6, [r7, #-4]!
     700:	3f04      	subs	r7, #4
     702:	603a      	str	r2, [r7, #0]
     704:	3f04      	subs	r7, #4
     706:	6039      	str	r1, [r7, #0]
     708:	3f04      	subs	r7, #4
     70a:	6038      	str	r0, [r7, #0]
     70c:	4770      	bx	lr

0000070e <Dictionary_78>:
     70e:	00000730 	andeq	r0, r0, r0, lsr r7
     712:	32040046 	andcc	r0, r4, #70	; 0x46
     716:	00746f72 	rsbseq	r6, r4, r2, ror pc

0000071a <Code_78>:
     71a:	6838      	ldr	r0, [r7, #0]
     71c:	68b9      	ldr	r1, [r7, #8]
     71e:	693a      	ldr	r2, [r7, #16]
     720:	60b8      	str	r0, [r7, #8]
     722:	6139      	str	r1, [r7, #16]
     724:	603a      	str	r2, [r7, #0]
     726:	6879      	ldr	r1, [r7, #4]
     728:	607e      	str	r6, [r7, #4]
     72a:	68fe      	ldr	r6, [r7, #12]
     72c:	60f9      	str	r1, [r7, #12]
     72e:	4770      	bx	lr

00000730 <Dictionary_79>:
     730:	00000752 	andeq	r0, r0, r2, asr r7
     734:	32050046 	andcc	r0, r5, #70	; 0x46
     738:	746f722d 	strbtvc	r7, [pc], #-557	; 740 <Code_79+0x4>

0000073c <Code_79>:
     73c:	6838      	ldr	r0, [r7, #0]
     73e:	68b9      	ldr	r1, [r7, #8]
     740:	693a      	ldr	r2, [r7, #16]
     742:	6138      	str	r0, [r7, #16]
     744:	6039      	str	r1, [r7, #0]
     746:	60ba      	str	r2, [r7, #8]
     748:	68f9      	ldr	r1, [r7, #12]
     74a:	60fe      	str	r6, [r7, #12]
     74c:	687e      	ldr	r6, [r7, #4]
     74e:	6079      	str	r1, [r7, #4]
     750:	4770      	bx	lr

00000752 <Dictionary_80>:
     752:	0000077a 	andeq	r0, r0, sl, ror r7
     756:	32030220 	andcc	r0, r3, #32, 4
     75a:	 	svcgt	0x0001723e

0000075c <Code_80>:
     75c:	cf01      	ldmia	r7!, {r0}
     75e:	b401      	push	{r0}
     760:	b440      	push	{r6}
     762:	cf40      	ldmia	r7!, {r6}
     764:	4770      	bx	lr
     766:	b500      	push	{lr}
     768:	f7ff ff49 	bl	5fe <push_lr_nachholen>
     76c:	f000 fbfd 	bl	f6a <swap_allocator>
     770:	f000 fc9d 	bl	10ae <allocator_to_r>
     774:	f000 fc9b 	bl	10ae <allocator_to_r>
     778:	bd00      	pop	{pc}

0000077a <Dictionary_81>:
     77a:	000007a6 	andeq	r0, r0, r6, lsr #15
     77e:	32030220 	andcc	r0, r3, #32, 4
     782:	 			; <UNDEFINED> instruction: 0xf8473e72

00000784 <Code_81>:
     784:	f847 6d04 	str.w	r6, [r7, #-4]!
     788:	bc40      	pop	{r6}
     78a:	bc01      	pop	{r0}
     78c:	3f04      	subs	r7, #4
     78e:	6038      	str	r0, [r7, #0]
     790:	4770      	bx	lr
     792:	b500      	push	{lr}
     794:	f7ff ff33 	bl	5fe <push_lr_nachholen>
     798:	f000 fca5 	bl	10e6 <allocator_r_from>
     79c:	f000 fca3 	bl	10e6 <allocator_r_from>
     7a0:	f000 fbe3 	bl	f6a <swap_allocator>
     7a4:	bd00      	pop	{pc}

000007a6 <Dictionary_83>:
     7a6:	000007d6 	ldrdeq	r0, [r0], -r6
     7aa:	32030220 	andcc	r0, r3, #32, 4
     7ae:	 			; <UNDEFINED> instruction: 0xf8474072

000007b0 <Code_83>:
     7b0:	f847 6d04 	str.w	r6, [r7, #-4]!
     7b4:	9e01      	ldr	r6, [sp, #4]
     7b6:	f847 6d04 	str.w	r6, [r7, #-4]!
     7ba:	9e00      	ldr	r6, [sp, #0]
     7bc:	4770      	bx	lr
     7be:	b500      	push	{lr}
     7c0:	f7ff ff1d 	bl	5fe <push_lr_nachholen>
     7c4:	f847 6d04 	str.w	r6, [r7, #-4]!
     7c8:	f649 0601 	movw	r6, #38913	; 0x9801
     7cc:	f003 fe3d 	bl	444a <loop_j_allocator>
     7d0:	f003 fe37 	bl	4442 <rfetch_allocator>
     7d4:	bd00      	pop	{pc}

000007d6 <Dictionary_88>:
     7d6:	000007fc 	strdeq	r0, [r0], -ip
     7da:	32060220 	andcc	r0, r6, #32, 4
     7de:	6f726472 	svcvs	0x00726472
     7e2:	 	andlt	r0, r2, r0, ror r0

000007e4 <Code_88>:
     7e4:	b002      	add	sp, #8
     7e6:	4770      	bx	lr
     7e8:	b500      	push	{lr}
     7ea:	f7ff ff08 	bl	5fe <push_lr_nachholen>
     7ee:	f847 6d04 	str.w	r6, [r7, #-4]!
     7f2:	f24b 0602 	movw	r6, #45058	; 0xb002
     7f6:	f003 f8d3 	bl	39a0 <Code_849>
     7fa:	bd00      	pop	{pc}

000007fc <Dictionary_91>:
     7fc:	00000814 	andeq	r0, r0, r4, lsl r8
     800:	64030042 	strvs	r0, [r3], #-66	; 0xffffffbe
     804:	 	ldmdavs	r8!, {r1, r4, r5, r8, r9, sl, fp, sp}

00000806 <Code_91>:
     806:	6838      	ldr	r0, [r7, #0]
     808:	07f1      	lsls	r1, r6, #31
     80a:	1076      	asrs	r6, r6, #1
     80c:	0840      	lsrs	r0, r0, #1
     80e:	4308      	orrs	r0, r1
     810:	6038      	str	r0, [r7, #0]
     812:	4770      	bx	lr

00000814 <Dictionary_92>:
     814:	0000082a 	andeq	r0, r0, sl, lsr #16
     818:	64030262 	strvs	r0, [r3], #-610	; 0xfffffd9e
     81c:	 	ldmdavs	r8!, {r1, r4, r5, r9, fp, sp}

0000081e <Code_92>:
     81e:	6838      	ldr	r0, [r7, #0]
     820:	1800      	adds	r0, r0, r0
     822:	4176      	adcs	r6, r6
     824:	6038      	str	r0, [r7, #0]
     826:	4770      	bx	lr
     828:	e017      	b.n	85a <Code_94+0xa>

0000082a <Dictionary_93>:
     82a:	00000844 	andeq	r0, r0, r4, asr #16
     82e:	64040042 	strvs	r0, [r4], #-66	; 0xffffffbe
     832:	00726873 	rsbseq	r6, r2, r3, ror r8

00000836 <Code_93>:
     836:	6838      	ldr	r0, [r7, #0]
     838:	07f1      	lsls	r1, r6, #31
     83a:	0876      	lsrs	r6, r6, #1
     83c:	0840      	lsrs	r0, r0, #1
     83e:	4308      	orrs	r0, r1
     840:	6038      	str	r0, [r7, #0]
     842:	4770      	bx	lr

00000844 <Dictionary_94>:
     844:	00000890 	muleq	r0, r0, r8
     848:	64040262 	strvs	r0, [r4], #-610	; 0xfffffd9e
     84c:	006c6873 	rsbeq	r6, ip, r3, ror r8

00000850 <Code_94>:
     850:	6838      	ldr	r0, [r7, #0]
     852:	1800      	adds	r0, r0, r0
     854:	4176      	adcs	r6, r6
     856:	6038      	str	r0, [r7, #0]
     858:	4770      	bx	lr
     85a:	b500      	push	{lr}
     85c:	f7ff fe46 	bl	4ec <expect_two_elements>
     860:	f7ff fe76 	bl	550 <expect_tos_in_register>
     864:	f7ff fea9 	bl	5ba <make_tos_changeable>
     868:	f000 fb7f 	bl	f6a <swap_allocator>
     86c:	f7ff fe70 	bl	550 <expect_tos_in_register>
     870:	f7ff fea3 	bl	5ba <make_tos_changeable>
     874:	f847 6d04 	str.w	r6, [r7, #-4]!
     878:	2640      	movs	r6, #64	; 0x40
     87a:	f001 fe9b 	bl	25b4 <smalltworegisters>
     87e:	f000 fb74 	bl	f6a <swap_allocator>
     882:	f847 6d04 	str.w	r6, [r7, #-4]!
     886:	f244 1640 	movw	r6, #16704	; 0x4140
     88a:	f001 fe93 	bl	25b4 <smalltworegisters>
     88e:	bd00      	pop	{pc}

00000890 <Dictionary_99>:
     890:	000008a2 	andeq	r0, r0, r2, lsr #17
     894:	64040042 	strvs	r0, [r4], #-66	; 0xffffffbe
     898:	00736261 	rsbseq	r6, r3, r1, ror #4

0000089c <Code_99>:
     89c:	2e00      	cmp	r6, #0
     89e:	d407      	bmi.n	8b0 <Code_100>
     8a0:	4770      	bx	lr

000008a2 <Dictionary_100>:
     8a2:	000008c0 	andeq	r0, r0, r0, asr #17
     8a6:	64070042 	strvs	r0, [r7], #-66	; 0xffffffbe
     8aa:	6167656e 	cmnvs	r7, lr, ror #10
     8ae:	 	ldmdavs	r8!, {r2, r4, r5, r6, r8, sl, sp, lr}

000008b0 <Code_100>:
     8b0:	6838      	ldr	r0, [r7, #0]
     8b2:	2100      	movs	r1, #0
     8b4:	43c0      	mvns	r0, r0
     8b6:	43f6      	mvns	r6, r6
     8b8:	3001      	adds	r0, #1
     8ba:	414e      	adcs	r6, r1
     8bc:	6038      	str	r0, [r7, #0]
     8be:	4770      	bx	lr

000008c0 <Dictionary_101>:
     8c0:	00000910 	andeq	r0, r0, r0, lsl r9
     8c4:	64020264 	strvs	r0, [r2], #-612	; 0xfffffd9c
     8c8:	 	svcgt	0x0007002d

000008ca <Code_101>:
     8ca:	cf07      	ldmia	r7!, {r0, r1, r2}
     8cc:	1a12      	subs	r2, r2, r0
     8ce:	41b1      	sbcs	r1, r6
     8d0:	000e      	movs	r6, r1
     8d2:	3f04      	subs	r7, #4
     8d4:	603a      	str	r2, [r7, #0]
     8d6:	4770      	bx	lr
     8d8:	b500      	push	{lr}
     8da:	f7ff fe24 	bl	526 <expect_four_elements>
     8de:	f000 fb99 	bl	1014 <rot_allocator>
     8e2:	f7ff fe35 	bl	550 <expect_tos_in_register>
     8e6:	f7ff fe68 	bl	5ba <make_tos_changeable>
     8ea:	f000 fb3e 	bl	f6a <swap_allocator>
     8ee:	f7ff fe2f 	bl	550 <expect_tos_in_register>
     8f2:	f7ff fe62 	bl	5ba <make_tos_changeable>
     8f6:	f7ff fec3 	bl	680 <dswap_allocator>
     8fa:	f001 fdc5 	bl	2488 <minus_allocator>
     8fe:	f000 fba5 	bl	104c <minusrot_allocator>
     902:	f847 6d04 	str.w	r6, [r7, #-4]!
     906:	f244 1680 	movw	r6, #16768	; 0x4180
     90a:	f000 fd4e 	bl	13aa <alloc_unkommutativ>
     90e:	bd00      	pop	{pc}

00000910 <Dictionary_104>:
     910:	0000095e 	andeq	r0, r0, lr, asr r9
     914:	64020264 	strvs	r0, [r2], #-612	; 0xfffffd9c
     918:	 	svcgt	0x0007002b

0000091a <Code_104>:
     91a:	cf07      	ldmia	r7!, {r0, r1, r2}
     91c:	1812      	adds	r2, r2, r0
     91e:	414e      	adcs	r6, r1
     920:	3f04      	subs	r7, #4
     922:	603a      	str	r2, [r7, #0]
     924:	4770      	bx	lr
     926:	b500      	push	{lr}
     928:	f7ff fdfd 	bl	526 <expect_four_elements>
     92c:	f000 fb72 	bl	1014 <rot_allocator>
     930:	f7ff fe0e 	bl	550 <expect_tos_in_register>
     934:	f7ff fe41 	bl	5ba <make_tos_changeable>
     938:	f000 fb17 	bl	f6a <swap_allocator>
     93c:	f7ff fe08 	bl	550 <expect_tos_in_register>
     940:	f7ff fe3b 	bl	5ba <make_tos_changeable>
     944:	f7ff fe9c 	bl	680 <dswap_allocator>
     948:	f001 fd83 	bl	2452 <plus_allocator>
     94c:	f000 fb7e 	bl	104c <minusrot_allocator>
     950:	f847 6d04 	str.w	r6, [r7, #-4]!
     954:	f244 1640 	movw	r6, #16704	; 0x4140
     958:	f000 fd2b 	bl	13b2 <alloc_kommutativ>
     95c:	bd00      	pop	{pc}

0000095e <Dictionary_107>:
     95e:	00000988 	andeq	r0, r0, r8, lsl #19
     962:	73030261 	movwvc	r0, #12897	; 0x3261
     966:	 			; <UNDEFINED> instruction: 0xf847643e

00000968 <Code_107>:
     968:	f847 6d04 	str.w	r6, [r7, #-4]!
     96c:	17f6      	asrs	r6, r6, #31
     96e:	4770      	bx	lr
     970:	b500      	push	{lr}
     972:	f000 fac5 	bl	f00 <dup_allocator>
     976:	f7ff fe20 	bl	5ba <make_tos_changeable>
     97a:	f847 6d04 	str.w	r6, [r7, #-4]!
     97e:	f241 76c0 	movw	r6, #6080	; 0x17c0
     982:	f001 fe17 	bl	25b4 <smalltworegisters>
     986:	bd00      	pop	{pc}

00000988 <Dictionary_111>:
     988:	000009e6 	andeq	r0, r0, r6, ror #19
     98c:	75030262 	strvc	r0, [r3, #-610]	; 0xfffffd9e
     990:	 	ldmdavs	r8!, {r0, r2, r3, r5, r6, r9, fp, sp}

00000992 <Code_111>:
     992:	6838      	ldr	r0, [r7, #0]
     994:	fba0 0606 	umull	r0, r6, r0, r6
     998:	6038      	str	r0, [r7, #0]
     99a:	4770      	bx	lr
     99c:	f847 6d04 	str.w	r6, [r7, #-4]!
     9a0:	f8df 6500 	ldr.w	r6, [pc, #1280]	; ea4 <dgleichungleich_common+0x1c>

000009a4 <alloc_multiplikation_m3>:
     9a4:	b500      	push	{lr}
     9a6:	f7ff fda1 	bl	4ec <expect_two_elements>
     9aa:	f7ff fdd1 	bl	550 <expect_tos_in_register>
     9ae:	f7ff fdd9 	bl	564 <expect_nos_in_register>
     9b2:	6801      	ldr	r1, [r0, #0]
     9b4:	430e      	orrs	r6, r1
     9b6:	6881      	ldr	r1, [r0, #8]
     9b8:	ea56 4601 	orrs.w	r6, r6, r1, lsl #16
     9bc:	f7ff fc8f 	bl	2de <eliminiere_tos>
     9c0:	f7ff fc8d 	bl	2de <eliminiere_tos>
     9c4:	f7ff fc81 	bl	2ca <befreie_tos>
     9c8:	f7ff fd52 	bl	470 <get_free_register>
     9cc:	6003      	str	r3, [r0, #0]
     9ce:	ea56 3603 	orrs.w	r6, r6, r3, lsl #12
     9d2:	f7ff fc7a 	bl	2ca <befreie_tos>
     9d6:	f7ff fd4b 	bl	470 <get_free_register>
     9da:	6003      	str	r3, [r0, #0]
     9dc:	ea56 2603 	orrs.w	r6, r6, r3, lsl #8
     9e0:	f003 f80e 	bl	3a00 <Code_858>
     9e4:	bd00      	pop	{pc}

000009e6 <Dictionary_113>:
     9e6:	00000a04 	andeq	r0, r0, r4, lsl #20
     9ea:	6d020262 	sfmvs	f0, 4, [r2, #-392]	; 0xfffffe78
     9ee:	 	ldmdavs	r8!, {r1, r3, r5}

000009f0 <Code_113>:
     9f0:	6838      	ldr	r0, [r7, #0]
     9f2:	fb80 0606 	smull	r0, r6, r0, r6
     9f6:	6038      	str	r0, [r7, #0]
     9f8:	4770      	bx	lr
     9fa:	f847 6d04 	str.w	r6, [r7, #-4]!
     9fe:	f8df 64a8 	ldr.w	r6, [pc, #1192]	; ea8 <dgleichungleich_common+0x20>
     a02:	e7cf      	b.n	9a4 <alloc_multiplikation_m3>

00000a04 <Dictionary_115>:
     a04:	00000a42 	andeq	r0, r0, r2, asr #20
     a08:	75030044 	strvc	r0, [r3, #-68]	; 0xffffffbc
     a0c:	 	svcgt	0x00072a64

00000a0e <Code_115>:
     a0e:	cf07      	ldmia	r7!, {r0, r1, r2}

00000a10 <ud_star_registers>:
     a10:	4356      	muls	r6, r2
     a12:	4341      	muls	r1, r0
     a14:	1876      	adds	r6, r6, r1

00000a16 <ud_star_late_entry>:
     a16:	0c01      	lsrs	r1, r0, #16
     a18:	0c13      	lsrs	r3, r2, #16
     a1a:	4359      	muls	r1, r3
     a1c:	1876      	adds	r6, r6, r1
     a1e:	0c01      	lsrs	r1, r0, #16
     a20:	b280      	uxth	r0, r0
     a22:	b292      	uxth	r2, r2
     a24:	4351      	muls	r1, r2
     a26:	4343      	muls	r3, r0
     a28:	4350      	muls	r0, r2
     a2a:	2200      	movs	r2, #0
     a2c:	18c9      	adds	r1, r1, r3
     a2e:	4152      	adcs	r2, r2
     a30:	0412      	lsls	r2, r2, #16
     a32:	18b6      	adds	r6, r6, r2
     a34:	040a      	lsls	r2, r1, #16
     a36:	0c09      	lsrs	r1, r1, #16
     a38:	1880      	adds	r0, r0, r2
     a3a:	414e      	adcs	r6, r1
     a3c:	3f04      	subs	r7, #4
     a3e:	6038      	str	r0, [r7, #0]
     a40:	4770      	bx	lr

00000a42 <Dictionary_116>:
     a42:	00000ad4 	ldrdeq	r0, [r0], -r4
     a46:	75040044 	strvc	r0, [r4, #-68]	; 0xffffffbc
     a4a:	002a6d64 	eoreq	r6, sl, r4, ror #26

00000a4e <Code_116>:
     a4e:	b510      	push	{r4, lr}
     a50:	2400      	movs	r4, #0
     a52:	f847 6d04 	str.w	r6, [r7, #-4]!
     a56:	687e      	ldr	r6, [r7, #4]
     a58:	f847 6d04 	str.w	r6, [r7, #-4]!
     a5c:	693e      	ldr	r6, [r7, #16]
     a5e:	f7ff ff98 	bl	992 <Code_111>
     a62:	0031      	movs	r1, r6
     a64:	cf40      	ldmia	r7!, {r6}
     a66:	0030      	movs	r0, r6
     a68:	cf40      	ldmia	r7!, {r6}
     a6a:	f847 6d04 	str.w	r6, [r7, #-4]!
     a6e:	683e      	ldr	r6, [r7, #0]
     a70:	f847 6d04 	str.w	r6, [r7, #-4]!
     a74:	68fe      	ldr	r6, [r7, #12]
     a76:	b403      	push	{r0, r1}
     a78:	f7ff ff8b 	bl	992 <Code_111>
     a7c:	bc03      	pop	{r0, r1}
     a7e:	0033      	movs	r3, r6
     a80:	cf40      	ldmia	r7!, {r6}
     a82:	0032      	movs	r2, r6
     a84:	cf40      	ldmia	r7!, {r6}
     a86:	f847 6d04 	str.w	r6, [r7, #-4]!
     a8a:	683e      	ldr	r6, [r7, #0]
     a8c:	f847 6d04 	str.w	r6, [r7, #-4]!
     a90:	693e      	ldr	r6, [r7, #16]
     a92:	b40f      	push	{r0, r1, r2, r3}
     a94:	f7ff ff7d 	bl	992 <Code_111>
     a98:	bc0f      	pop	{r0, r1, r2, r3}
     a9a:	1992      	adds	r2, r2, r6
     a9c:	4163      	adcs	r3, r4
     a9e:	cf40      	ldmia	r7!, {r6}
     aa0:	1989      	adds	r1, r1, r6
     aa2:	4162      	adcs	r2, r4
     aa4:	4163      	adcs	r3, r4
     aa6:	cf40      	ldmia	r7!, {r6}
     aa8:	f847 6d04 	str.w	r6, [r7, #-4]!
     aac:	687e      	ldr	r6, [r7, #4]
     aae:	f847 6d04 	str.w	r6, [r7, #-4]!
     ab2:	68fe      	ldr	r6, [r7, #12]
     ab4:	b40f      	push	{r0, r1, r2, r3}
     ab6:	f7ff ff6c 	bl	992 <Code_111>
     aba:	bc0f      	pop	{r0, r1, r2, r3}
     abc:	1992      	adds	r2, r2, r6
     abe:	4163      	adcs	r3, r4
     ac0:	cf40      	ldmia	r7!, {r6}
     ac2:	1989      	adds	r1, r1, r6
     ac4:	4162      	adcs	r2, r4
     ac6:	4163      	adcs	r3, r4
     ac8:	cf40      	ldmia	r7!, {r6}
     aca:	001e      	movs	r6, r3
     acc:	603a      	str	r2, [r7, #0]
     ace:	6079      	str	r1, [r7, #4]
     ad0:	60b8      	str	r0, [r7, #8]
     ad2:	bd10      	pop	{r4, pc}

00000ad4 <Dictionary_133>:
     ad4:	00000af6 	strdeq	r0, [r0], -r6
     ad8:	2a020043 	bcs	80bec <ADC12_Common_CSR_EOS_SLV+0xbec>
     adc:	 	strlt	r0, [r0, #-47]	; 0xffffffd1

00000ade <Code_133>:
     ade:	b500      	push	{lr}
     ae0:	b440      	push	{r6}
     ae2:	cf40      	ldmia	r7!, {r6}
     ae4:	f7ff ff84 	bl	9f0 <Code_113>
     ae8:	f847 6d04 	str.w	r6, [r7, #-4]!
     aec:	bc40      	pop	{r6}
     aee:	f000 f84c 	bl	b8a <Code_156>
     af2:	3704      	adds	r7, #4
     af4:	bd00      	pop	{pc}

00000af6 <Dictionary_138>:
     af6:	00000b18 	andeq	r0, r0, r8, lsl fp
     afa:	2a050043 	bcs	140c0e <ADC12_Common_CSR_OVR_SLV+0x40c0e>
     afe:	646f6d2f 	strbtvs	r6, [pc], #-3375	; b06 <Code_138+0x4>

00000b02 <Code_138>:
     b02:	b500      	push	{lr}
     b04:	b440      	push	{r6}
     b06:	cf40      	ldmia	r7!, {r6}
     b08:	f7ff ff72 	bl	9f0 <Code_113>
     b0c:	f847 6d04 	str.w	r6, [r7, #-4]!
     b10:	bc40      	pop	{r6}
     b12:	f000 f83a 	bl	b8a <Code_156>
     b16:	bd00      	pop	{pc}

00000b18 <Dictionary_142>:
     b18:	00000b3a 	andeq	r0, r0, sl, lsr fp
     b1c:	75030043 	strvc	r0, [r3, #-67]	; 0xffffffbd
     b20:	 	strlt	r2, [r0, #-3882]	; 0xfffff0d6

00000b22 <Code_142>:
     b22:	b500      	push	{lr}
     b24:	b440      	push	{r6}
     b26:	cf40      	ldmia	r7!, {r6}
     b28:	f7ff ff33 	bl	992 <Code_111>
     b2c:	f847 6d04 	str.w	r6, [r7, #-4]!
     b30:	bc40      	pop	{r6}
     b32:	f000 f81b 	bl	b6c <Code_151>
     b36:	3704      	adds	r7, #4
     b38:	bd00      	pop	{pc}

00000b3a <Dictionary_147>:
     b3a:	00000b5e 	andeq	r0, r0, lr, asr fp
     b3e:	75060043 	strvc	r0, [r6, #-67]	; 0xffffffbd
     b42:	6f6d2f2a 	svcvs	0x006d2f2a
     b46:	 	strlt	r0, [r0, #-100]	; 0xffffff9c

00000b48 <Code_147>:
     b48:	b500      	push	{lr}
     b4a:	b440      	push	{r6}
     b4c:	cf40      	ldmia	r7!, {r6}
     b4e:	f7ff ff20 	bl	992 <Code_111>
     b52:	f847 6d04 	str.w	r6, [r7, #-4]!
     b56:	bc40      	pop	{r6}
     b58:	f000 f808 	bl	b6c <Code_151>
     b5c:	bd00      	pop	{pc}

00000b5e <Dictionary_151>:
     b5e:	00000b7e 	andeq	r0, r0, lr, ror fp
     b62:	75060043 	strvc	r0, [r6, #-67]	; 0xffffffbd
     b66:	6f6d2f6d 	svcvs	0x006d2f6d
     b6a:	 	strlt	r0, [r0, #-100]	; 0xffffff9c

00000b6c <Code_151>:
     b6c:	b500      	push	{lr}
     b6e:	f847 6d04 	str.w	r6, [r7, #-4]!
     b72:	2600      	movs	r6, #0
     b74:	f000 f819 	bl	baa <Code_160>
     b78:	cf40      	ldmia	r7!, {r6}
     b7a:	3704      	adds	r7, #4
     b7c:	bd00      	pop	{pc}

00000b7e <Dictionary_156>:
     b7e:	00000b9c 	muleq	r0, ip, fp
     b82:	6d050043 	stcvs	0, cr0, [r5, #-268]	; 0xfffffef4
     b86:	646f6d2f 	strbtvs	r6, [pc], #-3375	; b8e <Code_156+0x4>

00000b8a <Code_156>:
     b8a:	b500      	push	{lr}
     b8c:	f847 6d04 	str.w	r6, [r7, #-4]!
     b90:	17f6      	asrs	r6, r6, #31
     b92:	f000 f832 	bl	bfa <Code_162>
     b96:	cf40      	ldmia	r7!, {r6}
     b98:	3704      	adds	r7, #4
     b9a:	bd00      	pop	{pc}

00000b9c <Dictionary_160>:
     b9c:	00000bee 	andeq	r0, r0, lr, ror #23
     ba0:	75060044 	strvc	r0, [r6, #-68]	; 0xffffffbc
     ba4:	6f6d2f64 	svcvs	0x006d2f64
     ba8:	 	ldrtlt	r0, [r0], #-100	; 0xffffff9c

00000baa <Code_160>:
     baa:	b430      	push	{r4, r5}
     bac:	2300      	movs	r3, #0
     bae:	2200      	movs	r2, #0
     bb0:	6879      	ldr	r1, [r7, #4]
     bb2:	68b8      	ldr	r0, [r7, #8]

00000bb4 <ud_slash_mod_internal>:
     bb4:	0035      	movs	r5, r6
     bb6:	683c      	ldr	r4, [r7, #0]
     bb8:	2640      	movs	r6, #64	; 0x40
     bba:	0040      	lsls	r0, r0, #1
     bbc:	4149      	adcs	r1, r1
     bbe:	4152      	adcs	r2, r2
     bc0:	415b      	adcs	r3, r3
     bc2:	42ab      	cmp	r3, r5
     bc4:	d802      	bhi.n	bcc <ud_slash_mod_internal+0x18>
     bc6:	d304      	bcc.n	bd2 <ud_slash_mod_internal+0x1e>
     bc8:	42a2      	cmp	r2, r4
     bca:	d302      	bcc.n	bd2 <ud_slash_mod_internal+0x1e>
     bcc:	1b12      	subs	r2, r2, r4
     bce:	41ab      	sbcs	r3, r5
     bd0:	3001      	adds	r0, #1
     bd2:	3e01      	subs	r6, #1
     bd4:	d1f1      	bne.n	bba <ud_slash_mod_internal+0x6>
     bd6:	000e      	movs	r6, r1
     bd8:	6038      	str	r0, [r7, #0]
     bda:	607b      	str	r3, [r7, #4]
     bdc:	60ba      	str	r2, [r7, #8]
     bde:	bc30      	pop	{r4, r5}
     be0:	4770      	bx	lr

00000be2 <uf_slash_mod>:
     be2:	b430      	push	{r4, r5}
     be4:	2300      	movs	r3, #0
     be6:	687a      	ldr	r2, [r7, #4]
     be8:	68b9      	ldr	r1, [r7, #8]
     bea:	2000      	movs	r0, #0
     bec:	e7e2      	b.n	bb4 <ud_slash_mod_internal>

00000bee <Dictionary_162>:
     bee:	00000c64 	andeq	r0, r0, r4, ror #24
     bf2:	64050044 	strvs	r0, [r5], #-68	; 0xffffffbc
     bf6:	646f6d2f 	strbtvs	r6, [pc], #-3375	; bfe <Code_162+0x4>

00000bfa <Code_162>:
     bfa:	b500      	push	{lr}
     bfc:	17f0      	asrs	r0, r6, #31
     bfe:	d019      	beq.n	c34 <Code_162+0x3a>
     c00:	f7ff fe56 	bl	8b0 <Code_100>
     c04:	f7ff fd33 	bl	66e <Code_71>
     c08:	17f0      	asrs	r0, r6, #31
     c0a:	d00c      	beq.n	c26 <Code_162+0x2c>
     c0c:	f7ff fe50 	bl	8b0 <Code_100>
     c10:	f7ff fd2d 	bl	66e <Code_71>
     c14:	f7ff ffc9 	bl	baa <Code_160>
     c18:	f7ff fd29 	bl	66e <Code_71>
     c1c:	f7ff fe48 	bl	8b0 <Code_100>
     c20:	f7ff fd25 	bl	66e <Code_71>
     c24:	bd00      	pop	{pc}
     c26:	f7ff fd22 	bl	66e <Code_71>
     c2a:	f7ff ffbe 	bl	baa <Code_160>
     c2e:	f7ff fe3f 	bl	8b0 <Code_100>
     c32:	bd00      	pop	{pc}
     c34:	f7ff fd1b 	bl	66e <Code_71>
     c38:	17f0      	asrs	r0, r6, #31
     c3a:	d00e      	beq.n	c5a <Code_162+0x60>
     c3c:	f7ff fe38 	bl	8b0 <Code_100>
     c40:	f7ff fd15 	bl	66e <Code_71>
     c44:	f7ff ffb1 	bl	baa <Code_160>
     c48:	f7ff fe32 	bl	8b0 <Code_100>
     c4c:	f7ff fd0f 	bl	66e <Code_71>
     c50:	f7ff fe2e 	bl	8b0 <Code_100>
     c54:	f7ff fd0b 	bl	66e <Code_71>
     c58:	bd00      	pop	{pc}
     c5a:	f7ff fd08 	bl	66e <Code_71>
     c5e:	f7ff ffa4 	bl	baa <Code_160>
     c62:	bd00      	pop	{pc}

00000c64 <Dictionary_163>:
     c64:	00000c7a 	andeq	r0, r0, sl, ror ip
     c68:	64020044 	strvs	r0, [r2], #-68	; 0xffffffbc
     c6c:	 	strlt	r0, [r0, #-47]	; 0xffffffd1

00000c6e <Code_163>:
     c6e:	b500      	push	{lr}
     c70:	f7ff ffc3 	bl	bfa <Code_162>
     c74:	f7ff fd1e 	bl	6b4 <Code_73>
     c78:	bd00      	pop	{pc}

00000c7a <Dictionary_164>:
     c7a:	00000cc2 	andeq	r0, r0, r2, asr #25
     c7e:	66020044 	strvs	r0, [r2], -r4, asr #32
     c82:	 	strlt	r0, [r0, #-42]	; 0xffffffd6

00000c84 <Code_164>:
     c84:	b500      	push	{lr}
     c86:	17f0      	asrs	r0, r6, #31
     c88:	d00d      	beq.n	ca6 <Code_164+0x22>
     c8a:	f7ff fe11 	bl	8b0 <Code_100>
     c8e:	f7ff fcee 	bl	66e <Code_71>
     c92:	17f0      	asrs	r0, r6, #31
     c94:	d00d      	beq.n	cb2 <Code_164+0x2e>
     c96:	f7ff fe0b 	bl	8b0 <Code_100>
     c9a:	f7ff fed8 	bl	a4e <Code_116>
     c9e:	cf40      	ldmia	r7!, {r6}
     ca0:	cf01      	ldmia	r7!, {r0}
     ca2:	6038      	str	r0, [r7, #0]
     ca4:	bd00      	pop	{pc}
     ca6:	f7ff fce2 	bl	66e <Code_71>
     caa:	17f0      	asrs	r0, r6, #31
     cac:	d0f5      	beq.n	c9a <Code_164+0x16>
     cae:	f7ff fdff 	bl	8b0 <Code_100>
     cb2:	f7ff fecc 	bl	a4e <Code_116>
     cb6:	cf40      	ldmia	r7!, {r6}
     cb8:	cf01      	ldmia	r7!, {r0}
     cba:	6038      	str	r0, [r7, #0]
     cbc:	f7ff fdf8 	bl	8b0 <Code_100>
     cc0:	bd00      	pop	{pc}

00000cc2 <Dictionary_167>:
     cc2:	00000d0e 	andeq	r0, r0, lr, lsl #26
     cc6:	66020044 	strvs	r0, [r2], -r4, asr #32
     cca:	 	strlt	r0, [r0, #-47]	; 0xffffffd1

00000ccc <Code_167>:
     ccc:	b500      	push	{lr}
     cce:	17f0      	asrs	r0, r6, #31
     cd0:	d00e      	beq.n	cf0 <Code_167+0x24>
     cd2:	f7ff fded 	bl	8b0 <Code_100>
     cd6:	f7ff fcca 	bl	66e <Code_71>
     cda:	17f0      	asrs	r0, r6, #31
     cdc:	d00e      	beq.n	cfc <Code_167+0x30>
     cde:	f7ff fde7 	bl	8b0 <Code_100>
     ce2:	f7ff fcc4 	bl	66e <Code_71>
     ce6:	f7ff ff7c 	bl	be2 <uf_slash_mod>
     cea:	f7ff fce3 	bl	6b4 <Code_73>
     cee:	bd00      	pop	{pc}
     cf0:	f7ff fcbd 	bl	66e <Code_71>
     cf4:	17f0      	asrs	r0, r6, #31
     cf6:	d0f4      	beq.n	ce2 <Code_167+0x16>
     cf8:	f7ff fdda 	bl	8b0 <Code_100>
     cfc:	f7ff fcb7 	bl	66e <Code_71>
     d00:	f7ff ff6f 	bl	be2 <uf_slash_mod>
     d04:	f7ff fdd4 	bl	8b0 <Code_100>
     d08:	f7ff fcd4 	bl	6b4 <Code_73>
     d0c:	bd00      	pop	{pc}

00000d0e <Dictionary_168>:
     d0e:	00000d56 	andeq	r0, r0, r6, asr sp
     d12:	32020220 	andcc	r0, r2, #32, 4
     d16:	 	svcgt	0x00060021

00000d18 <Code_168>:
     d18:	cf06      	ldmia	r7!, {r1, r2}
     d1a:	6031      	str	r1, [r6, #0]
     d1c:	6072      	str	r2, [r6, #4]
     d1e:	cf40      	ldmia	r7!, {r6}
     d20:	4770      	bx	lr
     d22:	b500      	push	{lr}
     d24:	f7ff fbef 	bl	506 <expect_three_elements>
     d28:	6801      	ldr	r1, [r0, #0]
     d2a:	6842      	ldr	r2, [r0, #4]
     d2c:	b406      	push	{r1, r2}
     d2e:	f000 fe0c 	bl	194a <allocator_4store>
     d32:	f7ff faca 	bl	2ca <befreie_tos>
     d36:	bc06      	pop	{r1, r2}
     d38:	6001      	str	r1, [r0, #0]
     d3a:	2928      	cmp	r1, #40	; 0x28
     d3c:	d006      	beq.n	d4c <Code_168+0x34>
     d3e:	f847 6d04 	str.w	r6, [r7, #-4]!
     d42:	f246 0640 	movw	r6, #24640	; 0x6040
     d46:	f000 fe04 	bl	1952 <allocator_4store_anderer_opcode>
     d4a:	bd00      	pop	{pc}
     d4c:	3204      	adds	r2, #4
     d4e:	6042      	str	r2, [r0, #4]
     d50:	f000 fdfb 	bl	194a <allocator_4store>
     d54:	bd00      	pop	{pc}

00000d56 <Dictionary_172>:
     d56:	00000da0 	andeq	r0, r0, r0, lsr #27
     d5a:	32020220 	andcc	r0, r2, #32, 4
     d5e:	 	svccc	0x00040040

00000d60 <Code_172>:
     d60:	3f04      	subs	r7, #4
     d62:	6870      	ldr	r0, [r6, #4]
     d64:	6038      	str	r0, [r7, #0]
     d66:	6836      	ldr	r6, [r6, #0]
     d68:	4770      	bx	lr
     d6a:	b500      	push	{lr}
     d6c:	f000 f8c8 	bl	f00 <dup_allocator>
     d70:	6801      	ldr	r1, [r0, #0]
     d72:	2928      	cmp	r1, #40	; 0x28
     d74:	d00a      	beq.n	d8c <Code_172+0x2c>
     d76:	f847 6d04 	str.w	r6, [r7, #-4]!
     d7a:	f646 0640 	movw	r6, #26688	; 0x6840
     d7e:	f000 fdc5 	bl	190c <allocator_4fetch_anderer_opcode>
     d82:	f000 f8f2 	bl	f6a <swap_allocator>
     d86:	f000 fdbd 	bl	1904 <allocator_4fetch>
     d8a:	bd00      	pop	{pc}
     d8c:	6841      	ldr	r1, [r0, #4]
     d8e:	3104      	adds	r1, #4
     d90:	6041      	str	r1, [r0, #4]
     d92:	f000 fdb7 	bl	1904 <allocator_4fetch>
     d96:	f000 f8e8 	bl	f6a <swap_allocator>
     d9a:	f000 fdb3 	bl	1904 <allocator_4fetch>
     d9e:	bd00      	pop	{pc}

00000da0 <Dictionary_175>:
     da0:	00000db4 			; <UNDEFINED> instruction: 0x00000db4
     da4:	64030044 	strvs	r0, [r3], #-68	; 0xffffffbc
     da8:	 	svcgt	0x00073c75

00000daa <Code_175>:
     daa:	cf07      	ldmia	r7!, {r0, r1, r2}
     dac:	1a12      	subs	r2, r2, r0
     dae:	41b1      	sbcs	r1, r6
     db0:	41b6      	sbcs	r6, r6
     db2:	4770      	bx	lr

00000db4 <Dictionary_176>:
     db4:	00000dc8 	andeq	r0, r0, r8, asr #27
     db8:	64030044 	strvs	r0, [r3], #-68	; 0xffffffbc
     dbc:	 	svcgt	0x00073e75

00000dbe <Code_176>:
     dbe:	cf07      	ldmia	r7!, {r0, r1, r2}
     dc0:	1a80      	subs	r0, r0, r2
     dc2:	418e      	sbcs	r6, r1
     dc4:	41b6      	sbcs	r6, r6
     dc6:	4770      	bx	lr

00000dc8 <Dictionary_177>:
     dc8:	00000dde 	ldrdeq	r0, [r0], -lr
     dcc:	64020044 	strvs	r0, [r2], #-68	; 0xffffffbc
     dd0:	 	svcgt	0x0007003c

00000dd2 <Code_177>:
     dd2:	cf07      	ldmia	r7!, {r0, r1, r2}
     dd4:	1a12      	subs	r2, r2, r0
     dd6:	41b1      	sbcs	r1, r6
     dd8:	db0c      	blt.n	df4 <Code_178+0xc>
     dda:	2600      	movs	r6, #0
     ddc:	4770      	bx	lr

00000dde <Dictionary_178>:
     dde:	00000dfa 	strdeq	r0, [r0], -sl
     de2:	64020044 	strvs	r0, [r2], #-68	; 0xffffffbc
     de6:	 	svcgt	0x0007003e

00000de8 <Code_178>:
     de8:	cf07      	ldmia	r7!, {r0, r1, r2}
     dea:	1a80      	subs	r0, r0, r2
     dec:	418e      	sbcs	r6, r1
     dee:	db01      	blt.n	df4 <Code_178+0xc>
     df0:	2600      	movs	r6, #0
     df2:	4770      	bx	lr
     df4:	2600      	movs	r6, #0
     df6:	43f6      	mvns	r6, r6
     df8:	4770      	bx	lr

00000dfa <Dictionary_179>:
     dfa:	00000e16 	andeq	r0, r0, r6, lsl lr
     dfe:	64030262 	strvs	r0, [r3], #-610	; 0xfffffd9e
     e02:	 	smladxcc	r4, r0, ip, r3

00000e04 <Code_179>:
     e04:	3704      	adds	r7, #4
     e06:	17f6      	asrs	r6, r6, #31
     e08:	4770      	bx	lr
     e0a:	b500      	push	{lr}
     e0c:	f000 f8c0 	bl	f90 <nip_allocator>
     e10:	f000 fb58 	bl	14c4 <alloc_nullkleiner>
     e14:	bd00      	pop	{pc}

00000e16 <Dictionary_180>:
     e16:	00000e3e 	andeq	r0, r0, lr, lsr lr
     e1a:	64030262 	strvs	r0, [r3], #-610	; 0xfffffd9e
     e1e:	 	svcgt	0x00013d30

00000e20 <Code_180>:
     e20:	cf01      	ldmia	r7!, {r0}
     e22:	4306      	orrs	r6, r0
     e24:	3e01      	subs	r6, #1
     e26:	41b6      	sbcs	r6, r6
     e28:	4770      	bx	lr
     e2a:	b500      	push	{lr}
     e2c:	f847 6d04 	str.w	r6, [r7, #-4]!
     e30:	f244 3600 	movw	r6, #17152	; 0x4300
     e34:	f000 fabd 	bl	13b2 <alloc_kommutativ>
     e38:	f000 fb1e 	bl	1478 <allocator_equal_zero>
     e3c:	bd00      	pop	{pc}

00000e3e <Dictionary_183>:
     e3e:	00000e64 	andeq	r0, r0, r4, ror #28
     e42:	64030244 	strvs	r0, [r3], #-580	; 0xfffffdbc
     e46:	 	svcgt	0x00073e3c

00000e48 <Code_183>:
     e48:	cf07      	ldmia	r7!, {r0, r1, r2}
     e4a:	4050      	eors	r0, r2
     e4c:	404e      	eors	r6, r1
     e4e:	4306      	orrs	r6, r0
     e50:	3e01      	subs	r6, #1
     e52:	41b6      	sbcs	r6, r6
     e54:	43f6      	mvns	r6, r6
     e56:	4770      	bx	lr
     e58:	b500      	push	{lr}
     e5a:	f000 f815 	bl	e88 <dgleichungleich_common>
     e5e:	f000 fb1f 	bl	14a0 <allocator_unequal_zero>
     e62:	bd00      	pop	{pc}

00000e64 <Dictionary_184>:
     e64:	00000eac 	andeq	r0, r0, ip, lsr #29
     e68:	64020244 	strvs	r0, [r2], #-580	; 0xfffffdbc
     e6c:	 	svcgt	0x0007003d

00000e6e <Code_184>:
     e6e:	cf07      	ldmia	r7!, {r0, r1, r2}
     e70:	4050      	eors	r0, r2
     e72:	404e      	eors	r6, r1
     e74:	4306      	orrs	r6, r0
     e76:	3e01      	subs	r6, #1
     e78:	41b6      	sbcs	r6, r6
     e7a:	4770      	bx	lr
     e7c:	b500      	push	{lr}
     e7e:	f000 f803 	bl	e88 <dgleichungleich_common>
     e82:	f000 faf9 	bl	1478 <allocator_equal_zero>
     e86:	bd00      	pop	{pc}

00000e88 <dgleichungleich_common>:
     e88:	b500      	push	{lr}
     e8a:	f7ff fb4c 	bl	526 <expect_four_elements>
     e8e:	f000 f8c1 	bl	1014 <rot_allocator>
     e92:	f000 f9c3 	bl	121c <xor_allocator>
     e96:	f000 f8d9 	bl	104c <minusrot_allocator>
     e9a:	f000 f9bf 	bl	121c <xor_allocator>
     e9e:	f000 f9b0 	bl	1202 <or_allocator>
     ea2:	bd00      	pop	{pc}
     ea4:	fba00000 	blx	fe800eae <erasedword+0xfe800eaf>
     ea8:	fb800000 	blx	fe000eb2 <erasedword+0xfe000eb3>

00000eac <Dictionary_185>:
     eac:	00000ebe 			; <UNDEFINED> instruction: 0x00000ebe
     eb0:	73030020 	movwvc	r0, #12320	; 0x3020
     eb4:	 			; <UNDEFINED> instruction: 0xf8474070

00000eb6 <Code_185>:
     eb6:	f847 6d04 	str.w	r6, [r7, #-4]!
     eba:	003e      	movs	r6, r7
     ebc:	4770      	bx	lr

00000ebe <Dictionary_187>:
     ebe:	00000ece 	andeq	r0, r0, lr, asr #29
     ec2:	73030020 	movwvc	r0, #12320	; 0x3020
     ec6:	 	eorseq	r2, r7, r0, ror r1

00000ec8 <Code_187>:
     ec8:	0037      	movs	r7, r6
     eca:	cf40      	ldmia	r7!, {r6}
     ecc:	4770      	bx	lr

00000ece <Dictionary_188>:
     ece:	00000ee0 	andeq	r0, r0, r0, ror #29
     ed2:	72030020 	andvc	r0, r3, #32
     ed6:	 			; <UNDEFINED> instruction: 0xf8474070

00000ed8 <Code_188>:
     ed8:	f847 6d04 	str.w	r6, [r7, #-4]!
     edc:	466e      	mov	r6, sp
     ede:	4770      	bx	lr

00000ee0 <Dictionary_190>:
     ee0:	00000ef0 	strdeq	r0, [r0], -r0	; <UNPREDICTABLE>
     ee4:	72030020 	andvc	r0, r3, #32
     ee8:	 			; <UNDEFINED> instruction: 0x46b52170

00000eea <Code_190>:
     eea:	46b5      	mov	sp, r6
     eec:	cf40      	ldmia	r7!, {r6}
     eee:	4770      	bx	lr

00000ef0 <Dictionary_191>:
     ef0:	00000f14 	andeq	r0, r0, r4, lsl pc
     ef4:	64030261 	strvs	r0, [r3], #-609	; 0xfffffd9f
     ef8:	 			; <UNDEFINED> instruction: 0xf8477075

00000efa <Code_191>:
     efa:	f847 6d04 	str.w	r6, [r7, #-4]!
     efe:	4770      	bx	lr

00000f00 <dup_allocator>:
     f00:	b506      	push	{r1, r2, lr}
     f02:	f7ff fae9 	bl	4d8 <expect_one_element>
     f06:	6801      	ldr	r1, [r0, #0]
     f08:	6842      	ldr	r2, [r0, #4]
     f0a:	f7ff f9de 	bl	2ca <befreie_tos>
     f0e:	6001      	str	r1, [r0, #0]
     f10:	6042      	str	r2, [r0, #4]
     f12:	bd06      	pop	{r1, r2, pc}

00000f14 <Dictionary_194>:
     f14:	00000f40 	andeq	r0, r0, r0, asr #30
     f18:	64040261 	strvs	r0, [r4], #-609	; 0xfffffd9f
     f1c:	00706f72 	rsbseq	r6, r0, r2, ror pc

00000f20 <Code_194>:
     f20:	cf40      	ldmia	r7!, {r6}
     f22:	4770      	bx	lr

00000f24 <drop_allocator>:
     f24:	b500      	push	{lr}
     f26:	6801      	ldr	r1, [r0, #0]
     f28:	291e      	cmp	r1, #30
     f2a:	d106      	bne.n	f3a <drop_allocator+0x16>
     f2c:	f847 6d04 	str.w	r6, [r7, #-4]!
     f30:	f243 7604 	movw	r6, #14084	; 0x3704
     f34:	f002 fd34 	bl	39a0 <Code_849>
     f38:	bd00      	pop	{pc}
     f3a:	f7ff f9d0 	bl	2de <eliminiere_tos>
     f3e:	bd00      	pop	{pc}

00000f40 <Dictionary_198>:
     f40:	00000f56 	andeq	r0, r0, r6, asr pc
     f44:	3f040061 	svccc	0x00040061
     f48:	00707564 	rsbseq	r7, r0, r4, ror #10

00000f4c <Code_198>:
     f4c:	2e00      	cmp	r6, #0
     f4e:	d001      	beq.n	f54 <Code_198+0x8>
     f50:	f847 6d04 	str.w	r6, [r7, #-4]!
     f54:	4770      	bx	lr

00000f56 <Dictionary_200>:
     f56:	00000f82 	andeq	r0, r0, r2, lsl #31
     f5a:	73040262 	movwvc	r0, #16994	; 0x4262
     f5e:	00706177 	rsbseq	r6, r0, r7, ror r1

00000f62 <Code_200>:
     f62:	6839      	ldr	r1, [r7, #0]
     f64:	603e      	str	r6, [r7, #0]
     f66:	000e      	movs	r6, r1
     f68:	4770      	bx	lr

00000f6a <swap_allocator>:
     f6a:	b50c      	push	{r2, r3, lr}
     f6c:	f7ff fabe 	bl	4ec <expect_two_elements>
     f70:	6802      	ldr	r2, [r0, #0]
     f72:	6883      	ldr	r3, [r0, #8]
     f74:	6003      	str	r3, [r0, #0]
     f76:	6082      	str	r2, [r0, #8]
     f78:	6842      	ldr	r2, [r0, #4]
     f7a:	68c3      	ldr	r3, [r0, #12]
     f7c:	6043      	str	r3, [r0, #4]
     f7e:	60c2      	str	r2, [r0, #12]
     f80:	bd0c      	pop	{r2, r3, pc}

00000f82 <Dictionary_201>:
     f82:	00000fb0 			; <UNDEFINED> instruction: 0x00000fb0
     f86:	6e030262 	cdpvs	2, 0, cr0, cr3, cr2, {3}
     f8a:	 	strcc	r7, [r4, -r9, rrx]

00000f8c <Code_201>:
     f8c:	3704      	adds	r7, #4
     f8e:	4770      	bx	lr

00000f90 <nip_allocator>:
     f90:	b500      	push	{lr}
     f92:	f7ff faa1 	bl	4d8 <expect_one_element>
     f96:	6881      	ldr	r1, [r0, #8]
     f98:	291e      	cmp	r1, #30
     f9a:	d002      	beq.n	fa2 <nip_allocator+0x12>
     f9c:	f7ff f9a5 	bl	2ea <eliminiere_nos>
     fa0:	bd00      	pop	{pc}
     fa2:	f847 6d04 	str.w	r6, [r7, #-4]!
     fa6:	f243 7604 	movw	r6, #14084	; 0x3704
     faa:	f002 fcf9 	bl	39a0 <Code_849>
     fae:	bd00      	pop	{pc}

00000fb0 <Dictionary_205>:
     fb0:	00000fd8 	ldrdeq	r0, [r0], -r8
     fb4:	6f040262 	svcvs	0x00040262
     fb8:	00726576 	rsbseq	r6, r2, r6, ror r5

00000fbc <Code_205>:
     fbc:	f847 6d04 	str.w	r6, [r7, #-4]!
     fc0:	687e      	ldr	r6, [r7, #4]
     fc2:	4770      	bx	lr

00000fc4 <over_allocator>:
     fc4:	b500      	push	{lr}
     fc6:	f7ff fa91 	bl	4ec <expect_two_elements>
     fca:	6881      	ldr	r1, [r0, #8]
     fcc:	68c2      	ldr	r2, [r0, #12]
     fce:	f7ff f97c 	bl	2ca <befreie_tos>
     fd2:	6001      	str	r1, [r0, #0]
     fd4:	6042      	str	r2, [r0, #4]
     fd6:	bd00      	pop	{pc}

00000fd8 <Dictionary_207>:
     fd8:	00000ffe 	strdeq	r0, [r0], -lr
     fdc:	74040262 	strvc	r0, [r4], #-610	; 0xfffffd9e
     fe0:	006b6375 	rsbeq	r6, fp, r5, ror r3

00000fe4 <Code_207>:
     fe4:	cf01      	ldmia	r7!, {r0}
     fe6:	3f08      	subs	r7, #8
     fe8:	607e      	str	r6, [r7, #4]
     fea:	6038      	str	r0, [r7, #0]
     fec:	4770      	bx	lr
     fee:	b500      	push	{lr}
     ff0:	f7ff fa7c 	bl	4ec <expect_two_elements>
     ff4:	f7ff ff84 	bl	f00 <dup_allocator>
     ff8:	f000 f828 	bl	104c <minusrot_allocator>
     ffc:	bd00      	pop	{pc}

00000ffe <Dictionary_208>:
     ffe:	00001034 	andeq	r1, r0, r4, lsr r0
    1002:	72030263 	andvc	r0, r3, #805306374	; 0x30000006
    1006:	 	svcgt	0x0003746f

00001008 <Code_208>:
    1008:	cf03      	ldmia	r7!, {r0, r1}
    100a:	3f08      	subs	r7, #8
    100c:	6078      	str	r0, [r7, #4]
    100e:	603e      	str	r6, [r7, #0]
    1010:	000e      	movs	r6, r1
    1012:	4770      	bx	lr

00001014 <rot_allocator>:
    1014:	b50e      	push	{r1, r2, r3, lr}
    1016:	f7ff fa76 	bl	506 <expect_three_elements>
    101a:	6801      	ldr	r1, [r0, #0]
    101c:	6882      	ldr	r2, [r0, #8]
    101e:	6903      	ldr	r3, [r0, #16]
    1020:	6081      	str	r1, [r0, #8]
    1022:	6102      	str	r2, [r0, #16]
    1024:	6003      	str	r3, [r0, #0]
    1026:	6841      	ldr	r1, [r0, #4]
    1028:	68c2      	ldr	r2, [r0, #12]
    102a:	6943      	ldr	r3, [r0, #20]
    102c:	60c1      	str	r1, [r0, #12]
    102e:	6142      	str	r2, [r0, #20]
    1030:	6043      	str	r3, [r0, #4]
    1032:	bd0e      	pop	{r1, r2, r3, pc}

00001034 <Dictionary_209>:
    1034:	00001058 	andeq	r1, r0, r8, asr r0
    1038:	2d040263 	sfmcs	f0, 4, [r4, #-396]	; 0xfffffe74
    103c:	00746f72 	rsbseq	r6, r4, r2, ror pc

00001040 <Code_209>:
    1040:	cf03      	ldmia	r7!, {r0, r1}
    1042:	3f08      	subs	r7, #8
    1044:	607e      	str	r6, [r7, #4]
    1046:	6039      	str	r1, [r7, #0]
    1048:	0006      	movs	r6, r0
    104a:	4770      	bx	lr

0000104c <minusrot_allocator>:
    104c:	b500      	push	{lr}
    104e:	f7ff ffe1 	bl	1014 <rot_allocator>
    1052:	f7ff ffdf 	bl	1014 <rot_allocator>
    1056:	bd00      	pop	{pc}

00001058 <Dictionary_210>:
    1058:	0000106a 	andeq	r1, r0, sl, rrx
    105c:	70040020 	andvc	r0, r4, r0, lsr #32
    1060:	006b6369 	rsbeq	r6, fp, r9, ror #6

00001064 <Code_210>:
    1064:	f857 6026 	ldr.w	r6, [r7, r6, lsl #2]
    1068:	4770      	bx	lr

0000106a <Dictionary_211>:
    106a:	00001082 	andeq	r1, r0, r2, lsl #1
    106e:	64050000 	strvs	r0, [r5], #-0
    1072:	68747065 	ldmdavs	r4!, {r0, r2, r5, r6, ip, sp, lr}^

00001076 <Code_211>:
    1076:	494f      	ldr	r1, [pc, #316]	; (11b4 <Code_230+0x1c>)
    1078:	1bc9      	subs	r1, r1, r7
    107a:	f847 6d04 	str.w	r6, [r7, #-4]!
    107e:	108e      	asrs	r6, r1, #2
    1080:	4770      	bx	lr

00001082 <Dictionary_213>:
    1082:	0000109e 	muleq	r0, lr, r0
    1086:	72060000 	andvc	r0, r6, #0
    108a:	74706564 	ldrbtvc	r6, [r0], #-1380	; 0xfffffa9c
    108e:	 			; <UNDEFINED> instruction: 0xf8470068

00001090 <Code_213>:
    1090:	f847 6d04 	str.w	r6, [r7, #-4]!
    1094:	466e      	mov	r6, sp
    1096:	4948      	ldr	r1, [pc, #288]	; (11b8 <Code_230+0x20>)
    1098:	1b89      	subs	r1, r1, r6
    109a:	108e      	asrs	r6, r1, #2
    109c:	4770      	bx	lr

0000109e <Dictionary_215>:
    109e:	000010d4 	ldrdeq	r1, [r0], -r4
    10a2:	3e020220 	cdpcc	2, 0, cr0, cr2, cr0, {1}
    10a6:	 	strblt	r0, [r0], #-114	; 0xffffff8e

000010a8 <Code_215>:
    10a8:	b440      	push	{r6}
    10aa:	cf40      	ldmia	r7!, {r6}
    10ac:	4770      	bx	lr

000010ae <allocator_to_r>:
    10ae:	b500      	push	{lr}
    10b0:	f7ff faa5 	bl	5fe <push_lr_nachholen>
    10b4:	f7ff fa10 	bl	4d8 <expect_one_element>
    10b8:	f7ff fa4a 	bl	550 <expect_tos_in_register>
    10bc:	f847 6d04 	str.w	r6, [r7, #-4]!
    10c0:	f24b 4600 	movw	r6, #46080	; 0xb400
    10c4:	2201      	movs	r2, #1
    10c6:	408a      	lsls	r2, r1
    10c8:	4316      	orrs	r6, r2
    10ca:	f002 fc69 	bl	39a0 <Code_849>
    10ce:	f7ff f906 	bl	2de <eliminiere_tos>
    10d2:	bd00      	pop	{pc}

000010d4 <Dictionary_218>:
    10d4:	0000110a 	andeq	r1, r0, sl, lsl #2
    10d8:	72020220 	andvc	r0, r2, #32, 4
    10dc:	 			; <UNDEFINED> instruction: 0xf847003e

000010de <Code_218>:
    10de:	f847 6d04 	str.w	r6, [r7, #-4]!
    10e2:	bc40      	pop	{r6}
    10e4:	4770      	bx	lr

000010e6 <allocator_r_from>:
    10e6:	b500      	push	{lr}
    10e8:	f7ff fa89 	bl	5fe <push_lr_nachholen>
    10ec:	f7ff f8ed 	bl	2ca <befreie_tos>
    10f0:	f7ff f9be 	bl	470 <get_free_register>
    10f4:	6003      	str	r3, [r0, #0]
    10f6:	f847 6d04 	str.w	r6, [r7, #-4]!
    10fa:	f64b 4600 	movw	r6, #48128	; 0xbc00
    10fe:	2201      	movs	r2, #1
    1100:	409a      	lsls	r2, r3
    1102:	4316      	orrs	r6, r2
    1104:	f002 fc4c 	bl	39a0 <Code_849>
    1108:	bd00      	pop	{pc}

0000110a <Dictionary_222>:
    110a:	00001128 	andeq	r1, r0, r8, lsr #2
    110e:	72020220 	andvc	r0, r2, #32, 4
    1112:	 			; <UNDEFINED> instruction: 0xf8470040

00001114 <Code_222>:
    1114:	f847 6d04 	str.w	r6, [r7, #-4]!
    1118:	9e00      	ldr	r6, [sp, #0]
    111a:	4770      	bx	lr
    111c:	b500      	push	{lr}
    111e:	f7ff fa6e 	bl	5fe <push_lr_nachholen>
    1122:	f003 f98e 	bl	4442 <rfetch_allocator>
    1126:	bd00      	pop	{pc}

00001128 <Dictionary_224>:
    1128:	0000114c 	andeq	r1, r0, ip, asr #2
    112c:	72050220 	andvc	r0, r5, #32, 4
    1130:	706f7264 	rsbvc	r7, pc, r4, ror #4

00001134 <Code_224>:
    1134:	b001      	add	sp, #4
    1136:	4770      	bx	lr
    1138:	b500      	push	{lr}
    113a:	f7ff fa60 	bl	5fe <push_lr_nachholen>
    113e:	f847 6d04 	str.w	r6, [r7, #-4]!
    1142:	f24b 0601 	movw	r6, #45057	; 0xb001
    1146:	f002 fc2b 	bl	39a0 <Code_849>
    114a:	bd00      	pop	{pc}

0000114c <Dictionary_227>:
    114c:	00001160 	andeq	r1, r0, r0, ror #2
    1150:	72050020 	andvc	r0, r5, #32
    1154:	6b636970 	blvs	18db71c <RCC_PLL1DIVR_Value+0x8ab47d>

00001158 <Code_227>:
    1158:	00b6      	lsls	r6, r6, #2
    115a:	446e      	add	r6, sp
    115c:	6836      	ldr	r6, [r6, #0]
    115e:	4770      	bx	lr

00001160 <Dictionary_228>:
    1160:	0000118c 	andeq	r1, r0, ip, lsl #3
    1164:	72040000 	andvc	r0, r4, #0
    1168:	006c6c6f 	rsbeq	r6, ip, pc, ror #24

0000116c <Code_228>:
    116c:	2e00      	cmp	r6, #0
    116e:	d101      	bne.n	1174 <Code_228+0x8>
    1170:	cf40      	ldmia	r7!, {r6}
    1172:	4770      	bx	lr
    1174:	00b0      	lsls	r0, r6, #2
    1176:	5839      	ldr	r1, [r7, r0]
    1178:	19c0      	adds	r0, r0, r7
    117a:	1f03      	subs	r3, r0, #4
    117c:	681a      	ldr	r2, [r3, #0]
    117e:	6002      	str	r2, [r0, #0]
    1180:	3804      	subs	r0, #4
    1182:	3e01      	subs	r6, #1
    1184:	d1f9      	bne.n	117a <Code_228+0xe>
    1186:	3704      	adds	r7, #4
    1188:	000e      	movs	r6, r1
    118a:	4770      	bx	lr

0000118c <Dictionary_230>:
    118c:	000011bc 			; <UNDEFINED> instruction: 0x000011bc
    1190:	2d050000 	stccs	0, cr0, [r5, #-0]
    1194:	6c6c6f72 	stclvs	15, cr6, [ip], #-456	; 0xfffffe38

00001198 <Code_230>:
    1198:	2e00      	cmp	r6, #0
    119a:	d101      	bne.n	11a0 <Code_230+0x8>
    119c:	cf40      	ldmia	r7!, {r6}
    119e:	4770      	bx	lr
    11a0:	6838      	ldr	r0, [r7, #0]
    11a2:	4639      	mov	r1, r7
    11a4:	684a      	ldr	r2, [r1, #4]
    11a6:	600a      	str	r2, [r1, #0]
    11a8:	3104      	adds	r1, #4
    11aa:	3e01      	subs	r6, #1
    11ac:	d1fa      	bne.n	11a4 <Code_230+0xc>
    11ae:	6008      	str	r0, [r1, #0]
    11b0:	cf40      	ldmia	r7!, {r6}
    11b2:	4770      	bx	lr
    11b4:	20000288 	andcs	r0, r0, r8, lsl #5
    11b8:	20000388 	andcs	r0, r0, r8, lsl #7

000011bc <Dictionary_233>:
    11bc:	000011d6 	ldrdeq	r1, [r0], -r6
    11c0:	61030262 	tstvs	r3, r2, ror #4
    11c4:	 	svcgt	0x0001646e

000011c6 <Code_233>:
    11c6:	cf01      	ldmia	r7!, {r0}
    11c8:	4006      	ands	r6, r0
    11ca:	4770      	bx	lr
    11cc:	f847 6d04 	str.w	r6, [r7, #-4]!
    11d0:	f244 0600 	movw	r6, #16384	; 0x4000
    11d4:	e0ed      	b.n	13b2 <alloc_kommutativ>

000011d6 <Dictionary_236>:
    11d6:	000011f2 	strdeq	r1, [r0], -r2
    11da:	62030262 	andvs	r0, r3, #536870918	; 0x20000006
    11de:	 	svcgt	0x00016369

000011e0 <Code_236>:
    11e0:	cf01      	ldmia	r7!, {r0}
    11e2:	43b0      	bics	r0, r6
    11e4:	0006      	movs	r6, r0
    11e6:	4770      	bx	lr
    11e8:	f847 6d04 	str.w	r6, [r7, #-4]!
    11ec:	f244 3680 	movw	r6, #17280	; 0x4380
    11f0:	e0db      	b.n	13aa <alloc_unkommutativ>

000011f2 <Dictionary_239>:
    11f2:	0000120c 	andeq	r1, r0, ip, lsl #4
    11f6:	6f020262 	svcvs	0x00020262
    11fa:	 	svcgt	0x00010072

000011fc <Code_239>:
    11fc:	cf01      	ldmia	r7!, {r0}
    11fe:	4306      	orrs	r6, r0
    1200:	4770      	bx	lr

00001202 <or_allocator>:
    1202:	f847 6d04 	str.w	r6, [r7, #-4]!
    1206:	f244 3600 	movw	r6, #17152	; 0x4300
    120a:	e0d2      	b.n	13b2 <alloc_kommutativ>

0000120c <Dictionary_242>:
    120c:	00001226 	andeq	r1, r0, r6, lsr #4
    1210:	78030262 	stmdavc	r3, {r1, r5, r6, r9}
    1214:	 	svcgt	0x0001726f

00001216 <Code_242>:
    1216:	cf01      	ldmia	r7!, {r0}
    1218:	4046      	eors	r6, r0
    121a:	4770      	bx	lr

0000121c <xor_allocator>:
    121c:	f847 6d04 	str.w	r6, [r7, #-4]!
    1220:	f244 0640 	movw	r6, #16448	; 0x4040
    1224:	e0c5      	b.n	13b2 <alloc_kommutativ>

00001226 <Dictionary_245>:
    1226:	0000123e 	andeq	r1, r0, lr, lsr r2
    122a:	2a010262 	bcs	41bba <ADC12_Common_CSR_EOC_SLV+0x1bba>

0000122e <Code_245>:
    122e:	cf01      	ldmia	r7!, {r0}
    1230:	4346      	muls	r6, r0
    1232:	4770      	bx	lr
    1234:	f847 6d04 	str.w	r6, [r7, #-4]!
    1238:	f244 3640 	movw	r6, #17216	; 0x4340
    123c:	e0b9      	b.n	13b2 <alloc_kommutativ>

0000123e <Dictionary_248>:
    123e:	00001272 	andeq	r1, r0, r2, ror r2
    1242:	63030261 	movwvs	r0, #12897	; 0x3261
    1246:	 	blx	fed9fbfe <erasedword+0xfed9fbff>

00001248 <Code_248>:
    1248:	fab6 f686 	clz	r6, r6
    124c:	4770      	bx	lr
    124e:	b500      	push	{lr}
    1250:	f7ff f942 	bl	4d8 <expect_one_element>
    1254:	f847 6d04 	str.w	r6, [r7, #-4]!
    1258:	4e7e      	ldr	r6, [pc, #504]	; (1454 <m3_opcodieren+0x24>)
    125a:	f7ff f979 	bl	550 <expect_tos_in_register>
    125e:	430e      	orrs	r6, r1
    1260:	ea56 4601 	orrs.w	r6, r6, r1, lsl #16
    1264:	f7ff f9c2 	bl	5ec <tos_registerwechsel>
    1268:	ea56 2603 	orrs.w	r6, r6, r3, lsl #8
    126c:	f002 fbc8 	bl	3a00 <Code_858>
    1270:	bd00      	pop	{pc}

00001272 <Dictionary_250>:
    1272:	00001290 	muleq	r0, r0, r2
    1276:	72031861 	andvc	r1, r3, #6356992	; 0x610000
    127a:	 	andcs	r7, r1, pc, ror #4

0000127c <Code_250>:
    127c:	2001      	movs	r0, #1
    127e:	41c6      	rors	r6, r0
    1280:	4770      	bx	lr
    1282:	00010002 	andeq	r0, r1, r2
    1286:	20000000 	andcs	r0, r0, r0
    128a:	000012bc 			; <UNDEFINED> instruction: 0x000012bc
    128e:	 	adcne	r0, lr, #536870918	; 0x20000006

00001290 <Dictionary_251>:
    1290:	000012ae 	andeq	r1, r0, lr, lsr #5
    1294:	72031861 	andvc	r1, r3, #6356992	; 0x610000
    1298:	 	andscs	r6, pc, pc, ror #24

0000129a <Code_251>:
    129a:	201f      	movs	r0, #31
    129c:	41c6      	rors	r6, r0
    129e:	4770      	bx	lr
    12a0:	001f0002 	andseq	r0, pc, r2
    12a4:	20000000 	andcs	r0, r0, r0
    12a8:	000012bc 			; <UNDEFINED> instruction: 0x000012bc
    12ac:	 	sbcne	r0, lr, #536870918	; 0x20000006

000012ae <Dictionary_252>:
    12ae:	000012ce 	andeq	r1, r0, lr, asr #5
    12b2:	72070262 	andvc	r0, r7, #536870918	; 0x20000006
    12b6:	61746f72 	cmnvs	r4, r2, ror pc
    12ba:	 	svcgt	0x00016574

000012bc <Code_252>:
    12bc:	cf01      	ldmia	r7!, {r0}
    12be:	41f0      	rors	r0, r6
    12c0:	0006      	movs	r6, r0
    12c2:	4770      	bx	lr
    12c4:	f847 6d04 	str.w	r6, [r7, #-4]!
    12c8:	f244 16c0 	movw	r6, #16832	; 0x41c0
    12cc:	e06d      	b.n	13aa <alloc_unkommutativ>

000012ce <Dictionary_255>:
    12ce:	00001306 	andeq	r1, r0, r6, lsl #6
    12d2:	61070262 	tstvs	r7, r2, ror #4
    12d6:	69687372 	stmdbvs	r8!, {r1, r4, r5, r6, r8, r9, ip, sp, lr}^
    12da:	 	svcgt	0x00017466

000012dc <Code_255>:
    12dc:	cf01      	ldmia	r7!, {r0}
    12de:	4130      	asrs	r0, r6
    12e0:	0006      	movs	r6, r0
    12e2:	4770      	bx	lr
    12e4:	b500      	push	{lr}
    12e6:	f847 6d04 	str.w	r6, [r7, #-4]!
    12ea:	f244 1600 	movw	r6, #16640	; 0x4100
    12ee:	f847 6d04 	str.w	r6, [r7, #-4]!
    12f2:	f241 0600 	movw	r6, #4096	; 0x1000
    12f6:	f7ff f8f9 	bl	4ec <expect_two_elements>
    12fa:	6841      	ldr	r1, [r0, #4]
    12fc:	291f      	cmp	r1, #31
    12fe:	d92a      	bls.n	1356 <Code_265+0x18>
    1300:	211f      	movs	r1, #31
    1302:	6041      	str	r1, [r0, #4]
    1304:	e027      	b.n	1356 <Code_265+0x18>

00001306 <Dictionary_260>:
    1306:	00001330 	andeq	r1, r0, r0, lsr r3
    130a:	72060262 	andvc	r0, r6, #536870918	; 0x20000006
    130e:	66696873 			; <UNDEFINED> instruction: 0x66696873
    1312:	 	svcgt	0x00010074

00001314 <Code_260>:
    1314:	cf01      	ldmia	r7!, {r0}
    1316:	40f0      	lsrs	r0, r6
    1318:	0006      	movs	r6, r0
    131a:	4770      	bx	lr
    131c:	b500      	push	{lr}
    131e:	f847 6d04 	str.w	r6, [r7, #-4]!
    1322:	f244 06c0 	movw	r6, #16576	; 0x40c0
    1326:	f847 6d04 	str.w	r6, [r7, #-4]!
    132a:	f640 0600 	movw	r6, #2048	; 0x800
    132e:	e012      	b.n	1356 <Code_265+0x18>

00001330 <Dictionary_265>:
    1330:	00001468 	andeq	r1, r0, r8, ror #8
    1334:	6c060262 	sfmvs	f0, 4, [r6], {98}	; 0x62
    1338:	66696873 			; <UNDEFINED> instruction: 0x66696873
    133c:	 	svcgt	0x00010074

0000133e <Code_265>:
    133e:	cf01      	ldmia	r7!, {r0}
    1340:	40b0      	lsls	r0, r6
    1342:	0006      	movs	r6, r0
    1344:	4770      	bx	lr
    1346:	b500      	push	{lr}
    1348:	f847 6d04 	str.w	r6, [r7, #-4]!
    134c:	f244 0680 	movw	r6, #16512	; 0x4080
    1350:	f847 6d04 	str.w	r6, [r7, #-4]!
    1354:	2600      	movs	r6, #0
    1356:	f7ff f8c9 	bl	4ec <expect_two_elements>
    135a:	6801      	ldr	r1, [r0, #0]
    135c:	2928      	cmp	r1, #40	; 0x28
    135e:	d003      	beq.n	1368 <Code_265+0x2a>
    1360:	cf40      	ldmia	r7!, {r6}
    1362:	f000 f822 	bl	13aa <alloc_unkommutativ>
    1366:	bd00      	pop	{pc}
    1368:	3704      	adds	r7, #4
    136a:	6841      	ldr	r1, [r0, #4]
    136c:	f7fe ffb7 	bl	2de <eliminiere_tos>
    1370:	2900      	cmp	r1, #0
    1372:	d101      	bne.n	1378 <Code_265+0x3a>
    1374:	cf40      	ldmia	r7!, {r6}
    1376:	bd00      	pop	{pc}
    1378:	291f      	cmp	r1, #31
    137a:	d80a      	bhi.n	1392 <Code_265+0x54>
    137c:	0189      	lsls	r1, r1, #6
    137e:	430e      	orrs	r6, r1
    1380:	6802      	ldr	r2, [r0, #0]
    1382:	00d2      	lsls	r2, r2, #3
    1384:	4316      	orrs	r6, r2
    1386:	f7ff f931 	bl	5ec <tos_registerwechsel>
    138a:	431e      	orrs	r6, r3
    138c:	f002 fb08 	bl	39a0 <Code_849>
    1390:	bd00      	pop	{pc}
    1392:	cf40      	ldmia	r7!, {r6}
    1394:	f7ff f92a 	bl	5ec <tos_registerwechsel>
    1398:	f847 6d04 	str.w	r6, [r7, #-4]!
    139c:	f242 0600 	movw	r6, #8192	; 0x2000
    13a0:	021b      	lsls	r3, r3, #8
    13a2:	431e      	orrs	r6, r3
    13a4:	f002 fafc 	bl	39a0 <Code_849>
    13a8:	bd00      	pop	{pc}

000013aa <alloc_unkommutativ>:
    13aa:	b50f      	push	{r0, r1, r2, r3, lr}

000013ac <alloc_unkommutativ_ohneregister>:
    13ac:	f7ff f89e 	bl	4ec <expect_two_elements>
    13b0:	e00c      	b.n	13cc <alloc_logic_gemeinsam>

000013b2 <alloc_kommutativ>:
    13b2:	b50f      	push	{r0, r1, r2, r3, lr}

000013b4 <alloc_kommutativ_ohneregister>:
    13b4:	f7ff f89a 	bl	4ec <expect_two_elements>
    13b8:	6801      	ldr	r1, [r0, #0]
    13ba:	2906      	cmp	r1, #6
    13bc:	d101      	bne.n	13c2 <alloc_kommutativ_ohneregister+0xe>
    13be:	f7ff fdd4 	bl	f6a <swap_allocator>
    13c2:	6882      	ldr	r2, [r0, #8]
    13c4:	2a28      	cmp	r2, #40	; 0x28
    13c6:	d101      	bne.n	13cc <alloc_logic_gemeinsam>
    13c8:	f7ff fdcf 	bl	f6a <swap_allocator>

000013cc <alloc_logic_gemeinsam>:
    13cc:	f7ff f8ca 	bl	564 <expect_nos_in_register>
    13d0:	6801      	ldr	r1, [r0, #0]
    13d2:	2928      	cmp	r1, #40	; 0x28
    13d4:	d11e      	bne.n	1414 <alloc_logic_gemeinsam+0x48>
    13d6:	f847 6d04 	str.w	r6, [r7, #-4]!
    13da:	6846      	ldr	r6, [r0, #4]
    13dc:	f001 febe 	bl	315c <Code_709>
    13e0:	cf02      	ldmia	r7!, {r1}
    13e2:	2e00      	cmp	r6, #0
    13e4:	cf40      	ldmia	r7!, {r6}
    13e6:	d015      	beq.n	1414 <alloc_logic_gemeinsam+0x48>
    13e8:	f5b6 4f80 	cmp.w	r6, #16384	; 0x4000
    13ec:	d101      	bne.n	13f2 <alloc_logic_gemeinsam+0x26>
    13ee:	4e1a      	ldr	r6, [pc, #104]	; (1458 <m3_opcodieren+0x28>)
    13f0:	e01e      	b.n	1430 <m3_opcodieren>
    13f2:	f244 0240 	movw	r2, #16448	; 0x4040
    13f6:	4296      	cmp	r6, r2
    13f8:	d101      	bne.n	13fe <alloc_logic_gemeinsam+0x32>
    13fa:	4e18      	ldr	r6, [pc, #96]	; (145c <m3_opcodieren+0x2c>)
    13fc:	e018      	b.n	1430 <m3_opcodieren>
    13fe:	f5b6 4f86 	cmp.w	r6, #17152	; 0x4300
    1402:	d101      	bne.n	1408 <alloc_logic_gemeinsam+0x3c>
    1404:	4e16      	ldr	r6, [pc, #88]	; (1460 <m3_opcodieren+0x30>)
    1406:	e013      	b.n	1430 <m3_opcodieren>
    1408:	f44f 4287 	mov.w	r2, #17280	; 0x4380
    140c:	4296      	cmp	r6, r2
    140e:	d101      	bne.n	1414 <alloc_logic_gemeinsam+0x48>
    1410:	4e14      	ldr	r6, [pc, #80]	; (1464 <m3_opcodieren+0x34>)
    1412:	e00d      	b.n	1430 <m3_opcodieren>
    1414:	f7ff f8ba 	bl	58c <nos_change_tos_away_later>
    1418:	f7ff f89a 	bl	550 <expect_tos_in_register>
    141c:	00c9      	lsls	r1, r1, #3
    141e:	6882      	ldr	r2, [r0, #8]
    1420:	430e      	orrs	r6, r1
    1422:	4316      	orrs	r6, r2
    1424:	f002 fabc 	bl	39a0 <Code_849>
    1428:	f7fe ff59 	bl	2de <eliminiere_tos>
    142c:	bd0f      	pop	{r0, r1, r2, r3, pc}

0000142e <m3_opcodieren_anderswo>:
    142e:	b50f      	push	{r0, r1, r2, r3, lr}

00001430 <m3_opcodieren>:
    1430:	430e      	orrs	r6, r1
    1432:	6881      	ldr	r1, [r0, #8]
    1434:	ea56 4601 	orrs.w	r6, r6, r1, lsl #16
    1438:	f7fe ff51 	bl	2de <eliminiere_tos>
    143c:	f7fe ff4f 	bl	2de <eliminiere_tos>
    1440:	f7fe ff43 	bl	2ca <befreie_tos>
    1444:	f7ff f814 	bl	470 <get_free_register>
    1448:	6003      	str	r3, [r0, #0]
    144a:	ea56 2603 	orrs.w	r6, r6, r3, lsl #8
    144e:	f002 fad7 	bl	3a00 <Code_858>
    1452:	bd0f      	pop	{r0, r1, r2, r3, pc}
    1454:	fab0f080 	blx	fec3d65c <erasedword+0xfec3d65d>
    1458:	f0100000 			; <UNDEFINED> instruction: 0xf0100000
    145c:	f0900000 			; <UNDEFINED> instruction: 0xf0900000
    1460:	f0500000 			; <UNDEFINED> instruction: 0xf0500000
    1464:	f0300000 			; <UNDEFINED> instruction: 0xf0300000

00001468 <Dictionary_278>:
    1468:	0000148e 	andeq	r1, r0, lr, lsl #9
    146c:	30020261 	andcc	r0, r2, r1, ror #4
    1470:	 	mcrcc	0, 0, r0, cr1, cr13, {1}

00001472 <Code_278>:
    1472:	3e01      	subs	r6, #1
    1474:	41b6      	sbcs	r6, r6
    1476:	4770      	bx	lr

00001478 <allocator_equal_zero>:
    1478:	b500      	push	{lr}
    147a:	f000 f8fb 	bl	1674 <prepare_single_compare>
    147e:	f001 f856 	bl	252e <allocator_one_minus>
    1482:	f7fe ff2c 	bl	2de <eliminiere_tos>
    1486:	f44f 4152 	mov.w	r1, #53760	; 0xd200
    148a:	6281      	str	r1, [r0, #40]	; 0x28
    148c:	bd00      	pop	{pc}

0000148e <Dictionary_279>:
    148e:	000014b6 			; <UNDEFINED> instruction: 0x000014b6
    1492:	30030261 	andcc	r0, r3, r1, ror #4
    1496:	 	mcrcc	14, 0, r3, cr1, cr12, {1}

00001498 <Code_279>:
    1498:	3e01      	subs	r6, #1
    149a:	41b6      	sbcs	r6, r6
    149c:	43f6      	mvns	r6, r6
    149e:	4770      	bx	lr

000014a0 <allocator_unequal_zero>:
    14a0:	b500      	push	{lr}
    14a2:	f000 f8e7 	bl	1674 <prepare_single_compare>
    14a6:	f001 f842 	bl	252e <allocator_one_minus>
    14aa:	f7fe ff18 	bl	2de <eliminiere_tos>
    14ae:	f44f 4153 	mov.w	r1, #54016	; 0xd300
    14b2:	6281      	str	r1, [r0, #40]	; 0x28
    14b4:	bd00      	pop	{pc}

000014b6 <Dictionary_280>:
    14b6:	000014de 	ldrdeq	r1, [r0], -lr
    14ba:	30020261 	andcc	r0, r2, r1, ror #4
    14be:	 			; <UNDEFINED> instruction: 0x17f6003c

000014c0 <Code_280>:
    14c0:	17f6      	asrs	r6, r6, #31
    14c2:	4770      	bx	lr

000014c4 <alloc_nullkleiner>:
    14c4:	b500      	push	{lr}
    14c6:	f000 f8d5 	bl	1674 <prepare_single_compare>
    14ca:	f847 6d04 	str.w	r6, [r7, #-4]!
    14ce:	f241 76c0 	movw	r6, #6080	; 0x17c0
    14d2:	f001 f86f 	bl	25b4 <smalltworegisters>
    14d6:	f44f 4155 	mov.w	r1, #54528	; 0xd500
    14da:	6281      	str	r1, [r0, #40]	; 0x28
    14dc:	bd00      	pop	{pc}

000014de <Dictionary_283>:
    14de:	000014f4 	strdeq	r1, [r0], -r4
    14e2:	74040060 	strvc	r0, [r4], #-96	; 0xffffffa0
    14e6:	00657572 	rsbeq	r7, r5, r2, ror r5

000014ea <Code_283>:
    14ea:	f847 6d04 	str.w	r6, [r7, #-4]!

000014ee <generate_true>:
    14ee:	2600      	movs	r6, #0
    14f0:	43f6      	mvns	r6, r6
    14f2:	4770      	bx	lr

000014f4 <Dictionary_285>:
    14f4:	00001508 	andeq	r1, r0, r8, lsl #10
    14f8:	66050060 	strvs	r0, [r5], -r0, rrx
    14fc:	65736c61 	ldrbvs	r6, [r3, #-3169]!	; 0xfffff39f

00001500 <Code_285>:
    1500:	f847 6d04 	str.w	r6, [r7, #-4]!
    1504:	2600      	movs	r6, #0
    1506:	4770      	bx	lr

00001508 <Dictionary_287>:
    1508:	0000152e 	andeq	r1, r0, lr, lsr #10
    150c:	3e020242 	cdpcc	2, 0, cr0, cr2, cr2, {2}
    1510:	 	svcgt	0x0001003d

00001512 <Code_287>:
    1512:	cf01      	ldmia	r7!, {r0}
    1514:	42b0      	cmp	r0, r6
    1516:	daea      	bge.n	14ee <generate_true>
    1518:	2600      	movs	r6, #0
    151a:	4770      	bx	lr
    151c:	f847 6d04 	str.w	r6, [r7, #-4]!
    1520:	f64d 3600 	movw	r6, #56064	; 0xdb00
    1524:	f847 6d04 	str.w	r6, [r7, #-4]!
    1528:	f64d 2600 	movw	r6, #55808	; 0xda00
    152c:	e0ae      	b.n	168c <prepare_compare>

0000152e <Dictionary_292>:
    152e:	00001554 	andeq	r1, r0, r4, asr r5
    1532:	3c020242 	sfmcc	f0, 4, [r2], {66}	; 0x42
    1536:	 	svcgt	0x0001003d

00001538 <Code_292>:
    1538:	cf01      	ldmia	r7!, {r0}
    153a:	42b0      	cmp	r0, r6
    153c:	ddd7      	ble.n	14ee <generate_true>
    153e:	2600      	movs	r6, #0
    1540:	4770      	bx	lr
    1542:	f847 6d04 	str.w	r6, [r7, #-4]!
    1546:	f64d 4600 	movw	r6, #56320	; 0xdc00
    154a:	f847 6d04 	str.w	r6, [r7, #-4]!
    154e:	f64d 5600 	movw	r6, #56576	; 0xdd00
    1552:	e09b      	b.n	168c <prepare_compare>

00001554 <Dictionary_297>:
    1554:	00001578 	andeq	r1, r0, r8, ror r5
    1558:	3c010242 	sfmcc	f0, 4, [r1], {66}	; 0x42

0000155c <Code_297>:
    155c:	cf01      	ldmia	r7!, {r0}
    155e:	42b0      	cmp	r0, r6
    1560:	dbc5      	blt.n	14ee <generate_true>
    1562:	2600      	movs	r6, #0
    1564:	4770      	bx	lr
    1566:	f847 6d04 	str.w	r6, [r7, #-4]!
    156a:	f64d 2600 	movw	r6, #55808	; 0xda00
    156e:	f847 6d04 	str.w	r6, [r7, #-4]!
    1572:	f64d 3600 	movw	r6, #56064	; 0xdb00
    1576:	e089      	b.n	168c <prepare_compare>

00001578 <Dictionary_302>:
    1578:	0000159c 	muleq	r0, ip, r5
    157c:	3e010242 	cdpcc	2, 0, cr0, cr1, cr2, {2}

00001580 <Code_302>:
    1580:	cf01      	ldmia	r7!, {r0}
    1582:	42b0      	cmp	r0, r6
    1584:	dcb3      	bgt.n	14ee <generate_true>
    1586:	2600      	movs	r6, #0
    1588:	4770      	bx	lr
    158a:	f847 6d04 	str.w	r6, [r7, #-4]!
    158e:	f64d 5600 	movw	r6, #56576	; 0xdd00
    1592:	f847 6d04 	str.w	r6, [r7, #-4]!
    1596:	f64d 4600 	movw	r6, #56320	; 0xdc00
    159a:	e077      	b.n	168c <prepare_compare>

0000159c <Dictionary_307>:
    159c:	000015c2 	andeq	r1, r0, r2, asr #11
    15a0:	75030262 	strvc	r0, [r3, #-610]	; 0xfffffd9e
    15a4:	 	svcgt	0x00013d3e

000015a6 <Code_307>:
    15a6:	cf01      	ldmia	r7!, {r0}
    15a8:	1b86      	subs	r6, r0, r6
    15aa:	41b6      	sbcs	r6, r6
    15ac:	43f6      	mvns	r6, r6
    15ae:	4770      	bx	lr
    15b0:	f847 6d04 	str.w	r6, [r7, #-4]!
    15b4:	f24d 3600 	movw	r6, #54016	; 0xd300
    15b8:	f847 6d04 	str.w	r6, [r7, #-4]!
    15bc:	f24d 2600 	movw	r6, #53760	; 0xd200
    15c0:	e064      	b.n	168c <prepare_compare>

000015c2 <Dictionary_312>:
    15c2:	000015e8 	andeq	r1, r0, r8, ror #11
    15c6:	75030262 	strvc	r0, [r3, #-610]	; 0xfffffd9e
    15ca:	 	svcgt	0x00013d3c

000015cc <Code_312>:
    15cc:	cf01      	ldmia	r7!, {r0}
    15ce:	1a36      	subs	r6, r6, r0
    15d0:	41b6      	sbcs	r6, r6
    15d2:	43f6      	mvns	r6, r6
    15d4:	4770      	bx	lr
    15d6:	f847 6d04 	str.w	r6, [r7, #-4]!
    15da:	f64d 0600 	movw	r6, #55296	; 0xd800
    15de:	f847 6d04 	str.w	r6, [r7, #-4]!
    15e2:	f64d 1600 	movw	r6, #55552	; 0xd900
    15e6:	e051      	b.n	168c <prepare_compare>

000015e8 <Dictionary_317>:
    15e8:	0000160c 	andeq	r1, r0, ip, lsl #12
    15ec:	75020262 	strvc	r0, [r2, #-610]	; 0xfffffd9e
    15f0:	 	svcgt	0x0001003c

000015f2 <Code_317>:
    15f2:	cf01      	ldmia	r7!, {r0}
    15f4:	1b86      	subs	r6, r0, r6
    15f6:	41b6      	sbcs	r6, r6
    15f8:	4770      	bx	lr
    15fa:	f847 6d04 	str.w	r6, [r7, #-4]!
    15fe:	f24d 2600 	movw	r6, #53760	; 0xd200
    1602:	f847 6d04 	str.w	r6, [r7, #-4]!
    1606:	f24d 3600 	movw	r6, #54016	; 0xd300
    160a:	e03f      	b.n	168c <prepare_compare>

0000160c <Dictionary_322>:
    160c:	00001630 	andeq	r1, r0, r0, lsr r6
    1610:	75020262 	strvc	r0, [r2, #-610]	; 0xfffffd9e
    1614:	 	svcgt	0x0001003e

00001616 <Code_322>:
    1616:	cf01      	ldmia	r7!, {r0}
    1618:	1a36      	subs	r6, r6, r0
    161a:	41b6      	sbcs	r6, r6
    161c:	4770      	bx	lr
    161e:	f847 6d04 	str.w	r6, [r7, #-4]!
    1622:	f64d 1600 	movw	r6, #55552	; 0xd900
    1626:	f847 6d04 	str.w	r6, [r7, #-4]!
    162a:	f64d 0600 	movw	r6, #55296	; 0xd800
    162e:	e02d      	b.n	168c <prepare_compare>

00001630 <Dictionary_327>:
    1630:	00001654 	andeq	r1, r0, r4, asr r6
    1634:	3c020262 	sfmcc	f0, 4, [r2], {98}	; 0x62
    1638:	 	svcgt	0x0001003e

0000163a <Code_327>:
    163a:	cf01      	ldmia	r7!, {r0}
    163c:	1a36      	subs	r6, r6, r0
    163e:	3e01      	subs	r6, #1
    1640:	41b6      	sbcs	r6, r6
    1642:	43f6      	mvns	r6, r6
    1644:	4770      	bx	lr
    1646:	f847 6d04 	str.w	r6, [r7, #-4]!
    164a:	f24d 0600 	movw	r6, #53248	; 0xd000
    164e:	f847 6d04 	str.w	r6, [r7, #-4]!
    1652:	e01b      	b.n	168c <prepare_compare>

00001654 <Dictionary_332>:
    1654:	000017b6 			; <UNDEFINED> instruction: 0x000017b6
    1658:	3d010262 	sfmcc	f0, 4, [r1, #-392]	; 0xfffffe78

0000165c <Code_332>:
    165c:	cf01      	ldmia	r7!, {r0}
    165e:	1a36      	subs	r6, r6, r0
    1660:	3e01      	subs	r6, #1
    1662:	41b6      	sbcs	r6, r6
    1664:	4770      	bx	lr
    1666:	f847 6d04 	str.w	r6, [r7, #-4]!
    166a:	f24d 1600 	movw	r6, #53504	; 0xd100
    166e:	f847 6d04 	str.w	r6, [r7, #-4]!
    1672:	e00b      	b.n	168c <prepare_compare>

00001674 <prepare_single_compare>:
    1674:	b500      	push	{lr}
    1676:	f7fe ff2f 	bl	4d8 <expect_one_element>
    167a:	f7fe fe67 	bl	34c <tidyup_register_allocator_5os>
    167e:	f7fe fe6a 	bl	356 <tidyup_register_allocator_4os>
    1682:	f7fe fe6d 	bl	360 <tidyup_register_allocator_3os>
    1686:	f7fe ff6d 	bl	564 <expect_nos_in_register>
    168a:	bd00      	pop	{pc}

0000168c <prepare_compare>:
    168c:	b500      	push	{lr}
    168e:	f7fe ff2d 	bl	4ec <expect_two_elements>
    1692:	f7fe fe5b 	bl	34c <tidyup_register_allocator_5os>
    1696:	f7fe fe5e 	bl	356 <tidyup_register_allocator_4os>
    169a:	f7fe ff6d 	bl	578 <expect_3os_in_register>
    169e:	6882      	ldr	r2, [r0, #8]
    16a0:	2a28      	cmp	r2, #40	; 0x28
    16a2:	d105      	bne.n	16b0 <prepare_compare+0x24>
    16a4:	f7ff fc61 	bl	f6a <swap_allocator>
    16a8:	6839      	ldr	r1, [r7, #0]
    16aa:	603e      	str	r6, [r7, #0]
    16ac:	460e      	mov	r6, r1
    16ae:	6882      	ldr	r2, [r0, #8]
    16b0:	cf40      	ldmia	r7!, {r6}
    16b2:	6801      	ldr	r1, [r0, #0]
    16b4:	2928      	cmp	r1, #40	; 0x28
    16b6:	d11d      	bne.n	16f4 <prepare_compare+0x68>
    16b8:	6841      	ldr	r1, [r0, #4]
    16ba:	29ff      	cmp	r1, #255	; 0xff
    16bc:	d807      	bhi.n	16ce <prepare_compare+0x42>
    16be:	f847 6d04 	str.w	r6, [r7, #-4]!
    16c2:	f642 0600 	movw	r6, #10240	; 0x2800
    16c6:	430e      	orrs	r6, r1
    16c8:	6881      	ldr	r1, [r0, #8]
    16ca:	0209      	lsls	r1, r1, #8
    16cc:	e01a      	b.n	1704 <prepare_compare+0x78>
    16ce:	f847 6d04 	str.w	r6, [r7, #-4]!
    16d2:	6846      	ldr	r6, [r0, #4]
    16d4:	f001 fd42 	bl	315c <Code_709>
    16d8:	cf02      	ldmia	r7!, {r1}
    16da:	2e00      	cmp	r6, #0
    16dc:	cf40      	ldmia	r7!, {r6}
    16de:	d009      	beq.n	16f4 <prepare_compare+0x68>
    16e0:	f847 6d04 	str.w	r6, [r7, #-4]!
    16e4:	4e6a      	ldr	r6, [pc, #424]	; (1890 <alloc_minmax+0x60>)
    16e6:	430e      	orrs	r6, r1
    16e8:	6881      	ldr	r1, [r0, #8]
    16ea:	ea56 4601 	orrs.w	r6, r6, r1, lsl #16
    16ee:	f002 f987 	bl	3a00 <Code_858>
    16f2:	e00a      	b.n	170a <prepare_compare+0x7e>
    16f4:	f7fe ff2c 	bl	550 <expect_tos_in_register>
    16f8:	f847 6d04 	str.w	r6, [r7, #-4]!
    16fc:	f244 2680 	movw	r6, #17024	; 0x4280
    1700:	00c9      	lsls	r1, r1, #3
    1702:	4316      	orrs	r6, r2
    1704:	430e      	orrs	r6, r1
    1706:	f002 f94b 	bl	39a0 <Code_849>
    170a:	f7fe fde8 	bl	2de <eliminiere_tos>
    170e:	f7fe fde6 	bl	2de <eliminiere_tos>
    1712:	6286      	str	r6, [r0, #40]	; 0x28
    1714:	cf40      	ldmia	r7!, {r6}
    1716:	bd00      	pop	{pc}

00001718 <sprungschreiber_flaggenerator>:
    1718:	b50f      	push	{r0, r1, r2, r3, lr}
    171a:	485e      	ldr	r0, [pc, #376]	; (1894 <alloc_minmax+0x64>)
    171c:	6a81      	ldr	r1, [r0, #40]	; 0x28
    171e:	2900      	cmp	r1, #0
    1720:	d035      	beq.n	178e <sprungschreiber_flaggenerator+0x76>
    1722:	f847 6d04 	str.w	r6, [r7, #-4]!
    1726:	6a86      	ldr	r6, [r0, #40]	; 0x28
    1728:	2100      	movs	r1, #0
    172a:	6281      	str	r1, [r0, #40]	; 0x28
    172c:	0a31      	lsrs	r1, r6, #8
    172e:	29d5      	cmp	r1, #213	; 0xd5
    1730:	d101      	bne.n	1736 <sprungschreiber_flaggenerator+0x1e>
    1732:	cf40      	ldmia	r7!, {r6}
    1734:	bd0f      	pop	{r0, r1, r2, r3, pc}
    1736:	f7fe fdc8 	bl	2ca <befreie_tos>
    173a:	f7fe fe99 	bl	470 <get_free_register>
    173e:	6003      	str	r3, [r0, #0]
    1740:	29d2      	cmp	r1, #210	; 0xd2
    1742:	d104      	bne.n	174e <sprungschreiber_flaggenerator+0x36>
    1744:	f44f 4683 	mov.w	r6, #16768	; 0x4180
    1748:	f000 ff34 	bl	25b4 <smalltworegisters>
    174c:	bd0f      	pop	{r0, r1, r2, r3, pc}
    174e:	29d3      	cmp	r1, #211	; 0xd3
    1750:	d106      	bne.n	1760 <sprungschreiber_flaggenerator+0x48>
    1752:	f44f 4683 	mov.w	r6, #16768	; 0x4180
    1756:	f000 ff2d 	bl	25b4 <smalltworegisters>
    175a:	f000 ff3e 	bl	25da <allocator_not>
    175e:	bd0f      	pop	{r0, r1, r2, r3, pc}
    1760:	3602      	adds	r6, #2
    1762:	f002 f91d 	bl	39a0 <Code_849>
    1766:	f847 6d04 	str.w	r6, [r7, #-4]!
    176a:	f242 0600 	movw	r6, #8192	; 0x2000
    176e:	f000 f80f 	bl	1790 <smallplusminus>
    1772:	f000 ff32 	bl	25da <allocator_not>
    1776:	f847 6d04 	str.w	r6, [r7, #-4]!
    177a:	f24e 0600 	movw	r6, #57344	; 0xe000
    177e:	f002 f90f 	bl	39a0 <Code_849>
    1782:	f847 6d04 	str.w	r6, [r7, #-4]!
    1786:	f242 0600 	movw	r6, #8192	; 0x2000
    178a:	f000 f801 	bl	1790 <smallplusminus>
    178e:	bd0f      	pop	{r0, r1, r2, r3, pc}

00001790 <smallplusminus>:
    1790:	b500      	push	{lr}
    1792:	f7fe fea1 	bl	4d8 <expect_one_element>
    1796:	f7fe ff10 	bl	5ba <make_tos_changeable>
    179a:	6801      	ldr	r1, [r0, #0]
    179c:	0209      	lsls	r1, r1, #8
    179e:	430e      	orrs	r6, r1
    17a0:	f002 f8fe 	bl	39a0 <Code_849>
    17a4:	bd00      	pop	{pc}

000017a6 <eliminiere_tos_wenn_bmi>:
    17a6:	b500      	push	{lr}
    17a8:	6a81      	ldr	r1, [r0, #40]	; 0x28
    17aa:	0a09      	lsrs	r1, r1, #8
    17ac:	29d5      	cmp	r1, #213	; 0xd5
    17ae:	d101      	bne.n	17b4 <eliminiere_tos_wenn_bmi+0xe>
    17b0:	f7fe fd95 	bl	2de <eliminiere_tos>
    17b4:	bd00      	pop	{pc}

000017b6 <Dictionary_355>:
    17b6:	000017d4 	ldrdeq	r1, [r0], -r4
    17ba:	6d030262 	sfmvs	f0, 4, [r3, #-392]	; 0xfffffe78
    17be:	 	svcgt	0x00016e69

000017c0 <Code_355>:
    17c0:	cf01      	ldmia	r7!, {r0}
    17c2:	42b0      	cmp	r0, r6
    17c4:	dc00      	bgt.n	17c8 <Code_355+0x8>
    17c6:	0006      	movs	r6, r0
    17c8:	4770      	bx	lr
    17ca:	f847 6d04 	str.w	r6, [r7, #-4]!
    17ce:	f64d 3600 	movw	r6, #56064	; 0xdb00
    17d2:	e02d      	b.n	1830 <alloc_minmax>

000017d4 <Dictionary_358>:
    17d4:	000017f2 	strdeq	r1, [r0], -r2
    17d8:	6d030262 	sfmvs	f0, 4, [r3, #-392]	; 0xfffffe78
    17dc:	 	svcgt	0x00017861

000017de <Code_358>:
    17de:	cf01      	ldmia	r7!, {r0}
    17e0:	42b0      	cmp	r0, r6
    17e2:	db00      	blt.n	17e6 <Code_358+0x8>
    17e4:	0006      	movs	r6, r0
    17e6:	4770      	bx	lr
    17e8:	f847 6d04 	str.w	r6, [r7, #-4]!
    17ec:	f64d 4600 	movw	r6, #56320	; 0xdc00
    17f0:	e01e      	b.n	1830 <alloc_minmax>

000017f2 <Dictionary_361>:
    17f2:	00001812 	andeq	r1, r0, r2, lsl r8
    17f6:	75040262 	strvc	r0, [r4, #-610]	; 0xfffffd9e
    17fa:	0078616d 	rsbseq	r6, r8, sp, ror #2

000017fe <Code_361>:
    17fe:	cf01      	ldmia	r7!, {r0}
    1800:	42b0      	cmp	r0, r6
    1802:	d300      	bcc.n	1806 <Code_361+0x8>
    1804:	0006      	movs	r6, r0
    1806:	4770      	bx	lr
    1808:	f847 6d04 	str.w	r6, [r7, #-4]!
    180c:	f64d 0600 	movw	r6, #55296	; 0xd800
    1810:	e00e      	b.n	1830 <alloc_minmax>

00001812 <Dictionary_364>:
    1812:	00001898 	muleq	r0, r8, r8
    1816:	75040262 	strvc	r0, [r4, #-610]	; 0xfffffd9e
    181a:	006e696d 	rsbeq	r6, lr, sp, ror #18

0000181e <Code_364>:
    181e:	cf01      	ldmia	r7!, {r0}
    1820:	42b0      	cmp	r0, r6
    1822:	d800      	bhi.n	1826 <Code_364+0x8>
    1824:	0006      	movs	r6, r0
    1826:	4770      	bx	lr
    1828:	f847 6d04 	str.w	r6, [r7, #-4]!
    182c:	f24d 3600 	movw	r6, #54016	; 0xd300

00001830 <alloc_minmax>:
    1830:	b500      	push	{lr}
    1832:	f7fe fe5b 	bl	4ec <expect_two_elements>
    1836:	6801      	ldr	r1, [r0, #0]
    1838:	6882      	ldr	r2, [r0, #8]
    183a:	4291      	cmp	r1, r2
    183c:	d103      	bne.n	1846 <alloc_minmax+0x16>
    183e:	cf40      	ldmia	r7!, {r6}
    1840:	f7fe fd53 	bl	2ea <eliminiere_nos>
    1844:	bd00      	pop	{pc}
    1846:	2a06      	cmp	r2, #6
    1848:	d101      	bne.n	184e <alloc_minmax+0x1e>
    184a:	f7ff fb8e 	bl	f6a <swap_allocator>
    184e:	6801      	ldr	r1, [r0, #0]
    1850:	2928      	cmp	r1, #40	; 0x28
    1852:	d101      	bne.n	1858 <alloc_minmax+0x28>
    1854:	f7ff fb89 	bl	f6a <swap_allocator>
    1858:	f7fe feaf 	bl	5ba <make_tos_changeable>
    185c:	f7fe fe82 	bl	564 <expect_nos_in_register>
    1860:	00c9      	lsls	r1, r1, #3
    1862:	6802      	ldr	r2, [r0, #0]
    1864:	f847 6d04 	str.w	r6, [r7, #-4]!
    1868:	f244 2680 	movw	r6, #17024	; 0x4280
    186c:	430e      	orrs	r6, r1
    186e:	4316      	orrs	r6, r2
    1870:	f002 f896 	bl	39a0 <Code_849>
    1874:	f002 f894 	bl	39a0 <Code_849>
    1878:	f847 6d04 	str.w	r6, [r7, #-4]!
    187c:	f244 6600 	movw	r6, #17920	; 0x4600
    1880:	430e      	orrs	r6, r1
    1882:	4316      	orrs	r6, r2
    1884:	f002 f88c 	bl	39a0 <Code_849>
    1888:	f7fe fd2f 	bl	2ea <eliminiere_nos>
    188c:	bd00      	pop	{pc}
    188e:	0f000000 	svceq	0x00000000
    1892:	0020f1b0 	strhteq	pc, [r0], -r0	; <UNPREDICTABLE>
    1896:	 	ldmne	r6, {sp}^

00001898 <Dictionary_372>:
    1898:	000018d6 	ldrdeq	r1, [r0], -r6
    189c:	6d040000 	stcvs	0, cr0, [r4, #-0]
    18a0:	0065766f 	rsbeq	r7, r5, pc, ror #12

000018a4 <Code_372>:
    18a4:	b507      	push	{r0, r1, r2, lr}
    18a6:	0031      	movs	r1, r6
    18a8:	cf40      	ldmia	r7!, {r6}
    18aa:	0032      	movs	r2, r6
    18ac:	cf40      	ldmia	r7!, {r6}
    18ae:	2900      	cmp	r1, #0
    18b0:	d00f      	beq.n	18d2 <Code_372+0x2e>
    18b2:	42b2      	cmp	r2, r6
    18b4:	d00d      	beq.n	18d2 <Code_372+0x2e>
    18b6:	d306      	bcc.n	18c6 <Code_372+0x22>
    18b8:	3e01      	subs	r6, #1
    18ba:	3a01      	subs	r2, #1
    18bc:	5c70      	ldrb	r0, [r6, r1]
    18be:	5450      	strb	r0, [r2, r1]
    18c0:	3901      	subs	r1, #1
    18c2:	d1fb      	bne.n	18bc <Code_372+0x18>
    18c4:	e005      	b.n	18d2 <Code_372+0x2e>
    18c6:	7830      	ldrb	r0, [r6, #0]
    18c8:	7010      	strb	r0, [r2, #0]
    18ca:	3601      	adds	r6, #1
    18cc:	3201      	adds	r2, #1
    18ce:	3901      	subs	r1, #1
    18d0:	d1f9      	bne.n	18c6 <Code_372+0x22>
    18d2:	cf40      	ldmia	r7!, {r6}
    18d4:	bd07      	pop	{r0, r1, r2, pc}

000018d6 <Dictionary_376>:
    18d6:	000018f8 	strdeq	r1, [r0], -r8
    18da:	66040000 	strvs	r0, [r4], -r0
    18de:	006c6c69 	rsbeq	r6, ip, r9, ror #24

000018e2 <Code_376>:
    18e2:	0030      	movs	r0, r6
    18e4:	cf40      	ldmia	r7!, {r6}
    18e6:	0031      	movs	r1, r6
    18e8:	cf40      	ldmia	r7!, {r6}
    18ea:	2900      	cmp	r1, #0
    18ec:	d002      	beq.n	18f4 <Code_376+0x12>
    18ee:	3901      	subs	r1, #1
    18f0:	5470      	strb	r0, [r6, r1]
    18f2:	d1fc      	bne.n	18ee <Code_376+0xc>
    18f4:	cf40      	ldmia	r7!, {r6}
    18f6:	4770      	bx	lr

000018f8 <Dictionary_380>:
    18f8:	0000193a 	andeq	r1, r0, sl, lsr r9
    18fc:	40010220 	andmi	r0, r1, r0, lsr #4

00001900 <Code_380>:
    1900:	6836      	ldr	r6, [r6, #0]
    1902:	4770      	bx	lr

00001904 <allocator_4fetch>:
    1904:	f847 6d04 	str.w	r6, [r7, #-4]!
    1908:	f646 0600 	movw	r6, #26624	; 0x6800

0000190c <allocator_4fetch_anderer_opcode>:
    190c:	b500      	push	{lr}
    190e:	f7fe fde3 	bl	4d8 <expect_one_element>
    1912:	6803      	ldr	r3, [r0, #0]
    1914:	2b28      	cmp	r3, #40	; 0x28
    1916:	d108      	bne.n	192a <allocator_4fetch_anderer_opcode+0x1e>
    1918:	6843      	ldr	r3, [r0, #4]
    191a:	217c      	movs	r1, #124	; 0x7c
    191c:	4019      	ands	r1, r3
    191e:	0109      	lsls	r1, r1, #4
    1920:	430e      	orrs	r6, r1
    1922:	217c      	movs	r1, #124	; 0x7c
    1924:	438b      	bics	r3, r1
    1926:	f7fe fd64 	bl	3f2 <generiere_adresskonstante>
    192a:	00db      	lsls	r3, r3, #3
    192c:	431e      	orrs	r6, r3
    192e:	f7fe fe5d 	bl	5ec <tos_registerwechsel>
    1932:	431e      	orrs	r6, r3
    1934:	f002 f834 	bl	39a0 <Code_849>
    1938:	bd00      	pop	{pc}

0000193a <Dictionary_383>:
    193a:	00001992 	muleq	r0, r2, r9
    193e:	21010220 	tstcs	r1, r0, lsr #4

00001942 <Code_383>:
    1942:	cf03      	ldmia	r7!, {r0, r1}
    1944:	6030      	str	r0, [r6, #0]
    1946:	000e      	movs	r6, r1
    1948:	4770      	bx	lr

0000194a <allocator_4store>:
    194a:	f847 6d04 	str.w	r6, [r7, #-4]!
    194e:	f246 0600 	movw	r6, #24576	; 0x6000

00001952 <allocator_4store_anderer_opcode>:
    1952:	b500      	push	{lr}
    1954:	f7fe fdca 	bl	4ec <expect_two_elements>
    1958:	6803      	ldr	r3, [r0, #0]
    195a:	2b28      	cmp	r3, #40	; 0x28
    195c:	d109      	bne.n	1972 <allocator_4store_anderer_opcode+0x20>
    195e:	6843      	ldr	r3, [r0, #4]
    1960:	217c      	movs	r1, #124	; 0x7c
    1962:	4019      	ands	r1, r3
    1964:	0109      	lsls	r1, r1, #4
    1966:	430e      	orrs	r6, r1
    1968:	217c      	movs	r1, #124	; 0x7c
    196a:	438b      	bics	r3, r1
    196c:	f7fe fd41 	bl	3f2 <generiere_adresskonstante>
    1970:	6003      	str	r3, [r0, #0]
    1972:	00db      	lsls	r3, r3, #3
    1974:	431e      	orrs	r6, r3
    1976:	6883      	ldr	r3, [r0, #8]
    1978:	2b28      	cmp	r3, #40	; 0x28
    197a:	d102      	bne.n	1982 <allocator_4store_anderer_opcode+0x30>
    197c:	68c3      	ldr	r3, [r0, #12]
    197e:	f7fe fd2c 	bl	3da <generiere_konstante>
    1982:	431e      	orrs	r6, r3
    1984:	f002 f80c 	bl	39a0 <Code_849>
    1988:	f7fe fca9 	bl	2de <eliminiere_tos>
    198c:	f7fe fca7 	bl	2de <eliminiere_tos>
    1990:	bd00      	pop	{pc}

00001992 <Dictionary_386>:
    1992:	000019c8 	andeq	r1, r0, r8, asr #19
    1996:	2b020220 	blcs	8221e <ADC12_Common_CSR_EOS_SLV+0x221e>
    199a:	 	svcgt	0x00030021

0000199c <Code_386>:
    199c:	cf03      	ldmia	r7!, {r0, r1}
    199e:	6832      	ldr	r2, [r6, #0]
    19a0:	1812      	adds	r2, r2, r0
    19a2:	6032      	str	r2, [r6, #0]
    19a4:	000e      	movs	r6, r1
    19a6:	4770      	bx	lr
    19a8:	b500      	push	{lr}
    19aa:	f7fe fd9f 	bl	4ec <expect_two_elements>
    19ae:	f7ff faa7 	bl	f00 <dup_allocator>
    19b2:	f7ff ffa7 	bl	1904 <allocator_4fetch>
    19b6:	f7ff fb2d 	bl	1014 <rot_allocator>
    19ba:	f000 fd4a 	bl	2452 <plus_allocator>
    19be:	f7ff fad4 	bl	f6a <swap_allocator>
    19c2:	f7ff ffc2 	bl	194a <allocator_4store>
    19c6:	bd00      	pop	{pc}

000019c8 <Dictionary_387>:
    19c8:	00001a0c 	andeq	r1, r0, ip, lsl #20
    19cc:	68020220 	stmdavs	r2, {r5, r9}
    19d0:	 	ldmdahi	r6!, {r6}

000019d2 <Code_387>:
    19d2:	8836      	ldrh	r6, [r6, #0]
    19d4:	4770      	bx	lr

000019d6 <allocator_2fetch>:
    19d6:	b500      	push	{lr}
    19d8:	f7fe fd7e 	bl	4d8 <expect_one_element>
    19dc:	f847 6d04 	str.w	r6, [r7, #-4]!
    19e0:	f648 0600 	movw	r6, #34816	; 0x8800
    19e4:	6803      	ldr	r3, [r0, #0]
    19e6:	2b28      	cmp	r3, #40	; 0x28
    19e8:	d108      	bne.n	19fc <allocator_2fetch+0x26>
    19ea:	6843      	ldr	r3, [r0, #4]
    19ec:	213e      	movs	r1, #62	; 0x3e
    19ee:	4019      	ands	r1, r3
    19f0:	0149      	lsls	r1, r1, #5
    19f2:	430e      	orrs	r6, r1
    19f4:	213e      	movs	r1, #62	; 0x3e
    19f6:	438b      	bics	r3, r1
    19f8:	f7fe fcfb 	bl	3f2 <generiere_adresskonstante>
    19fc:	00db      	lsls	r3, r3, #3
    19fe:	431e      	orrs	r6, r3
    1a00:	f7fe fdf4 	bl	5ec <tos_registerwechsel>
    1a04:	431e      	orrs	r6, r3
    1a06:	f001 ffcb 	bl	39a0 <Code_849>
    1a0a:	bd00      	pop	{pc}

00001a0c <Dictionary_390>:
    1a0c:	00001a66 	andeq	r1, r0, r6, ror #20
    1a10:	68020220 	stmdavs	r2, {r5, r9}
    1a14:	 	svcgt	0x00030021

00001a16 <Code_390>:
    1a16:	cf03      	ldmia	r7!, {r0, r1}
    1a18:	8030      	strh	r0, [r6, #0]
    1a1a:	000e      	movs	r6, r1
    1a1c:	4770      	bx	lr

00001a1e <allocator_2store>:
    1a1e:	b500      	push	{lr}
    1a20:	f7fe fd64 	bl	4ec <expect_two_elements>
    1a24:	f847 6d04 	str.w	r6, [r7, #-4]!
    1a28:	f248 0600 	movw	r6, #32768	; 0x8000
    1a2c:	6803      	ldr	r3, [r0, #0]
    1a2e:	2b28      	cmp	r3, #40	; 0x28
    1a30:	d109      	bne.n	1a46 <allocator_2store+0x28>
    1a32:	6843      	ldr	r3, [r0, #4]
    1a34:	213e      	movs	r1, #62	; 0x3e
    1a36:	4019      	ands	r1, r3
    1a38:	0149      	lsls	r1, r1, #5
    1a3a:	430e      	orrs	r6, r1
    1a3c:	213e      	movs	r1, #62	; 0x3e
    1a3e:	438b      	bics	r3, r1
    1a40:	f7fe fcd7 	bl	3f2 <generiere_adresskonstante>
    1a44:	6003      	str	r3, [r0, #0]
    1a46:	00db      	lsls	r3, r3, #3
    1a48:	431e      	orrs	r6, r3
    1a4a:	6883      	ldr	r3, [r0, #8]
    1a4c:	2b28      	cmp	r3, #40	; 0x28
    1a4e:	d102      	bne.n	1a56 <allocator_2store+0x38>
    1a50:	68c3      	ldr	r3, [r0, #12]
    1a52:	f7fe fcc2 	bl	3da <generiere_konstante>
    1a56:	431e      	orrs	r6, r3
    1a58:	f001 ffa2 	bl	39a0 <Code_849>
    1a5c:	f7fe fc3f 	bl	2de <eliminiere_tos>
    1a60:	f7fe fc3d 	bl	2de <eliminiere_tos>
    1a64:	bd00      	pop	{pc}

00001a66 <Dictionary_393>:
    1a66:	00001a9c 	muleq	r0, ip, sl
    1a6a:	68030220 	stmdavs	r3, {r5, r9}
    1a6e:	 	svcgt	0x0003212b

00001a70 <Code_393>:
    1a70:	cf03      	ldmia	r7!, {r0, r1}
    1a72:	8832      	ldrh	r2, [r6, #0]
    1a74:	1812      	adds	r2, r2, r0
    1a76:	8032      	strh	r2, [r6, #0]
    1a78:	000e      	movs	r6, r1
    1a7a:	4770      	bx	lr
    1a7c:	b500      	push	{lr}
    1a7e:	f7fe fd35 	bl	4ec <expect_two_elements>
    1a82:	f7ff fa3d 	bl	f00 <dup_allocator>
    1a86:	f7ff ffa6 	bl	19d6 <allocator_2fetch>
    1a8a:	f7ff fac3 	bl	1014 <rot_allocator>
    1a8e:	f000 fce0 	bl	2452 <plus_allocator>
    1a92:	f7ff fa6a 	bl	f6a <swap_allocator>
    1a96:	f7ff ffc2 	bl	1a1e <allocator_2store>
    1a9a:	bd00      	pop	{pc}

00001a9c <Dictionary_394>:
    1a9c:	00001ae0 	andeq	r1, r0, r0, ror #21
    1aa0:	63020220 	movwvs	r0, #8736	; 0x2220
    1aa4:	 	ldmdavc	r6!, {r6}

00001aa6 <Code_394>:
    1aa6:	7836      	ldrb	r6, [r6, #0]
    1aa8:	4770      	bx	lr

00001aaa <allocator_1fetch>:
    1aaa:	b500      	push	{lr}
    1aac:	f7fe fd14 	bl	4d8 <expect_one_element>
    1ab0:	f847 6d04 	str.w	r6, [r7, #-4]!
    1ab4:	f647 0600 	movw	r6, #30720	; 0x7800
    1ab8:	6803      	ldr	r3, [r0, #0]
    1aba:	2b28      	cmp	r3, #40	; 0x28
    1abc:	d108      	bne.n	1ad0 <allocator_1fetch+0x26>
    1abe:	6843      	ldr	r3, [r0, #4]
    1ac0:	211f      	movs	r1, #31
    1ac2:	4019      	ands	r1, r3
    1ac4:	0189      	lsls	r1, r1, #6
    1ac6:	430e      	orrs	r6, r1
    1ac8:	211f      	movs	r1, #31
    1aca:	438b      	bics	r3, r1
    1acc:	f7fe fc91 	bl	3f2 <generiere_adresskonstante>
    1ad0:	00db      	lsls	r3, r3, #3
    1ad2:	431e      	orrs	r6, r3
    1ad4:	f7fe fd8a 	bl	5ec <tos_registerwechsel>
    1ad8:	431e      	orrs	r6, r3
    1ada:	f001 ff61 	bl	39a0 <Code_849>
    1ade:	bd00      	pop	{pc}

00001ae0 <Dictionary_397>:
    1ae0:	00001b3a 	andeq	r1, r0, sl, lsr fp
    1ae4:	63020220 	movwvs	r0, #8736	; 0x2220
    1ae8:	 	svcgt	0x00030021

00001aea <Code_397>:
    1aea:	cf03      	ldmia	r7!, {r0, r1}
    1aec:	7030      	strb	r0, [r6, #0]
    1aee:	000e      	movs	r6, r1
    1af0:	4770      	bx	lr

00001af2 <allocator_1store>:
    1af2:	b500      	push	{lr}
    1af4:	f7fe fcfa 	bl	4ec <expect_two_elements>
    1af8:	f847 6d04 	str.w	r6, [r7, #-4]!
    1afc:	f247 0600 	movw	r6, #28672	; 0x7000
    1b00:	6803      	ldr	r3, [r0, #0]
    1b02:	2b28      	cmp	r3, #40	; 0x28
    1b04:	d109      	bne.n	1b1a <allocator_1store+0x28>
    1b06:	6843      	ldr	r3, [r0, #4]
    1b08:	211f      	movs	r1, #31
    1b0a:	4019      	ands	r1, r3
    1b0c:	0189      	lsls	r1, r1, #6
    1b0e:	430e      	orrs	r6, r1
    1b10:	211f      	movs	r1, #31
    1b12:	438b      	bics	r3, r1
    1b14:	f7fe fc6d 	bl	3f2 <generiere_adresskonstante>
    1b18:	6003      	str	r3, [r0, #0]
    1b1a:	00db      	lsls	r3, r3, #3
    1b1c:	431e      	orrs	r6, r3
    1b1e:	6883      	ldr	r3, [r0, #8]
    1b20:	2b28      	cmp	r3, #40	; 0x28
    1b22:	d102      	bne.n	1b2a <allocator_1store+0x38>
    1b24:	68c3      	ldr	r3, [r0, #12]
    1b26:	f7fe fc58 	bl	3da <generiere_konstante>
    1b2a:	431e      	orrs	r6, r3
    1b2c:	f001 ff38 	bl	39a0 <Code_849>
    1b30:	f7fe fbd5 	bl	2de <eliminiere_tos>
    1b34:	f7fe fbd3 	bl	2de <eliminiere_tos>
    1b38:	bd00      	pop	{pc}

00001b3a <Dictionary_400>:
    1b3a:	00001b70 	andeq	r1, r0, r0, ror fp
    1b3e:	63030220 	movwvs	r0, #12832	; 0x3220
    1b42:	 	svcgt	0x0003212b

00001b44 <Code_400>:
    1b44:	cf03      	ldmia	r7!, {r0, r1}
    1b46:	7832      	ldrb	r2, [r6, #0]
    1b48:	1812      	adds	r2, r2, r0
    1b4a:	7032      	strb	r2, [r6, #0]
    1b4c:	000e      	movs	r6, r1
    1b4e:	4770      	bx	lr
    1b50:	b500      	push	{lr}
    1b52:	f7fe fccb 	bl	4ec <expect_two_elements>
    1b56:	f7ff f9d3 	bl	f00 <dup_allocator>
    1b5a:	f7ff ffa6 	bl	1aaa <allocator_1fetch>
    1b5e:	f7ff fa59 	bl	1014 <rot_allocator>
    1b62:	f000 fc76 	bl	2452 <plus_allocator>
    1b66:	f7ff fa00 	bl	f6a <swap_allocator>
    1b6a:	f7ff ffc2 	bl	1af2 <allocator_1store>
    1b6e:	bd00      	pop	{pc}

00001b70 <Dictionary_401>:
    1b70:	00001b94 	muleq	r0, r4, fp
    1b74:	62040220 	andvs	r0, r4, #32, 4
    1b78:	00217369 	eoreq	r7, r1, r9, ror #6

00001b7c <Code_401>:
    1b7c:	cf03      	ldmia	r7!, {r0, r1}
    1b7e:	6832      	ldr	r2, [r6, #0]
    1b80:	4302      	orrs	r2, r0
    1b82:	6032      	str	r2, [r6, #0]
    1b84:	000e      	movs	r6, r1
    1b86:	4770      	bx	lr
    1b88:	b500      	push	{lr}
    1b8a:	f847 6d04 	str.w	r6, [r7, #-4]!
    1b8e:	f244 3600 	movw	r6, #17152	; 0x4300
    1b92:	e030      	b.n	1bf6 <allocator_xorstore_intern>

00001b94 <Dictionary_404>:
    1b94:	00001bd4 	ldrdeq	r1, [r0], -r4
    1b98:	62040220 	andvs	r0, r4, #32, 4
    1b9c:	00216369 	eoreq	r6, r1, r9, ror #6

00001ba0 <Code_404>:
    1ba0:	cf03      	ldmia	r7!, {r0, r1}
    1ba2:	6832      	ldr	r2, [r6, #0]
    1ba4:	4382      	bics	r2, r0
    1ba6:	6032      	str	r2, [r6, #0]
    1ba8:	000e      	movs	r6, r1
    1baa:	4770      	bx	lr
    1bac:	b500      	push	{lr}
    1bae:	f7fe fc9d 	bl	4ec <expect_two_elements>
    1bb2:	f7ff f9a5 	bl	f00 <dup_allocator>
    1bb6:	f7ff fea5 	bl	1904 <allocator_4fetch>
    1bba:	f7ff fa2b 	bl	1014 <rot_allocator>
    1bbe:	f847 6d04 	str.w	r6, [r7, #-4]!
    1bc2:	f244 3680 	movw	r6, #17280	; 0x4380
    1bc6:	f7ff fbf0 	bl	13aa <alloc_unkommutativ>
    1bca:	f7ff f9ce 	bl	f6a <swap_allocator>
    1bce:	f7ff febc 	bl	194a <allocator_4store>
    1bd2:	bd00      	pop	{pc}

00001bd4 <Dictionary_407>:
    1bd4:	00001c14 	andeq	r1, r0, r4, lsl ip
    1bd8:	78040220 	stmdavc	r4, {r5, r9}
    1bdc:	0021726f 	eoreq	r7, r1, pc, ror #4

00001be0 <Code_407>:
    1be0:	cf03      	ldmia	r7!, {r0, r1}
    1be2:	6832      	ldr	r2, [r6, #0]
    1be4:	4042      	eors	r2, r0
    1be6:	6032      	str	r2, [r6, #0]
    1be8:	000e      	movs	r6, r1
    1bea:	4770      	bx	lr
    1bec:	b500      	push	{lr}
    1bee:	f847 6d04 	str.w	r6, [r7, #-4]!
    1bf2:	f244 0640 	movw	r6, #16448	; 0x4040

00001bf6 <allocator_xorstore_intern>:
    1bf6:	f7fe fc79 	bl	4ec <expect_two_elements>
    1bfa:	f7ff f981 	bl	f00 <dup_allocator>
    1bfe:	f7ff fe81 	bl	1904 <allocator_4fetch>
    1c02:	f7ff fa07 	bl	1014 <rot_allocator>
    1c06:	f7ff fbd4 	bl	13b2 <alloc_kommutativ>
    1c0a:	f7ff f9ae 	bl	f6a <swap_allocator>
    1c0e:	f7ff fe9c 	bl	194a <allocator_4store>
    1c12:	bd00      	pop	{pc}

00001c14 <Dictionary_410>:
    1c14:	00001c4a 	andeq	r1, r0, sl, asr #24
    1c18:	62040220 	andvs	r0, r4, #32, 4
    1c1c:	00407469 	subeq	r7, r0, r9, ror #8

00001c20 <Code_410>:
    1c20:	cf01      	ldmia	r7!, {r0}
    1c22:	6836      	ldr	r6, [r6, #0]
    1c24:	4006      	ands	r6, r0
    1c26:	bf18      	it	ne
    1c28:	f04f 36ff 	movne.w	r6, #4294967295	; 0xffffffff
    1c2c:	4770      	bx	lr
    1c2e:	b500      	push	{lr}
    1c30:	f7fe fc5c 	bl	4ec <expect_two_elements>
    1c34:	f7ff fe66 	bl	1904 <allocator_4fetch>

00001c38 <allocator_bitfetch_intern>:
    1c38:	f847 6d04 	str.w	r6, [r7, #-4]!
    1c3c:	f244 0600 	movw	r6, #16384	; 0x4000
    1c40:	f7ff fbb7 	bl	13b2 <alloc_kommutativ>
    1c44:	f7ff fc2c 	bl	14a0 <allocator_unequal_zero>
    1c48:	bd00      	pop	{pc}

00001c4a <Dictionary_413>:
    1c4a:	00001c6e 	andeq	r1, r0, lr, ror #24
    1c4e:	68050220 	stmdavs	r5, {r5, r9}
    1c52:	21736962 	cmncs	r3, r2, ror #18

00001c56 <Code_413>:
    1c56:	cf03      	ldmia	r7!, {r0, r1}
    1c58:	8832      	ldrh	r2, [r6, #0]
    1c5a:	4302      	orrs	r2, r0
    1c5c:	8032      	strh	r2, [r6, #0]
    1c5e:	000e      	movs	r6, r1
    1c60:	4770      	bx	lr
    1c62:	b500      	push	{lr}
    1c64:	f847 6d04 	str.w	r6, [r7, #-4]!
    1c68:	f244 3600 	movw	r6, #17152	; 0x4300
    1c6c:	e030      	b.n	1cd0 <allocator_hxorstore_intern>

00001c6e <Dictionary_416>:
    1c6e:	00001cae 	andeq	r1, r0, lr, lsr #25
    1c72:	68050220 	stmdavs	r5, {r5, r9}
    1c76:	21636962 	cmncs	r3, r2, ror #18

00001c7a <Code_416>:
    1c7a:	cf03      	ldmia	r7!, {r0, r1}
    1c7c:	8832      	ldrh	r2, [r6, #0]
    1c7e:	4382      	bics	r2, r0
    1c80:	8032      	strh	r2, [r6, #0]
    1c82:	000e      	movs	r6, r1
    1c84:	4770      	bx	lr
    1c86:	b500      	push	{lr}
    1c88:	f7fe fc30 	bl	4ec <expect_two_elements>
    1c8c:	f7ff f938 	bl	f00 <dup_allocator>
    1c90:	f7ff fea1 	bl	19d6 <allocator_2fetch>
    1c94:	f7ff f9be 	bl	1014 <rot_allocator>
    1c98:	f847 6d04 	str.w	r6, [r7, #-4]!
    1c9c:	f244 3680 	movw	r6, #17280	; 0x4380
    1ca0:	f7ff fb83 	bl	13aa <alloc_unkommutativ>
    1ca4:	f7ff f961 	bl	f6a <swap_allocator>
    1ca8:	f7ff feb9 	bl	1a1e <allocator_2store>
    1cac:	bd00      	pop	{pc}

00001cae <Dictionary_419>:
    1cae:	00001cee 	andeq	r1, r0, lr, ror #25
    1cb2:	68050220 	stmdavs	r5, {r5, r9}
    1cb6:	21726f78 	cmncs	r2, r8, ror pc

00001cba <Code_419>:
    1cba:	cf03      	ldmia	r7!, {r0, r1}
    1cbc:	8832      	ldrh	r2, [r6, #0]
    1cbe:	4042      	eors	r2, r0
    1cc0:	8032      	strh	r2, [r6, #0]
    1cc2:	000e      	movs	r6, r1
    1cc4:	4770      	bx	lr
    1cc6:	b500      	push	{lr}
    1cc8:	f847 6d04 	str.w	r6, [r7, #-4]!
    1ccc:	f244 0640 	movw	r6, #16448	; 0x4040

00001cd0 <allocator_hxorstore_intern>:
    1cd0:	f7fe fc0c 	bl	4ec <expect_two_elements>
    1cd4:	f7ff f914 	bl	f00 <dup_allocator>
    1cd8:	f7ff fe7d 	bl	19d6 <allocator_2fetch>
    1cdc:	f7ff f99a 	bl	1014 <rot_allocator>
    1ce0:	f7ff fb67 	bl	13b2 <alloc_kommutativ>
    1ce4:	f7ff f941 	bl	f6a <swap_allocator>
    1ce8:	f7ff fe99 	bl	1a1e <allocator_2store>
    1cec:	bd00      	pop	{pc}

00001cee <Dictionary_422>:
    1cee:	00001d14 	andeq	r1, r0, r4, lsl sp
    1cf2:	68050220 	stmdavs	r5, {r5, r9}
    1cf6:	40746962 	rsbsmi	r6, r4, r2, ror #18

00001cfa <Code_422>:
    1cfa:	cf01      	ldmia	r7!, {r0}
    1cfc:	8836      	ldrh	r6, [r6, #0]
    1cfe:	4006      	ands	r6, r0
    1d00:	bf18      	it	ne
    1d02:	f04f 36ff 	movne.w	r6, #4294967295	; 0xffffffff
    1d06:	4770      	bx	lr
    1d08:	b500      	push	{lr}
    1d0a:	f7fe fbef 	bl	4ec <expect_two_elements>
    1d0e:	f7ff fe62 	bl	19d6 <allocator_2fetch>
    1d12:	e791      	b.n	1c38 <allocator_bitfetch_intern>

00001d14 <Dictionary_423>:
    1d14:	00001d38 	andeq	r1, r0, r8, lsr sp
    1d18:	63050220 	movwvs	r0, #21024	; 0x5220
    1d1c:	21736962 	cmncs	r3, r2, ror #18

00001d20 <Code_423>:
    1d20:	cf03      	ldmia	r7!, {r0, r1}
    1d22:	7832      	ldrb	r2, [r6, #0]
    1d24:	4302      	orrs	r2, r0
    1d26:	7032      	strb	r2, [r6, #0]
    1d28:	000e      	movs	r6, r1
    1d2a:	4770      	bx	lr
    1d2c:	b500      	push	{lr}
    1d2e:	f847 6d04 	str.w	r6, [r7, #-4]!
    1d32:	f244 3600 	movw	r6, #17152	; 0x4300
    1d36:	e030      	b.n	1d9a <allocator_cxorstore_intern>

00001d38 <Dictionary_426>:
    1d38:	00001d78 	andeq	r1, r0, r8, ror sp
    1d3c:	63050220 	movwvs	r0, #21024	; 0x5220
    1d40:	21636962 	cmncs	r3, r2, ror #18

00001d44 <Code_426>:
    1d44:	cf03      	ldmia	r7!, {r0, r1}
    1d46:	7832      	ldrb	r2, [r6, #0]
    1d48:	4382      	bics	r2, r0
    1d4a:	7032      	strb	r2, [r6, #0]
    1d4c:	000e      	movs	r6, r1
    1d4e:	4770      	bx	lr
    1d50:	b500      	push	{lr}
    1d52:	f7fe fbcb 	bl	4ec <expect_two_elements>
    1d56:	f7ff f8d3 	bl	f00 <dup_allocator>
    1d5a:	f7ff fea6 	bl	1aaa <allocator_1fetch>
    1d5e:	f7ff f959 	bl	1014 <rot_allocator>
    1d62:	f847 6d04 	str.w	r6, [r7, #-4]!
    1d66:	f244 3680 	movw	r6, #17280	; 0x4380
    1d6a:	f7ff fb1e 	bl	13aa <alloc_unkommutativ>
    1d6e:	f7ff f8fc 	bl	f6a <swap_allocator>
    1d72:	f7ff febe 	bl	1af2 <allocator_1store>
    1d76:	bd00      	pop	{pc}

00001d78 <Dictionary_429>:
    1d78:	00001db8 			; <UNDEFINED> instruction: 0x00001db8
    1d7c:	63050220 	movwvs	r0, #21024	; 0x5220
    1d80:	21726f78 	cmncs	r2, r8, ror pc

00001d84 <Code_429>:
    1d84:	cf03      	ldmia	r7!, {r0, r1}
    1d86:	7832      	ldrb	r2, [r6, #0]
    1d88:	4042      	eors	r2, r0
    1d8a:	7032      	strb	r2, [r6, #0]
    1d8c:	000e      	movs	r6, r1
    1d8e:	4770      	bx	lr
    1d90:	b500      	push	{lr}
    1d92:	f847 6d04 	str.w	r6, [r7, #-4]!
    1d96:	f244 0640 	movw	r6, #16448	; 0x4040

00001d9a <allocator_cxorstore_intern>:
    1d9a:	f7fe fba7 	bl	4ec <expect_two_elements>
    1d9e:	f7ff f8af 	bl	f00 <dup_allocator>
    1da2:	f7ff fe82 	bl	1aaa <allocator_1fetch>
    1da6:	f7ff f935 	bl	1014 <rot_allocator>
    1daa:	f7ff fb02 	bl	13b2 <alloc_kommutativ>
    1dae:	f7ff f8dc 	bl	f6a <swap_allocator>
    1db2:	f7ff fe9e 	bl	1af2 <allocator_1store>
    1db6:	bd00      	pop	{pc}

00001db8 <Dictionary_432>:
    1db8:	00001dde 	ldrdeq	r1, [r0], -lr
    1dbc:	63050220 	movwvs	r0, #21024	; 0x5220
    1dc0:	40746962 	rsbsmi	r6, r4, r2, ror #18

00001dc4 <Code_432>:
    1dc4:	cf01      	ldmia	r7!, {r0}
    1dc6:	7836      	ldrb	r6, [r6, #0]
    1dc8:	4006      	ands	r6, r0
    1dca:	bf18      	it	ne
    1dcc:	f04f 36ff 	movne.w	r6, #4294967295	; 0xffffffff
    1dd0:	4770      	bx	lr
    1dd2:	b500      	push	{lr}
    1dd4:	f7fe fb8a 	bl	4ec <expect_two_elements>
    1dd8:	f7ff fe67 	bl	1aaa <allocator_1fetch>
    1ddc:	e72c      	b.n	1c38 <allocator_bitfetch_intern>

00001dde <Dictionary_433>:
    1dde:	00001dfc 	strdeq	r1, [r0], -ip
    1de2:	660c0000 	strvs	r0, [ip], -r0
    1de6:	6873616c 	ldmdavs	r3!, {r2, r3, r5, r6, r8, sp, lr}^
    1dea:	3030342d 	eorscc	r3, r0, sp, lsr #8
    1dee:	007a484d 	rsbseq	r4, sl, sp, asr #16

00001df2 <Code_433>:
    1df2:	f8df 0628 	ldr.w	r0, [pc, #1576]	; 241c <Code_470+0x54>
    1df6:	2122      	movs	r1, #34	; 0x22
    1df8:	6001      	str	r1, [r0, #0]
    1dfa:	4770      	bx	lr

00001dfc <Dictionary_434>:
    1dfc:	00001e1a 	andeq	r1, r0, sl, lsl lr
    1e00:	730c0040 	movwvc	r0, #49216	; 0xc040
    1e04:	722d6970 	eorvc	r6, sp, #112, 18	; 0x1c0000
    1e08:	2d646165 	stfcse	f6, [r4, #-404]!	; 0xfffffe6c
    1e0c:	00317273 	eorseq	r7, r1, r3, ror r2

00001e10 <Code_434>:
    1e10:	f847 6d04 	str.w	r6, [r7, #-4]!
    1e14:	f04f 0605 	mov.w	r6, #5
    1e18:	4770      	bx	lr

00001e1a <Dictionary_435>:
    1e1a:	00001e38 	andeq	r1, r0, r8, lsr lr
    1e1e:	730c0040 	movwvc	r0, #49216	; 0xc040
    1e22:	722d6970 	eorvc	r6, sp, #112, 18	; 0x1c0000
    1e26:	2d646165 	stfcse	f6, [r4, #-404]!	; 0xfffffe6c
    1e2a:	00327273 	eorseq	r7, r2, r3, ror r2

00001e2e <Code_435>:
    1e2e:	f847 6d04 	str.w	r6, [r7, #-4]!
    1e32:	f04f 0635 	mov.w	r6, #53	; 0x35
    1e36:	4770      	bx	lr

00001e38 <Dictionary_436>:
    1e38:	00001e56 	andeq	r1, r0, r6, asr lr
    1e3c:	730c0040 	movwvc	r0, #49216	; 0xc040
    1e40:	722d6970 	eorvc	r6, sp, #112, 18	; 0x1c0000
    1e44:	2d646165 	stfcse	f6, [r4, #-404]!	; 0xfffffe6c
    1e48:	00337273 	eorseq	r7, r3, r3, ror r2

00001e4c <Code_436>:
    1e4c:	f847 6d04 	str.w	r6, [r7, #-4]!
    1e50:	f04f 0615 	mov.w	r6, #21
    1e54:	4770      	bx	lr

00001e56 <Dictionary_437>:
    1e56:	00001f1c 	andeq	r1, r0, ip, lsl pc
    1e5a:	69080000 	stmdbvs	r8, {}	; <UNPREDICTABLE>
    1e5e:	2d74696e 			; <UNDEFINED> instruction: 0x2d74696e
    1e62:	00697073 	rsbeq	r7, r9, r3, ror r0

00001e66 <Code_437>:
    1e66:	f8df 05b8 	ldr.w	r0, [pc, #1464]	; 2420 <Code_470+0x58>
    1e6a:	6802      	ldr	r2, [r0, #0]
    1e6c:	f042 0202 	orr.w	r2, r2, #2
    1e70:	6002      	str	r2, [r0, #0]
    1e72:	f8df 05ac 	ldr.w	r0, [pc, #1452]	; 2420 <Code_470+0x58>
    1e76:	6802      	ldr	r2, [r0, #0]
    1e78:	f042 0208 	orr.w	r2, r2, #8
    1e7c:	6002      	str	r2, [r0, #0]
    1e7e:	f8df 15a4 	ldr.w	r1, [pc, #1444]	; 2424 <Code_470+0x5c>
    1e82:	680a      	ldr	r2, [r1, #0]
    1e84:	f442 5280 	orr.w	r2, r2, #4096	; 0x1000
    1e88:	600a      	str	r2, [r1, #0]
    1e8a:	f8df 059c 	ldr.w	r0, [pc, #1436]	; 2428 <Code_470+0x60>
    1e8e:	f8d0 2020 	ldr.w	r2, [r0, #32]
    1e92:	f422 227f 	bic.w	r2, r2, #1044480	; 0xff000
    1e96:	f442 22aa 	orr.w	r2, r2, #348160	; 0x55000
    1e9a:	f8c0 2020 	str.w	r2, [r0, #32]
    1e9e:	f8d0 2008 	ldr.w	r2, [r0, #8]
    1ea2:	f442 7270 	orr.w	r2, r2, #960	; 0x3c0
    1ea6:	f8c0 2008 	str.w	r2, [r0, #8]
    1eaa:	f8d0 2000 	ldr.w	r2, [r0]
    1eae:	f422 7270 	bic.w	r2, r2, #960	; 0x3c0
    1eb2:	f442 7220 	orr.w	r2, r2, #640	; 0x280
    1eb6:	f8c0 2000 	str.w	r2, [r0]
    1eba:	f8df 0570 	ldr.w	r0, [pc, #1392]	; 242c <Code_470+0x64>
    1ebe:	f8d0 2020 	ldr.w	r2, [r0, #32]
    1ec2:	f022 4270 	bic.w	r2, r2, #4026531840	; 0xf0000000
    1ec6:	f042 42a0 	orr.w	r2, r2, #1342177280	; 0x50000000
    1eca:	f8c0 2020 	str.w	r2, [r0, #32]
    1ece:	f8d0 2008 	ldr.w	r2, [r0, #8]
    1ed2:	f442 4240 	orr.w	r2, r2, #49152	; 0xc000
    1ed6:	f8c0 2008 	str.w	r2, [r0, #8]
    1eda:	f8d0 2000 	ldr.w	r2, [r0]
    1ede:	f422 4240 	bic.w	r2, r2, #49152	; 0xc000
    1ee2:	f442 4200 	orr.w	r2, r2, #32768	; 0x8000
    1ee6:	f8c0 2000 	str.w	r2, [r0]
    1eea:	f8d0 2000 	ldr.w	r2, [r0]
    1eee:	f422 5240 	bic.w	r2, r2, #12288	; 0x3000
    1ef2:	f442 5280 	orr.w	r2, r2, #4096	; 0x1000
    1ef6:	f8c0 2000 	str.w	r2, [r0]
    1efa:	f8d0 2014 	ldr.w	r2, [r0, #20]
    1efe:	f042 0240 	orr.w	r2, r2, #64	; 0x40
    1f02:	f8c0 2014 	str.w	r2, [r0, #20]
    1f06:	f8df 1528 	ldr.w	r1, [pc, #1320]	; 2430 <Code_470+0x68>
    1f0a:	f8df 2528 	ldr.w	r2, [pc, #1320]	; 2434 <Code_470+0x6c>
    1f0e:	608a      	str	r2, [r1, #8]
    1f10:	f8df 2524 	ldr.w	r2, [pc, #1316]	; 2438 <Code_470+0x70>
    1f14:	60ca      	str	r2, [r1, #12]
    1f16:	2201      	movs	r2, #1
    1f18:	600a      	str	r2, [r1, #0]
    1f1a:	4770      	bx	lr

00001f1c <Dictionary_438>:
    1f1c:	00001f82 	andeq	r1, r0, r2, lsl #31
    1f20:	6a080000 	bvs	201f28 <ADC12_Common_CSR_JEOC_SLV+0x1f28>
    1f24:	63656465 	cmnvs	r5, #1694498816	; 0x65000000
    1f28:	0064692d 	rsbeq	r6, r4, sp, lsr #18

00001f2c <Code_438>:
    1f2c:	f8df 0500 	ldr.w	r0, [pc, #1280]	; 2430 <Code_470+0x68>
    1f30:	f847 6d04 	str.w	r6, [r7, #-4]!
    1f34:	f04f 369f 	mov.w	r6, #2678038431	; 0x9f9f9f9f
    1f38:	2100      	movs	r1, #0
    1f3a:	6001      	str	r1, [r0, #0]
    1f3c:	2104      	movs	r1, #4
    1f3e:	6041      	str	r1, [r0, #4]
    1f40:	2118      	movs	r1, #24
    1f42:	6181      	str	r1, [r0, #24]
    1f44:	2101      	movs	r1, #1
    1f46:	6001      	str	r1, [r0, #0]
    1f48:	f8df 54e0 	ldr.w	r5, [pc, #1248]	; 242c <Code_470+0x64>
    1f4c:	f8d5 4014 	ldr.w	r4, [r5, #20]
    1f50:	f024 0440 	bic.w	r4, r4, #64	; 0x40
    1f54:	f8c5 4014 	str.w	r4, [r5, #20]
    1f58:	f240 2101 	movw	r1, #513	; 0x201
    1f5c:	6001      	str	r1, [r0, #0]
    1f5e:	6206      	str	r6, [r0, #32]
    1f60:	6941      	ldr	r1, [r0, #20]
    1f62:	f411 4f00 	tst.w	r1, #32768	; 0x8000
    1f66:	d0fb      	beq.n	1f60 <Code_438+0x34>
    1f68:	6b06      	ldr	r6, [r0, #48]	; 0x30
    1f6a:	ba36      	rev	r6, r6
    1f6c:	f026 467f 	bic.w	r6, r6, #4278190080	; 0xff000000
    1f70:	f8df 54b8 	ldr.w	r5, [pc, #1208]	; 242c <Code_470+0x64>
    1f74:	f8d5 4014 	ldr.w	r4, [r5, #20]
    1f78:	f044 0440 	orr.w	r4, r4, #64	; 0x40
    1f7c:	f8c5 4014 	str.w	r4, [r5, #20]
    1f80:	4770      	bx	lr

00001f82 <Dictionary_441>:
    1f82:	00001fa0 	andeq	r1, r0, r0, lsr #31
    1f86:	3e0b0000 	cdpcc	0, 0, cr0, cr11, cr0, {0}
    1f8a:	6564656a 	strbvs	r6, [r4, #-1386]!	; 0xfffffa96
    1f8e:	69732d63 	ldmdbvs	r3!, {r0, r1, r5, r6, r8, sl, fp, sp}^
    1f92:	 	andcs	r6, r1, sl, ror r5

00001f94 <Code_441>:
    1f94:	2001      	movs	r0, #1
    1f96:	f006 06ff 	and.w	r6, r6, #255	; 0xff
    1f9a:	fa00 f606 	lsl.w	r6, r0, r6
    1f9e:	4770      	bx	lr

00001fa0 <Dictionary_442>:
    1fa0:	00002000 	andeq	r2, r0, r0
    1fa4:	730b0000 	movwvc	r0, #45056	; 0xb000
    1fa8:	732d6970 			; <UNDEFINED> instruction: 0x732d6970
    1fac:	75746174 	ldrbvc	r6, [r4, #-372]!	; 0xfffffe8c
    1fb0:	 			; <UNDEFINED> instruction: 0xf8df4073

00001fb2 <Code_442>:
    1fb2:	f8df 047c 	ldr.w	r0, [pc, #1148]	; 2430 <Code_470+0x68>
    1fb6:	f366 260f 	bfi	r6, r6, #8, #8
    1fba:	2100      	movs	r1, #0
    1fbc:	6001      	str	r1, [r0, #0]
    1fbe:	2102      	movs	r1, #2
    1fc0:	6041      	str	r1, [r0, #4]
    1fc2:	2118      	movs	r1, #24
    1fc4:	6181      	str	r1, [r0, #24]
    1fc6:	2101      	movs	r1, #1
    1fc8:	6001      	str	r1, [r0, #0]
    1fca:	f8df 5460 	ldr.w	r5, [pc, #1120]	; 242c <Code_470+0x64>
    1fce:	f8d5 4014 	ldr.w	r4, [r5, #20]
    1fd2:	f024 0440 	bic.w	r4, r4, #64	; 0x40
    1fd6:	f8c5 4014 	str.w	r4, [r5, #20]
    1fda:	f240 2101 	movw	r1, #513	; 0x201
    1fde:	6001      	str	r1, [r0, #0]
    1fe0:	8406      	strh	r6, [r0, #32]
    1fe2:	6941      	ldr	r1, [r0, #20]
    1fe4:	f411 4f80 	tst.w	r1, #16384	; 0x4000
    1fe8:	d0fb      	beq.n	1fe2 <Code_442+0x30>
    1fea:	8e06      	ldrh	r6, [r0, #48]	; 0x30
    1fec:	0a36      	lsrs	r6, r6, #8
    1fee:	f8df 543c 	ldr.w	r5, [pc, #1084]	; 242c <Code_470+0x64>
    1ff2:	f8d5 4014 	ldr.w	r4, [r5, #20]
    1ff6:	f044 0440 	orr.w	r4, r4, #64	; 0x40
    1ffa:	f8c5 4014 	str.w	r4, [r5, #20]
    1ffe:	4770      	bx	lr

00002000 <Dictionary_445>:
    2000:	0000206a 	andeq	r2, r0, sl, rrx
    2004:	73060000 	movwvc	r0, #24576	; 0x6000
    2008:	632d6970 			; <UNDEFINED> instruction: 0x632d6970
    200c:	 			; <UNDEFINED> instruction: 0xf8df0040

0000200e <Code_445>:
    200e:	f8df 0420 	ldr.w	r0, [pc, #1056]	; 2430 <Code_470+0x68>
    2012:	f026 467f 	bic.w	r6, r6, #4278190080	; 0xff000000
    2016:	f106 7640 	add.w	r6, r6, #50331648	; 0x3000000
    201a:	ba36      	rev	r6, r6
    201c:	2100      	movs	r1, #0
    201e:	6001      	str	r1, [r0, #0]
    2020:	2105      	movs	r1, #5
    2022:	6041      	str	r1, [r0, #4]
    2024:	2118      	movs	r1, #24
    2026:	6181      	str	r1, [r0, #24]
    2028:	2101      	movs	r1, #1
    202a:	6001      	str	r1, [r0, #0]
    202c:	4dff      	ldr	r5, [pc, #1020]	; (242c <Code_470+0x64>)
    202e:	f8d5 4014 	ldr.w	r4, [r5, #20]
    2032:	f024 0440 	bic.w	r4, r4, #64	; 0x40
    2036:	f8c5 4014 	str.w	r4, [r5, #20]
    203a:	f240 2101 	movw	r1, #513	; 0x201
    203e:	6001      	str	r1, [r0, #0]
    2040:	6206      	str	r6, [r0, #32]
    2042:	f880 6020 	strb.w	r6, [r0, #32]
    2046:	6941      	ldr	r1, [r0, #20]
    2048:	f411 4f00 	tst.w	r1, #32768	; 0x8000
    204c:	d0fb      	beq.n	2046 <Code_445+0x38>
    204e:	6b01      	ldr	r1, [r0, #48]	; 0x30
    2050:	6941      	ldr	r1, [r0, #20]
    2052:	f411 5f00 	tst.w	r1, #8192	; 0x2000
    2056:	d0fb      	beq.n	2050 <Code_445+0x42>
    2058:	6b06      	ldr	r6, [r0, #48]	; 0x30
    205a:	4df4      	ldr	r5, [pc, #976]	; (242c <Code_470+0x64>)
    205c:	f8d5 4014 	ldr.w	r4, [r5, #20]
    2060:	f044 0440 	orr.w	r4, r4, #64	; 0x40
    2064:	f8c5 4014 	str.w	r4, [r5, #20]
    2068:	4770      	bx	lr

0000206a <Dictionary_448>:
    206a:	000020ce 	andeq	r2, r0, lr, asr #1
    206e:	73050000 	movwvc	r0, #20480	; 0x5000
    2072:	402d6970 	eormi	r6, sp, r0, ror r9

00002076 <Code_448>:
    2076:	48ee      	ldr	r0, [pc, #952]	; (2430 <Code_470+0x68>)
    2078:	f026 467f 	bic.w	r6, r6, #4278190080	; 0xff000000
    207c:	f106 7640 	add.w	r6, r6, #50331648	; 0x3000000
    2080:	ba36      	rev	r6, r6
    2082:	2100      	movs	r1, #0
    2084:	6001      	str	r1, [r0, #0]
    2086:	2108      	movs	r1, #8
    2088:	6041      	str	r1, [r0, #4]
    208a:	2118      	movs	r1, #24
    208c:	6181      	str	r1, [r0, #24]
    208e:	2101      	movs	r1, #1
    2090:	6001      	str	r1, [r0, #0]
    2092:	4de6      	ldr	r5, [pc, #920]	; (242c <Code_470+0x64>)
    2094:	f8d5 4014 	ldr.w	r4, [r5, #20]
    2098:	f024 0440 	bic.w	r4, r4, #64	; 0x40
    209c:	f8c5 4014 	str.w	r4, [r5, #20]
    20a0:	f240 2101 	movw	r1, #513	; 0x201
    20a4:	6001      	str	r1, [r0, #0]
    20a6:	6206      	str	r6, [r0, #32]
    20a8:	6206      	str	r6, [r0, #32]
    20aa:	6941      	ldr	r1, [r0, #20]
    20ac:	f411 4f00 	tst.w	r1, #32768	; 0x8000
    20b0:	d0fb      	beq.n	20aa <Code_448+0x34>
    20b2:	6b01      	ldr	r1, [r0, #48]	; 0x30
    20b4:	6941      	ldr	r1, [r0, #20]
    20b6:	f411 4f00 	tst.w	r1, #32768	; 0x8000
    20ba:	d0fb      	beq.n	20b4 <Code_448+0x3e>
    20bc:	6b06      	ldr	r6, [r0, #48]	; 0x30
    20be:	4ddb      	ldr	r5, [pc, #876]	; (242c <Code_470+0x64>)
    20c0:	f8d5 4014 	ldr.w	r4, [r5, #20]
    20c4:	f044 0440 	orr.w	r4, r4, #64	; 0x40
    20c8:	f8c5 4014 	str.w	r4, [r5, #20]
    20cc:	4770      	bx	lr

000020ce <Dictionary_451>:
    20ce:	00002154 	andeq	r2, r0, r4, asr r1
    20d2:	73080000 	movwvc	r0, #32768	; 0x8000
    20d6:	722d6970 	eorvc	r6, sp, #112, 18	; 0x1c0000
    20da:	00646165 	rsbeq	r6, r4, r5, ror #2

000020de <Code_451>:
    20de:	48d4      	ldr	r0, [pc, #848]	; (2430 <Code_470+0x68>)
    20e0:	cf06      	ldmia	r7!, {r1, r2}
    20e2:	f022 427f 	bic.w	r2, r2, #4278190080	; 0xff000000
    20e6:	f102 7240 	add.w	r2, r2, #50331648	; 0x3000000
    20ea:	ba12      	rev	r2, r2
    20ec:	2300      	movs	r3, #0
    20ee:	6003      	str	r3, [r0, #0]
    20f0:	3604      	adds	r6, #4
    20f2:	6046      	str	r6, [r0, #4]
    20f4:	3e04      	subs	r6, #4
    20f6:	2318      	movs	r3, #24
    20f8:	6183      	str	r3, [r0, #24]
    20fa:	2301      	movs	r3, #1
    20fc:	6003      	str	r3, [r0, #0]
    20fe:	4dcb      	ldr	r5, [pc, #812]	; (242c <Code_470+0x64>)
    2100:	f8d5 4014 	ldr.w	r4, [r5, #20]
    2104:	f024 0440 	bic.w	r4, r4, #64	; 0x40
    2108:	f8c5 4014 	str.w	r4, [r5, #20]
    210c:	f240 2301 	movw	r3, #513	; 0x201
    2110:	6003      	str	r3, [r0, #0]
    2112:	6202      	str	r2, [r0, #32]
    2114:	6943      	ldr	r3, [r0, #20]
    2116:	f413 4f00 	tst.w	r3, #32768	; 0x8000
    211a:	d0fb      	beq.n	2114 <Code_451+0x36>
    211c:	6b03      	ldr	r3, [r0, #48]	; 0x30
    211e:	0032      	movs	r2, r6
    2120:	8a83      	ldrh	r3, [r0, #20]
    2122:	2a00      	cmp	r2, #0
    2124:	d005      	beq.n	2132 <Code_451+0x54>
    2126:	f013 0f02 	tst.w	r3, #2
    212a:	d002      	beq.n	2132 <Code_451+0x54>
    212c:	f880 0020 	strb.w	r0, [r0, #32]
    2130:	3a01      	subs	r2, #1
    2132:	0b5b      	lsrs	r3, r3, #13
    2134:	d0f4      	beq.n	2120 <Code_451+0x42>
    2136:	f890 3030 	ldrb.w	r3, [r0, #48]	; 0x30
    213a:	700b      	strb	r3, [r1, #0]
    213c:	3101      	adds	r1, #1
    213e:	3e01      	subs	r6, #1
    2140:	d1ee      	bne.n	2120 <Code_451+0x42>
    2142:	4dba      	ldr	r5, [pc, #744]	; (242c <Code_470+0x64>)
    2144:	f8d5 4014 	ldr.w	r4, [r5, #20]
    2148:	f044 0440 	orr.w	r4, r4, #64	; 0x40
    214c:	f8c5 4014 	str.w	r4, [r5, #20]
    2150:	cf40      	ldmia	r7!, {r6}
    2152:	4770      	bx	lr

00002154 <Dictionary_454>:
    2154:	0000219e 	muleq	r0, lr, r1
    2158:	73080000 	movwvc	r0, #32768	; 0x8000
    215c:	6d2d6970 			; <UNDEFINED> instruction: 0x6d2d6970
    2160:	0065766f 	rsbeq	r7, r5, pc, ror #12

00002164 <Code_454>:
    2164:	b500      	push	{lr}
    2166:	0030      	movs	r0, r6
    2168:	cf06      	ldmia	r7!, {r1, r2}
    216a:	e927 0007 	stmdb	r7!, {r0, r1, r2}
    216e:	e927 0006 	stmdb	r7!, {r1, r2}
    2172:	f640 73fb 	movw	r3, #4091	; 0xffb
    2176:	429e      	cmp	r6, r3
    2178:	bf28      	it	cs
    217a:	461e      	movcs	r6, r3
    217c:	f7ff ffaf 	bl	20de <Code_451>
    2180:	f640 73fb 	movw	r3, #4091	; 0xffb
    2184:	cf06      	ldmia	r7!, {r1, r2}
    2186:	18c9      	adds	r1, r1, r3
    2188:	18d2      	adds	r2, r2, r3
    218a:	1af6      	subs	r6, r6, r3
    218c:	d305      	bcc.n	219a <Code_454+0x36>
    218e:	0030      	movs	r0, r6
    2190:	e927 0007 	stmdb	r7!, {r0, r1, r2}
    2194:	e927 0006 	stmdb	r7!, {r1, r2}
    2198:	e7ed      	b.n	2176 <Code_454+0x12>
    219a:	cf40      	ldmia	r7!, {r6}
    219c:	bd00      	pop	{pc}

0000219e <Dictionary_455>:
    219e:	00002220 	andeq	r2, r0, r0, lsr #4
    21a2:	68070000 	stmdavs	r7, {}	; <UNPREDICTABLE>
    21a6:	73616c66 	cmnvc	r1, #26112	; 0x6600
    21aa:	 	strlt	r2, [r0, #-360]	; 0xfffffe98

000021ac <Code_455>:
    21ac:	b500      	push	{lr}
    21ae:	f000 f883 	bl	22b8 <Code_461>
    21b2:	489f      	ldr	r0, [pc, #636]	; (2430 <Code_470+0x68>)
    21b4:	4632      	mov	r2, r6
    21b6:	cf48      	ldmia	r7!, {r3, r6}
    21b8:	8013      	strh	r3, [r2, #0]
    21ba:	49a0      	ldr	r1, [pc, #640]	; (243c <Code_470+0x74>)
    21bc:	f3bf 8f5f 	dmb	sy
    21c0:	600a      	str	r2, [r1, #0]
    21c2:	499f      	ldr	r1, [pc, #636]	; (2440 <Code_470+0x78>)
    21c4:	600a      	str	r2, [r1, #0]
    21c6:	f022 427f 	bic.w	r2, r2, #4278190080	; 0xff000000
    21ca:	f102 7200 	add.w	r2, r2, #33554432	; 0x2000000
    21ce:	ba12      	rev	r2, r2
    21d0:	2100      	movs	r1, #0
    21d2:	6001      	str	r1, [r0, #0]
    21d4:	2106      	movs	r1, #6
    21d6:	6041      	str	r1, [r0, #4]
    21d8:	2118      	movs	r1, #24
    21da:	6181      	str	r1, [r0, #24]
    21dc:	2101      	movs	r1, #1
    21de:	6001      	str	r1, [r0, #0]
    21e0:	4d92      	ldr	r5, [pc, #584]	; (242c <Code_470+0x64>)
    21e2:	f8d5 4014 	ldr.w	r4, [r5, #20]
    21e6:	f024 0440 	bic.w	r4, r4, #64	; 0x40
    21ea:	f8c5 4014 	str.w	r4, [r5, #20]
    21ee:	f240 2101 	movw	r1, #513	; 0x201
    21f2:	6001      	str	r1, [r0, #0]
    21f4:	6202      	str	r2, [r0, #32]
    21f6:	8403      	strh	r3, [r0, #32]
    21f8:	6941      	ldr	r1, [r0, #20]
    21fa:	f411 4f00 	tst.w	r1, #32768	; 0x8000
    21fe:	d0fb      	beq.n	21f8 <Code_455+0x4c>
    2200:	6b01      	ldr	r1, [r0, #48]	; 0x30
    2202:	6941      	ldr	r1, [r0, #20]
    2204:	f411 4f80 	tst.w	r1, #16384	; 0x4000
    2208:	d0fb      	beq.n	2202 <Code_455+0x56>
    220a:	6b01      	ldr	r1, [r0, #48]	; 0x30
    220c:	4d87      	ldr	r5, [pc, #540]	; (242c <Code_470+0x64>)
    220e:	f8d5 4014 	ldr.w	r4, [r5, #20]
    2212:	f044 0440 	orr.w	r4, r4, #64	; 0x40
    2216:	f8c5 4014 	str.w	r4, [r5, #20]
    221a:	f85d eb04 	ldr.w	lr, [sp], #4
    221e:	e077      	b.n	2310 <Code_464>

00002220 <Dictionary_458>:
    2220:	000022a4 	andeq	r2, r0, r4, lsr #5
    2224:	63070000 	movwvs	r0, #28672	; 0x7000
    2228:	73616c66 	cmnvc	r1, #26112	; 0x6600
    222c:	 	strlt	r2, [r0, #-360]	; 0xfffffe98

0000222e <Code_458>:
    222e:	b500      	push	{lr}
    2230:	f000 f842 	bl	22b8 <Code_461>
    2234:	487e      	ldr	r0, [pc, #504]	; (2430 <Code_470+0x68>)
    2236:	4632      	mov	r2, r6
    2238:	cf48      	ldmia	r7!, {r3, r6}
    223a:	7013      	strb	r3, [r2, #0]
    223c:	497f      	ldr	r1, [pc, #508]	; (243c <Code_470+0x74>)
    223e:	f3bf 8f5f 	dmb	sy
    2242:	600a      	str	r2, [r1, #0]
    2244:	497e      	ldr	r1, [pc, #504]	; (2440 <Code_470+0x78>)
    2246:	600a      	str	r2, [r1, #0]
    2248:	f022 427f 	bic.w	r2, r2, #4278190080	; 0xff000000
    224c:	f102 7200 	add.w	r2, r2, #33554432	; 0x2000000
    2250:	ba12      	rev	r2, r2
    2252:	2100      	movs	r1, #0
    2254:	6001      	str	r1, [r0, #0]
    2256:	2105      	movs	r1, #5
    2258:	6041      	str	r1, [r0, #4]
    225a:	2118      	movs	r1, #24
    225c:	6181      	str	r1, [r0, #24]
    225e:	2101      	movs	r1, #1
    2260:	6001      	str	r1, [r0, #0]
    2262:	4d72      	ldr	r5, [pc, #456]	; (242c <Code_470+0x64>)
    2264:	f8d5 4014 	ldr.w	r4, [r5, #20]
    2268:	f024 0440 	bic.w	r4, r4, #64	; 0x40
    226c:	f8c5 4014 	str.w	r4, [r5, #20]
    2270:	f240 2101 	movw	r1, #513	; 0x201
    2274:	6001      	str	r1, [r0, #0]
    2276:	6202      	str	r2, [r0, #32]
    2278:	f880 3020 	strb.w	r3, [r0, #32]
    227c:	6941      	ldr	r1, [r0, #20]
    227e:	f411 4f00 	tst.w	r1, #32768	; 0x8000
    2282:	d0fb      	beq.n	227c <Code_458+0x4e>
    2284:	6b01      	ldr	r1, [r0, #48]	; 0x30
    2286:	6941      	ldr	r1, [r0, #20]
    2288:	f411 5f00 	tst.w	r1, #8192	; 0x2000
    228c:	d0fb      	beq.n	2286 <Code_458+0x58>
    228e:	6b01      	ldr	r1, [r0, #48]	; 0x30
    2290:	4d66      	ldr	r5, [pc, #408]	; (242c <Code_470+0x64>)
    2292:	f8d5 4014 	ldr.w	r4, [r5, #20]
    2296:	f044 0440 	orr.w	r4, r4, #64	; 0x40
    229a:	f8c5 4014 	str.w	r4, [r5, #20]
    229e:	f85d eb04 	ldr.w	lr, [sp], #4
    22a2:	e035      	b.n	2310 <Code_464>

000022a4 <Dictionary_461>:
    22a4:	00002300 	andeq	r2, r0, r0, lsl #6
    22a8:	770c0000 	strvc	r0, [ip, -r0]
    22ac:	65746972 	ldrbvs	r6, [r4, #-2418]!	; 0xfffff68e
    22b0:	616e652d 	cmnvs	lr, sp, lsr #10
    22b4:	00656c62 	rsbeq	r6, r5, r2, ror #24

000022b8 <Code_461>:
    22b8:	485d      	ldr	r0, [pc, #372]	; (2430 <Code_470+0x68>)
    22ba:	2100      	movs	r1, #0
    22bc:	6001      	str	r1, [r0, #0]
    22be:	2101      	movs	r1, #1
    22c0:	6041      	str	r1, [r0, #4]
    22c2:	2118      	movs	r1, #24
    22c4:	6181      	str	r1, [r0, #24]
    22c6:	2101      	movs	r1, #1
    22c8:	6001      	str	r1, [r0, #0]
    22ca:	4d58      	ldr	r5, [pc, #352]	; (242c <Code_470+0x64>)
    22cc:	f8d5 4014 	ldr.w	r4, [r5, #20]
    22d0:	f024 0440 	bic.w	r4, r4, #64	; 0x40
    22d4:	f8c5 4014 	str.w	r4, [r5, #20]
    22d8:	f240 2101 	movw	r1, #513	; 0x201
    22dc:	6001      	str	r1, [r0, #0]
    22de:	2106      	movs	r1, #6
    22e0:	f880 1020 	strb.w	r1, [r0, #32]
    22e4:	6941      	ldr	r1, [r0, #20]
    22e6:	f411 5f00 	tst.w	r1, #8192	; 0x2000
    22ea:	d0fb      	beq.n	22e4 <Code_461+0x2c>
    22ec:	f890 1030 	ldrb.w	r1, [r0, #48]	; 0x30
    22f0:	4d4e      	ldr	r5, [pc, #312]	; (242c <Code_470+0x64>)
    22f2:	f8d5 4014 	ldr.w	r4, [r5, #20]
    22f6:	f044 0440 	orr.w	r4, r4, #64	; 0x40
    22fa:	f8c5 4014 	str.w	r4, [r5, #20]
    22fe:	4770      	bx	lr

00002300 <Dictionary_464>:
    2300:	00002320 	andeq	r2, r0, r0, lsr #6
    2304:	73080000 	movwvc	r0, #32768	; 0x8000
    2308:	772d6970 			; <UNDEFINED> instruction: 0x772d6970
    230c:	00746961 	rsbseq	r6, r4, r1, ror #18

00002310 <Code_464>:
    2310:	b540      	push	{r6, lr}
    2312:	2605      	movs	r6, #5
    2314:	f7ff fe4d 	bl	1fb2 <Code_442>
    2318:	f016 0f01 	tst.w	r6, #1
    231c:	d1f9      	bne.n	2312 <Code_464+0x2>
    231e:	bd40      	pop	{r6, pc}

00002320 <Dictionary_465>:
    2320:	00002336 	andeq	r2, r0, r6, lsr r3
    2324:	65080000 	strvs	r0, [r8, #-0]
    2328:	65736172 	ldrbvs	r6, [r3, #-370]!	; 0xfffffe8e
    232c:	006b342d 	rsbeq	r3, fp, sp, lsr #8

00002330 <Code_465>:
    2330:	f04f 0320 	mov.w	r3, #32
    2334:	e014      	b.n	2360 <erase>

00002336 <Dictionary_466>:
    2336:	0000234c 	andeq	r2, r0, ip, asr #6
    233a:	65090000 	strvs	r0, [r9, #-0]
    233e:	65736172 	ldrbvs	r6, [r3, #-370]!	; 0xfffffe8e
    2342:	6b32332d 	blvs	c8effe <ADC12_Common_CCR_TSEN+0x48effe>

00002346 <Code_466>:
    2346:	f04f 0352 	mov.w	r3, #82	; 0x52
    234a:	e009      	b.n	2360 <erase>

0000234c <Dictionary_467>:
    234c:	000023b6 			; <UNDEFINED> instruction: 0x000023b6
    2350:	65090000 	strvs	r0, [r9, #-0]
    2354:	65736172 	ldrbvs	r6, [r3, #-370]!	; 0xfffffe8e
    2358:	6b34362d 	blvs	d0fc14 <ADC12_Common_CCR_TSEN+0x50fc14>

0000235c <Code_467>:
    235c:	f04f 03d8 	mov.w	r3, #216	; 0xd8

00002360 <erase>:
    2360:	b500      	push	{lr}
    2362:	f7ff ffa9 	bl	22b8 <Code_461>
    2366:	4832      	ldr	r0, [pc, #200]	; (2430 <Code_470+0x68>)
    2368:	f026 467f 	bic.w	r6, r6, #4278190080	; 0xff000000
    236c:	ba36      	rev	r6, r6
    236e:	18f6      	adds	r6, r6, r3
    2370:	2100      	movs	r1, #0
    2372:	6001      	str	r1, [r0, #0]
    2374:	2104      	movs	r1, #4
    2376:	6041      	str	r1, [r0, #4]
    2378:	2118      	movs	r1, #24
    237a:	6181      	str	r1, [r0, #24]
    237c:	2101      	movs	r1, #1
    237e:	6001      	str	r1, [r0, #0]
    2380:	4d2a      	ldr	r5, [pc, #168]	; (242c <Code_470+0x64>)
    2382:	f8d5 4014 	ldr.w	r4, [r5, #20]
    2386:	f024 0440 	bic.w	r4, r4, #64	; 0x40
    238a:	f8c5 4014 	str.w	r4, [r5, #20]
    238e:	f240 2101 	movw	r1, #513	; 0x201
    2392:	6001      	str	r1, [r0, #0]
    2394:	6206      	str	r6, [r0, #32]
    2396:	6941      	ldr	r1, [r0, #20]
    2398:	f411 4f00 	tst.w	r1, #32768	; 0x8000
    239c:	d0fb      	beq.n	2396 <erase+0x36>
    239e:	6b01      	ldr	r1, [r0, #48]	; 0x30
    23a0:	4d22      	ldr	r5, [pc, #136]	; (242c <Code_470+0x64>)
    23a2:	f8d5 4014 	ldr.w	r4, [r5, #20]
    23a6:	f044 0440 	orr.w	r4, r4, #64	; 0x40
    23aa:	f8c5 4014 	str.w	r4, [r5, #20]
    23ae:	cf40      	ldmia	r7!, {r6}
    23b0:	f85d eb04 	ldr.w	lr, [sp], #4
    23b4:	e7ac      	b.n	2310 <Code_464>

000023b6 <Dictionary_470>:
    23b6:	00002444 	andeq	r2, r0, r4, asr #8
    23ba:	650a0000 	strvs	r0, [sl, #-0]
    23be:	65736172 	ldrbvs	r6, [r3, #-370]!	; 0xfffffe8e
    23c2:	6968632d 	stmdbvs	r8!, {r0, r2, r3, r5, r8, r9, sp, lr}^
    23c6:	 	strlt	r0, [r0, #-112]	; 0xffffff90

000023c8 <Code_470>:
    23c8:	b500      	push	{lr}
    23ca:	f7ff ff75 	bl	22b8 <Code_461>
    23ce:	4818      	ldr	r0, [pc, #96]	; (2430 <Code_470+0x68>)
    23d0:	2100      	movs	r1, #0
    23d2:	6001      	str	r1, [r0, #0]
    23d4:	2101      	movs	r1, #1
    23d6:	6041      	str	r1, [r0, #4]
    23d8:	2118      	movs	r1, #24
    23da:	6181      	str	r1, [r0, #24]
    23dc:	2101      	movs	r1, #1
    23de:	6001      	str	r1, [r0, #0]
    23e0:	4d12      	ldr	r5, [pc, #72]	; (242c <Code_470+0x64>)
    23e2:	f8d5 4014 	ldr.w	r4, [r5, #20]
    23e6:	f024 0440 	bic.w	r4, r4, #64	; 0x40
    23ea:	f8c5 4014 	str.w	r4, [r5, #20]
    23ee:	f240 2101 	movw	r1, #513	; 0x201
    23f2:	6001      	str	r1, [r0, #0]
    23f4:	21c7      	movs	r1, #199	; 0xc7
    23f6:	f880 1020 	strb.w	r1, [r0, #32]
    23fa:	6941      	ldr	r1, [r0, #20]
    23fc:	f411 5f00 	tst.w	r1, #8192	; 0x2000
    2400:	d0fb      	beq.n	23fa <Code_470+0x32>
    2402:	f890 1030 	ldrb.w	r1, [r0, #48]	; 0x30
    2406:	4d09      	ldr	r5, [pc, #36]	; (242c <Code_470+0x64>)
    2408:	f8d5 4014 	ldr.w	r4, [r5, #20]
    240c:	f044 0440 	orr.w	r4, r4, #64	; 0x40
    2410:	f8c5 4014 	str.w	r4, [r5, #20]
    2414:	f7ff ff7c 	bl	2310 <Code_464>
    2418:	bd00      	pop	{pc}
    241a:	20000000 	andcs	r0, r0, r0
    241e:	44e05200 	strbtmi	r5, [r0], #512	; 0x200
    2422:	44f05802 	ldrbtmi	r5, [r0], #2050	; 0x802
    2426:	04005802 	streq	r5, [r0], #-2050	; 0xfffff7fe
    242a:	0c005802 	stceq	8, cr5, [r0], {2}
    242e:	30005802 	andcc	r5, r0, r2, lsl #16
    2432:	00074001 	andeq	r4, r7, r1
    2436:	00011007 	andeq	r1, r1, r7
    243a:	ef64a040 	svc	0x0064a040
    243e:	ef58e000 	svc	0x0058e000
    2442:	 	ldrbtcs	lr, [sl], #-0

00002444 <Dictionary_473>:
    2444:	0000247a 	andeq	r2, r0, sl, ror r4
    2448:	2b010262 	blcs	42dd8 <ADC12_Common_CSR_EOC_SLV+0x2dd8>

0000244c <Code_473>:
    244c:	cf01      	ldmia	r7!, {r0}
    244e:	1836      	adds	r6, r6, r0
    2450:	4770      	bx	lr

00002452 <plus_allocator>:
    2452:	b500      	push	{lr}
    2454:	f7fe f84a 	bl	4ec <expect_two_elements>
    2458:	f847 6d04 	str.w	r6, [r7, #-4]!
    245c:	f243 0600 	movw	r6, #12288	; 0x3000
    2460:	f847 6d04 	str.w	r6, [r7, #-4]!
    2464:	4ec9      	ldr	r6, [pc, #804]	; (278c <Code_545+0x8>)
    2466:	f847 6d04 	str.w	r6, [r7, #-4]!
    246a:	f641 0600 	movw	r6, #6144	; 0x1800
    246e:	6881      	ldr	r1, [r0, #8]
    2470:	2928      	cmp	r1, #40	; 0x28
    2472:	d117      	bne.n	24a4 <minus_allocator+0x1c>
    2474:	f7fe fd79 	bl	f6a <swap_allocator>
    2478:	e014      	b.n	24a4 <minus_allocator+0x1c>

0000247a <Dictionary_479>:
    247a:	00002520 	andeq	r2, r0, r0, lsr #10
    247e:	2d010262 	sfmcs	f0, 4, [r1, #-392]	; 0xfffffe78

00002482 <Code_479>:
    2482:	cf01      	ldmia	r7!, {r0}
    2484:	1b86      	subs	r6, r0, r6
    2486:	4770      	bx	lr

00002488 <minus_allocator>:
    2488:	b500      	push	{lr}
    248a:	f7fe f82f 	bl	4ec <expect_two_elements>
    248e:	f847 6d04 	str.w	r6, [r7, #-4]!
    2492:	f643 0600 	movw	r6, #14336	; 0x3800
    2496:	f847 6d04 	str.w	r6, [r7, #-4]!
    249a:	4ebd      	ldr	r6, [pc, #756]	; (2790 <Code_545+0xc>)
    249c:	f847 6d04 	str.w	r6, [r7, #-4]!
    24a0:	f641 2600 	movw	r6, #6656	; 0x1a00
    24a4:	f7fe f85e 	bl	564 <expect_nos_in_register>
    24a8:	6801      	ldr	r1, [r0, #0]
    24aa:	2928      	cmp	r1, #40	; 0x28
    24ac:	d127      	bne.n	24fe <minus_allocator+0x76>
    24ae:	6841      	ldr	r1, [r0, #4]
    24b0:	29ff      	cmp	r1, #255	; 0xff
    24b2:	d80c      	bhi.n	24ce <minus_allocator+0x46>
    24b4:	cf40      	ldmia	r7!, {r6}
    24b6:	cf40      	ldmia	r7!, {r6}
    24b8:	f7fe f868 	bl	58c <nos_change_tos_away_later>
    24bc:	430e      	orrs	r6, r1
    24be:	6881      	ldr	r1, [r0, #8]
    24c0:	0209      	lsls	r1, r1, #8
    24c2:	430e      	orrs	r6, r1
    24c4:	f001 fa6c 	bl	39a0 <Code_849>
    24c8:	f7fd ff09 	bl	2de <eliminiere_tos>
    24cc:	bd00      	pop	{pc}
    24ce:	f847 6d04 	str.w	r6, [r7, #-4]!
    24d2:	000e      	movs	r6, r1
    24d4:	f000 fe42 	bl	315c <Code_709>
    24d8:	cf02      	ldmia	r7!, {r1}
    24da:	2e00      	cmp	r6, #0
    24dc:	cf40      	ldmia	r7!, {r6}
    24de:	d00e      	beq.n	24fe <minus_allocator+0x76>
    24e0:	cf40      	ldmia	r7!, {r6}
    24e2:	3704      	adds	r7, #4
    24e4:	430e      	orrs	r6, r1
    24e6:	6881      	ldr	r1, [r0, #8]
    24e8:	ea56 4601 	orrs.w	r6, r6, r1, lsl #16
    24ec:	f7fd fef7 	bl	2de <eliminiere_tos>
    24f0:	f7fe f87c 	bl	5ec <tos_registerwechsel>
    24f4:	ea56 2603 	orrs.w	r6, r6, r3, lsl #8
    24f8:	f001 fa82 	bl	3a00 <Code_858>
    24fc:	bd00      	pop	{pc}
    24fe:	3704      	adds	r7, #4
    2500:	3704      	adds	r7, #4
    2502:	f7fe f825 	bl	550 <expect_tos_in_register>
    2506:	0189      	lsls	r1, r1, #6
    2508:	6882      	ldr	r2, [r0, #8]
    250a:	00d2      	lsls	r2, r2, #3
    250c:	430e      	orrs	r6, r1
    250e:	4316      	orrs	r6, r2
    2510:	f7fd fee5 	bl	2de <eliminiere_tos>
    2514:	f7fe f86a 	bl	5ec <tos_registerwechsel>
    2518:	431e      	orrs	r6, r3
    251a:	f001 fa41 	bl	39a0 <Code_849>
    251e:	bd00      	pop	{pc}

00002520 <Dictionary_494>:
    2520:	00002538 	andeq	r2, r0, r8, lsr r5
    2524:	31020261 	tstcc	r2, r1, ror #4
    2528:	 	cdpcc	0, 0, cr0, cr1, cr13, {1}

0000252a <Code_494>:
    252a:	3e01      	subs	r6, #1
    252c:	4770      	bx	lr

0000252e <allocator_one_minus>:
    252e:	f847 6d04 	str.w	r6, [r7, #-4]!
    2532:	f641 6640 	movw	r6, #7744	; 0x1e40
    2536:	e03d      	b.n	25b4 <smalltworegisters>

00002538 <Dictionary_497>:
    2538:	00002550 	andeq	r2, r0, r0, asr r5
    253c:	31020261 	tstcc	r2, r1, ror #4
    2540:	 	strcc	r0, [r1], -fp, lsr #32

00002542 <Code_497>:
    2542:	3601      	adds	r6, #1
    2544:	4770      	bx	lr
    2546:	f847 6d04 	str.w	r6, [r7, #-4]!
    254a:	f641 4640 	movw	r6, #7232	; 0x1c40
    254e:	e031      	b.n	25b4 <smalltworegisters>

00002550 <Dictionary_500>:
    2550:	00002568 	andeq	r2, r0, r8, ror #10
    2554:	32020261 	andcc	r0, r2, #268435462	; 0x10000006
    2558:	 	cdpcc	0, 0, cr0, cr2, cr13, {1}

0000255a <Code_500>:
    255a:	3e02      	subs	r6, #2
    255c:	4770      	bx	lr
    255e:	f847 6d04 	str.w	r6, [r7, #-4]!
    2562:	f641 6680 	movw	r6, #7808	; 0x1e80
    2566:	e025      	b.n	25b4 <smalltworegisters>

00002568 <Dictionary_503>:
    2568:	00002580 	andeq	r2, r0, r0, lsl #11
    256c:	32020261 	andcc	r0, r2, #268435462	; 0x10000006
    2570:	 	strcc	r0, [r2], -fp, lsr #32

00002572 <Code_503>:
    2572:	3602      	adds	r6, #2
    2574:	4770      	bx	lr
    2576:	f847 6d04 	str.w	r6, [r7, #-4]!
    257a:	f641 4680 	movw	r6, #7296	; 0x1c80
    257e:	e019      	b.n	25b4 <smalltworegisters>

00002580 <Dictionary_506>:
    2580:	0000259a 	muleq	r0, sl, r5
    2584:	63050261 	movwvs	r0, #21089	; 0x5261
    2588:	2b6c6c65 	blcs	1b1d724 <RCC_PLL1DIVR_Value+0xaed485>

0000258c <Code_506>:
    258c:	3604      	adds	r6, #4
    258e:	4770      	bx	lr
    2590:	f847 6d04 	str.w	r6, [r7, #-4]!
    2594:	f641 5600 	movw	r6, #7424	; 0x1d00
    2598:	e00c      	b.n	25b4 <smalltworegisters>

0000259a <Dictionary_509>:
    259a:	000025cc 	andeq	r2, r0, ip, asr #11
    259e:	6e060261 	cdpvs	2, 0, cr0, cr6, cr1, {3}
    25a2:	74616765 	strbtvc	r6, [r1], #-1893	; 0xfffff89b
    25a6:	 	rsbsmi	r0, r6, #101	; 0x65

000025a8 <Code_509>:
    25a8:	4276      	negs	r6, r6
    25aa:	4770      	bx	lr

000025ac <allocator_negate>:
    25ac:	f847 6d04 	str.w	r6, [r7, #-4]!
    25b0:	f244 2640 	movw	r6, #16960	; 0x4240

000025b4 <smalltworegisters>:
    25b4:	b500      	push	{lr}
    25b6:	f7fd ff8f 	bl	4d8 <expect_one_element>
    25ba:	6801      	ldr	r1, [r0, #0]
    25bc:	00c9      	lsls	r1, r1, #3
    25be:	430e      	orrs	r6, r1
    25c0:	f7fe f814 	bl	5ec <tos_registerwechsel>
    25c4:	431e      	orrs	r6, r3
    25c6:	f001 f9eb 	bl	39a0 <Code_849>
    25ca:	bd00      	pop	{pc}

000025cc <Dictionary_512>:
    25cc:	000025e4 	andeq	r2, r0, r4, ror #11
    25d0:	6e030261 	cdpvs	2, 0, cr0, cr3, cr1, {3}
    25d4:	 	mvnsmi	r7, #1862270976	; 0x6f000000

000025d6 <Code_512>:
    25d6:	43f6      	mvns	r6, r6
    25d8:	4770      	bx	lr

000025da <allocator_not>:
    25da:	f847 6d04 	str.w	r6, [r7, #-4]!
    25de:	f244 36c0 	movw	r6, #17344	; 0x43c0
    25e2:	e7e7      	b.n	25b4 <smalltworegisters>

000025e4 <Dictionary_515>:
    25e4:	000025fc 	strdeq	r2, [r0], -ip
    25e8:	73030261 	movwvc	r0, #12897	; 0x3261
    25ec:	 	ldmdaeq	r6!, {r3, r5, r6, r9, ip, sp, lr}^

000025ee <Code_515>:
    25ee:	0876      	lsrs	r6, r6, #1
    25f0:	4770      	bx	lr
    25f2:	f847 6d04 	str.w	r6, [r7, #-4]!
    25f6:	f640 0640 	movw	r6, #2112	; 0x840
    25fa:	e7db      	b.n	25b4 <smalltworegisters>

000025fc <Dictionary_518>:
    25fc:	0000260c 	andeq	r2, r0, ip, lsl #12
    2600:	73030261 	movwvc	r0, #12897	; 0x3261
    2604:	 	rsbseq	r6, r6, r8, ror #24

00002606 <Code_518>:
    2606:	0076      	lsls	r6, r6, #1
    2608:	4770      	bx	lr
    260a:	e006      	b.n	261a <Code_519+0x4>

0000260c <Dictionary_519>:
    260c:	00002622 	andeq	r2, r0, r2, lsr #12
    2610:	32020261 	andcc	r0, r2, #268435462	; 0x10000006
    2614:	 	rsbseq	r0, r6, sl, lsr #32

00002616 <Code_519>:
    2616:	0076      	lsls	r6, r6, #1
    2618:	4770      	bx	lr
    261a:	f847 6d04 	str.w	r6, [r7, #-4]!
    261e:	2640      	movs	r6, #64	; 0x40
    2620:	e7c8      	b.n	25b4 <smalltworegisters>

00002622 <Dictionary_522>:
    2622:	0000263a 	andeq	r2, r0, sl, lsr r6
    2626:	63050261 	movwvs	r0, #21089	; 0x5261
    262a:	736c6c65 	cmnvc	ip, #25856	; 0x6500

0000262e <Code_522>:
    262e:	00b6      	lsls	r6, r6, #2
    2630:	4770      	bx	lr
    2632:	f847 6d04 	str.w	r6, [r7, #-4]!
    2636:	2680      	movs	r6, #128	; 0x80
    2638:	e7bc      	b.n	25b4 <smalltworegisters>

0000263a <Dictionary_525>:
    263a:	00002652 	andeq	r2, r0, r2, asr r6
    263e:	32020261 	andcc	r0, r2, #268435462	; 0x10000006
    2642:	 	rsbsne	r0, r6, pc, lsr #32

00002644 <Code_525>:
    2644:	1076      	asrs	r6, r6, #1
    2646:	4770      	bx	lr
    2648:	f847 6d04 	str.w	r6, [r7, #-4]!
    264c:	f241 0640 	movw	r6, #4160	; 0x1040
    2650:	e7b0      	b.n	25b4 <smalltworegisters>

00002652 <Dictionary_528>:
    2652:	00002692 	muleq	r0, r2, r6
    2656:	61030261 	tstvs	r3, r1, ror #4
    265a:	 	ldrbne	r7, [r0, r2, ror #6]!

0000265c <Code_528>:
    265c:	17f0      	asrs	r0, r6, #31
    265e:	1836      	adds	r6, r6, r0
    2660:	4046      	eors	r6, r0
    2662:	4770      	bx	lr
    2664:	b500      	push	{lr}
    2666:	f7fd ff37 	bl	4d8 <expect_one_element>
    266a:	f847 6d04 	str.w	r6, [r7, #-4]!
    266e:	2600      	movs	r6, #0
    2670:	6801      	ldr	r1, [r0, #0]
    2672:	00c9      	lsls	r1, r1, #3
    2674:	430e      	orrs	r6, r1
    2676:	f7fd ffb9 	bl	5ec <tos_registerwechsel>
    267a:	431e      	orrs	r6, r3
    267c:	f001 f990 	bl	39a0 <Code_849>
    2680:	f847 6d04 	str.w	r6, [r7, #-4]!
    2684:	f24d 5600 	movw	r6, #54528	; 0xd500
    2688:	f001 f98a 	bl	39a0 <Code_849>
    268c:	f7ff ff8e 	bl	25ac <allocator_negate>
    2690:	bd00      	pop	{pc}

00002692 <Dictionary_533>:
    2692:	000026b0 			; <UNDEFINED> instruction: 0x000026b0
    2696:	75050042 	strvc	r0, [r5, #-66]	; 0xffffffbe
    269a:	646f6d2f 	strbtvs	r6, [pc], #-3375	; 26a2 <Code_533+0x4>

0000269e <Code_533>:
    269e:	cf01      	ldmia	r7!, {r0}
    26a0:	0031      	movs	r1, r6
    26a2:	fbb0 f6f6 	udiv	r6, r0, r6
    26a6:	4371      	muls	r1, r6
    26a8:	1a40      	subs	r0, r0, r1
    26aa:	3f04      	subs	r7, #4
    26ac:	6038      	str	r0, [r7, #0]
    26ae:	4770      	bx	lr

000026b0 <Dictionary_534>:
    26b0:	000026ce 	andeq	r2, r0, lr, asr #13
    26b4:	2f040042 	svccs	0x00040042
    26b8:	00646f6d 	rsbeq	r6, r4, sp, ror #30

000026bc <Code_534>:
    26bc:	cf01      	ldmia	r7!, {r0}
    26be:	0031      	movs	r1, r6
    26c0:	fb90 f6f6 	sdiv	r6, r0, r6
    26c4:	4371      	muls	r1, r6
    26c6:	1a40      	subs	r0, r0, r1
    26c8:	3f04      	subs	r7, #4
    26ca:	6038      	str	r0, [r7, #0]
    26cc:	4770      	bx	lr

000026ce <Dictionary_535>:
    26ce:	000026e2 	andeq	r2, r0, r2, ror #13
    26d2:	6d030042 	stcvs	0, cr0, [r3, #-264]	; 0xfffffef8
    26d6:	 	strlt	r6, [r0, #-1135]	; 0xfffffb91

000026d8 <Code_535>:
    26d8:	b500      	push	{lr}
    26da:	f7ff ffef 	bl	26bc <Code_534>
    26de:	cf40      	ldmia	r7!, {r6}
    26e0:	bd00      	pop	{pc}

000026e2 <Dictionary_537>:
    26e2:	00002722 	andeq	r2, r0, r2, lsr #14
    26e6:	2f010262 	svccs	0x00010262

000026ea <Code_537>:
    26ea:	cf01      	ldmia	r7!, {r0}
    26ec:	fb90 f6f6 	sdiv	r6, r0, r6
    26f0:	4770      	bx	lr
    26f2:	b500      	push	{lr}
    26f4:	f7fd fefa 	bl	4ec <expect_two_elements>
    26f8:	f7fd ff2a 	bl	550 <expect_tos_in_register>
    26fc:	f7fd ff32 	bl	564 <expect_nos_in_register>
    2700:	f847 6d04 	str.w	r6, [r7, #-4]!
    2704:	4e23      	ldr	r6, [pc, #140]	; (2794 <Code_545+0x10>)
    2706:	6801      	ldr	r1, [r0, #0]
    2708:	430e      	orrs	r6, r1
    270a:	6881      	ldr	r1, [r0, #8]
    270c:	ea56 4601 	orrs.w	r6, r6, r1, lsl #16
    2710:	f7fd fde5 	bl	2de <eliminiere_tos>
    2714:	f7fd ff6a 	bl	5ec <tos_registerwechsel>
    2718:	ea56 2603 	orrs.w	r6, r6, r3, lsl #8
    271c:	f001 f970 	bl	3a00 <Code_858>
    2720:	bd00      	pop	{pc}

00002722 <Dictionary_539>:
    2722:	00002736 	andeq	r2, r0, r6, lsr r7
    2726:	65040061 	strvs	r0, [r4, #-97]	; 0xffffff9f
    272a:	006e6576 	rsbeq	r6, lr, r6, ror r5

0000272e <Code_539>:
    272e:	2001      	movs	r0, #1
    2730:	4030      	ands	r0, r6
    2732:	1836      	adds	r6, r6, r0
    2734:	4770      	bx	lr

00002736 <Dictionary_540>:
    2736:	0000274e 	andeq	r2, r0, lr, asr #14
    273a:	62040081 	andvs	r0, r4, #129	; 0x81
    273e:	00657361 	rsbeq	r7, r5, r1, ror #6

00002742 <Code_540>:
    2742:	f847 6d04 	str.w	r6, [r7, #-4]!
    2746:	4e14      	ldr	r6, [pc, #80]	; (2798 <Code_545+0x14>)
    2748:	4770      	bx	lr
    274a:	0000000a 	andeq	r0, r0, sl

0000274e <Dictionary_543>:
    274e:	00002764 	andeq	r2, r0, r4, ror #14
    2752:	62060000 	andvs	r0, r6, #0
    2756:	72616e69 	rsbvc	r6, r1, #1680	; 0x690
    275a:	 	stmdami	lr, {r0, r3, r4, r5, r6}

0000275c <Code_543>:
    275c:	480e      	ldr	r0, [pc, #56]	; (2798 <Code_545+0x14>)
    275e:	2102      	movs	r1, #2
    2760:	6001      	str	r1, [r0, #0]
    2762:	4770      	bx	lr

00002764 <Dictionary_544>:
    2764:	0000277a 	andeq	r2, r0, sl, ror r7
    2768:	64070000 	strvs	r0, [r7], #-0
    276c:	6d696365 	stclvs	3, cr6, [r9, #-404]!	; 0xfffffe6c
    2770:	 	stmdami	r9, {r0, r5, r6, sl, fp, sp, lr}

00002772 <Code_544>:
    2772:	4809      	ldr	r0, [pc, #36]	; (2798 <Code_545+0x14>)
    2774:	210a      	movs	r1, #10
    2776:	6001      	str	r1, [r0, #0]
    2778:	4770      	bx	lr

0000277a <Dictionary_545>:
    277a:	000027f6 	strdeq	r2, [r0], -r6
    277e:	68030000 	stmdavs	r3, {}	; <UNPREDICTABLE>
    2782:	 	stmdami	r4, {r0, r2, r5, r6, fp, ip, sp, lr}

00002784 <Code_545>:
    2784:	4804      	ldr	r0, [pc, #16]	; (2798 <Code_545+0x14>)
    2786:	2110      	movs	r1, #16
    2788:	6001      	str	r1, [r0, #0]
    278a:	4770      	bx	lr
    278c:	f1100000 	setpan	#0
    2790:	f1b00000 			; <UNDEFINED> instruction: 0xf1b00000
    2794:	fb90f0f0 	blx	fe43eb5e <erasedword+0xfe43eb5f>
    2798:	2001fffc 	strdcs	pc, [r1], -ip

0000279c <enable_caches>:
    279c:	b500      	push	{lr}
    279e:	4b6f      	ldr	r3, [pc, #444]	; (295c <Code_557+0xa>)
    27a0:	6818      	ldr	r0, [r3, #0]
    27a2:	f410 3f80 	tst.w	r0, #65536	; 0x10000
    27a6:	d115      	bne.n	27d4 <enable_caches+0x38>
    27a8:	486d      	ldr	r0, [pc, #436]	; (2960 <Code_557+0xe>)
    27aa:	f240 11ff 	movw	r1, #511	; 0x1ff
    27ae:	09ca      	lsrs	r2, r1, #7
    27b0:	0792      	lsls	r2, r2, #30
    27b2:	f361 124b 	bfi	r2, r1, #5, #7
    27b6:	6002      	str	r2, [r0, #0]
    27b8:	3901      	subs	r1, #1
    27ba:	d1f8      	bne.n	27ae <enable_caches+0x12>
    27bc:	f3bf 8f4f 	dsb	sy
    27c0:	f3bf 8f6f 	isb	sy
    27c4:	6818      	ldr	r0, [r3, #0]
    27c6:	f440 3080 	orr.w	r0, r0, #65536	; 0x10000
    27ca:	6018      	str	r0, [r3, #0]
    27cc:	f3bf 8f4f 	dsb	sy
    27d0:	f3bf 8f6f 	isb	sy
    27d4:	f410 3f00 	tst.w	r0, #131072	; 0x20000
    27d8:	d10c      	bne.n	27f4 <enable_caches+0x58>
    27da:	4a62      	ldr	r2, [pc, #392]	; (2964 <Code_557+0x12>)
    27dc:	6010      	str	r0, [r2, #0]
    27de:	f3bf 8f4f 	dsb	sy
    27e2:	f3bf 8f6f 	isb	sy
    27e6:	f440 3000 	orr.w	r0, r0, #131072	; 0x20000
    27ea:	6018      	str	r0, [r3, #0]
    27ec:	f3bf 8f4f 	dsb	sy
    27f0:	f3bf 8f6f 	isb	sy
    27f4:	bd00      	pop	{pc}

000027f6 <Dictionary_546>:
    27f6:	00002816 	andeq	r2, r0, r6, lsl r8
    27fa:	640c0000 	strvs	r0, [ip], #-0
    27fe:	68636163 	stmdavs	r3!, {r0, r1, r5, r6, r8, sp, lr}^
    2802:	6c632d65 	stclvs	13, cr2, [r3], #-404	; 0xfffffe6c
    2806:	006e6165 	rsbeq	r6, lr, r5, ror #2

0000280a <Code_546>:
    280a:	4857      	ldr	r0, [pc, #348]	; (2968 <Code_557+0x16>)
    280c:	6006      	str	r6, [r0, #0]
    280e:	f3bf 8f4f 	dsb	sy
    2812:	cf40      	ldmia	r7!, {r6}
    2814:	4770      	bx	lr

00002816 <Dictionary_548>:
    2816:	0000283a 	andeq	r2, r0, sl, lsr r8
    281a:	64110000 	ldrvs	r0, [r1], #-0
    281e:	68636163 	stmdavs	r3!, {r0, r1, r5, r6, r8, sp, lr}^
    2822:	6e692d65 	cdpvs	13, 6, cr2, cr9, cr5, {3}
    2826:	696c6176 	stmdbvs	ip!, {r1, r2, r4, r5, r6, r8, sp, lr}^
    282a:	65746164 	ldrbvs	r6, [r4, #-356]!	; 0xfffffe9c

0000282e <Code_548>:
    282e:	484f      	ldr	r0, [pc, #316]	; (296c <Code_557+0x1a>)
    2830:	6006      	str	r6, [r0, #0]
    2832:	f3bf 8f4f 	dsb	sy
    2836:	cf40      	ldmia	r7!, {r6}
    2838:	4770      	bx	lr

0000283a <Dictionary_550>:
    283a:	00002858 	andeq	r2, r0, r8, asr r8
    283e:	6c060000 	stcvs	0, cr0, [r6], {-0}
    2842:	6f2d6f64 	svcvs	0x002d6f64
    2846:	 	stmdami	r9, {r1, r2, r3, r5, r6}^

00002848 <Code_550>:
    2848:	4849      	ldr	r0, [pc, #292]	; (2970 <Code_557+0x1e>)
    284a:	6801      	ldr	r1, [r0, #0]
    284c:	f041 0102 	orr.w	r1, r1, #2
    2850:	f021 0105 	bic.w	r1, r1, #5
    2854:	6001      	str	r1, [r0, #0]
    2856:	4770      	bx	lr

00002858 <Dictionary_551>:
    2858:	00002878 	andeq	r2, r0, r8, ror r8
    285c:	76040000 	strvc	r0, [r4], -r0
    2860:	0031736f 	eorseq	r7, r1, pc, ror #6

00002864 <Code_551>:
    2864:	4843      	ldr	r0, [pc, #268]	; (2974 <Code_557+0x22>)
    2866:	6801      	ldr	r1, [r0, #0]
    2868:	f441 4140 	orr.w	r1, r1, #49152	; 0xc000
    286c:	6001      	str	r1, [r0, #0]
    286e:	6801      	ldr	r1, [r0, #0]
    2870:	f411 5f00 	tst.w	r1, #8192	; 0x2000
    2874:	d0fb      	beq.n	286e <Code_551+0xa>
    2876:	4770      	bx	lr

00002878 <Dictionary_552>:
    2878:	0000289a 	muleq	r0, sl, r8
    287c:	68060000 	stmdavs	r6, {}	; <UNPREDICTABLE>
    2880:	6f2d6573 	svcvs	0x002d6573
    2884:	 	ldmdami	ip!, {r1, r2, r3, r5, r6}

00002886 <Code_552>:
    2886:	483c      	ldr	r0, [pc, #240]	; (2978 <Code_557+0x26>)
    2888:	6801      	ldr	r1, [r0, #0]
    288a:	f441 3180 	orr.w	r1, r1, #65536	; 0x10000
    288e:	6001      	str	r1, [r0, #0]
    2890:	6801      	ldr	r1, [r0, #0]
    2892:	f411 3f00 	tst.w	r1, #131072	; 0x20000
    2896:	d0fb      	beq.n	2890 <Code_552+0xa>
    2898:	4770      	bx	lr

0000289a <Dictionary_553>:
    289a:	000028f4 	strdeq	r2, [r0], -r4
    289e:	700a0000 	andvc	r0, sl, r0
    28a2:	342d6c6c 	strtcc	r6, [sp], #-3180	; 0xfffff394
    28a6:	484d3030 	stmdami	sp, {r4, r5, ip, sp}^
    28aa:	 	ldmdami	r2!, {r1, r3, r4, r5, r6}

000028ac <Code_553>:
    28ac:	4832      	ldr	r0, [pc, #200]	; (2978 <Code_557+0x26>)
    28ae:	6a81      	ldr	r1, [r0, #40]	; 0x28
    28b0:	f041 0102 	orr.w	r1, r1, #2
    28b4:	2205      	movs	r2, #5
    28b6:	f362 1109 	bfi	r1, r2, #4, #6
    28ba:	6281      	str	r1, [r0, #40]	; 0x28
    28bc:	6901      	ldr	r1, [r0, #16]
    28be:	f041 0108 	orr.w	r1, r1, #8
    28c2:	6101      	str	r1, [r0, #16]
    28c4:	492d      	ldr	r1, [pc, #180]	; (297c <Code_557+0x2a>)
    28c6:	6301      	str	r1, [r0, #48]	; 0x30
    28c8:	6801      	ldr	r1, [r0, #0]
    28ca:	f041 7180 	orr.w	r1, r1, #16777216	; 0x1000000
    28ce:	6001      	str	r1, [r0, #0]
    28d0:	6801      	ldr	r1, [r0, #0]
    28d2:	f011 7f00 	tst.w	r1, #33554432	; 0x2000000
    28d6:	d0fb      	beq.n	28d0 <Code_553+0x24>
    28d8:	f04f 0148 	mov.w	r1, #72	; 0x48
    28dc:	6181      	str	r1, [r0, #24]
    28de:	f44f 6188 	mov.w	r1, #1088	; 0x440
    28e2:	61c1      	str	r1, [r0, #28]
    28e4:	f04f 0140 	mov.w	r1, #64	; 0x40
    28e8:	6201      	str	r1, [r0, #32]
    28ea:	6901      	ldr	r1, [r0, #16]
    28ec:	f041 0103 	orr.w	r1, r1, #3
    28f0:	6101      	str	r1, [r0, #16]
    28f2:	4770      	bx	lr

000028f4 <Dictionary_554>:
    28f4:	00002910 	andeq	r2, r0, r0, lsl r9
    28f8:	69080000 	stmdbvs	r8, {}	; <UNPREDICTABLE>
    28fc:	2d74696e 			; <UNDEFINED> instruction: 0x2d74696e
    2900:	00637263 	rsbeq	r7, r3, r3, ror #4

00002904 <Code_554>:
    2904:	481e      	ldr	r0, [pc, #120]	; (2980 <Code_557+0x2e>)
    2906:	6801      	ldr	r1, [r0, #0]
    2908:	f481 2100 	eor.w	r1, r1, #524288	; 0x80000
    290c:	6001      	str	r1, [r0, #0]
    290e:	e007      	b.n	2920 <Code_555>

00002910 <Dictionary_555>:
    2910:	00002928 	andeq	r2, r0, r8, lsr #18
    2914:	72090000 	andvc	r0, r9, #0
    2918:	74657365 	strbtvc	r7, [r5], #-869	; 0xfffffc9b
    291c:	6372632d 	cmnvs	r2, #-1275068416	; 0xb4000000

00002920 <Code_555>:
    2920:	4818      	ldr	r0, [pc, #96]	; (2984 <Code_557+0x32>)
    2922:	2101      	movs	r1, #1
    2924:	6081      	str	r1, [r0, #8]
    2926:	4770      	bx	lr

00002928 <Dictionary_556>:
    2928:	00002946 	andeq	r2, r0, r6, asr #18
    292c:	3e040000 	cdpcc	0, 0, cr0, cr4, cr0, {0}
    2930:	00637263 	rsbeq	r7, r3, r3, ror #4

00002934 <Code_556>:
    2934:	4813      	ldr	r0, [pc, #76]	; (2984 <Code_557+0x32>)
    2936:	cf02      	ldmia	r7!, {r1}
    2938:	3e04      	subs	r6, #4
    293a:	d302      	bcc.n	2942 <Code_556+0xe>
    293c:	c904      	ldmia	r1!, {r2}
    293e:	6002      	str	r2, [r0, #0]
    2940:	e7fa      	b.n	2938 <Code_556+0x4>
    2942:	cf40      	ldmia	r7!, {r6}
    2944:	4770      	bx	lr

00002946 <Dictionary_557>:
    2946:	00002988 	andeq	r2, r0, r8, lsl #19
    294a:	63040000 	movwvs	r0, #16384	; 0x4000
    294e:	00406372 	subeq	r6, r0, r2, ror r3

00002952 <Code_557>:
    2952:	480c      	ldr	r0, [pc, #48]	; (2984 <Code_557+0x32>)
    2954:	f847 6d04 	str.w	r6, [r7, #-4]!
    2958:	6806      	ldr	r6, [r0, #0]
    295a:	4770      	bx	lr
    295c:	e000ed14 	and	lr, r0, r4, lsl sp
    2960:	e000ef60 	and	lr, r0, r0, ror #30
    2964:	e000ef50 	and	lr, r0, r0, asr pc
    2968:	e000ef68 	and	lr, r0, r8, ror #30
    296c:	e000ef5c 	and	lr, r0, ip, asr pc
    2970:	5802480c 	stmdapl	r2, {r2, r3, fp, lr}
    2974:	58024818 	stmdapl	r2, {r3, r4, fp, lr}
    2978:	58024400 	stmdapl	r2, {sl, lr}
    297c:	0103029f 			; <UNDEFINED> instruction: 0x0103029f
    2980:	580244e0 	stmdapl	r2, {r5, r6, r7, sl, lr}
    2984:	58024c00 	stmdapl	r2, {sl, fp, lr}

00002988 <Dictionary_558>:
    2988:	000029a4 	andeq	r2, r0, r4, lsr #19
    298c:	69090000 	stmdbvs	r9, {}	; <UNPREDICTABLE>
    2990:	2d74696e 			; <UNDEFINED> instruction: 0x2d74696e
    2994:	68736168 	ldmdavs	r3!, {r3, r5, r6, r8, sp, lr}^

00002998 <Code_558>:
    2998:	4808      	ldr	r0, [pc, #32]	; (29bc <Code_559+0xa>)
    299a:	6801      	ldr	r1, [r0, #0]
    299c:	f081 0120 	eor.w	r1, r1, #32
    29a0:	6001      	str	r1, [r0, #0]
    29a2:	4770      	bx	lr

000029a4 <Dictionary_559>:
    29a4:	000029c4 	andeq	r2, r0, r4, asr #19
    29a8:	68070000 	stmdavs	r7, {}	; <UNPREDICTABLE>
    29ac:	5f687361 	svcpl	0x00687361
    29b0:	 			; <UNDEFINED> instruction: 0xf8477263

000029b2 <Code_559>:
    29b2:	f847 6d04 	str.w	r6, [r7, #-4]!
    29b6:	4e02      	ldr	r6, [pc, #8]	; (29c0 <Code_559+0xe>)
    29b8:	4770      	bx	lr
    29ba:	44dc0000 	ldrbmi	r0, [ip], #0
    29be:	14005802 	strne	r5, [r0], #-2050	; 0xfffff7fe
    29c2:	 	ldmibcs	r8, {r1, fp, lr}^

000029c4 <Dictionary_562>:
    29c4:	000029d8 	ldrdeq	r2, [r0], -r8
    29c8:	73030000 	movwvc	r0, #12288	; 0x3000
    29cc:	 			; <UNDEFINED> instruction: 0xf8476477

000029ce <Code_562>:
    29ce:	f847 6d04 	str.w	r6, [r7, #-4]!
    29d2:	ea5f 060b 	movs.w	r6, fp
    29d6:	4770      	bx	lr

000029d8 <Dictionary_565>:
    29d8:	00002a08 	andeq	r2, r0, r8, lsl #20
    29dc:	73080000 	movwvc	r0, #32768	; 0x8000
    29e0:	692d6477 	pushvs	{r0, r1, r2, r4, r5, r6, sl, sp, lr}
    29e4:	0074696e 	rsbseq	r6, r4, lr, ror #18

000029e8 <Code_565>:
    29e8:	b500      	push	{lr}
    29ea:	486e      	ldr	r0, [pc, #440]	; (2ba4 <hook_intern+0x4>)
    29ec:	6801      	ldr	r1, [r0, #0]
    29ee:	2000      	movs	r0, #0
    29f0:	6008      	str	r0, [r1, #0]
    29f2:	ea5f 0b01 	movs.w	fp, r1
    29f6:	f847 6d04 	str.w	r6, [r7, #-4]!
    29fa:	f847 6d04 	str.w	r6, [r7, #-4]!
    29fe:	f240 2604 	movw	r6, #516	; 0x204
    2a02:	f001 f83b 	bl	3a7c <Code_867>
    2a06:	bd00      	pop	{pc}

00002a08 <Dictionary_570>:
    2a08:	00002a32 	andeq	r2, r0, r2, lsr sl
    2a0c:	73080000 	movwvc	r0, #32768	; 0x8000
    2a10:	6b2d6477 	blvs	b5bbf4 <ADC12_Common_CCR_TSEN+0x35bbf4>
    2a14:	003f7965 	eorseq	r7, pc, r5, ror #18

00002a18 <Code_570>:
    2a18:	b500      	push	{lr}
    2a1a:	f000 f8be 	bl	2b9a <Code_600>
    2a1e:	f847 6d04 	str.w	r6, [r7, #-4]!
    2a22:	465a      	mov	r2, fp
    2a24:	7810      	ldrb	r0, [r2, #0]
    2a26:	7851      	ldrb	r1, [r2, #1]
    2a28:	2600      	movs	r6, #0
    2a2a:	4288      	cmp	r0, r1
    2a2c:	bf18      	it	ne
    2a2e:	3e01      	subne	r6, #1
    2a30:	bd00      	pop	{pc}

00002a32 <Dictionary_573>:
    2a32:	00002a60 	andeq	r2, r0, r0, ror #20
    2a36:	73090000 	movwvc	r0, #36864	; 0x9000
    2a3a:	652d6477 	strvs	r6, [sp, #-1143]!	; 0xfffffb89
    2a3e:	3f74696d 	svccc	0x0074696d

00002a42 <Code_573>:
    2a42:	b500      	push	{lr}
    2a44:	f000 f8a9 	bl	2b9a <Code_600>
    2a48:	f847 6d04 	str.w	r6, [r7, #-4]!
    2a4c:	465a      	mov	r2, fp
    2a4e:	7890      	ldrb	r0, [r2, #2]
    2a50:	78d1      	ldrb	r1, [r2, #3]
    2a52:	3001      	adds	r0, #1
    2a54:	b2c0      	uxtb	r0, r0
    2a56:	2600      	movs	r6, #0
    2a58:	4288      	cmp	r0, r1
    2a5a:	bf18      	it	ne
    2a5c:	3e01      	subne	r6, #1
    2a5e:	bd00      	pop	{pc}

00002a60 <Dictionary_576>:
    2a60:	00002a86 	andeq	r2, r0, r6, lsl #21
    2a64:	73070000 	movwvc	r0, #28672	; 0x7000
    2a68:	6b2d6477 	blvs	b5bc4c <ADC12_Common_CCR_TSEN+0x35bc4c>
    2a6c:	 			; <UNDEFINED> instruction: 0xf8477965

00002a6e <Code_576>:
    2a6e:	f847 6d04 	str.w	r6, [r7, #-4]!
    2a72:	465a      	mov	r2, fp
    2a74:	7850      	ldrb	r0, [r2, #1]
    2a76:	7811      	ldrb	r1, [r2, #0]
    2a78:	4288      	cmp	r0, r1
    2a7a:	d0fc      	beq.n	2a76 <Code_576+0x8>
    2a7c:	1d01      	adds	r1, r0, #4
    2a7e:	5c8e      	ldrb	r6, [r1, r2]
    2a80:	3001      	adds	r0, #1
    2a82:	7050      	strb	r0, [r2, #1]
    2a84:	4770      	bx	lr

00002a86 <Dictionary_579>:
    2a86:	00002ab0 			; <UNDEFINED> instruction: 0x00002ab0
    2a8a:	73080000 	movwvc	r0, #32768	; 0x8000
    2a8e:	652d6477 	strvs	r6, [sp, #-1143]!	; 0xfffffb89
    2a92:	0074696d 	rsbseq	r6, r4, sp, ror #18

00002a96 <Code_579>:
    2a96:	465b      	mov	r3, fp
    2a98:	7898      	ldrb	r0, [r3, #2]
    2a9a:	1c41      	adds	r1, r0, #1
    2a9c:	b2c9      	uxtb	r1, r1
    2a9e:	78da      	ldrb	r2, [r3, #3]
    2aa0:	4291      	cmp	r1, r2
    2aa2:	d0fc      	beq.n	2a9e <Code_579+0x8>
    2aa4:	f500 7082 	add.w	r0, r0, #260	; 0x104
    2aa8:	54c6      	strb	r6, [r0, r3]
    2aaa:	7099      	strb	r1, [r3, #2]
    2aac:	cf40      	ldmia	r7!, {r6}
    2aae:	4770      	bx	lr

00002ab0 <Dictionary_581>:
    2ab0:	00002acc 	andeq	r2, r0, ip, asr #21
    2ab4:	68090081 	stmdavs	r9, {r0, r7}
    2ab8:	2d6b6f6f 	stclcs	15, cr6, [fp, #-444]!	; 0xfffffe44
    2abc:	74696d65 	strbtvc	r6, [r9], #-3429	; 0xfffff29b

00002ac0 <Code_581>:
    2ac0:	f847 6d04 	str.w	r6, [r7, #-4]!
    2ac4:	4e38      	ldr	r6, [pc, #224]	; (2ba8 <hook_intern+0x8>)
    2ac6:	4770      	bx	lr
    2ac8:	00002a96 	muleq	r0, r6, sl

00002acc <Dictionary_584>:
    2acc:	00002ae8 	andeq	r2, r0, r8, ror #21
    2ad0:	68080081 	stmdavs	r8, {r0, r7}
    2ad4:	2d6b6f6f 	stclcs	15, cr6, [fp, #-444]!	; 0xfffffe44
    2ad8:	0079656b 	rsbseq	r6, r9, fp, ror #10

00002adc <Code_584>:
    2adc:	f847 6d04 	str.w	r6, [r7, #-4]!
    2ae0:	4e32      	ldr	r6, [pc, #200]	; (2bac <hook_intern+0xc>)
    2ae2:	4770      	bx	lr
    2ae4:	00002a6e 	andeq	r2, r0, lr, ror #20

00002ae8 <Dictionary_587>:
    2ae8:	00002b06 	andeq	r2, r0, r6, lsl #22
    2aec:	680a0081 	stmdavs	sl, {r0, r7}
    2af0:	2d6b6f6f 	stclcs	15, cr6, [fp, #-444]!	; 0xfffffe44
    2af4:	74696d65 	strbtvc	r6, [r9], #-3429	; 0xfffff29b
    2af8:	 			; <UNDEFINED> instruction: 0xf847003f

00002afa <Code_587>:
    2afa:	f847 6d04 	str.w	r6, [r7, #-4]!
    2afe:	4e2c      	ldr	r6, [pc, #176]	; (2bb0 <hook_intern+0x10>)
    2b00:	4770      	bx	lr
    2b02:	00002a42 	andeq	r2, r0, r2, asr #20

00002b06 <Dictionary_590>:
    2b06:	00002b22 	andeq	r2, r0, r2, lsr #22
    2b0a:	68090081 	stmdavs	r9, {r0, r7}
    2b0e:	2d6b6f6f 	stclcs	15, cr6, [fp, #-444]!	; 0xfffffe44
    2b12:	3f79656b 	svccc	0x0079656b

00002b16 <Code_590>:
    2b16:	f847 6d04 	str.w	r6, [r7, #-4]!
    2b1a:	4e26      	ldr	r6, [pc, #152]	; (2bb4 <hook_intern+0x14>)
    2b1c:	4770      	bx	lr
    2b1e:	00002a18 	andeq	r2, r0, r8, lsl sl

00002b22 <Dictionary_593>:
    2b22:	00002b40 	andeq	r2, r0, r0, asr #22
    2b26:	680a0081 	stmdavs	sl, {r0, r7}
    2b2a:	2d6b6f6f 	stclcs	15, cr6, [fp, #-444]!	; 0xfffffe44
    2b2e:	73756170 	cmnvc	r5, #112, 2
    2b32:	 			; <UNDEFINED> instruction: 0xf8470065

00002b34 <Code_593>:
    2b34:	f847 6d04 	str.w	r6, [r7, #-4]!
    2b38:	4e1f      	ldr	r6, [pc, #124]	; (2bb8 <hook_intern+0x18>)
    2b3a:	4770      	bx	lr
    2b3c:	0000503a 	andeq	r5, r0, sl, lsr r0

00002b40 <Dictionary_596>:
    2b40:	00002b56 	andeq	r2, r0, r6, asr fp
    2b44:	65040000 	strvs	r0, [r4, #-0]
    2b48:	0074696d 	rsbseq	r6, r4, sp, ror #18

00002b4c <Code_596>:
    2b4c:	b50f      	push	{r0, r1, r2, r3, lr}
    2b4e:	4816      	ldr	r0, [pc, #88]	; (2ba8 <hook_intern+0x8>)
    2b50:	f000 f826 	bl	2ba0 <hook_intern>
    2b54:	bd0f      	pop	{r0, r1, r2, r3, pc}

00002b56 <Dictionary_597>:
    2b56:	00002b6a 	andeq	r2, r0, sl, ror #22
    2b5a:	6b030000 	blvs	c2b62 <ADC12_Common_CSR_EOS_SLV+0x42b62>
    2b5e:	 	strlt	r7, [pc, #-2405]	; 2201 <Code_455+0x55>

00002b60 <Code_597>:
    2b60:	b50f      	push	{r0, r1, r2, r3, lr}
    2b62:	4812      	ldr	r0, [pc, #72]	; (2bac <hook_intern+0xc>)
    2b64:	f000 f81c 	bl	2ba0 <hook_intern>
    2b68:	bd0f      	pop	{r0, r1, r2, r3, pc}

00002b6a <Dictionary_598>:
    2b6a:	00002b7c 	andeq	r2, r0, ip, ror fp
    2b6e:	65050000 	strvs	r0, [r5, #-0]
    2b72:	3f74696d 	svccc	0x0074696d

00002b76 <Code_598>:
    2b76:	480e      	ldr	r0, [pc, #56]	; (2bb0 <hook_intern+0x10>)
    2b78:	6800      	ldr	r0, [r0, #0]
    2b7a:	4687      	mov	pc, r0

00002b7c <Dictionary_599>:
    2b7c:	00002b8e 	andeq	r2, r0, lr, lsl #23
    2b80:	6b040000 	blvs	102b88 <ADC12_Common_CSR_OVR_SLV+0x2b88>
    2b84:	003f7965 	eorseq	r7, pc, r5, ror #18

00002b88 <Code_599>:
    2b88:	480a      	ldr	r0, [pc, #40]	; (2bb4 <hook_intern+0x14>)
    2b8a:	6800      	ldr	r0, [r0, #0]
    2b8c:	4687      	mov	pc, r0

00002b8e <Dictionary_600>:
    2b8e:	00002bbc 			; <UNDEFINED> instruction: 0x00002bbc
    2b92:	70050000 	andvc	r0, r5, r0
    2b96:	65737561 	ldrbvs	r7, [r3, #-1377]!	; 0xfffffa9f

00002b9a <Code_600>:
    2b9a:	4807      	ldr	r0, [pc, #28]	; (2bb8 <hook_intern+0x18>)
    2b9c:	6800      	ldr	r0, [r0, #0]
    2b9e:	4687      	mov	pc, r0

00002ba0 <hook_intern>:
    2ba0:	6800      	ldr	r0, [r0, #0]
    2ba2:	4687      	mov	pc, r0
    2ba4:	2001ffd0 	ldrdcs	pc, [r1], -r0
    2ba8:	2001fff8 	strdcs	pc, [r1], -r8
    2bac:	2001fff4 	strdcs	pc, [r1], -r4
    2bb0:	2001fff0 	strdcs	pc, [r1], -r0
    2bb4:	2001ffec 	andcs	pc, r1, ip, ror #31
    2bb8:	2001ffe8 	andcs	pc, r1, r8, ror #31

00002bbc <Dictionary_601>:
    2bbc:	00002bd8 	ldrdeq	r2, [r0], -r8
    2bc0:	620b0000 	andvs	r0, fp, #0
    2bc4:	756b6361 	strbvc	r6, [fp, #-865]!	; 0xfffffc9f
    2bc8:	61622d70 	smcvs	8912	; 0x22d0
    2bcc:	 			; <UNDEFINED> instruction: 0xf8476573

00002bce <Code_601>:
    2bce:	f847 6d04 	str.w	r6, [r7, #-4]!
    2bd2:	f04f 5662 	mov.w	r6, #947912704	; 0x38800000
    2bd6:	4770      	bx	lr

00002bd8 <Dictionary_604>:
    2bd8:	00002c1c 	andeq	r2, r0, ip, lsl ip
    2bdc:	62090000 	andvs	r0, r9, #0
    2be0:	756b6361 	strbvc	r6, [fp, #-865]!	; 0xfffffc9f
    2be4:	6e6f2d70 	mcrvs	13, 3, r2, cr15, cr0, {3}

00002be8 <Code_604>:
    2be8:	4809      	ldr	r0, [pc, #36]	; (2c10 <Code_604+0x28>)
    2bea:	6801      	ldr	r1, [r0, #0]
    2bec:	f041 5180 	orr.w	r1, r1, #268435456	; 0x10000000
    2bf0:	6001      	str	r1, [r0, #0]
    2bf2:	4808      	ldr	r0, [pc, #32]	; (2c14 <Code_604+0x2c>)
    2bf4:	6801      	ldr	r1, [r0, #0]
    2bf6:	f441 7180 	orr.w	r1, r1, #256	; 0x100
    2bfa:	6001      	str	r1, [r0, #0]
    2bfc:	4806      	ldr	r0, [pc, #24]	; (2c18 <Code_604+0x30>)
    2bfe:	6801      	ldr	r1, [r0, #0]
    2c00:	f041 0101 	orr.w	r1, r1, #1
    2c04:	6001      	str	r1, [r0, #0]
    2c06:	6801      	ldr	r1, [r0, #0]
    2c08:	f411 3f80 	tst.w	r1, #65536	; 0x10000
    2c0c:	d0fb      	beq.n	2c06 <Code_604+0x1e>
    2c0e:	4770      	bx	lr
    2c10:	580244e0 	stmdapl	r2, {r5, r6, r7, sl, lr}
    2c14:	58024800 	stmdapl	r2, {fp, lr}
    2c18:	58024808 	stmdapl	r2, {r3, fp, lr}

00002c1c <Dictionary_605>:
    2c1c:	00002c40 	andeq	r2, r0, r0, asr #24
    2c20:	63070000 	movwvs	r0, #28672	; 0x7000
    2c24:	65707865 	ldrbvs	r7, [r0, #-2149]!	; 0xfffff79b
    2c28:	 	strlt	r7, [r0, #-1123]	; 0xfffffb9d

00002c2a <Code_605>:
    2c2a:	b500      	push	{lr}
    2c2c:	6838      	ldr	r0, [r7, #0]
    2c2e:	b401      	push	{r0}
    2c30:	3001      	adds	r0, #1
    2c32:	6038      	str	r0, [r7, #0]
    2c34:	f000 f80b 	bl	2c4e <Code_607>
    2c38:	bc01      	pop	{r0}
    2c3a:	7006      	strb	r6, [r0, #0]
    2c3c:	cf40      	ldmia	r7!, {r6}
    2c3e:	bd00      	pop	{pc}

00002c40 <Dictionary_607>:
    2c40:	00002cb6 			; <UNDEFINED> instruction: 0x00002cb6
    2c44:	61060000 	mrsvs	r0, (UNDEF: 6)
    2c48:	70656363 	rsbvc	r6, r5, r3, ror #6
    2c4c:	 	strlt	r0, [r0, #-116]	; 0xffffff8c

00002c4e <Code_607>:
    2c4e:	b500      	push	{lr}
    2c50:	cf02      	ldmia	r7!, {r1}
    2c52:	3901      	subs	r1, #1
    2c54:	2200      	movs	r2, #0
    2c56:	f7ff ff83 	bl	2b60 <Code_597>
    2c5a:	0030      	movs	r0, r6
    2c5c:	cf40      	ldmia	r7!, {r6}
    2c5e:	287f      	cmp	r0, #127	; 0x7f
    2c60:	d009      	beq.n	2c76 <Code_607+0x28>
    2c62:	2820      	cmp	r0, #32
    2c64:	d219      	bcs.n	2c9a <Code_607+0x4c>
    2c66:	2809      	cmp	r0, #9
    2c68:	d016      	beq.n	2c98 <Code_607+0x4a>
    2c6a:	280a      	cmp	r0, #10
    2c6c:	d01f      	beq.n	2cae <Code_607+0x60>
    2c6e:	280d      	cmp	r0, #13
    2c70:	d01d      	beq.n	2cae <Code_607+0x60>
    2c72:	2808      	cmp	r0, #8
    2c74:	d1ef      	bne.n	2c56 <Code_607+0x8>
    2c76:	2a00      	cmp	r2, #0
    2c78:	d0ed      	beq.n	2c56 <Code_607+0x8>
    2c7a:	f000 f90b 	bl	2e94 <dotgaensefuesschen>
    2c7e:	08200803 	stmdaeq	r0!, {r0, r1, fp}
    2c82:	2a00      	cmp	r2, #0
    2c84:	d0e7      	beq.n	2c56 <Code_607+0x8>
    2c86:	5c88      	ldrb	r0, [r1, r2]
    2c88:	3a01      	subs	r2, #1
    2c8a:	2380      	movs	r3, #128	; 0x80
    2c8c:	4003      	ands	r3, r0
    2c8e:	d0e2      	beq.n	2c56 <Code_607+0x8>
    2c90:	2340      	movs	r3, #64	; 0x40
    2c92:	4003      	ands	r3, r0
    2c94:	d0f5      	beq.n	2c82 <Code_607+0x34>
    2c96:	e7de      	b.n	2c56 <Code_607+0x8>
    2c98:	2020      	movs	r0, #32
    2c9a:	42b2      	cmp	r2, r6
    2c9c:	d2db      	bcs.n	2c56 <Code_607+0x8>
    2c9e:	f847 6d04 	str.w	r6, [r7, #-4]!
    2ca2:	0006      	movs	r6, r0
    2ca4:	f7ff ff52 	bl	2b4c <Code_596>
    2ca8:	3201      	adds	r2, #1
    2caa:	5488      	strb	r0, [r1, r2]
    2cac:	e7d3      	b.n	2c56 <Code_607+0x8>
    2cae:	0016      	movs	r6, r2
    2cb0:	f000 f89f 	bl	2df2 <Code_637>
    2cb4:	bd00      	pop	{pc}

00002cb6 <Dictionary_611>:
    2cb6:	00002cc8 	andeq	r2, r0, r8, asr #25
    2cba:	74030040 	strvc	r0, [r3], #-64	; 0xffffffc0
    2cbe:	 			; <UNDEFINED> instruction: 0xf8476269

00002cc0 <Code_611>:
    2cc0:	f847 6d04 	str.w	r6, [r7, #-4]!
    2cc4:	4e29      	ldr	r6, [pc, #164]	; (2d6c <Code_623+0x22>)
    2cc6:	4770      	bx	lr

00002cc8 <Dictionary_613>:
    2cc8:	00002cde 	ldrdeq	r2, [r0], -lr
    2ccc:	3e030081 	cdpcc	0, 0, cr0, cr3, cr1, {4}
    2cd0:	 			; <UNDEFINED> instruction: 0xf8476e69

00002cd2 <Code_613>:
    2cd2:	f847 6d04 	str.w	r6, [r7, #-4]!
    2cd6:	4e26      	ldr	r6, [pc, #152]	; (2d70 <Code_623+0x26>)
    2cd8:	4770      	bx	lr
    2cda:	00000000 	andeq	r0, r0, r0

00002cde <Dictionary_616>:
    2cde:	00002d04 	andeq	r2, r0, r4, lsl #26
    2ce2:	630e0082 	movwvs	r0, #57474	; 0xe082
    2ce6:	65727275 	ldrbvs	r7, [r2, #-629]!	; 0xfffffd8b
    2cea:	732d746e 			; <UNDEFINED> instruction: 0x732d746e
    2cee:	6372756f 	cmnvs	r2, #465567744	; 0x1bc00000
    2cf2:	 			; <UNDEFINED> instruction: 0xf8470065

00002cf4 <Code_616>:
    2cf4:	f847 6d04 	str.w	r6, [r7, #-4]!
    2cf8:	4e1e      	ldr	r6, [pc, #120]	; (2d74 <Code_623+0x2a>)
    2cfa:	4770      	bx	lr
    2cfc:	00000000 	andeq	r0, r0, r0
    2d00:	200000c0 	andcs	r0, r0, r0, asr #1

00002d04 <Dictionary_619>:
    2d04:	00002d20 	andeq	r2, r0, r0, lsr #26
    2d08:	73090000 	movwvc	r0, #36864	; 0x9000
    2d0c:	6f737465 	svcvs	0x00737465
    2d10:	65637275 	strbvs	r7, [r3, #-629]!	; 0xfffffd8b

00002d14 <Code_619>:
    2d14:	4817      	ldr	r0, [pc, #92]	; (2d74 <Code_623+0x2a>)
    2d16:	cf02      	ldmia	r7!, {r1}
    2d18:	6006      	str	r6, [r0, #0]
    2d1a:	6041      	str	r1, [r0, #4]
    2d1c:	cf40      	ldmia	r7!, {r6}
    2d1e:	4770      	bx	lr

00002d20 <Dictionary_621>:
    2d20:	00002d3e 	andeq	r2, r0, lr, lsr sp
    2d24:	73060000 	movwvc	r0, #24576	; 0x6000
    2d28:	6372756f 	cmnvs	r2, #465567744	; 0x1bc00000
    2d2c:	 			; <UNDEFINED> instruction: 0xf8470065

00002d2e <Code_621>:
    2d2e:	f847 6d04 	str.w	r6, [r7, #-4]!
    2d32:	4e10      	ldr	r6, [pc, #64]	; (2d74 <Code_623+0x2a>)
    2d34:	3f04      	subs	r7, #4
    2d36:	6870      	ldr	r0, [r6, #4]
    2d38:	6038      	str	r0, [r7, #0]
    2d3a:	6836      	ldr	r6, [r6, #0]
    2d3c:	4770      	bx	lr

00002d3e <Dictionary_623>:
    2d3e:	00002d78 	andeq	r2, r0, r8, ror sp
    2d42:	71050000 	mrsvc	r0, (UNDEF: 5)
    2d46:	79726575 	ldmdbvc	r2!, {r0, r2, r4, r5, r6, r8, sl, sp, lr}^

00002d4a <Code_623>:
    2d4a:	b50f      	push	{r0, r1, r2, r3, lr}
    2d4c:	4808      	ldr	r0, [pc, #32]	; (2d70 <Code_623+0x26>)
    2d4e:	2100      	movs	r1, #0
    2d50:	6001      	str	r1, [r0, #0]
    2d52:	f7ff ffb5 	bl	2cc0 <Code_611>
    2d56:	f847 6d04 	str.w	r6, [r7, #-4]!
    2d5a:	f847 6d04 	str.w	r6, [r7, #-4]!
    2d5e:	26c8      	movs	r6, #200	; 0xc8
    2d60:	f7ff ff75 	bl	2c4e <Code_607>
    2d64:	f7ff ffd6 	bl	2d14 <Code_619>
    2d68:	bd0f      	pop	{r0, r1, r2, r3, pc}
    2d6a:	00c00000 	sbceq	r0, r0, r0
    2d6e:	ffe42000 			; <UNDEFINED> instruction: 0xffe42000
    2d72:	ffdc2001 			; <UNDEFINED> instruction: 0xffdc2001
    2d76:	 	stclcs	0, cr2, [r0, #4]

00002d78 <Dictionary_628>:
    2d78:	00002dc0 	andeq	r2, r0, r0, asr #27
    2d7c:	63070000 	movwvs	r0, #28672	; 0x7000
    2d80:	61706d6f 	cmnvs	r0, pc, ror #26
    2d84:	 	strlt	r6, [pc, #-1394]	; 281a <Dictionary_548+0x4>

00002d86 <Code_628>:
    2d86:	b50f      	push	{r0, r1, r2, r3, lr}
    2d88:	0031      	movs	r1, r6
    2d8a:	cf40      	ldmia	r7!, {r6}
    2d8c:	cf01      	ldmia	r7!, {r0}
    2d8e:	4288      	cmp	r0, r1
    2d90:	cf02      	ldmia	r7!, {r1}
    2d92:	d110      	bne.n	2db6 <Code_628+0x30>
    2d94:	2800      	cmp	r0, #0
    2d96:	d010      	beq.n	2dba <Code_628+0x34>
    2d98:	3801      	subs	r0, #1
    2d9a:	5c0a      	ldrb	r2, [r1, r0]
    2d9c:	5c33      	ldrb	r3, [r6, r0]
    2d9e:	2a41      	cmp	r2, #65	; 0x41
    2da0:	d302      	bcc.n	2da8 <Code_628+0x22>
    2da2:	2a5b      	cmp	r2, #91	; 0x5b
    2da4:	bf38      	it	cc
    2da6:	3220      	addcc	r2, #32
    2da8:	2b41      	cmp	r3, #65	; 0x41
    2daa:	d302      	bcc.n	2db2 <Code_628+0x2c>
    2dac:	2b5b      	cmp	r3, #91	; 0x5b
    2dae:	bf38      	it	cc
    2db0:	3320      	addcc	r3, #32
    2db2:	429a      	cmp	r2, r3
    2db4:	d0ee      	beq.n	2d94 <Code_628+0xe>
    2db6:	2600      	movs	r6, #0
    2db8:	bd0f      	pop	{r0, r1, r2, r3, pc}
    2dba:	2600      	movs	r6, #0
    2dbc:	43f6      	mvns	r6, r6
    2dbe:	bd0f      	pop	{r0, r1, r2, r3, pc}

00002dc0 <Dictionary_632>:
    2dc0:	00002dd4 	ldrdeq	r2, [r0], -r4
    2dc4:	63020000 	movwvs	r0, #8192	; 0x2000
    2dc8:	 	strlt	r0, [r0, #-114]	; 0xffffff8e

00002dca <Code_632>:
    2dca:	b500      	push	{lr}
    2dcc:	f000 f862 	bl	2e94 <dotgaensefuesschen>
    2dd0:	bd000a01 	vstrlt	s0, [r0, #-4]

00002dd4 <Dictionary_634>:
    2dd4:	00002de6 	andeq	r2, r0, r6, ror #27
    2dd8:	62020000 	andvs	r0, r2, #0
    2ddc:	 			; <UNDEFINED> instruction: 0xf847006c

00002dde <Code_634>:
    2dde:	f847 6d04 	str.w	r6, [r7, #-4]!
    2de2:	2620      	movs	r6, #32
    2de4:	4770      	bx	lr

00002de6 <Dictionary_637>:
    2de6:	00002dfa 	strdeq	r2, [r0], -sl
    2dea:	73050000 	movwvc	r0, #20480	; 0x5000
    2dee:	65636170 	strbvs	r6, [r3, #-368]!	; 0xfffffe90

00002df2 <Code_637>:
    2df2:	f847 6d04 	str.w	r6, [r7, #-4]!
    2df6:	2620      	movs	r6, #32
    2df8:	e6a8      	b.n	2b4c <Code_596>

00002dfa <Dictionary_640>:
    2dfa:	00002e1a 	andeq	r2, r0, sl, lsl lr
    2dfe:	73060000 	movwvc	r0, #24576	; 0x6000
    2e02:	65636170 	strbvs	r6, [r3, #-368]!	; 0xfffffe90
    2e06:	 	strlt	r0, [r0, #-115]	; 0xffffff8d

00002e08 <Code_640>:
    2e08:	b500      	push	{lr}
    2e0a:	2e00      	cmp	r6, #0
    2e0c:	dd03      	ble.n	2e16 <Code_640+0xe>
    2e0e:	f7ff fff0 	bl	2df2 <Code_637>
    2e12:	3e01      	subs	r6, #1
    2e14:	d1fb      	bne.n	2e0e <Code_640+0x6>
    2e16:	cf40      	ldmia	r7!, {r6}
    2e18:	bd00      	pop	{pc}

00002e1a <Dictionary_642>:
    2e1a:	00002e2a 	andeq	r2, r0, sl, lsr #28
    2e1e:	5b060050 	blpl	182f66 <ADC12_Common_CSR_OVR_SLV+0x82f66>
    2e22:	72616863 	rsbvc	r6, r1, #6488064	; 0x630000
    2e26:	 	and	r0, r5, sp, asr r0

00002e28 <Code_642>:
    2e28:	e005      	b.n	2e36 <Code_643>

00002e2a <Dictionary_643>:
    2e2a:	00002e42 	andeq	r2, r0, r2, asr #28
    2e2e:	63040000 	movwvs	r0, #16384	; 0x4000
    2e32:	00726168 	rsbseq	r6, r2, r8, ror #2

00002e36 <Code_643>:
    2e36:	b500      	push	{lr}
    2e38:	f001 fce4 	bl	4804 <Code_1101>
    2e3c:	cf40      	ldmia	r7!, {r6}
    2e3e:	7836      	ldrb	r6, [r6, #0]
    2e40:	bd00      	pop	{pc}

00002e42 <Dictionary_645>:
    2e42:	00002e52 	andeq	r2, r0, r2, asr lr
    2e46:	28010450 	stmdacs	r1, {r4, r6, sl}

00002e4a <Code_645>:
    2e4a:	f847 6d04 	str.w	r6, [r7, #-4]!
    2e4e:	2629      	movs	r6, #41	; 0x29
    2e50:	e006      	b.n	2e60 <Code_648+0x6>

00002e52 <Dictionary_648>:
    2e52:	00002e6c 	andeq	r2, r0, ip, ror #28
    2e56:	5c010450 	cfstrspl	mvf0, [r1], {80}	; 0x50

00002e5a <Code_648>:
    2e5a:	f847 6d04 	str.w	r6, [r7, #-4]!
    2e5e:	2600      	movs	r6, #0
    2e60:	b500      	push	{lr}
    2e62:	f001 fcd9 	bl	4818 <Code_1103>
    2e66:	3704      	adds	r7, #4
    2e68:	cf40      	ldmia	r7!, {r6}
    2e6a:	bd00      	pop	{pc}

00002e6c <Dictionary_653>:
    2e6c:	00002eb0 			; <UNDEFINED> instruction: 0x00002eb0
    2e70:	2e020030 	mcrcs	0, 0, r0, cr2, cr0, {1}
    2e74:	 	stmiami	r9!, {r1, r5}

00002e76 <Code_653>:
    2e76:	48a9      	ldr	r0, [pc, #676]	; (311c <unused_ram+0x4>)
    2e78:	b500      	push	{lr}
    2e7a:	f847 6d04 	str.w	r6, [r7, #-4]!
    2e7e:	0006      	movs	r6, r0
    2e80:	f000 fa7d 	bl	337e <Code_730>
    2e84:	f847 6d04 	str.w	r6, [r7, #-4]!
    2e88:	2622      	movs	r6, #34	; 0x22
    2e8a:	f001 fcc5 	bl	4818 <Code_1103>
    2e8e:	f000 fdc2 	bl	3a16 <Code_859>
    2e92:	bd00      	pop	{pc}

00002e94 <dotgaensefuesschen>:
    2e94:	b40a      	push	{r1, r3}
    2e96:	f847 6d04 	str.w	r6, [r7, #-4]!
    2e9a:	4676      	mov	r6, lr
    2e9c:	3e01      	subs	r6, #1
    2e9e:	7833      	ldrb	r3, [r6, #0]
    2ea0:	2101      	movs	r1, #1
    2ea2:	3301      	adds	r3, #1
    2ea4:	4019      	ands	r1, r3
    2ea6:	185b      	adds	r3, r3, r1
    2ea8:	eb1e 0e03 	adds.w	lr, lr, r3
    2eac:	bc0a      	pop	{r1, r3}
    2eae:	e039      	b.n	2f24 <Code_668>

00002eb0 <Dictionary_659>:
    2eb0:	00002ed6 	ldrdeq	r2, [r0], -r6
    2eb4:	63020030 	movwvs	r0, #8240	; 0x2030
    2eb8:	 	ldmmi	r9, {r1, r5}

00002eba <Code_659>:
    2eba:	4899      	ldr	r0, [pc, #612]	; (3120 <unused_ram+0x8>)
    2ebc:	e7dc      	b.n	2e78 <Code_653+0x2>

00002ebe <dotcfuesschen>:
    2ebe:	f847 6d04 	str.w	r6, [r7, #-4]!
    2ec2:	4676      	mov	r6, lr
    2ec4:	3e01      	subs	r6, #1
    2ec6:	7833      	ldrb	r3, [r6, #0]
    2ec8:	2101      	movs	r1, #1
    2eca:	3301      	adds	r3, #1
    2ecc:	4019      	ands	r1, r3
    2ece:	185b      	adds	r3, r3, r1
    2ed0:	eb1e 0e03 	adds.w	lr, lr, r3
    2ed4:	4770      	bx	lr

00002ed6 <Dictionary_661>:
    2ed6:	00002f00 	andeq	r2, r0, r0, lsl #30
    2eda:	73020030 	movwvc	r0, #8240	; 0x2030
    2ede:	 	ldmmi	r0, {r1, r5}

00002ee0 <Code_661>:
    2ee0:	4890      	ldr	r0, [pc, #576]	; (3124 <unused_ram+0xc>)
    2ee2:	e7c9      	b.n	2e78 <Code_653+0x2>

00002ee4 <dotsfuesschen>:
    2ee4:	f847 6d04 	str.w	r6, [r7, #-4]!
    2ee8:	4676      	mov	r6, lr
    2eea:	f847 6d04 	str.w	r6, [r7, #-4]!
    2eee:	3e01      	subs	r6, #1
    2ef0:	7836      	ldrb	r6, [r6, #0]
    2ef2:	2101      	movs	r1, #1
    2ef4:	1c73      	adds	r3, r6, #1
    2ef6:	4019      	ands	r1, r3
    2ef8:	185b      	adds	r3, r3, r1
    2efa:	eb1e 0e03 	adds.w	lr, lr, r3
    2efe:	4770      	bx	lr

00002f00 <Dictionary_665>:
    2f00:	00002f18 	andeq	r2, r0, r8, lsl pc
    2f04:	63050000 	movwvs	r0, #20480	; 0x5000
    2f08:	746e756f 	strbtvc	r7, [lr], #-1391	; 0xfffffa91

00002f0c <Code_665>:
    2f0c:	3601      	adds	r6, #1
    2f0e:	f847 6d04 	str.w	r6, [r7, #-4]!
    2f12:	3e01      	subs	r6, #1
    2f14:	7836      	ldrb	r6, [r6, #0]
    2f16:	4770      	bx	lr

00002f18 <Dictionary_668>:
    2f18:	00002f30 	andeq	r2, r0, r0, lsr pc
    2f1c:	63050000 	movwvs	r0, #20480	; 0x5000
    2f20:	65707974 	ldrbvs	r7, [r0, #-2420]!	; 0xfffff68c

00002f24 <Code_668>:
    2f24:	b500      	push	{lr}
    2f26:	f7ff fff1 	bl	2f0c <Code_665>
    2f2a:	f000 f807 	bl	2f3c <Code_669>
    2f2e:	bd00      	pop	{pc}

00002f30 <Dictionary_669>:
    2f30:	00002f58 	andeq	r2, r0, r8, asr pc
    2f34:	74040000 	strvc	r0, [r4], #-0
    2f38:	00657079 	rsbeq	r7, r5, r9, ror r0

00002f3c <Code_669>:
    2f3c:	b501      	push	{r0, lr}
    2f3e:	cf01      	ldmia	r7!, {r0}
    2f40:	2e00      	cmp	r6, #0
    2f42:	d007      	beq.n	2f54 <Code_669+0x18>
    2f44:	f847 6d04 	str.w	r6, [r7, #-4]!
    2f48:	7806      	ldrb	r6, [r0, #0]
    2f4a:	f7ff fdff 	bl	2b4c <Code_596>
    2f4e:	3001      	adds	r0, #1
    2f50:	3e01      	subs	r6, #1
    2f52:	d1f7      	bne.n	2f44 <Code_669+0x8>
    2f54:	cf40      	ldmia	r7!, {r6}
    2f56:	bd01      	pop	{r0, pc}

00002f58 <Dictionary_672>:
    2f58:	00002f92 	muleq	r0, r2, pc	; <UNPREDICTABLE>
    2f5c:	68040000 	stmdavs	r4, {}	; <UNPREDICTABLE>
    2f60:	002e7865 	eoreq	r7, lr, r5, ror #16

00002f64 <Code_672>:
    2f64:	b507      	push	{r0, r1, r2, lr}
    2f66:	0031      	movs	r1, r6
    2f68:	cf40      	ldmia	r7!, {r6}
    2f6a:	2020      	movs	r0, #32
    2f6c:	220f      	movs	r2, #15
    2f6e:	3804      	subs	r0, #4
    2f70:	f847 6d04 	str.w	r6, [r7, #-4]!
    2f74:	000e      	movs	r6, r1
    2f76:	40c6      	lsrs	r6, r0
    2f78:	4016      	ands	r6, r2
    2f7a:	2e09      	cmp	r6, #9
    2f7c:	d901      	bls.n	2f82 <Code_672+0x1e>
    2f7e:	3637      	adds	r6, #55	; 0x37
    2f80:	e000      	b.n	2f84 <Code_672+0x20>
    2f82:	3630      	adds	r6, #48	; 0x30
    2f84:	f7ff fde2 	bl	2b4c <Code_596>
    2f88:	2800      	cmp	r0, #0
    2f8a:	d1f0      	bne.n	2f6e <Code_672+0xa>
    2f8c:	f7ff ff31 	bl	2df2 <Code_637>
    2f90:	bd07      	pop	{r0, r1, r2, pc}

00002f92 <Dictionary_675>:
    2f92:	00002fa2 	andeq	r2, r0, r2, lsr #31
    2f96:	68030000 	stmdavs	r3, {}	; <UNPREDICTABLE>
    2f9a:	 	ldrlt	r7, [pc, #-814]	; 2c74 <Code_607+0x26>

00002f9c <Code_675>:
    2f9c:	b51f      	push	{r0, r1, r2, r3, r4, lr}
    2f9e:	4c62      	ldr	r4, [pc, #392]	; (3128 <unused_ram+0x10>)
    2fa0:	e00e      	b.n	2fc0 <Code_677+0x4>

00002fa2 <Dictionary_676>:
    2fa2:	00002fb2 			; <UNDEFINED> instruction: 0x00002fb2
    2fa6:	75030000 	strvc	r0, [r3, #-0]
    2faa:	 	ldrlt	r7, [pc, #-814]	; 2c84 <Code_607+0x36>

00002fac <Code_676>:
    2fac:	b51f      	push	{r0, r1, r2, r3, r4, lr}
    2fae:	4c5f      	ldr	r4, [pc, #380]	; (312c <unused_ram+0x14>)
    2fb0:	e006      	b.n	2fc0 <Code_677+0x4>

00002fb2 <Dictionary_677>:
    2fb2:	00003056 	andeq	r3, r0, r6, asr r0
    2fb6:	2e020000 	cdpcs	0, 0, cr0, cr2, cr0, {0}
    2fba:	 	ldrlt	r0, [pc, #-115]	; 2f4f <Code_669+0x13>

00002fbc <Code_677>:
    2fbc:	b51f      	push	{r0, r1, r2, r3, r4, lr}
    2fbe:	4c5c      	ldr	r4, [pc, #368]	; (3130 <unused_ram+0x18>)
    2fc0:	495c      	ldr	r1, [pc, #368]	; (3134 <unused_ram+0x1c>)
    2fc2:	1bc9      	subs	r1, r1, r7
    2fc4:	0889      	lsrs	r1, r1, #2
    2fc6:	0a22      	lsrs	r2, r4, #8
    2fc8:	2020      	movs	r0, #32
    2fca:	2f29      	cmp	r7, #41	; 0x29
    2fcc:	0a20      	lsrs	r0, r4, #8
    2fce:	2820      	cmp	r0, #32
    2fd0:	3e27      	subs	r6, #39	; 0x27
    2fd2:	0a20      	lsrs	r0, r4, #8
    2fd4:	2f20      	cmp	r7, #32
    2fd6:	4343      	muls	r3, r0
    2fd8:	2020      	movs	r0, #32
    2fda:	3320      	adds	r3, #32
    2fdc:	2035      	movs	r0, #53	; 0x35
    2fde:	4343      	muls	r3, r0
    2fe0:	0a43      	lsrs	r3, r0, #9
    2fe2:	5c38      	ldrb	r0, [r7, r0]
    2fe4:	2929      	cmp	r1, #41	; 0x29
    2fe6:	205f      	movs	r0, #95	; 0x5f
    2fe8:	0a0a      	lsrs	r2, r1, #8
    2fea:	4a53      	ldr	r2, [pc, #332]	; (3138 <unused_ram+0x20>)
    2fec:	6810      	ldr	r0, [r2, #0]
    2fee:	b403      	push	{r0, r1}
    2ff0:	200a      	movs	r0, #10
    2ff2:	6010      	str	r0, [r2, #0]
    2ff4:	f7ff ff4e 	bl	2e94 <dotgaensefuesschen>
    2ff8:	61745308 	cmnvs	r4, r8, lsl #6
    2ffc:	203a6b63 	eorscs	r6, sl, r3, ror #22
    3000:	f847005b 			; <UNDEFINED> instruction: 0xf847005b
    3004:	6d04      	ldr	r4, [r0, #80]	; 0x50
    3006:	000e      	movs	r6, r1
    3008:	f001 fdd3 	bl	4bb2 <Code_1167>
    300c:	f7ff ff42 	bl	2e94 <dotgaensefuesschen>
    3010:	00205d02 	eoreq	r5, r0, r2, lsl #26
    3014:	bc03      	pop	{r0, r1}
    3016:	3627      	adds	r6, #39	; 0x27
    3018:	4a47      	ldr	r2, [pc, #284]	; (3138 <unused_ram+0x20>)
    301a:	6010      	str	r0, [r2, #0]
    301c:	2900      	cmp	r1, #0
    301e:	d00a      	beq.n	3036 <Code_677+0x7a>
    3020:	4a46      	ldr	r2, [pc, #280]	; (313c <unused_ram+0x24>)
    3022:	6810      	ldr	r0, [r2, #0]
    3024:	b406      	push	{r1, r2}
    3026:	f847 6d04 	str.w	r6, [r7, #-4]!
    302a:	0006      	movs	r6, r0
    302c:	47a0      	blx	r4
    302e:	bc06      	pop	{r1, r2}
    3030:	3a04      	subs	r2, #4
    3032:	3901      	subs	r1, #1
    3034:	d1f5      	bne.n	3022 <Code_677+0x66>
    3036:	f7ff ff2d 	bl	2e94 <dotgaensefuesschen>
    303a:	4f542006 	svcmi	0x00542006
    303e:	00203a53 	eoreq	r3, r0, r3, asr sl
    3042:	f847 6d04 	str.w	r6, [r7, #-4]!
    3046:	0036      	movs	r6, r6
    3048:	47a0      	blx	r4
    304a:	f7ff ff23 	bl	2e94 <dotgaensefuesschen>
    304e:	3e2a2004 	cdpcc	0, 2, cr2, cr10, cr4, {0}
    3052:	bd1f000a 	ldclt	0, cr0, [pc, #-40]	; 3030 <Code_677+0x74>

00003056 <Dictionary_688>:
    3056:	000030f6 	strdeq	r3, [r0], -r6
    305a:	77050000 	strvc	r0, [r5, -r0]
    305e:	7364726f 	cmnvc	r4, #-268435450	; 0xf0000006

00003062 <Code_688>:
    3062:	b500      	push	{lr}
    3064:	f7ff ff16 	bl	2e94 <dotgaensefuesschen>
    3068:	f0000a01 			; <UNDEFINED> instruction: 0xf0000a01
    306c:	ff42 f7ff 	vaba.u8	<illegal reg q15.5>, q9, <illegal reg q15.5>
    3070:	ff11 4109 	vrhadd.u16	d4, d1, d9
    3074:	65726464 	ldrbvs	r6, [r2, #-1124]!	; 0xfffffb9c
    3078:	203a7373 	eorscs	r7, sl, r3, ror r3
    307c:	f847 6d04 	str.w	r6, [r7, #-4]!
    3080:	f7ff ff70 	bl	2f64 <Code_672>
    3084:	f7ff ff06 	bl	2e94 <dotgaensefuesschen>
    3088:	6e694c06 	cdpvs	12, 6, cr4, cr9, cr6, {0}
    308c:	00203a6b 	eoreq	r3, r0, fp, ror #20
    3090:	f847 6d04 	str.w	r6, [r7, #-4]!
    3094:	6836      	ldr	r6, [r6, #0]
    3096:	f7ff ff65 	bl	2f64 <Code_672>
    309a:	f7ff fefb 	bl	2e94 <dotgaensefuesschen>
    309e:	616c4607 	cmnvs	ip, r7, lsl #12
    30a2:	203a7367 	eorscs	r7, sl, r7, ror #6
    30a6:	f847 6d04 	str.w	r6, [r7, #-4]!
    30aa:	88b6      	ldrh	r6, [r6, #4]
    30ac:	f7ff ff5a 	bl	2f64 <Code_672>
    30b0:	f7ff fef0 	bl	2e94 <dotgaensefuesschen>
    30b4:	646f4306 	strbtvs	r4, [pc], #-774	; 30bc <Code_688+0x5a>
    30b8:	00203a65 	eoreq	r3, r0, r5, ror #20
    30bc:	1db0      	adds	r0, r6, #6
    30be:	f000 ff65 	bl	3f8c <skipstring>
    30c2:	f847 6d04 	str.w	r6, [r7, #-4]!
    30c6:	0006      	movs	r6, r0
    30c8:	f7ff ff4c 	bl	2f64 <Code_672>
    30cc:	f7ff fee2 	bl	2e94 <dotgaensefuesschen>
    30d0:	6d614e06 	stclvs	14, cr4, [r1, #-24]!	; 0xffffffe8
    30d4:	00203a65 	eoreq	r3, r0, r5, ror #20
    30d8:	f847 6d04 	str.w	r6, [r7, #-4]!
    30dc:	3606      	adds	r6, #6
    30de:	f7ff ff21 	bl	2f24 <Code_668>
    30e2:	f7ff fed7 	bl	2e94 <dotgaensefuesschen>
    30e6:	f0000a01 			; <UNDEFINED> instruction: 0xf0000a01
    30ea:	ff1b 0030 	vqadd.u16	d0, d11, d16
    30ee:	cf40      	ldmia	r7!, {r6}
    30f0:	d0bd      	beq.n	306e <Code_688+0xc>
    30f2:	cf40      	ldmia	r7!, {r6}
    30f4:	bd00      	pop	{pc}

000030f6 <Dictionary_708>:
    30f6:	00003148 	andeq	r3, r0, r8, asr #2
    30fa:	75060000 	strvc	r0, [r6, #-0]
    30fe:	6573756e 	ldrbvs	r7, [r3, #-1390]!	; 0xfffffa92
    3102:	 	strlt	r0, [r0, #-100]	; 0xffffff9c

00003104 <Code_708>:
    3104:	b500      	push	{lr}
    3106:	f001 f81b 	bl	4140 <Code_955>
    310a:	480d      	ldr	r0, [pc, #52]	; (3140 <unused_ram+0x28>)
    310c:	6801      	ldr	r1, [r0, #0]
    310e:	f04f 5210 	mov.w	r2, #603979776	; 0x24000000
    3112:	4291      	cmp	r1, r2
    3114:	d300      	bcc.n	3118 <unused_ram>
    3116:	4e0b      	ldr	r6, [pc, #44]	; (3144 <unused_ram+0x2c>)

00003118 <unused_ram>:
    3118:	1a76      	subs	r6, r6, r1
    311a:	bd00      	pop	{pc}
    311c:	00002e94 	muleq	r0, r4, lr
    3120:	00002ebe 			; <UNDEFINED> instruction: 0x00002ebe
    3124:	00002ee4 	andeq	r2, r0, r4, ror #29
    3128:	00002f65 	andeq	r2, r0, r5, ror #30
    312c:	00004ba3 	andeq	r4, r0, r3, lsr #23
    3130:	00004bb3 			; <UNDEFINED> instruction: 0x00004bb3
    3134:	20000288 	andcs	r0, r0, r8, lsl #5
    3138:	2001fffc 	strdcs	pc, [r1], -ip
    313c:	20000284 	andcs	r0, r0, r4, lsl #5
    3140:	2001ffd0 	ldrdcs	pc, [r1], -r0
    3144:	24080000 	strcs	r0, [r8], #-0

00003148 <Dictionary_709>:
    3148:	000032ac 	andeq	r3, r0, ip, lsr #5
    314c:	310d0000 	mrscc	r0, (UNDEF: 13)
    3150:	74696232 	strbtvc	r6, [r9], #-562	; 0xfffffdce
    3154:	6f636e65 	svcvs	0x00636e65
    3158:	676e6964 	strbvs	r6, [lr, -r4, ror #18]!

0000315c <Code_709>:
    315c:	b50f      	push	{r0, r1, r2, r3, lr}
    315e:	2eff      	cmp	r6, #255	; 0xff
    3160:	d804      	bhi.n	316c <Code_709+0x10>
    3162:	f847 6d04 	str.w	r6, [r7, #-4]!
    3166:	f05f 36ff 	movs.w	r6, #4294967295	; 0xffffffff
    316a:	bd0f      	pop	{r0, r1, r2, r3, pc}
    316c:	f016 10ff 	ands.w	r0, r6, #16711935	; 0xff00ff
    3170:	42b0      	cmp	r0, r6
    3172:	d10e      	bne.n	3192 <Code_709+0x36>
    3174:	f64f 71ff 	movw	r1, #65535	; 0xffff
    3178:	4008      	ands	r0, r1
    317a:	0c31      	lsrs	r1, r6, #16
    317c:	4281      	cmp	r1, r0
    317e:	d108      	bne.n	3192 <Code_709+0x36>
    3180:	f016 06ff 	ands.w	r6, r6, #255	; 0xff
    3184:	f456 5680 	orrs.w	r6, r6, #4096	; 0x1000
    3188:	f847 6d04 	str.w	r6, [r7, #-4]!
    318c:	f05f 36ff 	movs.w	r6, #4294967295	; 0xffffffff
    3190:	bd0f      	pop	{r0, r1, r2, r3, pc}
    3192:	f016 20ff 	ands.w	r0, r6, #4278255360	; 0xff00ff00
    3196:	42b0      	cmp	r0, r6
    3198:	d10f      	bne.n	31ba <Code_709+0x5e>
    319a:	f64f 71ff 	movw	r1, #65535	; 0xffff
    319e:	4008      	ands	r0, r1
    31a0:	0c31      	lsrs	r1, r6, #16
    31a2:	4281      	cmp	r1, r0
    31a4:	d109      	bne.n	31ba <Code_709+0x5e>
    31a6:	0a36      	lsrs	r6, r6, #8
    31a8:	f016 06ff 	ands.w	r6, r6, #255	; 0xff
    31ac:	f456 5600 	orrs.w	r6, r6, #8192	; 0x2000
    31b0:	f847 6d04 	str.w	r6, [r7, #-4]!
    31b4:	f05f 36ff 	movs.w	r6, #4294967295	; 0xffffffff
    31b8:	bd0f      	pop	{r0, r1, r2, r3, pc}
    31ba:	22ff      	movs	r2, #255	; 0xff
    31bc:	0031      	movs	r1, r6
    31be:	4011      	ands	r1, r2
    31c0:	0a30      	lsrs	r0, r6, #8
    31c2:	4010      	ands	r0, r2
    31c4:	4288      	cmp	r0, r1
    31c6:	d110      	bne.n	31ea <Code_709+0x8e>
    31c8:	0c30      	lsrs	r0, r6, #16
    31ca:	4010      	ands	r0, r2
    31cc:	4288      	cmp	r0, r1
    31ce:	d10c      	bne.n	31ea <Code_709+0x8e>
    31d0:	0e30      	lsrs	r0, r6, #24
    31d2:	4010      	ands	r0, r2
    31d4:	4288      	cmp	r0, r1
    31d6:	d108      	bne.n	31ea <Code_709+0x8e>
    31d8:	f016 06ff 	ands.w	r6, r6, #255	; 0xff
    31dc:	f456 5640 	orrs.w	r6, r6, #12288	; 0x3000
    31e0:	f847 6d04 	str.w	r6, [r7, #-4]!
    31e4:	f05f 36ff 	movs.w	r6, #4294967295	; 0xffffffff
    31e8:	bd0f      	pop	{r0, r1, r2, r3, pc}
    31ea:	0030      	movs	r0, r6
    31ec:	2100      	movs	r1, #0
    31ee:	3101      	adds	r1, #1
    31f0:	1800      	adds	r0, r0, r0
    31f2:	f150 0000 	adcs.w	r0, r0, #0
    31f6:	f07f 027f 	mvns.w	r2, #127	; 0x7f
    31fa:	4002      	ands	r2, r0
    31fc:	2a80      	cmp	r2, #128	; 0x80
    31fe:	d005      	beq.n	320c <Code_709+0xb0>
    3200:	291f      	cmp	r1, #31
    3202:	d3f4      	bcc.n	31ee <Code_709+0x92>
    3204:	f847 6d04 	str.w	r6, [r7, #-4]!
    3208:	2600      	movs	r6, #0
    320a:	bd0f      	pop	{r0, r1, r2, r3, pc}
    320c:	2908      	cmp	r1, #8
    320e:	d3f9      	bcc.n	3204 <Code_709+0xa8>
    3210:	0006      	movs	r6, r0
    3212:	f036 0680 	bics.w	r6, r6, #128	; 0x80
    3216:	f011 0001 	ands.w	r0, r1, #1
    321a:	01c0      	lsls	r0, r0, #7
    321c:	4306      	orrs	r6, r0
    321e:	f011 000e 	ands.w	r0, r1, #14
    3222:	02c0      	lsls	r0, r0, #11
    3224:	4306      	orrs	r6, r0
    3226:	f011 0010 	ands.w	r0, r1, #16
    322a:	0580      	lsls	r0, r0, #22
    322c:	4306      	orrs	r6, r0
    322e:	f847 6d04 	str.w	r6, [r7, #-4]!
    3232:	f05f 36ff 	movs.w	r6, #4294967295	; 0xffffffff
    3236:	bd0f      	pop	{r0, r1, r2, r3, pc}

00003238 <movwkomma>:
    3238:	f847 6d04 	str.w	r6, [r7, #-4]!
    323c:	f8df 65c4 	ldr.w	r6, [pc, #1476]	; 3804 <Code_823+0x12>
    3240:	f45f 4170 	movs.w	r1, #61440	; 0xf000
    3244:	ea10 0201 	ands.w	r2, r0, r1
    3248:	0112      	lsls	r2, r2, #4
    324a:	4316      	orrs	r6, r2
    324c:	f45f 6100 	movs.w	r1, #2048	; 0x800
    3250:	ea10 0201 	ands.w	r2, r0, r1
    3254:	03d2      	lsls	r2, r2, #15
    3256:	4316      	orrs	r6, r2
    3258:	f45f 61e0 	movs.w	r1, #1792	; 0x700
    325c:	ea10 0201 	ands.w	r2, r0, r1
    3260:	0112      	lsls	r2, r2, #4
    3262:	4316      	orrs	r6, r2
    3264:	21ff      	movs	r1, #255	; 0xff
    3266:	ea10 0201 	ands.w	r2, r0, r1
    326a:	4316      	orrs	r6, r2
    326c:	431e      	orrs	r6, r3
    326e:	e3c7      	b.n	3a00 <Code_858>

00003270 <movtkomma>:
    3270:	f847 6d04 	str.w	r6, [r7, #-4]!
    3274:	f8df 6590 	ldr.w	r6, [pc, #1424]	; 3808 <Code_823+0x16>
    3278:	f05f 4170 	movs.w	r1, #4026531840	; 0xf0000000
    327c:	ea10 0201 	ands.w	r2, r0, r1
    3280:	0b12      	lsrs	r2, r2, #12
    3282:	4316      	orrs	r6, r2
    3284:	f05f 6100 	movs.w	r1, #134217728	; 0x8000000
    3288:	ea10 0201 	ands.w	r2, r0, r1
    328c:	0852      	lsrs	r2, r2, #1
    328e:	4316      	orrs	r6, r2
    3290:	f05f 61e0 	movs.w	r1, #117440512	; 0x7000000
    3294:	ea10 0201 	ands.w	r2, r0, r1
    3298:	0b12      	lsrs	r2, r2, #12
    329a:	4316      	orrs	r6, r2
    329c:	f45f 017f 	movs.w	r1, #16711680	; 0xff0000
    32a0:	ea10 0201 	ands.w	r2, r0, r1
    32a4:	0c12      	lsrs	r2, r2, #16
    32a6:	4316      	orrs	r6, r2
    32a8:	431e      	orrs	r6, r3
    32aa:	e3a9      	b.n	3a00 <Code_858>

000032ac <Dictionary_718>:
    32ac:	00003312 	andeq	r3, r0, r2, lsl r3
    32b0:	72100000 	andsvc	r0, r0, #0
    32b4:	73696765 	cmnvc	r9, #26476544	; 0x1940000
    32b8:	6c726574 	cfldr64vs	mvdx6, [r2], #-464	; 0xfffffe30
    32bc:	72657469 	rsbvc	r7, r5, #1761607680	; 0x69000000
    32c0:	002c6c61 	eoreq	r6, ip, r1, ror #24

000032c4 <Code_718>:
    32c4:	b50f      	push	{r0, r1, r2, r3, lr}
    32c6:	0033      	movs	r3, r6
    32c8:	cf40      	ldmia	r7!, {r6}
    32ca:	021b      	lsls	r3, r3, #8
    32cc:	2eff      	cmp	r6, #255	; 0xff
    32ce:	d805      	bhi.n	32dc <Code_718+0x18>
    32d0:	f456 5600 	orrs.w	r6, r6, #8192	; 0x2000
    32d4:	431e      	orrs	r6, r3
    32d6:	f000 fb63 	bl	39a0 <Code_849>
    32da:	bd0f      	pop	{r0, r1, r2, r3, pc}
    32dc:	f7ff ff3e 	bl	315c <Code_709>
    32e0:	2e00      	cmp	r6, #0
    32e2:	cf40      	ldmia	r7!, {r6}
    32e4:	d006      	beq.n	32f4 <Code_718+0x30>
    32e6:	f8df 0524 	ldr.w	r0, [pc, #1316]	; 380c <Code_823+0x1a>
    32ea:	4306      	orrs	r6, r0
    32ec:	431e      	orrs	r6, r3
    32ee:	f000 fb87 	bl	3a00 <Code_858>
    32f2:	bd0f      	pop	{r0, r1, r2, r3, pc}
    32f4:	43f6      	mvns	r6, r6
    32f6:	f7ff ff31 	bl	315c <Code_709>
    32fa:	2e00      	cmp	r6, #0
    32fc:	cf40      	ldmia	r7!, {r6}
    32fe:	d006      	beq.n	330e <Code_718+0x4a>
    3300:	f8df 050c 	ldr.w	r0, [pc, #1292]	; 3810 <Code_823+0x1e>
    3304:	4306      	orrs	r6, r0
    3306:	431e      	orrs	r6, r3
    3308:	f000 fb7a 	bl	3a00 <Code_858>
    330c:	bd0f      	pop	{r0, r1, r2, r3, pc}
    330e:	43f6      	mvns	r6, r6
    3310:	e00b      	b.n	332a <movwmovt_register_r3>

00003312 <Dictionary_722>:
    3312:	00003372 	andeq	r3, r0, r2, ror r3
    3316:	6d090000 	stcvs	0, cr0, [r9, #-0]
    331a:	6d77766f 	ldclvs	6, cr7, [r7, #-444]!	; 0xfffffe44
    331e:	2c74766f 	ldclcs	6, cr7, [r4], #-444	; 0xfffffe44

00003322 <Code_722>:
    3322:	b50f      	push	{r0, r1, r2, r3, lr}
    3324:	0033      	movs	r3, r6
    3326:	cf40      	ldmia	r7!, {r6}
    3328:	021b      	lsls	r3, r3, #8

0000332a <movwmovt_register_r3>:
    332a:	0030      	movs	r0, r6
    332c:	cf40      	ldmia	r7!, {r6}
    332e:	f7ff ff83 	bl	3238 <movwkomma>
    3332:	f64f 71ff 	movw	r1, #65535	; 0xffff
    3336:	ea10 4001 	ands.w	r0, r0, r1, lsl #16
    333a:	d001      	beq.n	3340 <movwmovt_register_r3+0x16>
    333c:	f7ff ff98 	bl	3270 <movtkomma>
    3340:	bd0f      	pop	{r0, r1, r2, r3, pc}

00003342 <callkommalang>:
    3342:	b50f      	push	{r0, r1, r2, r3, lr}
    3344:	3601      	adds	r6, #1
    3346:	0030      	movs	r0, r6
    3348:	cf40      	ldmia	r7!, {r6}
    334a:	2300      	movs	r3, #0
    334c:	f7ff ff74 	bl	3238 <movwkomma>
    3350:	f7ff ff8e 	bl	3270 <movtkomma>
    3354:	e006      	b.n	3364 <callkommakurz_intern>

00003356 <callkommakurz>:
    3356:	b50f      	push	{r0, r1, r2, r3, lr}
    3358:	3601      	adds	r6, #1
    335a:	f847 6d04 	str.w	r6, [r7, #-4]!
    335e:	2600      	movs	r6, #0
    3360:	f7ff ffb0 	bl	32c4 <Code_718>

00003364 <callkommakurz_intern>:
    3364:	f847 6d04 	str.w	r6, [r7, #-4]!
    3368:	f244 7680 	movw	r6, #18304	; 0x4780
    336c:	f000 fb18 	bl	39a0 <Code_849>
    3370:	bd0f      	pop	{r0, r1, r2, r3, pc}

00003372 <Dictionary_730>:
    3372:	000033d8 	ldrdeq	r3, [r0], -r8
    3376:	63050000 	movwvs	r0, #20480	; 0x5000
    337a:	2c6c6c61 	stclcs	12, cr6, [ip], #-388	; 0xfffffe7c

0000337e <Code_730>:
    337e:	b50f      	push	{r0, r1, r2, r3, lr}
    3380:	0033      	movs	r3, r6
    3382:	f000 fece 	bl	4122 <Code_953>
    3386:	0030      	movs	r0, r6
    3388:	cf40      	ldmia	r7!, {r6}
    338a:	1a1b      	subs	r3, r3, r0
    338c:	3b04      	subs	r3, #4
    338e:	f8df 1484 	ldr.w	r1, [pc, #1156]	; 3814 <Code_823+0x22>
    3392:	4019      	ands	r1, r3
    3394:	2900      	cmp	r1, #0
    3396:	d006      	beq.n	33a6 <Code_730+0x28>
    3398:	f8df 247c 	ldr.w	r2, [pc, #1148]	; 3818 <Code_823+0x26>
    339c:	4291      	cmp	r1, r2
    339e:	d002      	beq.n	33a6 <Code_730+0x28>
    33a0:	e8bd 400f 	ldmia.w	sp!, {r0, r1, r2, r3, lr}
    33a4:	e7d7      	b.n	3356 <callkommakurz>
    33a6:	cf40      	ldmia	r7!, {r6}
    33a8:	085b      	lsrs	r3, r3, #1
    33aa:	f8df 0470 	ldr.w	r0, [pc, #1136]	; 381c <Code_823+0x2a>
    33ae:	f240 71ff 	movw	r1, #2047	; 0x7ff
    33b2:	4019      	ands	r1, r3
    33b4:	4308      	orrs	r0, r1
    33b6:	0adb      	lsrs	r3, r3, #11
    33b8:	f240 31ff 	movw	r1, #1023	; 0x3ff
    33bc:	4019      	ands	r1, r3
    33be:	0409      	lsls	r1, r1, #16
    33c0:	4308      	orrs	r0, r1
    33c2:	0a9b      	lsrs	r3, r3, #10
    33c4:	f013 0101 	ands.w	r1, r3, #1
    33c8:	0689      	lsls	r1, r1, #26
    33ca:	4308      	orrs	r0, r1
    33cc:	f847 6d04 	str.w	r6, [r7, #-4]!
    33d0:	0006      	movs	r6, r0
    33d2:	f000 fb15 	bl	3a00 <Code_858>
    33d6:	bd0f      	pop	{r0, r1, r2, r3, pc}

000033d8 <Dictionary_735>:
    33d8:	0000340e 	andeq	r3, r0, lr, lsl #8
    33dc:	6c080000 	stcvs	0, cr0, [r8], {-0}
    33e0:	72657469 	rsbvc	r7, r5, #1761607680	; 0x69000000
    33e4:	002c6c61 	eoreq	r6, ip, r1, ror #24

000033e8 <Code_735>:
    33e8:	b508      	push	{r3, lr}
    33ea:	f847 6d04 	str.w	r6, [r7, #-4]!
    33ee:	f64f 0647 	movw	r6, #63559	; 0xf847
    33f2:	f000 fad5 	bl	39a0 <Code_849>
    33f6:	f847 6d04 	str.w	r6, [r7, #-4]!
    33fa:	f646 5604 	movw	r6, #27908	; 0x6d04
    33fe:	f000 facf 	bl	39a0 <Code_849>
    3402:	f847 6d04 	str.w	r6, [r7, #-4]!
    3406:	2606      	movs	r6, #6
    3408:	f7ff ff5c 	bl	32c4 <Code_718>
    340c:	bd08      	pop	{r3, pc}

0000340e <Dictionary_742>:
    340e:	00003436 	andeq	r3, r0, r6, lsr r4
    3412:	63060000 	movwvs	r0, #24576	; 0x6000
    3416:	74616572 	strbtvc	r6, [r1], #-1394	; 0xfffffa8e
    341a:	 	strlt	r0, [r0, #-101]	; 0xffffff9b

0000341c <Code_742>:
    341c:	b500      	push	{lr}
    341e:	f000 f835 	bl	348c <Code_747>
    3422:	f243 4057 	movw	r0, #13399	; 0x3457
    3426:	f2c0 0000 	movt	r0, #0
    342a:	4780      	blx	r0
    342c:	f847 6d04 	str.w	r6, [r7, #-4]!
    3430:	f1be 0601 	subs.w	r6, lr, #1
    3434:	bd00      	pop	{pc}

00003436 <Dictionary_744>:
    3436:	0000347e 	andeq	r3, r0, lr, ror r4
    343a:	64050020 	strvs	r0, [r5], #-32	; 0xffffffe0
    343e:	3e73656f 	cdpcc	5, 7, cr6, cr3, cr15, {3}

00003442 <Code_744>:
    3442:	f243 4057 	movw	r0, #13399	; 0x3457
    3446:	f2c0 0000 	movt	r0, #0
    344a:	4780      	blx	r0
    344c:	f847 6d04 	str.w	r6, [r7, #-4]!
    3450:	f1be 0601 	subs.w	r6, lr, #1
    3454:	4770      	bx	lr

00003456 <dodoes>:
    3456:	f847 6d04 	str.w	r6, [r7, #-4]!
    345a:	f1be 0601 	subs.w	r6, lr, #1
    345e:	4af0      	ldr	r2, [pc, #960]	; (3820 <Code_823+0x2e>)
    3460:	6813      	ldr	r3, [r2, #0]
    3462:	49f0      	ldr	r1, [pc, #960]	; (3824 <Code_823+0x32>)
    3464:	6809      	ldr	r1, [r1, #0]
    3466:	2002      	movs	r0, #2
    3468:	4008      	ands	r0, r1
    346a:	d000      	beq.n	346e <dodoes+0x18>
    346c:	3102      	adds	r1, #2
    346e:	3102      	adds	r1, #2
    3470:	6011      	str	r1, [r2, #0]
    3472:	f7ff ff66 	bl	3342 <callkommalang>
    3476:	6013      	str	r3, [r2, #0]
    3478:	f000 f9e9 	bl	384e <Code_825>
    347c:	bd00      	pop	{pc}

0000347e <Dictionary_747>:
    347e:	000034ba 			; <UNDEFINED> instruction: 0x000034ba
    3482:	3c070000 	stccc	0, cr0, [r7], {-0}
    3486:	6c697562 	cfstr64vs	mvdx7, [r9], #-392	; 0xfffffe78
    348a:	 	strlt	r7, [r0, #-868]	; 0xfffffc9c

0000348c <Code_747>:
    348c:	b500      	push	{lr}
    348e:	f000 fbf5 	bl	3c7c <Code_886>
    3492:	f000 fe46 	bl	4122 <Code_953>
    3496:	2002      	movs	r0, #2
    3498:	4006      	ands	r6, r0
    349a:	cf40      	ldmia	r7!, {r6}
    349c:	d001      	beq.n	34a2 <Code_747+0x16>
    349e:	f000 fa71 	bl	3984 <nop_hkomma>
    34a2:	f847 6d04 	str.w	r6, [r7, #-4]!
    34a6:	f24b 5600 	movw	r6, #46336	; 0xb500
    34aa:	f000 fa79 	bl	39a0 <Code_849>
    34ae:	f847 6d04 	str.w	r6, [r7, #-4]!
    34b2:	260a      	movs	r6, #10
    34b4:	f000 fae2 	bl	3a7c <Code_867>
    34b8:	bd00      	pop	{pc}

000034ba <Dictionary_753>:
    34ba:	000034c6 	andeq	r3, r0, r6, asr #9
    34be:	5b030050 	blpl	c3606 <ADC12_Common_CSR_EOS_SLV+0x43606>
    34c2:	 	and	r5, r3, r7, lsr #26

000034c4 <Code_753>:
    34c4:	e003      	b.n	34ce <Code_754>

000034c6 <Dictionary_754>:
    34c6:	000034de 	ldrdeq	r3, [r0], -lr
    34ca:	27010000 	strcs	r0, [r1, -r0]

000034ce <Code_754>:
    34ce:	b500      	push	{lr}
    34d0:	f001 f998 	bl	4804 <Code_1101>
    34d4:	f000 fdbd 	bl	4052 <find_not_found>
    34d8:	0030      	movs	r0, r6
    34da:	cf40      	ldmia	r7!, {r6}
    34dc:	bd00      	pop	{pc}

000034de <Dictionary_756>:
    34de:	00003514 	andeq	r3, r0, r4, lsl r5
    34e2:	70080030 	andvc	r0, r8, r0, lsr r0
    34e6:	7074736f 	rsbsvc	r7, r4, pc, ror #6
    34ea:	00656e6f 	rsbeq	r6, r5, pc, ror #28

000034ee <Code_756>:
    34ee:	b500      	push	{lr}
    34f0:	f7ff ffed 	bl	34ce <Code_754>
    34f4:	f847 6d04 	str.w	r6, [r7, #-4]!
    34f8:	0006      	movs	r6, r0
    34fa:	6839      	ldr	r1, [r7, #0]
    34fc:	603e      	str	r6, [r7, #0]
    34fe:	460e      	mov	r6, r1
    3500:	f7ff ff72 	bl	33e8 <Code_735>
    3504:	f7ff ff70 	bl	33e8 <Code_735>
    3508:	f847 6d04 	str.w	r6, [r7, #-4]!
    350c:	4ec6      	ldr	r6, [pc, #792]	; (3828 <Code_823+0x36>)
    350e:	f7ff ff36 	bl	337e <Code_730>
    3512:	bd00      	pop	{pc}

00003514 <Dictionary_761>:
    3514:	0000356a 	andeq	r3, r0, sl, ror #10
    3518:	69070000 	stmdbvs	r7, {}	; <UNPREDICTABLE>
    351c:	6e696c6e 	cdpvs	12, 6, cr6, cr9, cr14, {3}
    3520:	 	strlt	r2, [r0, #-3173]	; 0xfffff39b

00003522 <Code_761>:
    3522:	b500      	push	{lr}
    3524:	f24b 5100 	movw	r1, #46336	; 0xb500
    3528:	f64b 5200 	movw	r2, #48384	; 0xbd00
    352c:	f244 7370 	movw	r3, #18288	; 0x4770
    3530:	8830      	ldrh	r0, [r6, #0]
    3532:	4288      	cmp	r0, r1
    3534:	d008      	beq.n	3548 <Code_761+0x26>
    3536:	4290      	cmp	r0, r2
    3538:	d008      	beq.n	354c <Code_761+0x2a>
    353a:	4298      	cmp	r0, r3
    353c:	d006      	beq.n	354c <Code_761+0x2a>
    353e:	f847 6d04 	str.w	r6, [r7, #-4]!
    3542:	0006      	movs	r6, r0
    3544:	f000 fa2c 	bl	39a0 <Code_849>
    3548:	3602      	adds	r6, #2
    354a:	e7f1      	b.n	3530 <Code_761+0xe>
    354c:	cf40      	ldmia	r7!, {r6}
    354e:	bd00      	pop	{pc}

00003550 <suchedefinitionsende>:
    3550:	b40e      	push	{r1, r2, r3}
    3552:	f64b 5200 	movw	r2, #48384	; 0xbd00
    3556:	f244 7370 	movw	r3, #18288	; 0x4770
    355a:	8801      	ldrh	r1, [r0, #0]
    355c:	3002      	adds	r0, #2
    355e:	4291      	cmp	r1, r2
    3560:	d001      	beq.n	3566 <suchedefinitionsende+0x16>
    3562:	4299      	cmp	r1, r3
    3564:	d1f9      	bne.n	355a <suchedefinitionsende+0xa>
    3566:	bc0e      	pop	{r1, r2, r3}
    3568:	4770      	bx	lr

0000356a <Dictionary_765>:
    356a:	00003580 	andeq	r3, r0, r0, lsl #11
    356e:	72040000 	andvc	r0, r4, #0
    3572:	002c7465 	eoreq	r7, ip, r5, ror #8

00003576 <Code_765>:
    3576:	f847 6d04 	str.w	r6, [r7, #-4]!
    357a:	f64b 5600 	movw	r6, #48384	; 0xbd00
    357e:	e20f      	b.n	39a0 <Code_849>

00003580 <Dictionary_768>:
    3580:	0000358e 	andeq	r3, r0, lr, lsl #11
    3584:	65040030 	strvs	r0, [r4, #-48]	; 0xffffffd0
    3588:	00746978 	rsbseq	r6, r4, r8, ror r9

0000358c <Code_768>:
    358c:	e7f3      	b.n	3576 <Code_765>

0000358e <Dictionary_769>:
    358e:	000035a6 	andeq	r3, r0, r6, lsr #11
    3592:	72070030 	andvc	r0, r7, #48	; 0x30
    3596:	72756365 	rsbsvc	r6, r5, #-1811939327	; 0x94000001
    359a:	 			; <UNDEFINED> instruction: 0xf8476573

0000359c <Code_769>:
    359c:	f847 6d04 	str.w	r6, [r7, #-4]!
    35a0:	4ea0      	ldr	r6, [pc, #640]	; (3824 <Code_823+0x32>)
    35a2:	6836      	ldr	r6, [r6, #0]
    35a4:	e6eb      	b.n	337e <Code_730>

000035a6 <Dictionary_771>:
    35a6:	000035be 			; <UNDEFINED> instruction: 0x000035be
    35aa:	73050081 	movwvc	r0, #20609	; 0x5081
    35ae:	65746174 	ldrbvs	r6, [r4, #-372]!	; 0xfffffe8c

000035b2 <Code_771>:
    35b2:	f847 6d04 	str.w	r6, [r7, #-4]!
    35b6:	4e9d      	ldr	r6, [pc, #628]	; (382c <Code_823+0x3a>)
    35b8:	4770      	bx	lr
    35ba:	00000000 	andeq	r0, r0, r0

000035be <Dictionary_774>:
    35be:	000035d0 	ldrdeq	r3, [r0], -r0
    35c2:	5d010000 	stcpl	0, cr0, [r1, #-0]

000035c6 <Code_774>:
    35c6:	4899      	ldr	r0, [pc, #612]	; (382c <Code_823+0x3a>)
    35c8:	2100      	movs	r1, #0
    35ca:	43c9      	mvns	r1, r1
    35cc:	6001      	str	r1, [r0, #0]
    35ce:	4770      	bx	lr

000035d0 <Dictionary_775>:
    35d0:	000035e0 	andeq	r3, r0, r0, ror #11
    35d4:	5b010010 	blpl	4361c <ADC12_Common_CSR_EOC_SLV+0x361c>

000035d8 <Code_775>:
    35d8:	4894      	ldr	r0, [pc, #592]	; (382c <Code_823+0x3a>)
    35da:	2100      	movs	r1, #0
    35dc:	6001      	str	r1, [r0, #0]
    35de:	4770      	bx	lr

000035e0 <Dictionary_776>:
    35e0:	00003600 	andeq	r3, r0, r0, lsl #12
    35e4:	3a010000 	bcc	435ec <ADC12_Common_CSR_EOC_SLV+0x35ec>

000035e8 <Code_776>:
    35e8:	b500      	push	{lr}
    35ea:	4891      	ldr	r0, [pc, #580]	; (3830 <Code_823+0x3e>)
    35ec:	6007      	str	r7, [r0, #0]
    35ee:	f000 fb45 	bl	3c7c <Code_886>
    35f2:	488e      	ldr	r0, [pc, #568]	; (382c <Code_823+0x3a>)
    35f4:	2101      	movs	r1, #1
    35f6:	6001      	str	r1, [r0, #0]
    35f8:	488e      	ldr	r0, [pc, #568]	; (3834 <Code_823+0x42>)
    35fa:	2100      	movs	r1, #0
    35fc:	6001      	str	r1, [r0, #0]
    35fe:	bd00      	pop	{pc}

00003600 <Dictionary_777>:
    3600:	00003686 	andeq	r3, r0, r6, lsl #13
    3604:	3b010830 	blcc	456cc <ADC12_Common_CSR_EOC_SLV+0x56cc>

00003608 <Code_777>:
    3608:	b500      	push	{lr}
    360a:	4889      	ldr	r0, [pc, #548]	; (3830 <Code_823+0x3e>)
    360c:	6801      	ldr	r1, [r0, #0]
    360e:	42b9      	cmp	r1, r7
    3610:	d019      	beq.n	3646 <Code_777+0x3e>
    3612:	4989      	ldr	r1, [pc, #548]	; (3838 <Code_823+0x46>)
    3614:	428e      	cmp	r6, r1
    3616:	d102      	bne.n	361e <Code_777+0x16>
    3618:	4e88      	ldr	r6, [pc, #544]	; (383c <Code_823+0x4a>)
    361a:	f7ff fc83 	bl	2f24 <Code_668>
    361e:	f7ff fc39 	bl	2e94 <dotgaensefuesschen>
    3622:	5b1b151f 	blpl	6c8aa6 <ADC12_Common_CCR_VREFEN+0x2c8aa6>
    3626:	206d3133 	rsbcs	r3, sp, r3, lsr r1
    362a:	63617453 	cmnvs	r1, #1392508928	; 0x53000000
    362e:	6f6e206b 	svcvs	0x006e206b
    3632:	61622074 	smcvs	8708	; 0x2204
    3636:	636e616c 	cmnvs	lr, #108, 2
    363a:	1b2e6465 	blne	b9c7d6 <ADC12_Common_CCR_TSEN+0x39c7d6>
    363e:	0a6d305b 	beq	1b4f7b2 <RCC_PLL1DIVR_Value+0xb1f513>
    3642:	f001 bc71 	b.w	4f28 <Code_1230>
    3646:	4879      	ldr	r0, [pc, #484]	; (382c <Code_823+0x3a>)
    3648:	6800      	ldr	r0, [r0, #0]
    364a:	1c41      	adds	r1, r0, #1
    364c:	d010      	beq.n	3670 <Code_777+0x68>
    364e:	280b      	cmp	r0, #11
    3650:	d805      	bhi.n	365e <Code_777+0x56>
    3652:	f847 6d04 	str.w	r6, [r7, #-4]!
    3656:	f640 0620 	movw	r6, #2080	; 0x820
    365a:	f000 f92b 	bl	38b4 <Code_830>
    365e:	f847 6d04 	str.w	r6, [r7, #-4]!
    3662:	f244 7670 	movw	r6, #18288	; 0x4770
    3666:	f000 f99b 	bl	39a0 <Code_849>
    366a:	f001 fb49 	bl	4d00 <inline_cache_schreiben>
    366e:	e005      	b.n	367c <Code_777+0x74>
    3670:	f847 6d04 	str.w	r6, [r7, #-4]!
    3674:	f64b 5600 	movw	r6, #48384	; 0xbd00
    3678:	f000 f992 	bl	39a0 <Code_849>
    367c:	f000 f8e7 	bl	384e <Code_825>
    3680:	f7ff ffaa 	bl	35d8 <Code_775>
    3684:	bd00      	pop	{pc}

00003686 <Dictionary_785>:
    3686:	0000369a 	muleq	r0, sl, r6
    368a:	65070000 	strvs	r0, [r7, #-0]
    368e:	75636578 	strbvc	r6, [r3, #-1400]!	; 0xfffffa88
    3692:	 	eorseq	r6, r0, r4, ror r5

00003694 <Code_785>:
    3694:	0030      	movs	r0, r6
    3696:	cf40      	ldmia	r7!, {r6}
    3698:	4687      	mov	pc, r0

0000369a <Dictionary_787>:
    369a:	000036b2 			; <UNDEFINED> instruction: 0x000036b2
    369e:	69090010 	stmdbvs	r9, {r4}
    36a2:	64656d6d 	strbtvs	r6, [r5], #-3437	; 0xfffff293
    36a6:	65746169 	ldrbvs	r6, [r4, #-361]!	; 0xfffffe97

000036aa <Code_787>:
    36aa:	f847 6d04 	str.w	r6, [r7, #-4]!
    36ae:	2610      	movs	r6, #16
    36b0:	e100      	b.n	38b4 <Code_830>

000036b2 <Dictionary_790>:
    36b2:	000036c8 	andeq	r3, r0, r8, asr #13
    36b6:	69060050 	stmdbvs	r6, {r4, r6}
    36ba:	6e696c6e 	cdpvs	12, 6, cr6, cr9, cr14, {3}
    36be:	 			; <UNDEFINED> instruction: 0xf8470065

000036c0 <Code_790>:
    36c0:	f847 6d04 	str.w	r6, [r7, #-4]!
    36c4:	2620      	movs	r6, #32
    36c6:	e0f5      	b.n	38b4 <Code_830>

000036c8 <Dictionary_793>:
    36c8:	000036e2 	andeq	r3, r0, r2, ror #13
    36cc:	630b0010 	movwvs	r0, #45072	; 0xb010
    36d0:	69706d6f 	ldmdbvs	r0!, {r0, r1, r2, r3, r5, r6, r8, sl, fp, sp, lr}^
    36d4:	6e6f656c 	cdpvs	5, 6, cr6, cr15, cr12, {3}
    36d8:	 			; <UNDEFINED> instruction: 0xf847796c

000036da <Code_793>:
    36da:	f847 6d04 	str.w	r6, [r7, #-4]!
    36de:	2630      	movs	r6, #48	; 0x30
    36e0:	e0e8      	b.n	38b4 <Code_830>

000036e2 <Dictionary_796>:
    36e2:	000036fc 	strdeq	r3, [r0], -ip
    36e6:	300a0050 	andcc	r0, sl, r0, asr r0
    36ea:	6c6f662d 	stclvs	6, cr6, [pc], #-180	; 363c <Code_777+0x34>
    36ee:	6c626164 	stfvse	f6, [r2], #-400	; 0xfffffe70
    36f2:	 			; <UNDEFINED> instruction: 0xf8470065

000036f4 <Code_796>:
    36f4:	f847 6d04 	str.w	r6, [r7, #-4]!
    36f8:	2640      	movs	r6, #64	; 0x40
    36fa:	e0db      	b.n	38b4 <Code_830>

000036fc <Dictionary_799>:
    36fc:	00003716 	andeq	r3, r0, r6, lsl r7
    3700:	310a0050 	qaddcc	r0, r0, sl
    3704:	6c6f662d 	stclvs	6, cr6, [pc], #-180	; 3658 <Code_777+0x50>
    3708:	6c626164 	stfvse	f6, [r2], #-400	; 0xfffffe70
    370c:	 			; <UNDEFINED> instruction: 0xf8470065

0000370e <Code_799>:
    370e:	f847 6d04 	str.w	r6, [r7, #-4]!
    3712:	2641      	movs	r6, #65	; 0x41
    3714:	e0ce      	b.n	38b4 <Code_830>

00003716 <Dictionary_802>:
    3716:	00003730 	andeq	r3, r0, r0, lsr r7
    371a:	320a0050 	andcc	r0, sl, #80	; 0x50
    371e:	6c6f662d 	stclvs	6, cr6, [pc], #-180	; 3670 <Code_777+0x68>
    3722:	6c626164 	stfvse	f6, [r2], #-400	; 0xfffffe70
    3726:	 			; <UNDEFINED> instruction: 0xf8470065

00003728 <Code_802>:
    3728:	f847 6d04 	str.w	r6, [r7, #-4]!
    372c:	2642      	movs	r6, #66	; 0x42
    372e:	e0c1      	b.n	38b4 <Code_830>

00003730 <Dictionary_805>:
    3730:	0000374a 	andeq	r3, r0, sl, asr #14
    3734:	330a0050 	movwcc	r0, #41040	; 0xa050
    3738:	6c6f662d 	stclvs	6, cr6, [pc], #-180	; 368c <Dictionary_785+0x6>
    373c:	6c626164 	stfvse	f6, [r2], #-400	; 0xfffffe70
    3740:	 			; <UNDEFINED> instruction: 0xf8470065

00003742 <Code_805>:
    3742:	f847 6d04 	str.w	r6, [r7, #-4]!
    3746:	2643      	movs	r6, #67	; 0x43
    3748:	e0b4      	b.n	38b4 <Code_830>

0000374a <Dictionary_808>:
    374a:	00003764 	andeq	r3, r0, r4, ror #14
    374e:	340a0050 	strcc	r0, [sl], #-80	; 0xffffffb0
    3752:	6c6f662d 	stclvs	6, cr6, [pc], #-180	; 36a4 <Dictionary_787+0xa>
    3756:	6c626164 	stfvse	f6, [r2], #-400	; 0xfffffe70
    375a:	 			; <UNDEFINED> instruction: 0xf8470065

0000375c <Code_808>:
    375c:	f847 6d04 	str.w	r6, [r7, #-4]!
    3760:	2644      	movs	r6, #68	; 0x44
    3762:	e0a7      	b.n	38b4 <Code_830>

00003764 <Dictionary_811>:
    3764:	0000377e 	andeq	r3, r0, lr, ror r7
    3768:	350a0050 	strcc	r0, [sl, #-80]	; 0xffffffb0
    376c:	6c6f662d 	stclvs	6, cr6, [pc], #-180	; 36c0 <Code_790>
    3770:	6c626164 	stfvse	f6, [r2], #-400	; 0xfffffe70
    3774:	 			; <UNDEFINED> instruction: 0xf8470065

00003776 <Code_811>:
    3776:	f847 6d04 	str.w	r6, [r7, #-4]!
    377a:	2645      	movs	r6, #69	; 0x45
    377c:	e09a      	b.n	38b4 <Code_830>

0000377e <Dictionary_814>:
    377e:	00003798 	muleq	r0, r8, r7
    3782:	360a0050 			; <UNDEFINED> instruction: 0x360a0050
    3786:	6c6f662d 	stclvs	6, cr6, [pc], #-180	; 36d8 <Dictionary_793+0x10>
    378a:	6c626164 	stfvse	f6, [r2], #-400	; 0xfffffe70
    378e:	 			; <UNDEFINED> instruction: 0xf8470065

00003790 <Code_814>:
    3790:	f847 6d04 	str.w	r6, [r7, #-4]!
    3794:	2646      	movs	r6, #70	; 0x46
    3796:	e08d      	b.n	38b4 <Code_830>

00003798 <Dictionary_817>:
    3798:	000037b2 			; <UNDEFINED> instruction: 0x000037b2
    379c:	370a0050 	smlsdcc	sl, r0, r0, r0
    37a0:	6c6f662d 	stclvs	6, cr6, [pc], #-180	; 36f4 <Code_796>
    37a4:	6c626164 	stfvse	f6, [r2], #-400	; 0xfffffe70
    37a8:	 			; <UNDEFINED> instruction: 0xf8470065

000037aa <Code_817>:
    37aa:	f847 6d04 	str.w	r6, [r7, #-4]!
    37ae:	2647      	movs	r6, #71	; 0x47
    37b0:	e080      	b.n	38b4 <Code_830>

000037b2 <Dictionary_820>:
    37b2:	000037e2 	andeq	r3, r0, r2, ror #15
    37b6:	63080000 	movwvs	r0, #32768	; 0x8000
    37ba:	74736e6f 	ldrbtvc	r6, [r3], #-3695	; 0xfffff191
    37be:	00746e61 	rsbseq	r6, r4, r1, ror #28

000037c2 <Code_820>:
    37c2:	b500      	push	{lr}
    37c4:	f000 fa5a 	bl	3c7c <Code_886>
    37c8:	f7ff fe0e 	bl	33e8 <Code_735>
    37cc:	f847 6d04 	str.w	r6, [r7, #-4]!
    37d0:	f244 7670 	movw	r6, #18288	; 0x4770
    37d4:	f000 f8e4 	bl	39a0 <Code_849>
    37d8:	f7ff ff8c 	bl	36f4 <Code_796>
    37dc:	f000 f837 	bl	384e <Code_825>
    37e0:	bd00      	pop	{pc}

000037e2 <Dictionary_823>:
    37e2:	00003840 	andeq	r3, r0, r0, asr #16
    37e6:	32090000 	andcc	r0, r9, #0
    37ea:	736e6f63 	cmnvc	lr, #396	; 0x18c
    37ee:	746e6174 	strbtvc	r6, [lr], #-372	; 0xfffffe8c

000037f2 <Code_823>:
    37f2:	b500      	push	{lr}
    37f4:	f000 fa42 	bl	3c7c <Code_886>
    37f8:	6839      	ldr	r1, [r7, #0]
    37fa:	603e      	str	r6, [r7, #0]
    37fc:	460e      	mov	r6, r1
    37fe:	f7ff fdf3 	bl	33e8 <Code_735>
    3802:	e7e1      	b.n	37c8 <Code_820+0x6>
    3804:	f2400000 	vhadd.s8	d16, d0, d0
    3808:	f2c00000 	vaddl.s8	q8, d0, d0
    380c:	f05f0000 			; <UNDEFINED> instruction: 0xf05f0000
    3810:	f07f0000 			; <UNDEFINED> instruction: 0xf07f0000
    3814:	ffc00001 			; <UNDEFINED> instruction: 0xffc00001
    3818:	ffc00000 			; <UNDEFINED> instruction: 0xffc00000
    381c:	f000f800 			; <UNDEFINED> instruction: 0xf000f800
    3820:	2001ffd0 	ldrdcs	pc, [r1], -r0
    3824:	2000000c 	andcs	r0, r0, ip
    3828:	00004bfa 	strdeq	r4, [r0], -sl
    382c:	2001ffd8 	ldrdcs	pc, [r1], -r8
    3830:	20000008 	andcs	r0, r0, r8
    3834:	20000054 	andcs	r0, r0, r4, asr r0
    3838:	04121985 	ldreq	r1, [r2], #-2437	; 0xfffff67b
    383c:	00002fc6 	andeq	r2, r0, r6, asr #31

00003840 <Dictionary_825>:
    3840:	000038a4 	andeq	r3, r0, r4, lsr #17
    3844:	73060000 	movwvc	r0, #24576	; 0x6000
    3848:	6764756d 	strbvs	r7, [r4, -sp, ror #10]!
    384c:	 	strlt	r0, [r0, #-101]	; 0xffffff9b

0000384e <Code_825>:
    384e:	b500      	push	{lr}
    3850:	48f9      	ldr	r0, [pc, #996]	; (3c38 <Code_885+0x16>)
    3852:	6801      	ldr	r1, [r0, #0]
    3854:	f04f 5210 	mov.w	r2, #603979776	; 0x24000000
    3858:	4291      	cmp	r1, r2
    385a:	d31c      	bcc.n	3896 <smudge_ram>
    385c:	3902      	subs	r1, #2
    385e:	880a      	ldrh	r2, [r1, #0]
    3860:	f64f 73ff 	movw	r3, #65535	; 0xffff
    3864:	429a      	cmp	r2, r3
    3866:	d105      	bne.n	3874 <Code_825+0x26>
    3868:	f847 6d04 	str.w	r6, [r7, #-4]!
    386c:	f04f 0600 	mov.w	r6, #0
    3870:	f000 f896 	bl	39a0 <Code_849>
    3874:	f000 f85c 	bl	3930 <Code_837>
    3878:	48f0      	ldr	r0, [pc, #960]	; (3c3c <Code_885+0x1a>)
    387a:	6800      	ldr	r0, [r0, #0]
    387c:	f847 6d04 	str.w	r6, [r7, #-4]!
    3880:	0006      	movs	r6, r0
    3882:	49ef      	ldr	r1, [pc, #956]	; (3c40 <Code_885+0x1e>)
    3884:	6809      	ldr	r1, [r1, #0]
    3886:	3104      	adds	r1, #4
    3888:	4aeb      	ldr	r2, [pc, #940]	; (3c38 <Code_885+0x16>)
    388a:	6813      	ldr	r3, [r2, #0]
    388c:	6011      	str	r1, [r2, #0]
    388e:	f000 f887 	bl	39a0 <Code_849>
    3892:	6013      	str	r3, [r2, #0]
    3894:	bd00      	pop	{pc}

00003896 <smudge_ram>:
    3896:	f000 f84b 	bl	3930 <Code_837>
    389a:	f847 6d04 	str.w	r6, [r7, #-4]!
    389e:	f04f 0600 	mov.w	r6, #0
    38a2:	e008      	b.n	38b6 <setflags_intern>

000038a4 <Dictionary_830>:
    38a4:	000038ec 	andeq	r3, r0, ip, ror #17
    38a8:	73080000 	movwvc	r0, #32768	; 0x8000
    38ac:	6c667465 	cfstrdvs	mvd7, [r6], #-404	; 0xfffffe6c
    38b0:	00736761 	rsbseq	r6, r3, r1, ror #14

000038b4 <Code_830>:
    38b4:	b500      	push	{lr}

000038b6 <setflags_intern>:
    38b6:	48e0      	ldr	r0, [pc, #896]	; (3c38 <Code_885+0x16>)
    38b8:	6801      	ldr	r1, [r0, #0]
    38ba:	f04f 5210 	mov.w	r2, #603979776	; 0x24000000
    38be:	4291      	cmp	r1, r2
    38c0:	d305      	bcc.n	38ce <setflags_ram>
    38c2:	48de      	ldr	r0, [pc, #888]	; (3c3c <Code_885+0x1a>)
    38c4:	6801      	ldr	r1, [r0, #0]
    38c6:	4331      	orrs	r1, r6
    38c8:	6001      	str	r1, [r0, #0]
    38ca:	cf40      	ldmia	r7!, {r6}
    38cc:	bd00      	pop	{pc}

000038ce <setflags_ram>:
    38ce:	0032      	movs	r2, r6
    38d0:	cf40      	ldmia	r7!, {r6}
    38d2:	48db      	ldr	r0, [pc, #876]	; (3c40 <Code_885+0x1e>)
    38d4:	6800      	ldr	r0, [r0, #0]
    38d6:	3004      	adds	r0, #4
    38d8:	8801      	ldrh	r1, [r0, #0]
    38da:	f64f 73ff 	movw	r3, #65535	; 0xffff
    38de:	4299      	cmp	r1, r3
    38e0:	d101      	bne.n	38e6 <setflags_ram+0x18>
    38e2:	0011      	movs	r1, r2
    38e4:	e000      	b.n	38e8 <setflags_ram+0x1a>
    38e6:	4311      	orrs	r1, r2
    38e8:	8001      	strh	r1, [r0, #0]
    38ea:	bd00      	pop	{pc}

000038ec <Dictionary_833>:
    38ec:	00003902 	andeq	r3, r0, r2, lsl #18
    38f0:	61070041 	tstvs	r7, r1, asr #32
    38f4:	6e67696c 	vnmulvs.f16	s13, s14, s25	; <UNPREDICTABLE>
    38f8:	 	strcc	r6, [r3], -r5, ror #8

000038fa <Code_833>:
    38fa:	3603      	adds	r6, #3
    38fc:	2003      	movs	r0, #3
    38fe:	4386      	bics	r6, r0
    3900:	4770      	bx	lr

00003902 <Dictionary_834>:
    3902:	00003924 	andeq	r3, r0, r4, lsr #18
    3906:	68060000 	stmdavs	r6, {}	; <UNPREDICTABLE>
    390a:	67696c61 	strbvs	r6, [r9, -r1, ror #24]!
    390e:	 	stmiami	r9, {r1, r2, r3, r5, r6}^

00003910 <Code_834>:
    3910:	48c9      	ldr	r0, [pc, #804]	; (3c38 <Code_885+0x16>)
    3912:	6801      	ldr	r1, [r0, #0]
    3914:	2001      	movs	r0, #1
    3916:	4001      	ands	r1, r0
    3918:	d003      	beq.n	3922 <Code_834+0x12>
    391a:	f847 6d04 	str.w	r6, [r7, #-4]!
    391e:	2600      	movs	r6, #0
    3920:	e01a      	b.n	3958 <Code_839>
    3922:	4770      	bx	lr

00003924 <Dictionary_837>:
    3924:	0000394e 	andeq	r3, r0, lr, asr #18
    3928:	61050000 	mrsvs	r0, (UNDEF: 5)
    392c:	6e67696c 	vnmulvs.f16	s13, s14, s25	; <UNPREDICTABLE>

00003930 <Code_837>:
    3930:	b500      	push	{lr}
    3932:	f7ff ffed 	bl	3910 <Code_834>
    3936:	48c0      	ldr	r0, [pc, #768]	; (3c38 <Code_885+0x16>)
    3938:	6801      	ldr	r1, [r0, #0]
    393a:	2002      	movs	r0, #2
    393c:	4001      	ands	r1, r0
    393e:	d005      	beq.n	394c <Code_837+0x1c>
    3940:	f847 6d04 	str.w	r6, [r7, #-4]!
    3944:	f04f 0600 	mov.w	r6, #0
    3948:	f000 f82a 	bl	39a0 <Code_849>
    394c:	bd00      	pop	{pc}

0000394e <Dictionary_839>:
    394e:	00003996 	muleq	r0, r6, r9
    3952:	63020000 	movwvs	r0, #8192	; 0x2000
    3956:	 	strlt	r0, [r0, #-44]	; 0xffffffd4

00003958 <Code_839>:
    3958:	b500      	push	{lr}
    395a:	48b7      	ldr	r0, [pc, #732]	; (3c38 <Code_885+0x16>)
    395c:	6801      	ldr	r1, [r0, #0]
    395e:	f04f 5210 	mov.w	r2, #603979776	; 0x24000000
    3962:	4291      	cmp	r1, r2
    3964:	d305      	bcc.n	3972 <ckomma_ram>
    3966:	f847 6d04 	str.w	r6, [r7, #-4]!
    396a:	000e      	movs	r6, r1
    396c:	f7fe fc5f 	bl	222e <Code_458>
    3970:	e002      	b.n	3978 <ckomma_fertig>

00003972 <ckomma_ram>:
    3972:	0032      	movs	r2, r6
    3974:	cf40      	ldmia	r7!, {r6}
    3976:	700a      	strb	r2, [r1, #0]

00003978 <ckomma_fertig>:
    3978:	f847 6d04 	str.w	r6, [r7, #-4]!
    397c:	2601      	movs	r6, #1
    397e:	f000 f87d 	bl	3a7c <Code_867>
    3982:	bd00      	pop	{pc}

00003984 <nop_hkomma>:
    3984:	f847 6d04 	str.w	r6, [r7, #-4]!
    3988:	2636      	movs	r6, #54	; 0x36
    398a:	e009      	b.n	39a0 <Code_849>

0000398c <drop_hkomma>:
    398c:	f847 6d04 	str.w	r6, [r7, #-4]!
    3990:	f64c 7640 	movw	r6, #53056	; 0xcf40
    3994:	e004      	b.n	39a0 <Code_849>

00003996 <Dictionary_849>:
    3996:	000039dc 	ldrdeq	r3, [r0], -ip
    399a:	68020000 	stmdavs	r2, {}	; <UNPREDICTABLE>
    399e:	 	strlt	r0, [pc, #-44]	; 397a <ckomma_fertig+0x2>

000039a0 <Code_849>:
    39a0:	b50f      	push	{r0, r1, r2, r3, lr}
    39a2:	b2b6      	uxth	r6, r6
    39a4:	48a7      	ldr	r0, [pc, #668]	; (3c44 <Code_885+0x22>)
    39a6:	6801      	ldr	r1, [r0, #0]
    39a8:	2900      	cmp	r1, #0
    39aa:	d002      	beq.n	39b2 <Code_849+0x12>
    39ac:	3101      	adds	r1, #1
    39ae:	d000      	beq.n	39b2 <Code_849+0x12>
    39b0:	6001      	str	r1, [r0, #0]
    39b2:	48a1      	ldr	r0, [pc, #644]	; (3c38 <Code_885+0x16>)
    39b4:	6801      	ldr	r1, [r0, #0]
    39b6:	f04f 5210 	mov.w	r2, #603979776	; 0x24000000
    39ba:	4291      	cmp	r1, r2
    39bc:	d305      	bcc.n	39ca <hkomma_ram>
    39be:	f847 6d04 	str.w	r6, [r7, #-4]!
    39c2:	000e      	movs	r6, r1
    39c4:	f7fe fbf2 	bl	21ac <Code_455>
    39c8:	e002      	b.n	39d0 <hkomma_fertig>

000039ca <hkomma_ram>:
    39ca:	0032      	movs	r2, r6
    39cc:	cf40      	ldmia	r7!, {r6}
    39ce:	800a      	strh	r2, [r1, #0]

000039d0 <hkomma_fertig>:
    39d0:	f847 6d04 	str.w	r6, [r7, #-4]!
    39d4:	2602      	movs	r6, #2
    39d6:	f000 f851 	bl	3a7c <Code_867>
    39da:	bd0f      	pop	{r0, r1, r2, r3, pc}

000039dc <Dictionary_855>:
    39dc:	000039f6 	strdeq	r3, [r0], -r6
    39e0:	2c010000 	stccs	0, cr0, [r1], {-0}

000039e4 <Code_855>:
    39e4:	b501      	push	{r0, lr}
    39e6:	f847 6d04 	str.w	r6, [r7, #-4]!
    39ea:	f7ff ffd9 	bl	39a0 <Code_849>
    39ee:	0c36      	lsrs	r6, r6, #16
    39f0:	f7ff ffd6 	bl	39a0 <Code_849>
    39f4:	bd01      	pop	{r0, pc}

000039f6 <Dictionary_858>:
    39f6:	00003a08 	andeq	r3, r0, r8, lsl #20
    39fa:	3e030000 	cdpcc	0, 0, cr0, cr3, cr0, {0}
    39fe:	 	strlt	r2, [r1, #-3132]	; 0xfffff3c4

00003a00 <Code_858>:
    3a00:	b501      	push	{r0, lr}
    3a02:	2010      	movs	r0, #16
    3a04:	41c6      	rors	r6, r0
    3a06:	e7ee      	b.n	39e6 <Code_855+0x2>

00003a08 <Dictionary_859>:
    3a08:	00003a70 	andeq	r3, r0, r0, ror sl
    3a0c:	73070000 	movwvc	r0, #28672	; 0x7000
    3a10:	6e697274 	mcrvs	2, 3, r7, cr9, cr4, {3}
    3a14:	 	strlt	r2, [r7, #-3175]	; 0xfffff399

00003a16 <Code_859>:
    3a16:	b507      	push	{r0, r1, r2, lr}
    3a18:	21ff      	movs	r1, #255	; 0xff
    3a1a:	4031      	ands	r1, r6
    3a1c:	cf40      	ldmia	r7!, {r6}
    3a1e:	0030      	movs	r0, r6
    3a20:	cf40      	ldmia	r7!, {r6}
    3a22:	2900      	cmp	r1, #0
    3a24:	d105      	bne.n	3a32 <Code_859+0x1c>
    3a26:	f847 6d04 	str.w	r6, [r7, #-4]!
    3a2a:	2600      	movs	r6, #0
    3a2c:	f7ff ffb8 	bl	39a0 <Code_849>
    3a30:	bd07      	pop	{r0, r1, r2, pc}
    3a32:	f847 6d04 	str.w	r6, [r7, #-4]!
    3a36:	7806      	ldrb	r6, [r0, #0]
    3a38:	0236      	lsls	r6, r6, #8
    3a3a:	430e      	orrs	r6, r1
    3a3c:	f7ff ffb0 	bl	39a0 <Code_849>
    3a40:	3001      	adds	r0, #1
    3a42:	3901      	subs	r1, #1
    3a44:	2902      	cmp	r1, #2
    3a46:	d30a      	bcc.n	3a5e <Code_859+0x48>
    3a48:	f847 6d04 	str.w	r6, [r7, #-4]!
    3a4c:	7846      	ldrb	r6, [r0, #1]
    3a4e:	0236      	lsls	r6, r6, #8
    3a50:	7802      	ldrb	r2, [r0, #0]
    3a52:	4316      	orrs	r6, r2
    3a54:	f7ff ffa4 	bl	39a0 <Code_849>
    3a58:	3002      	adds	r0, #2
    3a5a:	3902      	subs	r1, #2
    3a5c:	e7f2      	b.n	3a44 <Code_859+0x2e>
    3a5e:	2900      	cmp	r1, #0
    3a60:	d100      	bne.n	3a64 <Code_859+0x4e>
    3a62:	bd07      	pop	{r0, r1, r2, pc}
    3a64:	f847 6d04 	str.w	r6, [r7, #-4]!
    3a68:	7806      	ldrb	r6, [r0, #0]
    3a6a:	f7ff ff99 	bl	39a0 <Code_849>
    3a6e:	bd07      	pop	{r0, r1, r2, pc}

00003a70 <Dictionary_867>:
    3a70:	00003ae0 	andeq	r3, r0, r0, ror #21
    3a74:	61050000 	mrsvs	r0, (UNDEF: 5)
    3a78:	746f6c6c 	strbtvc	r6, [pc], #-3180	; 3a80 <Code_867+0x4>

00003a7c <Code_867>:
    3a7c:	486e      	ldr	r0, [pc, #440]	; (3c38 <Code_885+0x16>)
    3a7e:	6801      	ldr	r1, [r0, #0]
    3a80:	f04f 5210 	mov.w	r2, #603979776	; 0x24000000
    3a84:	4291      	cmp	r1, r2
    3a86:	d314      	bcc.n	3ab2 <allot_ram>
    3a88:	0032      	movs	r2, r6
    3a8a:	cf40      	ldmia	r7!, {r6}
    3a8c:	1889      	adds	r1, r1, r2
    3a8e:	4a6e      	ldr	r2, [pc, #440]	; (3c48 <Code_885+0x26>)
    3a90:	4291      	cmp	r1, r2
    3a92:	d323      	bcc.n	3adc <allot_ok>
    3a94:	f7ff f9fe 	bl	2e94 <dotgaensefuesschen>
    3a98:	5b1b1515 	blpl	6c8ef4 <ADC12_Common_CCR_VREFEN+0x2c8ef4>
    3a9c:	466d3133 			; <UNDEFINED> instruction: 0x466d3133
    3aa0:	6873616c 	ldmdavs	r3!, {r2, r3, r5, r6, r8, sp, lr}^
    3aa4:	6c756620 	ldclvs	6, cr6, [r5], #-128	; 0xffffff80
    3aa8:	305b1b6c 	subscc	r1, fp, ip, ror #22
    3aac:	f0010a6d 			; <UNDEFINED> instruction: 0xf0010a6d
    3ab0:	ba3b      	rev	r3, r7

00003ab2 <allot_ram>:
    3ab2:	0032      	movs	r2, r6
    3ab4:	cf40      	ldmia	r7!, {r6}
    3ab6:	1889      	adds	r1, r1, r2
    3ab8:	4a64      	ldr	r2, [pc, #400]	; (3c4c <Code_885+0x2a>)
    3aba:	6812      	ldr	r2, [r2, #0]
    3abc:	4291      	cmp	r1, r2
    3abe:	d30d      	bcc.n	3adc <allot_ok>
    3ac0:	f7ff f9e8 	bl	2e94 <dotgaensefuesschen>
    3ac4:	5b1b1513 	blpl	6c8f18 <ADC12_Common_CCR_VREFEN+0x2c8f18>
    3ac8:	526d3133 	rsbpl	r3, sp, #-1073741812	; 0xc000000c
    3acc:	66206d61 	strtvs	r6, [r0], -r1, ror #26
    3ad0:	1b6c6c75 	blne	1b1ecac <RCC_PLL1DIVR_Value+0xaeea0d>
    3ad4:	0a6d305b 	beq	1b4fc48 <RCC_PLL1DIVR_Value+0xb1f9a9>
    3ad8:	f001 ba26 	b.w	4f28 <Code_1230>

00003adc <allot_ok>:
    3adc:	6001      	str	r1, [r0, #0]
    3ade:	4770      	bx	lr

00003ae0 <Dictionary_872>:
    3ae0:	00003afc 	strdeq	r3, [r0], -ip
    3ae4:	28080081 	stmdacs	r8, {r0, r7}
    3ae8:	6574616c 	ldrbvs	r6, [r4, #-364]!	; 0xfffffe94
    3aec:	00297473 	eoreq	r7, r9, r3, ror r4

00003af0 <Code_872>:
    3af0:	f847 6d04 	str.w	r6, [r7, #-4]!
    3af4:	4e56      	ldr	r6, [pc, #344]	; (3c50 <Code_885+0x2e>)
    3af6:	4770      	bx	lr
    3af8:	000001e4 	andeq	r0, r0, r4, ror #3

00003afc <Dictionary_875>:
    3afc:	00003b14 	andeq	r3, r0, r4, lsl fp
    3b00:	28040081 	stmdacs	r4, {r0, r7}
    3b04:	00297064 	eoreq	r7, r9, r4, rrx

00003b08 <Code_875>:
    3b08:	f847 6d04 	str.w	r6, [r7, #-4]!
    3b0c:	4e51      	ldr	r6, [pc, #324]	; (3c54 <Code_885+0x32>)
    3b0e:	4770      	bx	lr
    3b10:	20000388 	andcs	r0, r0, r8, lsl #7

00003b14 <Dictionary_878>:
    3b14:	00003b38 	andeq	r3, r0, r8, lsr fp
    3b18:	66090000 	strvs	r0, [r9], -r0
    3b1c:	6567726f 	strbvs	r7, [r7, #-623]!	; 0xfffffd91
    3b20:	6d617274 	sfmvs	f7, 2, [r1, #-464]!	; 0xfffffe30

00003b24 <Code_878>:
    3b24:	b500      	push	{lr}
    3b26:	f000 f824 	bl	3b72 <Code_881>
    3b2a:	484a      	ldr	r0, [pc, #296]	; (3c54 <Code_885+0x32>)
    3b2c:	494a      	ldr	r1, [pc, #296]	; (3c58 <Code_885+0x36>)
    3b2e:	6001      	str	r1, [r0, #0]
    3b30:	4847      	ldr	r0, [pc, #284]	; (3c50 <Code_885+0x2e>)
    3b32:	494a      	ldr	r1, [pc, #296]	; (3c5c <Code_885+0x3a>)
    3b34:	6001      	str	r1, [r0, #0]
    3b36:	bd00      	pop	{pc}

00003b38 <Dictionary_879>:
    3b38:	00003b5e 	andeq	r3, r0, lr, asr fp
    3b3c:	630d0000 	movwvs	r0, #53248	; 0xd000
    3b40:	69706d6f 	ldmdbvs	r0!, {r0, r1, r2, r3, r5, r6, r8, sl, fp, sp, lr}^
    3b44:	6f74656c 	svcvs	0x0074656c
    3b48:	3f6d6172 	svccc	0x006d6172

00003b4c <Code_879>:
    3b4c:	f847 6d04 	str.w	r6, [r7, #-4]!
    3b50:	4840      	ldr	r0, [pc, #256]	; (3c54 <Code_885+0x32>)
    3b52:	6800      	ldr	r0, [r0, #0]
    3b54:	f04f 5110 	mov.w	r1, #603979776	; 0x24000000
    3b58:	4288      	cmp	r0, r1
    3b5a:	41b6      	sbcs	r6, r6
    3b5c:	4770      	bx	lr

00003b5e <Dictionary_881>:
    3b5e:	00003b80 	andeq	r3, r0, r0, lsl #23
    3b62:	630c0000 	movwvs	r0, #49152	; 0xc000
    3b66:	69706d6f 	ldmdbvs	r0!, {r0, r1, r2, r3, r5, r6, r8, sl, fp, sp, lr}^
    3b6a:	6f74656c 	svcvs	0x0074656c
    3b6e:	006d6172 	rsbeq	r6, sp, r2, ror r1

00003b72 <Code_881>:
    3b72:	4838      	ldr	r0, [pc, #224]	; (3c54 <Code_885+0x32>)
    3b74:	6800      	ldr	r0, [r0, #0]
    3b76:	f04f 5110 	mov.w	r1, #603979776	; 0x24000000
    3b7a:	4288      	cmp	r0, r1
    3b7c:	d212      	bcs.n	3ba4 <Zweitpointertausch>
    3b7e:	4770      	bx	lr

00003b80 <Dictionary_882>:
    3b80:	00003bf6 	strdeq	r3, [r0], -r6
    3b84:	630e0000 	movwvs	r0, #57344	; 0xe000
    3b88:	69706d6f 	ldmdbvs	r0!, {r0, r1, r2, r3, r5, r6, r8, sl, fp, sp, lr}^
    3b8c:	6f74656c 	svcvs	0x0074656c
    3b90:	73616c66 	cmnvc	r1, #26112	; 0x6600
    3b94:	 	stmdami	pc!, {r3, r5, r6}	; <UNPREDICTABLE>

00003b96 <Code_882>:
    3b96:	482f      	ldr	r0, [pc, #188]	; (3c54 <Code_885+0x32>)
    3b98:	6800      	ldr	r0, [r0, #0]
    3b9a:	f04f 5110 	mov.w	r1, #603979776	; 0x24000000
    3b9e:	4288      	cmp	r0, r1
    3ba0:	d300      	bcc.n	3ba4 <Zweitpointertausch>
    3ba2:	4770      	bx	lr

00003ba4 <Zweitpointertausch>:
    3ba4:	482a      	ldr	r0, [pc, #168]	; (3c50 <Code_885+0x2e>)
    3ba6:	492e      	ldr	r1, [pc, #184]	; (3c60 <Code_885+0x3e>)
    3ba8:	6802      	ldr	r2, [r0, #0]
    3baa:	680b      	ldr	r3, [r1, #0]
    3bac:	600a      	str	r2, [r1, #0]
    3bae:	6003      	str	r3, [r0, #0]
    3bb0:	4828      	ldr	r0, [pc, #160]	; (3c54 <Code_885+0x32>)
    3bb2:	492c      	ldr	r1, [pc, #176]	; (3c64 <Code_885+0x42>)
    3bb4:	6802      	ldr	r2, [r0, #0]
    3bb6:	680b      	ldr	r3, [r1, #0]
    3bb8:	600a      	str	r2, [r1, #0]
    3bba:	6003      	str	r3, [r0, #0]
    3bbc:	4823      	ldr	r0, [pc, #140]	; (3c4c <Code_885+0x2a>)
    3bbe:	6800      	ldr	r0, [r0, #0]
    3bc0:	4283      	cmp	r3, r0
    3bc2:	d317      	bcc.n	3bf4 <Zweitpointertausch+0x50>
    3bc4:	4282      	cmp	r2, r0
    3bc6:	d315      	bcc.n	3bf4 <Zweitpointertausch+0x50>
    3bc8:	b500      	push	{lr}
    3bca:	f7ff f963 	bl	2e94 <dotgaensefuesschen>
    3bce:	61562023 	cmpvs	r6, r3, lsr #32
    3bd2:	62616972 	rsbvs	r6, r1, #1867776	; 0x1c8000
    3bd6:	2073656c 	rsbscs	r6, r3, ip, ror #10
    3bda:	6c6c6f63 	stclvs	15, cr6, [ip], #-396	; 0xfffffe74
    3bde:	20656469 	rsbcs	r6, r5, r9, ror #8
    3be2:	68746977 	ldmdavs	r4!, {r0, r1, r2, r4, r5, r6, r8, fp, sp, lr}^
    3be6:	63696420 	cmnvs	r9, #32, 8	; 0x20000000
    3bea:	6e6f6974 			; <UNDEFINED> instruction: 0x6e6f6974
    3bee:	0a797261 	beq	1e6057a <RCC_PLL1DIVR_Value+0xe302db>
    3bf2:	bd00      	pop	{pc}
    3bf4:	4770      	bx	lr

00003bf6 <Dictionary_884>:
    3bf6:	00003c10 	andeq	r3, r0, r0, lsl ip
    3bfa:	610c0000 	mrsvs	r0, (UNDEF: 12)
    3bfe:	69726464 	ldmdbvs	r2!, {r2, r5, r6, sl, sp, lr}^
    3c02:	616c666e 	cmnvs	ip, lr, ror #12
    3c06:	003f6873 	eorseq	r6, pc, r3, ror r8	; <UNPREDICTABLE>

00003c0a <Code_884>:
    3c0a:	4814      	ldr	r0, [pc, #80]	; (3c5c <Code_885+0x3a>)
    3c0c:	490e      	ldr	r1, [pc, #56]	; (3c48 <Code_885+0x26>)
    3c0e:	e00b      	b.n	3c28 <Code_885+0x6>

00003c10 <Dictionary_885>:
    3c10:	00003c6c 	andeq	r3, r0, ip, ror #24
    3c14:	610a0000 	mrsvs	r0, (UNDEF: 10)
    3c18:	69726464 	ldmdbvs	r2!, {r2, r5, r6, sl, sp, lr}^
    3c1c:	6d61726e 	sfmvs	f7, 2, [r1, #-440]!	; 0xfffffe48
    3c20:	 			; <UNDEFINED> instruction: 0xf04f003f

00003c22 <Code_885>:
    3c22:	f04f 5000 	mov.w	r0, #536870912	; 0x20000000
    3c26:	4910      	ldr	r1, [pc, #64]	; (3c68 <Code_885+0x46>)
    3c28:	4286      	cmp	r6, r0
    3c2a:	d302      	bcc.n	3c32 <Code_885+0x10>
    3c2c:	428e      	cmp	r6, r1
    3c2e:	41b6      	sbcs	r6, r6
    3c30:	4770      	bx	lr
    3c32:	2600      	movs	r6, #0
    3c34:	4770      	bx	lr
    3c36:	ffd00000 			; <UNDEFINED> instruction: 0xffd00000
    3c3a:	00182001 	andseq	r2, r8, r1
    3c3e:	ffd42000 			; <UNDEFINED> instruction: 0xffd42000
    3c42:	ffd82001 			; <UNDEFINED> instruction: 0xffd82001
    3c46:	00002001 	andeq	r2, r0, r1
    3c4a:	001c2408 	andseq	r2, ip, r8, lsl #8
    3c4e:	ffd42000 			; <UNDEFINED> instruction: 0xffd42000
    3c52:	ffd02001 			; <UNDEFINED> instruction: 0xffd02001
    3c56:	03882001 	orreq	r2, r8, #1
    3c5a:	01e42000 	mvneq	r2, r0
    3c5e:	00140000 	andseq	r0, r4, r0
    3c62:	00102000 	andseq	r2, r0, r0
    3c66:	00002000 	andeq	r2, r0, r0
    3c6a:	 	ldclcc	0, cr2, [r6, #-8]!

00003c6c <Dictionary_886>:
    3c6c:	00003d76 	andeq	r3, r0, r6, ror sp
    3c70:	28080000 	stmdacs	r8, {}	; <UNPREDICTABLE>
    3c74:	61657263 	cmnvs	r5, r3, ror #4
    3c78:	00296574 	eoreq	r6, r9, r4, ror r5

00003c7c <Code_886>:
    3c7c:	b500      	push	{lr}
    3c7e:	f000 fdc1 	bl	4804 <Code_1101>
    3c82:	2e00      	cmp	r6, #0
    3c84:	d113      	bne.n	3cae <Code_886+0x32>
    3c86:	f7ff f905 	bl	2e94 <dotgaensefuesschen>
    3c8a:	5b1b151f 	blpl	6c910e <ADC12_Common_CCR_VREFEN+0x2c910e>
    3c8e:	206d3133 	rsbcs	r3, sp, r3, lsr r1
    3c92:	61657243 	cmnvs	r5, r3, asr #4
    3c96:	6e206574 	mcrvs	5, 1, r6, cr0, cr4, {3}
    3c9a:	73646565 	cmnvc	r4, #423624704	; 0x19400000
    3c9e:	6d616e20 	stclvs	14, cr6, [r1, #-128]!	; 0xffffff80
    3ca2:	1b212065 	blne	84be3e <ADC12_Common_CCR_TSEN+0x4be3e>
    3ca6:	0a6d305b 	beq	1b4fe1a <RCC_PLL1DIVR_Value+0xb1fb7b>
    3caa:	f001 b93d 	b.w	4f28 <Code_1230>
    3cae:	6838      	ldr	r0, [r7, #0]
    3cb0:	f847 6d04 	str.w	r6, [r7, #-4]!
    3cb4:	3f04      	subs	r7, #4
    3cb6:	6038      	str	r0, [r7, #0]
    3cb8:	f000 f977 	bl	3faa <Code_933>
    3cbc:	cf40      	ldmia	r7!, {r6}
    3cbe:	2e00      	cmp	r6, #0
    3cc0:	cf40      	ldmia	r7!, {r6}
    3cc2:	d016      	beq.n	3cf2 <Code_886+0x76>
    3cc4:	6838      	ldr	r0, [r7, #0]
    3cc6:	f847 6d04 	str.w	r6, [r7, #-4]!
    3cca:	3f04      	subs	r7, #4
    3ccc:	6038      	str	r0, [r7, #0]
    3cce:	f7ff f8e1 	bl	2e94 <dotgaensefuesschen>
    3cd2:	335b1b0f 	cmpcc	fp, #15360	; 0x3c00
    3cd6:	52206d33 	eorpl	r6, r0, #3264	; 0xcc0
    3cda:	66656465 	strbtvs	r6, [r5], -r5, ror #8
    3cde:	20656e69 	rsbcs	r6, r5, r9, ror #28
    3ce2:	f7ff f92b 	bl	2f3c <Code_669>
    3ce6:	f7ff f8d5 	bl	2e94 <dotgaensefuesschen>
    3cea:	5b1b2e06 	blpl	6cf50a <ADC12_Common_CCR_VREFEN+0x2cf50a>
    3cee:	00206d30 	eoreq	r6, r0, r0, lsr sp
    3cf2:	f7ff fe1d 	bl	3930 <Code_837>
    3cf6:	4894      	ldr	r0, [pc, #592]	; (3f48 <Code_928+0x26>)
    3cf8:	6800      	ldr	r0, [r0, #0]
    3cfa:	f04f 5110 	mov.w	r1, #603979776	; 0x24000000
    3cfe:	4288      	cmp	r0, r1
    3d00:	d320      	bcc.n	3d44 <create_ram>
    3d02:	4892      	ldr	r0, [pc, #584]	; (3f4c <Code_928+0x2a>)
    3d04:	f04f 0100 	mov.w	r1, #0
    3d08:	6001      	str	r1, [r0, #0]
    3d0a:	f000 fa0a 	bl	4122 <Code_953>
    3d0e:	f847 6d04 	str.w	r6, [r7, #-4]!
    3d12:	2606      	movs	r6, #6
    3d14:	f7ff feb2 	bl	3a7c <Code_867>
    3d18:	f7fd f992 	bl	1040 <Code_209>
    3d1c:	f7ff fe7b 	bl	3a16 <Code_859>
    3d20:	488b      	ldr	r0, [pc, #556]	; (3f50 <Code_928+0x2e>)
    3d22:	6801      	ldr	r1, [r0, #0]
    3d24:	680a      	ldr	r2, [r1, #0]
    3d26:	f04f 33ff 	mov.w	r3, #4294967295	; 0xffffffff
    3d2a:	429a      	cmp	r2, r3
    3d2c:	d107      	bne.n	3d3e <Code_886+0xc2>
    3d2e:	4a86      	ldr	r2, [pc, #536]	; (3f48 <Code_928+0x26>)
    3d30:	6813      	ldr	r3, [r2, #0]
    3d32:	6011      	str	r1, [r2, #0]
    3d34:	f847 6d04 	str.w	r6, [r7, #-4]!
    3d38:	f7ff fe54 	bl	39e4 <Code_855>
    3d3c:	6013      	str	r3, [r2, #0]
    3d3e:	6006      	str	r6, [r0, #0]
    3d40:	cf40      	ldmia	r7!, {r6}
    3d42:	e013      	b.n	3d6c <create_ende>

00003d44 <create_ram>:
    3d44:	f000 f9ed 	bl	4122 <Code_953>
    3d48:	4881      	ldr	r0, [pc, #516]	; (3f50 <Code_928+0x2e>)
    3d4a:	f847 6d04 	str.w	r6, [r7, #-4]!
    3d4e:	6806      	ldr	r6, [r0, #0]
    3d50:	f7ff fe48 	bl	39e4 <Code_855>
    3d54:	f847 6d04 	str.w	r6, [r7, #-4]!
    3d58:	f64f 76ff 	movw	r6, #65535	; 0xffff
    3d5c:	f7ff fe20 	bl	39a0 <Code_849>
    3d60:	487b      	ldr	r0, [pc, #492]	; (3f50 <Code_928+0x2e>)
    3d62:	0031      	movs	r1, r6
    3d64:	cf40      	ldmia	r7!, {r6}
    3d66:	6001      	str	r1, [r0, #0]
    3d68:	f7ff fe55 	bl	3a16 <Code_859>

00003d6c <create_ende>:
    3d6c:	4876      	ldr	r0, [pc, #472]	; (3f48 <Code_928+0x26>)
    3d6e:	6801      	ldr	r1, [r0, #0]
    3d70:	4878      	ldr	r0, [pc, #480]	; (3f54 <Code_928+0x32>)
    3d72:	6001      	str	r1, [r0, #0]
    3d74:	bd00      	pop	{pc}

00003d76 <Dictionary_904>:
    3d76:	00003d8e 	andeq	r3, r0, lr, lsl #27
    3d7a:	76080000 	strvc	r0, [r8], -r0
    3d7e:	61697261 	cmnvs	r9, r1, ror #4
    3d82:	00656c62 	rsbeq	r6, r5, r2, ror #24

00003d86 <Code_904>:
    3d86:	f847 6d04 	str.w	r6, [r7, #-4]!
    3d8a:	2601      	movs	r6, #1
    3d8c:	e013      	b.n	3db6 <Code_910>

00003d8e <Dictionary_907>:
    3d8e:	00003da6 	andeq	r3, r0, r6, lsr #27
    3d92:	32090000 	andcc	r0, r9, #0
    3d96:	69726176 	ldmdbvs	r2!, {r1, r2, r4, r5, r6, r8, sp, lr}^
    3d9a:	656c6261 	strbvs	r6, [ip, #-609]!	; 0xfffffd9f

00003d9e <Code_907>:
    3d9e:	f847 6d04 	str.w	r6, [r7, #-4]!
    3da2:	2602      	movs	r6, #2
    3da4:	e007      	b.n	3db6 <Code_910>

00003da6 <Dictionary_910>:
    3da6:	00003e18 	andeq	r3, r0, r8, lsl lr
    3daa:	6e090000 	cdpvs	0, 0, cr0, cr9, cr0, {0}
    3dae:	69726176 	ldmdbvs	r2!, {r1, r2, r4, r5, r6, r8, sp, lr}^
    3db2:	656c6261 	strbvs	r6, [ip, #-609]!	; 0xfffffd9f

00003db6 <Code_910>:
    3db6:	b500      	push	{lr}
    3db8:	f7ff ff60 	bl	3c7c <Code_886>
    3dbc:	4862      	ldr	r0, [pc, #392]	; (3f48 <Code_928+0x26>)
    3dbe:	6801      	ldr	r1, [r0, #0]
    3dc0:	f04f 5210 	mov.w	r2, #603979776	; 0x24000000
    3dc4:	4291      	cmp	r1, r2
    3dc6:	d318      	bcc.n	3dfa <variable_ram>
    3dc8:	200f      	movs	r0, #15
    3dca:	4006      	ands	r6, r0
    3dcc:	00b2      	lsls	r2, r6, #2
    3dce:	f000 f84c 	bl	3e6a <prepare_var_buf_flash>
    3dd2:	0030      	movs	r0, r6
    3dd4:	cf40      	ldmia	r7!, {r6}
    3dd6:	0002      	movs	r2, r0
    3dd8:	2800      	cmp	r0, #0
    3dda:	d005      	beq.n	3de8 <Code_910+0x32>
    3ddc:	600e      	str	r6, [r1, #0]
    3dde:	3104      	adds	r1, #4
    3de0:	f7ff fe00 	bl	39e4 <Code_855>
    3de4:	3801      	subs	r0, #1
    3de6:	d1f9      	bne.n	3ddc <Code_910+0x26>
    3de8:	f847 6d04 	str.w	r6, [r7, #-4]!
    3dec:	2680      	movs	r6, #128	; 0x80
    3dee:	4316      	orrs	r6, r2
    3df0:	f7ff fd60 	bl	38b4 <Code_830>
    3df4:	f7ff fd2b 	bl	384e <Code_825>
    3df8:	bd00      	pop	{pc}

00003dfa <variable_ram>:
    3dfa:	f000 f855 	bl	3ea8 <prepare_var_buf_ram>
    3dfe:	0030      	movs	r0, r6
    3e00:	cf40      	ldmia	r7!, {r6}
    3e02:	2800      	cmp	r0, #0
    3e04:	d003      	beq.n	3e0e <finish_var_buf_ram>
    3e06:	f7ff fded 	bl	39e4 <Code_855>
    3e0a:	3801      	subs	r0, #1
    3e0c:	d1fb      	bne.n	3e06 <variable_ram+0xc>

00003e0e <finish_var_buf_ram>:
    3e0e:	f7ff fc71 	bl	36f4 <Code_796>
    3e12:	f7ff fd1c 	bl	384e <Code_825>
    3e16:	bd00      	pop	{pc}

00003e18 <Dictionary_915>:
    3e18:	00003edc 	ldrdeq	r3, [r0], -ip
    3e1c:	62070000 	andvs	r0, r7, #0
    3e20:	65666675 	strbvs	r6, [r6, #-1653]!	; 0xfffff98b
    3e24:	 	strlt	r3, [r0, #-2674]	; 0xfffff58e

00003e26 <Code_915>:
    3e26:	b500      	push	{lr}
    3e28:	f7ff ff28 	bl	3c7c <Code_886>
    3e2c:	2001      	movs	r0, #1
    3e2e:	4030      	ands	r0, r6
    3e30:	1836      	adds	r6, r6, r0
    3e32:	2002      	movs	r0, #2
    3e34:	4030      	ands	r0, r6
    3e36:	1836      	adds	r6, r6, r0
    3e38:	4843      	ldr	r0, [pc, #268]	; (3f48 <Code_928+0x26>)
    3e3a:	6801      	ldr	r1, [r0, #0]
    3e3c:	f04f 5210 	mov.w	r2, #603979776	; 0x24000000
    3e40:	4291      	cmp	r1, r2
    3e42:	d30d      	bcc.n	3e60 <rambuffer_ram>
    3e44:	0032      	movs	r2, r6
    3e46:	f000 f810 	bl	3e6a <prepare_var_buf_flash>
    3e4a:	f7ff fdcb 	bl	39e4 <Code_855>
    3e4e:	f847 6d04 	str.w	r6, [r7, #-4]!
    3e52:	f240 1640 	movw	r6, #320	; 0x140
    3e56:	f7ff fd2d 	bl	38b4 <Code_830>
    3e5a:	f7ff fcf8 	bl	384e <Code_825>
    3e5e:	bd00      	pop	{pc}

00003e60 <rambuffer_ram>:
    3e60:	f000 f822 	bl	3ea8 <prepare_var_buf_ram>
    3e64:	f7ff fe0a 	bl	3a7c <Code_867>
    3e68:	e7d1      	b.n	3e0e <finish_var_buf_ram>

00003e6a <prepare_var_buf_flash>:
    3e6a:	b500      	push	{lr}
    3e6c:	483a      	ldr	r0, [pc, #232]	; (3f58 <Code_928+0x36>)
    3e6e:	6801      	ldr	r1, [r0, #0]
    3e70:	1a89      	subs	r1, r1, r2
    3e72:	4a3a      	ldr	r2, [pc, #232]	; (3f5c <Code_928+0x3a>)
    3e74:	4291      	cmp	r1, r2
    3e76:	d210      	bcs.n	3e9a <prepare_var_buf_flash+0x30>
    3e78:	f7ff f80c 	bl	2e94 <dotgaensefuesschen>
    3e7c:	5b1b1519 	blpl	6c92e8 <ADC12_Common_CCR_VREFEN+0x2c92e8>
    3e80:	4e6d3133 	mcrmi	1, 3, r3, cr13, cr3, {1}
    3e84:	6520746f 	strvs	r7, [r0, #-1135]!	; 0xfffffb91
    3e88:	67756f6e 	ldrbvs	r6, [r5, -lr, ror #30]!
    3e8c:	41522068 	cmpmi	r2, r8, rrx
    3e90:	305b1b4d 	subscc	r1, fp, sp, asr #22
    3e94:	f0010a6d 			; <UNDEFINED> instruction: 0xf0010a6d
    3e98:	b847      			; <UNDEFINED> instruction: 0xb847
    3e9a:	6001      	str	r1, [r0, #0]
    3e9c:	f847 6d04 	str.w	r6, [r7, #-4]!
    3ea0:	000e      	movs	r6, r1
    3ea2:	f7ff faa1 	bl	33e8 <Code_735>
    3ea6:	e012      	b.n	3ece <bx_lr_komma>

00003ea8 <prepare_var_buf_ram>:
    3ea8:	b500      	push	{lr}
    3eaa:	f000 f93a 	bl	4122 <Code_953>
    3eae:	2002      	movs	r0, #2
    3eb0:	4006      	ands	r6, r0
    3eb2:	cf40      	ldmia	r7!, {r6}
    3eb4:	d101      	bne.n	3eba <prepare_var_buf_ram+0x12>
    3eb6:	f7ff fd65 	bl	3984 <nop_hkomma>
    3eba:	f847 6d04 	str.w	r6, [r7, #-4]!
    3ebe:	4e28      	ldr	r6, [pc, #160]	; (3f60 <Code_928+0x3e>)
    3ec0:	f7ff fd9e 	bl	3a00 <Code_858>
    3ec4:	f847 6d04 	str.w	r6, [r7, #-4]!
    3ec8:	4e26      	ldr	r6, [pc, #152]	; (3f64 <Code_928+0x42>)
    3eca:	f7ff fd99 	bl	3a00 <Code_858>

00003ece <bx_lr_komma>:
    3ece:	f847 6d04 	str.w	r6, [r7, #-4]!
    3ed2:	f244 7670 	movw	r6, #18288	; 0x4770
    3ed6:	f7ff fd63 	bl	39a0 <Code_849>
    3eda:	bd00      	pop	{pc}

00003edc <Dictionary_926>:
    3edc:	00003f0c 	andeq	r3, r0, ip, lsl #30
    3ee0:	640f0000 	strvs	r0, [pc], #-0	; 3ee8 <Dictionary_926+0xc>
    3ee4:	69746369 	ldmdbvs	r4!, {r0, r3, r5, r6, r8, r9, sp, lr}^
    3ee8:	72616e6f 	rsbvc	r6, r1, #1776	; 0x6f0
    3eec:	61747379 	cmnvs	r4, r9, ror r3
    3ef0:	 	ldmdami	r5, {r1, r4, r5, r6, sl, ip, sp, lr}

00003ef2 <Code_926>:
    3ef2:	4815      	ldr	r0, [pc, #84]	; (3f48 <Code_928+0x26>)
    3ef4:	6800      	ldr	r0, [r0, #0]
    3ef6:	f04f 5110 	mov.w	r1, #603979776	; 0x24000000
    3efa:	f847 6d04 	str.w	r6, [r7, #-4]!
    3efe:	4288      	cmp	r0, r1
    3f00:	d301      	bcc.n	3f06 <Code_926+0x14>
    3f02:	4e19      	ldr	r6, [pc, #100]	; (3f68 <Code_928+0x46>)
    3f04:	4770      	bx	lr
    3f06:	4e12      	ldr	r6, [pc, #72]	; (3f50 <Code_928+0x2e>)
    3f08:	6836      	ldr	r6, [r6, #0]
    3f0a:	4770      	bx	lr

00003f0c <Dictionary_928>:
    3f0c:	00003f6c 	andeq	r3, r0, ip, ror #30
    3f10:	640e0000 	strvs	r0, [lr], #-0
    3f14:	69746369 	ldmdbvs	r4!, {r0, r3, r5, r6, r8, r9, sp, lr}^
    3f18:	72616e6f 	rsbvc	r6, r1, #1776	; 0x6f0
    3f1c:	78656e79 	stmdavc	r5!, {r0, r3, r4, r5, r6, r9, sl, fp, sp, lr}^
    3f20:	 	strlt	r0, [r3, #-116]	; 0xffffff8c

00003f22 <Code_928>:
    3f22:	b503      	push	{r0, r1, lr}
    3f24:	6831      	ldr	r1, [r6, #0]
    3f26:	f04f 30ff 	mov.w	r0, #4294967295	; 0xffffffff
    3f2a:	4281      	cmp	r1, r0
    3f2c:	d007      	beq.n	3f3e <Code_928+0x1c>
    3f2e:	7988      	ldrb	r0, [r1, #6]
    3f30:	28ff      	cmp	r0, #255	; 0xff
    3f32:	d004      	beq.n	3f3e <Code_928+0x1c>
    3f34:	000e      	movs	r6, r1
    3f36:	f847 6d04 	str.w	r6, [r7, #-4]!
    3f3a:	2600      	movs	r6, #0
    3f3c:	bd03      	pop	{r0, r1, pc}
    3f3e:	f847 6d04 	str.w	r6, [r7, #-4]!
    3f42:	2600      	movs	r6, #0
    3f44:	43f6      	mvns	r6, r6
    3f46:	bd03      	pop	{r0, r1, pc}
    3f48:	2001ffd0 	ldrdcs	pc, [r1], -r0
    3f4c:	20000018 	andcs	r0, r0, r8, lsl r0
    3f50:	2001ffd4 	ldrdcs	pc, [r1], -r4
    3f54:	2000000c 	andcs	r0, r0, ip
    3f58:	2000001c 	andcs	r0, r0, ip, lsl r0
    3f5c:	20000388 	andcs	r0, r0, r8, lsl #7
    3f60:	3f04603e 	svccc	0x0004603e
    3f64:	467e3602 	ldrbtmi	r3, [lr], -r2, lsl #12
    3f68:	000001e4 	andeq	r0, r0, r4, ror #3

00003f6c <Dictionary_932>:
    3f6c:	00003f9e 	muleq	r0, lr, pc	; <UNPREDICTABLE>
    3f70:	730a0000 	movwvc	r0, #40960	; 0xa000
    3f74:	7370696b 	cmnvc	r0, #1753088	; 0x1ac000
    3f78:	6e697274 	mcrvs	2, 3, r7, cr9, cr4, {3}
    3f7c:	 	ldmdavc	r1!, {r0, r1, r2, r5, r6}

00003f7e <Code_932>:
    3f7e:	7831      	ldrb	r1, [r6, #0]
    3f80:	3101      	adds	r1, #1
    3f82:	2201      	movs	r2, #1
    3f84:	400a      	ands	r2, r1
    3f86:	1889      	adds	r1, r1, r2
    3f88:	1876      	adds	r6, r6, r1
    3f8a:	4770      	bx	lr

00003f8c <skipstring>:
    3f8c:	b406      	push	{r1, r2}
    3f8e:	7801      	ldrb	r1, [r0, #0]
    3f90:	3101      	adds	r1, #1
    3f92:	2201      	movs	r2, #1
    3f94:	400a      	ands	r2, r1
    3f96:	1889      	adds	r1, r1, r2
    3f98:	1840      	adds	r0, r0, r1
    3f9a:	bc06      	pop	{r1, r2}
    3f9c:	4770      	bx	lr

00003f9e <Dictionary_933>:
    3f9e:	00003fb0 			; <UNDEFINED> instruction: 0x00003fb0
    3fa2:	66040000 	strvs	r0, [r4], -r0
    3fa6:	00646e69 	rsbeq	r6, r4, r9, ror #28

00003faa <Code_933>:
    3faa:	4830      	ldr	r0, [pc, #192]	; (406c <find_not_found+0x1a>)
    3fac:	6800      	ldr	r0, [r0, #0]
    3fae:	4687      	mov	pc, r0

00003fb0 <Dictionary_934>:
    3fb0:	00003fcc 	andeq	r3, r0, ip, asr #31
    3fb4:	68090081 	stmdavs	r9, {r0, r7}
    3fb8:	2d6b6f6f 	stclcs	15, cr6, [fp, #-444]!	; 0xfffffe44
    3fbc:	646e6966 	strbtvs	r6, [lr], #-2406	; 0xfffff69a

00003fc0 <Code_934>:
    3fc0:	f847 6d04 	str.w	r6, [r7, #-4]!
    3fc4:	4e2a      	ldr	r6, [pc, #168]	; (4070 <find_not_found+0x1e>)
    3fc6:	4770      	bx	lr
    3fc8:	00003fda 	ldrdeq	r3, [r0], -sl

00003fcc <Dictionary_937>:
    3fcc:	00004074 	andeq	r4, r0, r4, ror r0
    3fd0:	28060000 	stmdacs	r6, {}	; <UNPREDICTABLE>
    3fd4:	646e6966 	strbtvs	r6, [lr], #-2406	; 0xfffff69a
    3fd8:	 	ldrlt	r0, [r0, #-41]!	; 0xffffffd7

00003fda <Code_937>:
    3fda:	b530      	push	{r4, r5, lr}
    3fdc:	2000      	movs	r0, #0
    3fde:	2100      	movs	r1, #0
    3fe0:	b403      	push	{r0, r1}
    3fe2:	0035      	movs	r5, r6
    3fe4:	cf40      	ldmia	r7!, {r6}
    3fe6:	0034      	movs	r4, r6
    3fe8:	cf40      	ldmia	r7!, {r6}
    3fea:	f7ff ff82 	bl	3ef2 <Code_926>
    3fee:	f64f 70ff 	movw	r0, #65535	; 0xffff
    3ff2:	88b1      	ldrh	r1, [r6, #4]
    3ff4:	4288      	cmp	r0, r1
    3ff6:	d01e      	beq.n	4036 <ADC1_CFGR2_RSHIFT4+0x36>
    3ff8:	79b1      	ldrb	r1, [r6, #6]
    3ffa:	42a9      	cmp	r1, r5
    3ffc:	d11b      	bne.n	4036 <ADC1_CFGR2_RSHIFT4+0x36>
    3ffe:	1df0      	adds	r0, r6, #7
    4000:	3901      	subs	r1, #1
    4002:	5c42      	ldrb	r2, [r0, r1]
    4004:	5c63      	ldrb	r3, [r4, r1]
    4006:	2a41      	cmp	r2, #65	; 0x41
    4008:	d302      	bcc.n	4010 <ADC1_CFGR2_RSHIFT4+0x10>
    400a:	2a5b      	cmp	r2, #91	; 0x5b
    400c:	bf38      	it	cc
    400e:	3220      	addcc	r2, #32
    4010:	2b41      	cmp	r3, #65	; 0x41
    4012:	d302      	bcc.n	401a <ADC1_CFGR2_RSHIFT4+0x1a>
    4014:	2b5b      	cmp	r3, #91	; 0x5b
    4016:	bf38      	it	cc
    4018:	3320      	addcc	r3, #32
    401a:	429a      	cmp	r2, r3
    401c:	d10b      	bne.n	4036 <ADC1_CFGR2_RSHIFT4+0x36>
    401e:	2900      	cmp	r1, #0
    4020:	d1ee      	bne.n	4000 <ADC1_CFGR2_RSHIFT4>
    4022:	b002      	add	sp, #8
    4024:	1db0      	adds	r0, r6, #6
    4026:	f7ff ffb1 	bl	3f8c <skipstring>
    402a:	88b1      	ldrh	r1, [r6, #4]
    402c:	b403      	push	{r0, r1}
    402e:	f04f 5010 	mov.w	r0, #603979776	; 0x24000000
    4032:	4286      	cmp	r6, r0
    4034:	d307      	bcc.n	4046 <ADC1_CFGR2_RSHIFT4+0x46>
    4036:	6836      	ldr	r6, [r6, #0]
    4038:	f04f 30ff 	mov.w	r0, #4294967295	; 0xffffffff
    403c:	4286      	cmp	r6, r0
    403e:	d002      	beq.n	4046 <ADC1_CFGR2_RSHIFT4+0x46>
    4040:	79b0      	ldrb	r0, [r6, #6]
    4042:	28ff      	cmp	r0, #255	; 0xff
    4044:	d1d3      	bne.n	3fee <Code_937+0x14>
    4046:	bc03      	pop	{r0, r1}
    4048:	0006      	movs	r6, r0
    404a:	f847 6d04 	str.w	r6, [r7, #-4]!
    404e:	000e      	movs	r6, r1
    4050:	bd30      	pop	{r4, r5, pc}

00004052 <find_not_found>:
    4052:	b500      	push	{lr}
    4054:	0031      	movs	r1, r6
    4056:	6838      	ldr	r0, [r7, #0]
    4058:	b403      	push	{r0, r1}
    405a:	f7ff ffa6 	bl	3faa <Code_933>
    405e:	bc03      	pop	{r0, r1}
    4060:	683a      	ldr	r2, [r7, #0]
    4062:	2a00      	cmp	r2, #0
    4064:	d101      	bne.n	406a <find_not_found+0x18>
    4066:	f000 ff03 	bl	4e70 <not_found_addr_r0_len_r1>
    406a:	bd00      	pop	{pc}
    406c:	2001ffcc 	andcs	pc, r1, ip, asr #31
    4070:	2001ffcc 	andcs	pc, r1, ip, asr #31

00004074 <Dictionary_944>:
    4074:	000040dc 	ldrdeq	r4, [r0], -ip
    4078:	63060000 	movwvs	r0, #24576	; 0x6000
    407c:	706d756a 	rsbvc	r7, sp, sl, ror #10
    4080:	 	eorseq	r0, r2, ip, lsr #32

00004082 <Code_944>:
    4082:	0032      	movs	r2, r6
    4084:	cf40      	ldmia	r7!, {r6}
    4086:	0031      	movs	r1, r6
    4088:	cf40      	ldmia	r7!, {r6}
    408a:	1b8b      	subs	r3, r1, r6
    408c:	3b04      	subs	r3, #4
    408e:	f06f 01fe 	mvn.w	r1, #254	; 0xfe
    4092:	4019      	ands	r1, r3
    4094:	2900      	cmp	r1, #0
    4096:	d013      	beq.n	40c0 <jump_too_far+0x20>
    4098:	f06f 00ff 	mvn.w	r0, #255	; 0xff
    409c:	4281      	cmp	r1, r0
    409e:	d00f      	beq.n	40c0 <jump_too_far+0x20>

000040a0 <jump_too_far>:
    40a0:	f7fe fef8 	bl	2e94 <dotgaensefuesschen>
    40a4:	5b1b1517 	blpl	6c9508 <ADC12_Common_CCR_VREFEN+0x2c9508>
    40a8:	4a6d3133 	bmi	1b5057c <RCC_PLL1DIVR_Value+0xb202dd>
    40ac:	20706d75 	rsbscs	r6, r0, r5, ror sp
    40b0:	206f6f74 	rsbcs	r6, pc, r4, ror pc	; <UNPREDICTABLE>
    40b4:	1b726166 	blne	1c9c654 <RCC_PLL1DIVR_Value+0xc6c3b5>
    40b8:	0a6d305b 	beq	1b5022c <RCC_PLL1DIVR_Value+0xb1ff8d>
    40bc:	f000 bf34 	b.w	4f28 <Code_1230>
    40c0:	105b      	asrs	r3, r3, #1
    40c2:	21ff      	movs	r1, #255	; 0xff
    40c4:	400b      	ands	r3, r1
    40c6:	4313      	orrs	r3, r2
    40c8:	0030      	movs	r0, r6
    40ca:	001e      	movs	r6, r3

000040cc <sprungbefehl_einfuegen>:
    40cc:	b500      	push	{lr}
    40ce:	4ace      	ldr	r2, [pc, #824]	; (4408 <Code_1007+0xe>)
    40d0:	6813      	ldr	r3, [r2, #0]
    40d2:	6010      	str	r0, [r2, #0]
    40d4:	f7ff fc64 	bl	39a0 <Code_849>
    40d8:	6013      	str	r3, [r2, #0]
    40da:	bd00      	pop	{pc}

000040dc <Dictionary_948>:
    40dc:	00004116 	andeq	r4, r0, r6, lsl r1
    40e0:	6a050000 	bvs	1440e8 <ADC12_Common_CSR_OVR_SLV+0x440e8>
    40e4:	2c706d75 	ldclcs	13, cr6, [r0], #-468	; 0xfffffe2c

000040e8 <Code_948>:
    40e8:	0031      	movs	r1, r6
    40ea:	cf40      	ldmia	r7!, {r6}
    40ec:	0030      	movs	r0, r6
    40ee:	cf40      	ldmia	r7!, {r6}
    40f0:	1a0b      	subs	r3, r1, r0
    40f2:	3b04      	subs	r3, #4
    40f4:	49c5      	ldr	r1, [pc, #788]	; (440c <Code_1007+0x12>)
    40f6:	4019      	ands	r1, r3
    40f8:	2900      	cmp	r1, #0
    40fa:	d002      	beq.n	4102 <Code_948+0x1a>
    40fc:	4ac4      	ldr	r2, [pc, #784]	; (4410 <Code_1007+0x16>)
    40fe:	4291      	cmp	r1, r2
    4100:	d1ce      	bne.n	40a0 <jump_too_far>
    4102:	105b      	asrs	r3, r3, #1
    4104:	f240 72ff 	movw	r2, #2047	; 0x7ff
    4108:	4013      	ands	r3, r2
    410a:	f453 4360 	orrs.w	r3, r3, #57344	; 0xe000
    410e:	f847 6d04 	str.w	r6, [r7, #-4]!
    4112:	001e      	movs	r6, r3
    4114:	e7da      	b.n	40cc <sprungbefehl_einfuegen>

00004116 <Dictionary_953>:
    4116:	0000412c 	andeq	r4, r0, ip, lsr #2
    411a:	68040000 	stmdavs	r4, {}	; <UNPREDICTABLE>
    411e:	00657265 	rsbeq	r7, r5, r5, ror #4

00004122 <Code_953>:
    4122:	f847 6d04 	str.w	r6, [r7, #-4]!
    4126:	4eb8      	ldr	r6, [pc, #736]	; (4408 <Code_1007+0xe>)
    4128:	6836      	ldr	r6, [r6, #0]
    412a:	4770      	bx	lr

0000412c <Dictionary_955>:
    412c:	0000425a 	andeq	r4, r0, sl, asr r2
    4130:	660d0000 	strvs	r0, [sp], -r0
    4134:	6873616c 	ldmdavs	r3!, {r2, r3, r5, r6, r8, sp, lr}^
    4138:	2d726176 	ldfcse	f6, [r2, #-472]!	; 0xfffffe28
    413c:	65726568 	ldrbvs	r6, [r2, #-1384]!	; 0xfffffa98

00004140 <Code_955>:
    4140:	f847 6d04 	str.w	r6, [r7, #-4]!
    4144:	4eb3      	ldr	r6, [pc, #716]	; (4414 <Code_1007+0x1a>)
    4146:	6836      	ldr	r6, [r6, #0]
    4148:	4770      	bx	lr

0000414a <nullprobekomma>:
    414a:	b500      	push	{lr}
    414c:	f847 6d04 	str.w	r6, [r7, #-4]!
    4150:	f642 6600 	movw	r6, #11776	; 0x2e00
    4154:	f7ff fc24 	bl	39a0 <Code_849>
    4158:	f7ff fc18 	bl	398c <drop_hkomma>
    415c:	bd00      	pop	{pc}

0000415e <branch_r>:
    415e:	e7e0      	b.n	4122 <Code_953>

00004160 <r_branch_jne>:
    4160:	b500      	push	{lr}
    4162:	f000 f83a 	bl	41da <branch_v>
    4166:	6839      	ldr	r1, [r7, #0]
    4168:	603e      	str	r6, [r7, #0]
    416a:	460e      	mov	r6, r1
    416c:	f847 6d04 	str.w	r6, [r7, #-4]!
    4170:	f24d 1600 	movw	r6, #53504	; 0xd100
    4174:	f7ff ff85 	bl	4082 <Code_944>
    4178:	bd00      	pop	{pc}

0000417a <r_branch_jvc>:
    417a:	b500      	push	{lr}
    417c:	f000 f82d 	bl	41da <branch_v>
    4180:	6839      	ldr	r1, [r7, #0]
    4182:	603e      	str	r6, [r7, #0]
    4184:	460e      	mov	r6, r1
    4186:	f847 6d04 	str.w	r6, [r7, #-4]!
    418a:	f24d 7600 	movw	r6, #55040	; 0xd700
    418e:	f7ff ff78 	bl	4082 <Code_944>
    4192:	bd00      	pop	{pc}

00004194 <r_nullbranch>:
    4194:	b500      	push	{lr}
    4196:	f7ff ffd8 	bl	414a <nullprobekomma>
    419a:	f000 f81e 	bl	41da <branch_v>
    419e:	6839      	ldr	r1, [r7, #0]
    41a0:	603e      	str	r6, [r7, #0]
    41a2:	460e      	mov	r6, r1
    41a4:	f847 6d04 	str.w	r6, [r7, #-4]!
    41a8:	f24d 0600 	movw	r6, #53248	; 0xd000
    41ac:	f7ff ff69 	bl	4082 <Code_944>
    41b0:	bd00      	pop	{pc}

000041b2 <r_branch>:
    41b2:	b500      	push	{lr}
    41b4:	f000 f811 	bl	41da <branch_v>
    41b8:	6839      	ldr	r1, [r7, #0]
    41ba:	603e      	str	r6, [r7, #0]
    41bc:	460e      	mov	r6, r1
    41be:	f7ff ff93 	bl	40e8 <Code_948>
    41c2:	bd00      	pop	{pc}

000041c4 <nullbranch_v>:
    41c4:	b500      	push	{lr}
    41c6:	f7ff ffc0 	bl	414a <nullprobekomma>
    41ca:	f7ff ffaa 	bl	4122 <Code_953>
    41ce:	f847 6d04 	str.w	r6, [r7, #-4]!
    41d2:	2602      	movs	r6, #2
    41d4:	f7ff fc52 	bl	3a7c <Code_867>
    41d8:	bd00      	pop	{pc}

000041da <branch_v>:
    41da:	b500      	push	{lr}
    41dc:	f7ff ffa1 	bl	4122 <Code_953>
    41e0:	f847 6d04 	str.w	r6, [r7, #-4]!
    41e4:	2602      	movs	r6, #2
    41e6:	f7ff fc49 	bl	3a7c <Code_867>
    41ea:	bd00      	pop	{pc}

000041ec <v_branch>:
    41ec:	b500      	push	{lr}
    41ee:	f7ff ff98 	bl	4122 <Code_953>
    41f2:	f7ff ff79 	bl	40e8 <Code_948>
    41f6:	bd00      	pop	{pc}

000041f8 <v_nullbranch>:
    41f8:	b500      	push	{lr}
    41fa:	f7ff ff92 	bl	4122 <Code_953>
    41fe:	f847 6d04 	str.w	r6, [r7, #-4]!
    4202:	f24d 0600 	movw	r6, #53248	; 0xd000
    4206:	f7ff ff3c 	bl	4082 <Code_944>
    420a:	bd00      	pop	{pc}

0000420c <v_casebranch>:
    420c:	b500      	push	{lr}
    420e:	f7ff ff88 	bl	4122 <Code_953>
    4212:	f847 6d04 	str.w	r6, [r7, #-4]!
    4216:	f24d 1600 	movw	r6, #53504	; 0xd100
    421a:	f7ff ff32 	bl	4082 <Code_944>
    421e:	bd00      	pop	{pc}

00004220 <allocator_nullsprungprobe>:
    4220:	b500      	push	{lr}
    4222:	f7fc f959 	bl	4d8 <expect_one_element>
    4226:	f7fc f891 	bl	34c <tidyup_register_allocator_5os>
    422a:	f7fc f894 	bl	356 <tidyup_register_allocator_4os>
    422e:	f7fc f897 	bl	360 <tidyup_register_allocator_3os>
    4232:	6881      	ldr	r1, [r0, #8]
    4234:	2928      	cmp	r1, #40	; 0x28
    4236:	d101      	bne.n	423c <allocator_nullsprungprobe+0x1c>
    4238:	f7fc f994 	bl	564 <expect_nos_in_register>
    423c:	f7fc f988 	bl	550 <expect_tos_in_register>
    4240:	f847 6d04 	str.w	r6, [r7, #-4]!
    4244:	f642 0600 	movw	r6, #10240	; 0x2800
    4248:	0209      	lsls	r1, r1, #8
    424a:	430e      	orrs	r6, r1
    424c:	f7ff fba8 	bl	39a0 <Code_849>
    4250:	f7fc f845 	bl	2de <eliminiere_tos>
    4254:	f7fc f86e 	bl	334 <tidyup_register_allocator>
    4258:	bd00      	pop	{pc}

0000425a <Dictionary_979>:
    425a:	00004286 	andeq	r4, r0, r6, lsl #5
    425e:	74040030 	strvc	r0, [r4], #-48	; 0xffffffd0
    4262:	006e6568 	rsbeq	r6, lr, r8, ror #10

00004266 <Code_979>:
    4266:	2e05      	cmp	r6, #5
    4268:	d101      	bne.n	426e <Code_979+0x8>
    426a:	cf40      	ldmia	r7!, {r6}
    426c:	e7be      	b.n	41ec <v_branch>
    426e:	b2f1      	uxtb	r1, r6
    4270:	2900      	cmp	r1, #0
    4272:	d16d      	bne.n	4350 <strukturen_passen_nicht>
    4274:	b500      	push	{lr}
    4276:	f7ff ff54 	bl	4122 <Code_953>
    427a:	6839      	ldr	r1, [r7, #0]
    427c:	603e      	str	r6, [r7, #0]
    427e:	460e      	mov	r6, r1
    4280:	f7ff feff 	bl	4082 <Code_944>
    4284:	bd00      	pop	{pc}

00004286 <Dictionary_982>:
    4286:	000042a2 	andeq	r4, r0, r2, lsr #5
    428a:	65040030 	strvs	r0, [r4, #-48]	; 0xffffffd0
    428e:	0065736c 	rsbeq	r7, r5, ip, ror #6

00004292 <Code_982>:
    4292:	b500      	push	{lr}
    4294:	f000 f836 	bl	4304 <Code_991>
    4298:	f7fc f9e9 	bl	66e <Code_71>
    429c:	f7ff ffe3 	bl	4266 <Code_979>
    42a0:	bd00      	pop	{pc}

000042a2 <Dictionary_983>:
    42a2:	000042f8 	strdeq	r4, [r0], -r8
    42a6:	69020630 	stmdbvs	r2, {r4, r5, r9, sl}
    42aa:	 	strlt	r0, [r0, #-102]	; 0xffffff9a

000042ac <Code_983>:
    42ac:	b500      	push	{lr}
    42ae:	f7ff ff89 	bl	41c4 <nullbranch_v>
    42b2:	f847 6d04 	str.w	r6, [r7, #-4]!
    42b6:	f24d 0600 	movw	r6, #53248	; 0xd000
    42ba:	bd00      	pop	{pc}

000042bc <struktur_if_allokator>:
    42bc:	b500      	push	{lr}
    42be:	f7fc f99e 	bl	5fe <push_lr_nachholen>
    42c2:	f7fd fa70 	bl	17a6 <eliminiere_tos_wenn_bmi>
    42c6:	6a81      	ldr	r1, [r0, #40]	; 0x28
    42c8:	2900      	cmp	r1, #0
    42ca:	d007      	beq.n	42dc <struktur_if_allokator+0x20>
    42cc:	b402      	push	{r1}
    42ce:	f7fc f831 	bl	334 <tidyup_register_allocator>
    42d2:	f7ff ff82 	bl	41da <branch_v>
    42d6:	f847 6d04 	str.w	r6, [r7, #-4]!
    42da:	bd40      	pop	{r6, pc}
    42dc:	f7ff ffa0 	bl	4220 <allocator_nullsprungprobe>
    42e0:	f7ff ff1f 	bl	4122 <Code_953>
    42e4:	f847 6d04 	str.w	r6, [r7, #-4]!
    42e8:	2602      	movs	r6, #2
    42ea:	f7ff fbc7 	bl	3a7c <Code_867>
    42ee:	f847 6d04 	str.w	r6, [r7, #-4]!
    42f2:	f24d 0600 	movw	r6, #53248	; 0xd000
    42f6:	bd00      	pop	{pc}

000042f8 <Dictionary_991>:
    42f8:	00004312 	andeq	r4, r0, r2, lsl r3
    42fc:	61050030 	tstvs	r5, r0, lsr r0
    4300:	64616568 	strbtvs	r6, [r1], #-1384	; 0xfffffa98

00004304 <Code_991>:
    4304:	b500      	push	{lr}
    4306:	f7ff ff68 	bl	41da <branch_v>
    430a:	f847 6d04 	str.w	r6, [r7, #-4]!
    430e:	2605      	movs	r6, #5
    4310:	bd00      	pop	{pc}

00004312 <Dictionary_994>:
    4312:	0000432c 	andeq	r4, r0, ip, lsr #6
    4316:	72060030 	andvc	r0, r6, #48	; 0x30
    431a:	61657065 	cmnvs	r5, r5, rrx
    431e:	 	strlt	r0, [r0, #-116]	; 0xffffff8c

00004320 <Code_994>:
    4320:	b500      	push	{lr}
    4322:	f000 f860 	bl	43e6 <Code_1005>
    4326:	f7ff ff9e 	bl	4266 <Code_979>
    432a:	bd00      	pop	{pc}

0000432c <Dictionary_995>:
    432c:	0000437a 	andeq	r4, r0, sl, ror r3
    4330:	77050630 	smladxvc	r5, r0, r6, r0
    4334:	656c6968 	strbvs	r6, [ip, #-2408]!	; 0xfffff698

00004338 <Code_995>:
    4338:	b500      	push	{lr}
    433a:	f7ff ffb7 	bl	42ac <Code_983>
    433e:	f7fc f996 	bl	66e <Code_71>
    4342:	bd00      	pop	{pc}
    4344:	b500      	push	{lr}
    4346:	f7ff ffb9 	bl	42bc <struktur_if_allokator>
    434a:	f7fc f990 	bl	66e <Code_71>
    434e:	bd00      	pop	{pc}

00004350 <strukturen_passen_nicht>:
    4350:	f7fe fda0 	bl	2e94 <dotgaensefuesschen>
    4354:	5b1b1521 	blpl	6c97e0 <ADC12_Common_CCR_VREFEN+0x2c97e0>
    4358:	536d3133 	cmnpl	sp, #-1073741812	; 0xc000000c
    435c:	63757274 	cmnvs	r5, #116, 4	; 0x40000007
    4360:	65727574 	ldrbvs	r7, [r2, #-1396]!	; 0xfffffa8c
    4364:	6f642073 	svcvs	0x00642073
    4368:	2074276e 	rsbscs	r2, r4, lr, ror #14
    436c:	6374616d 	cmnvs	r4, #1073741851	; 0x4000001b
    4370:	305b1b68 	subscc	r1, fp, r8, ror #22
    4374:	f0000a6d 			; <UNDEFINED> instruction: 0xf0000a6d
    4378:	bdd7      	pop	{r0, r1, r2, r4, r6, r7, pc}

0000437a <Dictionary_997>:
    437a:	000043da 	ldrdeq	r4, [r0], -sl
    437e:	75050630 	strvc	r0, [r5, #-1584]	; 0xfffff9d0
    4382:	6c69746e 	cfstrdvs	mvd7, [r9], #-440	; 0xfffffe48

00004386 <Code_997>:
    4386:	2e01      	cmp	r6, #1
    4388:	d1e2      	bne.n	4350 <strukturen_passen_nicht>
    438a:	cf40      	ldmia	r7!, {r6}
    438c:	e702      	b.n	4194 <r_nullbranch>
    438e:	4770      	bx	lr
    4390:	2e01      	cmp	r6, #1
    4392:	d1dd      	bne.n	4350 <strukturen_passen_nicht>
    4394:	cf40      	ldmia	r7!, {r6}
    4396:	b500      	push	{lr}
    4398:	f7fd fa05 	bl	17a6 <eliminiere_tos_wenn_bmi>
    439c:	6a81      	ldr	r1, [r0, #40]	; 0x28
    439e:	2900      	cmp	r1, #0
    43a0:	d00d      	beq.n	43be <Code_997+0x38>
    43a2:	b402      	push	{r1}
    43a4:	f7fb ffc6 	bl	334 <tidyup_register_allocator>
    43a8:	f7ff ff17 	bl	41da <branch_v>
    43ac:	6839      	ldr	r1, [r7, #0]
    43ae:	603e      	str	r6, [r7, #0]
    43b0:	460e      	mov	r6, r1
    43b2:	f847 6d04 	str.w	r6, [r7, #-4]!
    43b6:	bc40      	pop	{r6}
    43b8:	f7ff fe63 	bl	4082 <Code_944>
    43bc:	bd00      	pop	{pc}
    43be:	f7ff ff2f 	bl	4220 <allocator_nullsprungprobe>
    43c2:	f7ff ff0a 	bl	41da <branch_v>
    43c6:	6839      	ldr	r1, [r7, #0]
    43c8:	603e      	str	r6, [r7, #0]
    43ca:	460e      	mov	r6, r1
    43cc:	f847 6d04 	str.w	r6, [r7, #-4]!
    43d0:	f24d 0600 	movw	r6, #53248	; 0xd000
    43d4:	f7ff fe55 	bl	4082 <Code_944>
    43d8:	bd00      	pop	{pc}

000043da <Dictionary_1005>:
    43da:	000043ee 	andeq	r4, r0, lr, ror #7
    43de:	61050030 	tstvs	r5, r0, lsr r0
    43e2:	6e696167 	powvsez	f6, f1, f7

000043e6 <Code_1005>:
    43e6:	2e01      	cmp	r6, #1
    43e8:	d1b2      	bne.n	4350 <strukturen_passen_nicht>
    43ea:	cf40      	ldmia	r7!, {r6}
    43ec:	e6e1      	b.n	41b2 <r_branch>

000043ee <Dictionary_1007>:
    43ee:	00004418 	andeq	r4, r0, r8, lsl r4
    43f2:	62050030 	andvs	r0, r5, #48	; 0x30
    43f6:	6e696765 	cdpvs	7, 6, cr6, cr9, cr5, {3}

000043fa <Code_1007>:
    43fa:	b500      	push	{lr}
    43fc:	f7ff feaf 	bl	415e <branch_r>
    4400:	f847 6d04 	str.w	r6, [r7, #-4]!
    4404:	2601      	movs	r6, #1
    4406:	bd00      	pop	{pc}
    4408:	2001ffd0 	ldrdcs	pc, [r1], -r0
    440c:	fffff801 			; <UNDEFINED> instruction: 0xfffff801
    4410:	fffff800 			; <UNDEFINED> instruction: 0xfffff800
    4414:	2000001c 	andcs	r0, r0, ip, lsl r0

00004418 <Dictionary_1010>:
    4418:	00004432 	andeq	r4, r0, r2, lsr r4
    441c:	6b010220 	blvs	44ca4 <ADC12_Common_CSR_EOC_SLV+0x4ca4>

00004420 <Code_1010>:
    4420:	f847 6d04 	str.w	r6, [r7, #-4]!
    4424:	9e02      	ldr	r6, [sp, #8]
    4426:	4770      	bx	lr
    4428:	f847 6d04 	str.w	r6, [r7, #-4]!
    442c:	f649 0602 	movw	r6, #38914	; 0x9802
    4430:	e00b      	b.n	444a <loop_j_allocator>

00004432 <Dictionary_1014>:
    4432:	00004460 	andeq	r4, r0, r0, ror #8
    4436:	6a010220 	bvs	44cbe <ADC12_Common_CSR_EOC_SLV+0x4cbe>

0000443a <Code_1014>:
    443a:	f847 6d04 	str.w	r6, [r7, #-4]!
    443e:	9e00      	ldr	r6, [sp, #0]
    4440:	4770      	bx	lr

00004442 <rfetch_allocator>:
    4442:	f847 6d04 	str.w	r6, [r7, #-4]!
    4446:	f649 0600 	movw	r6, #38912	; 0x9800

0000444a <loop_j_allocator>:
    444a:	b500      	push	{lr}
    444c:	f7fb ff3d 	bl	2ca <befreie_tos>
    4450:	f7fc f80e 	bl	470 <get_free_register>
    4454:	6003      	str	r3, [r0, #0]
    4456:	021b      	lsls	r3, r3, #8
    4458:	431e      	orrs	r6, r3
    445a:	f7ff faa1 	bl	39a0 <Code_849>
    445e:	bd00      	pop	{pc}

00004460 <Dictionary_1018>:
    4460:	0000448c 	andeq	r4, r0, ip, lsl #9
    4464:	69010220 	stmdbvs	r1, {r5, r9}

00004468 <Code_1018>:
    4468:	f847 6d04 	str.w	r6, [r7, #-4]!
    446c:	0026      	movs	r6, r4
    446e:	4770      	bx	lr
    4470:	b500      	push	{lr}
    4472:	f847 6d04 	str.w	r6, [r7, #-4]!
    4476:	f240 0620 	movw	r6, #32
    447a:	f7fb ff26 	bl	2ca <befreie_tos>
    447e:	f7fb fff7 	bl	470 <get_free_register>
    4482:	6003      	str	r3, [r0, #0]
    4484:	431e      	orrs	r6, r3
    4486:	f7ff fa8b 	bl	39a0 <Code_849>
    448a:	bd00      	pop	{pc}

0000448c <Dictionary_1023>:
    448c:	000044ca 	andeq	r4, r0, sl, asr #9
    4490:	6c050030 	stcvs	0, cr0, [r5], {48}	; 0x30
    4494:	65766165 	ldrbvs	r6, [r6, #-357]!	; 0xfffffe9b

00004498 <Code_1023>:
    4498:	b500      	push	{lr}
    449a:	4875      	ldr	r0, [pc, #468]	; (4670 <gemeinsame_schleifenoptimierung+0x82>)
    449c:	6801      	ldr	r1, [r0, #0]
    449e:	003b      	movs	r3, r7
    44a0:	3f04      	subs	r7, #4
    44a2:	681a      	ldr	r2, [r3, #0]
    44a4:	3b04      	subs	r3, #4
    44a6:	601a      	str	r2, [r3, #0]
    44a8:	3308      	adds	r3, #8
    44aa:	428b      	cmp	r3, r1
    44ac:	d1f9      	bne.n	44a2 <Code_1023+0xa>
    44ae:	b403      	push	{r0, r1}
    44b0:	f7ff fe93 	bl	41da <branch_v>
    44b4:	bc03      	pop	{r0, r1}
    44b6:	0033      	movs	r3, r6
    44b8:	cf40      	ldmia	r7!, {r6}
    44ba:	3904      	subs	r1, #4
    44bc:	600b      	str	r3, [r1, #0]
    44be:	6001      	str	r1, [r0, #0]
    44c0:	3904      	subs	r1, #4
    44c2:	680a      	ldr	r2, [r1, #0]
    44c4:	3201      	adds	r2, #1
    44c6:	600a      	str	r2, [r1, #0]
    44c8:	bd00      	pop	{pc}

000044ca <Dictionary_1025>:
    44ca:	000044dc 	ldrdeq	r4, [r0], -ip
    44ce:	75060020 	strvc	r0, [r6, #-32]	; 0xffffffe0
    44d2:	6f6f6c6e 	svcvs	0x006f6c6e
    44d6:	 	ldclt	0, cr0, [r0], #-448	; 0xfffffe40

000044d8 <Code_1025>:
    44d8:	bc30      	pop	{r4, r5}
    44da:	4770      	bx	lr

000044dc <Dictionary_1026>:
    44dc:	00004514 	andeq	r4, r0, r4, lsl r5
    44e0:	2b050030 	blcs	1445a8 <ADC12_Common_CSR_OVR_SLV+0x445a8>
    44e4:	706f6f6c 	rsbvc	r6, pc, ip, ror #30

000044e8 <Code_1026>:
    44e8:	2e03      	cmp	r6, #3
    44ea:	d000      	beq.n	44ee <Code_1026+0x6>
    44ec:	e730      	b.n	4350 <strukturen_passen_nicht>
    44ee:	cf40      	ldmia	r7!, {r6}
    44f0:	b500      	push	{lr}
    44f2:	f847 6d04 	str.w	r6, [r7, #-4]!
    44f6:	4e5f      	ldr	r6, [pc, #380]	; (4674 <gemeinsame_schleifenoptimierung+0x86>)
    44f8:	f7ff f813 	bl	3522 <Code_761>
    44fc:	f7ff fe3d 	bl	417a <r_branch_jvc>
    4500:	e01a      	b.n	4538 <loop_intern>

00004502 <struktur_plusloop>:
    4502:	f114 4400 	adds.w	r4, r4, #2147483648	; 0x80000000
    4506:	1b64      	subs	r4, r4, r5
    4508:	19a4      	adds	r4, r4, r6
    450a:	cf40      	ldmia	r7!, {r6}
    450c:	442c      	add	r4, r5
    450e:	f1a4 4400 	sub.w	r4, r4, #2147483648	; 0x80000000
    4512:	4770      	bx	lr

00004514 <Dictionary_1030>:
    4514:	00004556 	andeq	r4, r0, r6, asr r5
    4518:	6c040030 	stcvs	0, cr0, [r4], {48}	; 0x30
    451c:	00706f6f 	rsbseq	r6, r0, pc, ror #30

00004520 <Code_1030>:
    4520:	2e03      	cmp	r6, #3
    4522:	d000      	beq.n	4526 <Code_1030+0x6>
    4524:	e714      	b.n	4350 <strukturen_passen_nicht>
    4526:	cf40      	ldmia	r7!, {r6}
    4528:	b500      	push	{lr}
    452a:	f847 6d04 	str.w	r6, [r7, #-4]!
    452e:	4e52      	ldr	r6, [pc, #328]	; (4678 <gemeinsame_schleifenoptimierung+0x8a>)
    4530:	f7fe fff7 	bl	3522 <Code_761>
    4534:	f7ff fe14 	bl	4160 <r_branch_jne>

00004538 <loop_intern>:
    4538:	f000 f94a 	bl	47d0 <spruenge_einpflegen>
    453c:	484c      	ldr	r0, [pc, #304]	; (4670 <gemeinsame_schleifenoptimierung+0x82>)
    453e:	0031      	movs	r1, r6
    4540:	cf40      	ldmia	r7!, {r6}
    4542:	6001      	str	r1, [r0, #0]
    4544:	f847 6d04 	str.w	r6, [r7, #-4]!
    4548:	4e4c      	ldr	r6, [pc, #304]	; (467c <gemeinsame_schleifenoptimierung+0x8e>)
    454a:	f7fe ffea 	bl	3522 <Code_761>
    454e:	bd00      	pop	{pc}

00004550 <struktur_loop>:
    4550:	3401      	adds	r4, #1
    4552:	42ac      	cmp	r4, r5
    4554:	4770      	bx	lr

00004556 <Dictionary_1035>:
    4556:	0000459e 	muleq	r0, lr, r5
    455a:	64020230 	strvs	r0, [r2], #-560	; 0xfffffdd0
    455e:	 	strlt	r0, [r0, #-111]	; 0xffffff91

00004560 <Code_1035>:
    4560:	b500      	push	{lr}
    4562:	f847 6d04 	str.w	r6, [r7, #-4]!
    4566:	4e46      	ldr	r6, [pc, #280]	; (4680 <gemeinsame_schleifenoptimierung+0x92>)
    4568:	f7fe ffdb 	bl	3522 <Code_761>

0000456c <do_rest_der_schleifenstruktur>:
    456c:	4840      	ldr	r0, [pc, #256]	; (4670 <gemeinsame_schleifenoptimierung+0x82>)
    456e:	6801      	ldr	r1, [r0, #0]
    4570:	f847 6d04 	str.w	r6, [r7, #-4]!
    4574:	000e      	movs	r6, r1
    4576:	f847 6d04 	str.w	r6, [r7, #-4]!
    457a:	2600      	movs	r6, #0
    457c:	6007      	str	r7, [r0, #0]
    457e:	f7ff fdee 	bl	415e <branch_r>
    4582:	f847 6d04 	str.w	r6, [r7, #-4]!
    4586:	2603      	movs	r6, #3
    4588:	bd00      	pop	{pc}
    458a:	b500      	push	{lr}
    458c:	f000 f82f 	bl	45ee <gemeinsame_schleifenoptimierung>
    4590:	e7ec      	b.n	456c <do_rest_der_schleifenstruktur>

00004592 <struktur_do>:
    4592:	b430      	push	{r4, r5}
    4594:	0034      	movs	r4, r6
    4596:	cf40      	ldmia	r7!, {r6}
    4598:	0035      	movs	r5, r6
    459a:	cf40      	ldmia	r7!, {r6}
    459c:	4770      	bx	lr

0000459e <Dictionary_1045>:
    459e:	00004684 	andeq	r4, r0, r4, lsl #13
    45a2:	3f030230 	svccc	0x00030230
    45a6:	 	strlt	r6, [r0, #-3940]	; 0xfffff09c

000045a8 <Code_1045>:
    45a8:	b500      	push	{lr}
    45aa:	f847 6d04 	str.w	r6, [r7, #-4]!
    45ae:	4e34      	ldr	r6, [pc, #208]	; (4680 <gemeinsame_schleifenoptimierung+0x92>)
    45b0:	f7fe ffb7 	bl	3522 <Code_761>

000045b4 <qdo_rest_der_schleifenstruktur>:
    45b4:	f847 6d04 	str.w	r6, [r7, #-4]!
    45b8:	f244 26ac 	movw	r6, #17068	; 0x42ac
    45bc:	f7ff f9f0 	bl	39a0 <Code_849>
    45c0:	482b      	ldr	r0, [pc, #172]	; (4670 <gemeinsame_schleifenoptimierung+0x82>)
    45c2:	6801      	ldr	r1, [r0, #0]
    45c4:	f847 6d04 	str.w	r6, [r7, #-4]!
    45c8:	000e      	movs	r6, r1
    45ca:	f7ff fe06 	bl	41da <branch_v>
    45ce:	3601      	adds	r6, #1
    45d0:	f847 6d04 	str.w	r6, [r7, #-4]!
    45d4:	2601      	movs	r6, #1
    45d6:	4826      	ldr	r0, [pc, #152]	; (4670 <gemeinsame_schleifenoptimierung+0x82>)
    45d8:	6007      	str	r7, [r0, #0]
    45da:	f7ff fdc0 	bl	415e <branch_r>
    45de:	f847 6d04 	str.w	r6, [r7, #-4]!
    45e2:	2603      	movs	r6, #3
    45e4:	bd00      	pop	{pc}
    45e6:	b500      	push	{lr}
    45e8:	f000 f801 	bl	45ee <gemeinsame_schleifenoptimierung>
    45ec:	e7e2      	b.n	45b4 <qdo_rest_der_schleifenstruktur>

000045ee <gemeinsame_schleifenoptimierung>:
    45ee:	b500      	push	{lr}
    45f0:	f7fc f805 	bl	5fe <push_lr_nachholen>
    45f4:	f7fb ff7a 	bl	4ec <expect_two_elements>
    45f8:	f7fb fea8 	bl	34c <tidyup_register_allocator_5os>
    45fc:	f7fb feab 	bl	356 <tidyup_register_allocator_4os>
    4600:	f7fb feae 	bl	360 <tidyup_register_allocator_3os>
    4604:	f847 6d04 	str.w	r6, [r7, #-4]!
    4608:	f24b 4630 	movw	r6, #46128	; 0xb430
    460c:	f7ff f9c8 	bl	39a0 <Code_849>
    4610:	6801      	ldr	r1, [r0, #0]
    4612:	2928      	cmp	r1, #40	; 0x28
    4614:	d008      	beq.n	4628 <gemeinsame_schleifenoptimierung+0x3a>
    4616:	f847 6d04 	str.w	r6, [r7, #-4]!
    461a:	f240 0604 	movw	r6, #4
    461e:	00c9      	lsls	r1, r1, #3
    4620:	430e      	orrs	r6, r1
    4622:	f7ff f9bd 	bl	39a0 <Code_849>
    4626:	e007      	b.n	4638 <gemeinsame_schleifenoptimierung+0x4a>
    4628:	f847 6d04 	str.w	r6, [r7, #-4]!
    462c:	6846      	ldr	r6, [r0, #4]
    462e:	f847 6d04 	str.w	r6, [r7, #-4]!
    4632:	2604      	movs	r6, #4
    4634:	f7fe fe46 	bl	32c4 <Code_718>
    4638:	6881      	ldr	r1, [r0, #8]
    463a:	2928      	cmp	r1, #40	; 0x28
    463c:	d008      	beq.n	4650 <gemeinsame_schleifenoptimierung+0x62>
    463e:	f847 6d04 	str.w	r6, [r7, #-4]!
    4642:	f240 0605 	movw	r6, #5
    4646:	00c9      	lsls	r1, r1, #3
    4648:	430e      	orrs	r6, r1
    464a:	f7ff f9a9 	bl	39a0 <Code_849>
    464e:	e007      	b.n	4660 <gemeinsame_schleifenoptimierung+0x72>
    4650:	f847 6d04 	str.w	r6, [r7, #-4]!
    4654:	68c6      	ldr	r6, [r0, #12]
    4656:	f847 6d04 	str.w	r6, [r7, #-4]!
    465a:	2605      	movs	r6, #5
    465c:	f7fe fe32 	bl	32c4 <Code_718>
    4660:	f7fb fe3d 	bl	2de <eliminiere_tos>
    4664:	f7fb fe3b 	bl	2de <eliminiere_tos>
    4668:	f7fb fe84 	bl	374 <tidyup_register_allocator_tos>
    466c:	bd00      	pop	{pc}
    466e:	00040000 	andeq	r0, r4, r0
    4672:	45022000 	strmi	r2, [r2, #-0]
    4676:	45500000 	ldrbmi	r0, [r0, #-0]
    467a:	44d80000 	ldrbmi	r0, [r8], #0
    467e:	45920000 	ldrmi	r0, [r2]
	...

00004684 <Dictionary_1067>:
    4684:	000046a4 	andeq	r4, r0, r4, lsr #13
    4688:	63040030 	movwvs	r0, #16432	; 0x4030
    468c:	00657361 	rsbeq	r7, r5, r1, ror #6

00004690 <Code_1067>:
    4690:	b500      	push	{lr}
    4692:	f7fb ffb4 	bl	5fe <push_lr_nachholen>
    4696:	f847 6d04 	str.w	r6, [r7, #-4]!
    469a:	2600      	movs	r6, #0
    469c:	f847 6d04 	str.w	r6, [r7, #-4]!
    46a0:	2608      	movs	r6, #8
    46a2:	bd00      	pop	{pc}

000046a4 <Dictionary_1072>:
    46a4:	000046ba 			; <UNDEFINED> instruction: 0x000046ba
    46a8:	3f030030 	svccc	0x00030030
    46ac:	 	stmdami	fp!, {r0, r1, r2, r3, r5, r6, r9, sl, sp, lr}^

000046ae <Code_1072>:
    46ae:	486b      	ldr	r0, [pc, #428]	; (485c <Code_1103+0x44>)
    46b0:	e009      	b.n	46c6 <of_inneneinsprung>

000046b2 <struktur_qof>:
    46b2:	3e01      	subs	r6, #1
    46b4:	41b6      	sbcs	r6, r6
    46b6:	cf40      	ldmia	r7!, {r6}
    46b8:	4770      	bx	lr

000046ba <Dictionary_1074>:
    46ba:	00004778 	andeq	r4, r0, r8, ror r7
    46be:	6f020230 	svcvs	0x00020230
    46c2:	 	stmdami	r6!, {r1, r2, r5, r6}^

000046c4 <Code_1074>:
    46c4:	4866      	ldr	r0, [pc, #408]	; (4860 <Code_1103+0x48>)

000046c6 <of_inneneinsprung>:
    46c6:	2e08      	cmp	r6, #8
    46c8:	d000      	beq.n	46cc <of_inneneinsprung+0x6>
    46ca:	e641      	b.n	4350 <strukturen_passen_nicht>
    46cc:	cf40      	ldmia	r7!, {r6}
    46ce:	b500      	push	{lr}
    46d0:	f847 6d04 	str.w	r6, [r7, #-4]!
    46d4:	0006      	movs	r6, r0
    46d6:	f7fe ff24 	bl	3522 <Code_761>

000046da <of_opcodiereinsprung>:
    46da:	f7ff fd7e 	bl	41da <branch_v>
    46de:	6839      	ldr	r1, [r7, #0]
    46e0:	603e      	str	r6, [r7, #0]
    46e2:	460e      	mov	r6, r1
    46e4:	3601      	adds	r6, #1
    46e6:	f847 6d04 	str.w	r6, [r7, #-4]!
    46ea:	2609      	movs	r6, #9
    46ec:	f7ff f94e 	bl	398c <drop_hkomma>
    46f0:	bd00      	pop	{pc}
    46f2:	2e08      	cmp	r6, #8
    46f4:	d000      	beq.n	46f8 <of_opcodiereinsprung+0x1e>
    46f6:	e62b      	b.n	4350 <strukturen_passen_nicht>
    46f8:	cf40      	ldmia	r7!, {r6}
    46fa:	b500      	push	{lr}
    46fc:	f7fb fef6 	bl	4ec <expect_two_elements>
    4700:	f7fb fe24 	bl	34c <tidyup_register_allocator_5os>
    4704:	f7fb fe27 	bl	356 <tidyup_register_allocator_4os>
    4708:	f7fb fe2a 	bl	360 <tidyup_register_allocator_3os>
    470c:	f847 6d04 	str.w	r6, [r7, #-4]!
    4710:	f244 2680 	movw	r6, #17024	; 0x4280
    4714:	f7fb ff26 	bl	564 <expect_nos_in_register>
    4718:	430e      	orrs	r6, r1
    471a:	6802      	ldr	r2, [r0, #0]
    471c:	2a28      	cmp	r2, #40	; 0x28
    471e:	d11e      	bne.n	475e <of_opcodiereinsprung+0x84>
    4720:	6842      	ldr	r2, [r0, #4]
    4722:	2aff      	cmp	r2, #255	; 0xff
    4724:	d808      	bhi.n	4738 <of_opcodiereinsprung+0x5e>
    4726:	cf40      	ldmia	r7!, {r6}
    4728:	f847 6d04 	str.w	r6, [r7, #-4]!
    472c:	f642 0600 	movw	r6, #10240	; 0x2800
    4730:	4316      	orrs	r6, r2
    4732:	0209      	lsls	r1, r1, #8
    4734:	430e      	orrs	r6, r1
    4736:	e014      	b.n	4762 <of_opcodiereinsprung+0x88>
    4738:	f847 6d04 	str.w	r6, [r7, #-4]!
    473c:	6846      	ldr	r6, [r0, #4]
    473e:	f7fe fd0d 	bl	315c <Code_709>
    4742:	cf04      	ldmia	r7!, {r2}
    4744:	2e00      	cmp	r6, #0
    4746:	cf40      	ldmia	r7!, {r6}
    4748:	d006      	beq.n	4758 <of_opcodiereinsprung+0x7e>
    474a:	4e46      	ldr	r6, [pc, #280]	; (4864 <Code_1103+0x4c>)
    474c:	4316      	orrs	r6, r2
    474e:	ea56 4601 	orrs.w	r6, r6, r1, lsl #16
    4752:	f7ff f955 	bl	3a00 <Code_858>
    4756:	e006      	b.n	4766 <of_opcodiereinsprung+0x8c>
    4758:	f7fb fefa 	bl	550 <expect_tos_in_register>
    475c:	000a      	movs	r2, r1
    475e:	00d2      	lsls	r2, r2, #3
    4760:	4316      	orrs	r6, r2
    4762:	f7ff f91d 	bl	39a0 <Code_849>
    4766:	f7fb fdba 	bl	2de <eliminiere_tos>
    476a:	f7fb fe03 	bl	374 <tidyup_register_allocator_tos>
    476e:	e7b4      	b.n	46da <of_opcodiereinsprung>

00004770 <struktur_of>:
    4770:	0030      	movs	r0, r6
    4772:	cf40      	ldmia	r7!, {r6}
    4774:	42b0      	cmp	r0, r6
    4776:	4770      	bx	lr

00004778 <Dictionary_1090>:
    4778:	000047ae 	andeq	r4, r0, lr, lsr #15
    477c:	65050030 	strvs	r0, [r5, #-48]	; 0xffffffd0
    4780:	666f646e 	strbtvs	r6, [pc], -lr, ror #8

00004784 <Code_1090>:
    4784:	2e09      	cmp	r6, #9
    4786:	d000      	beq.n	478a <Code_1090+0x6>
    4788:	e5e2      	b.n	4350 <strukturen_passen_nicht>
    478a:	cf40      	ldmia	r7!, {r6}
    478c:	b500      	push	{lr}
    478e:	b440      	push	{r6}
    4790:	cf40      	ldmia	r7!, {r6}
    4792:	f7ff fd22 	bl	41da <branch_v>
    4796:	6839      	ldr	r1, [r7, #0]
    4798:	603e      	str	r6, [r7, #0]
    479a:	460e      	mov	r6, r1
    479c:	f7ff fd36 	bl	420c <v_casebranch>
    47a0:	f847 6d04 	str.w	r6, [r7, #-4]!
    47a4:	bc40      	pop	{r6}
    47a6:	f847 6d04 	str.w	r6, [r7, #-4]!
    47aa:	2608      	movs	r6, #8
    47ac:	bd00      	pop	{pc}

000047ae <Dictionary_1098>:
    47ae:	000047f8 	strdeq	r4, [r0], -r8
    47b2:	65070030 	strvs	r0, [r7, #-48]	; 0xffffffd0
    47b6:	6163646e 	cmnvs	r3, lr, ror #8
    47ba:	 	cfrshl64cs	mvdx8, mvdx3, r6

000047bc <Code_1098>:
    47bc:	2e08      	cmp	r6, #8
    47be:	d000      	beq.n	47c2 <Code_1098+0x6>
    47c0:	e5c6      	b.n	4350 <strukturen_passen_nicht>
    47c2:	cf40      	ldmia	r7!, {r6}
    47c4:	b500      	push	{lr}
    47c6:	f7ff f8e1 	bl	398c <drop_hkomma>
    47ca:	f000 f801 	bl	47d0 <spruenge_einpflegen>
    47ce:	bd00      	pop	{pc}

000047d0 <spruenge_einpflegen>:
    47d0:	b500      	push	{lr}
    47d2:	0030      	movs	r0, r6
    47d4:	cf40      	ldmia	r7!, {r6}
    47d6:	2800      	cmp	r0, #0
    47d8:	d00d      	beq.n	47f6 <spruenge_einpflegen+0x26>
    47da:	b403      	push	{r0, r1}
    47dc:	2101      	movs	r1, #1
    47de:	4031      	ands	r1, r6
    47e0:	2900      	cmp	r1, #0
    47e2:	d003      	beq.n	47ec <spruenge_einpflegen+0x1c>
    47e4:	3e01      	subs	r6, #1
    47e6:	f7ff fd07 	bl	41f8 <v_nullbranch>
    47ea:	e001      	b.n	47f0 <spruenge_einpflegen+0x20>
    47ec:	f7ff fcfe 	bl	41ec <v_branch>
    47f0:	bc03      	pop	{r0, r1}
    47f2:	3801      	subs	r0, #1
    47f4:	e7ef      	b.n	47d6 <spruenge_einpflegen+0x6>
    47f6:	bd00      	pop	{pc}

000047f8 <Dictionary_1101>:
    47f8:	0000480c 	andeq	r4, r0, ip, lsl #16
    47fc:	74050000 	strvc	r0, [r5], #-0
    4800:	6e656b6f 	vnmulvs.f64	d22, d5, d31

00004804 <Code_1101>:
    4804:	f847 6d04 	str.w	r6, [r7, #-4]!
    4808:	2620      	movs	r6, #32
    480a:	e005      	b.n	4818 <Code_1103>

0000480c <Dictionary_1103>:
    480c:	00004870 	andeq	r4, r0, r0, ror r8
    4810:	70050000 	andvc	r0, r5, r0
    4814:	65737261 	ldrbvs	r7, [r3, #-609]!	; 0xfffffd9f

00004818 <Code_1103>:
    4818:	b510      	push	{r4, lr}
    481a:	4813      	ldr	r0, [pc, #76]	; (4868 <Code_1103+0x50>)
    481c:	6801      	ldr	r1, [r0, #0]
    481e:	6840      	ldr	r0, [r0, #4]
    4820:	4a12      	ldr	r2, [pc, #72]	; (486c <Code_1103+0x54>)
    4822:	6812      	ldr	r2, [r2, #0]
    4824:	1884      	adds	r4, r0, r2
    4826:	2e20      	cmp	r6, #32
    4828:	d107      	bne.n	483a <Code_1103+0x22>
    482a:	4291      	cmp	r1, r2
    482c:	d00f      	beq.n	484e <Code_1103+0x36>
    482e:	5c83      	ldrb	r3, [r0, r2]
    4830:	42b3      	cmp	r3, r6
    4832:	d102      	bne.n	483a <Code_1103+0x22>
    4834:	3201      	adds	r2, #1
    4836:	1884      	adds	r4, r0, r2
    4838:	e7f7      	b.n	482a <Code_1103+0x12>
    483a:	4291      	cmp	r1, r2
    483c:	d007      	beq.n	484e <Code_1103+0x36>
    483e:	5c83      	ldrb	r3, [r0, r2]
    4840:	3201      	adds	r2, #1
    4842:	42b3      	cmp	r3, r6
    4844:	d1f9      	bne.n	483a <Code_1103+0x22>
    4846:	1886      	adds	r6, r0, r2
    4848:	1b36      	subs	r6, r6, r4
    484a:	3e01      	subs	r6, #1
    484c:	e001      	b.n	4852 <Code_1103+0x3a>
    484e:	1886      	adds	r6, r0, r2
    4850:	1b36      	subs	r6, r6, r4
    4852:	3f04      	subs	r7, #4
    4854:	603c      	str	r4, [r7, #0]
    4856:	4805      	ldr	r0, [pc, #20]	; (486c <Code_1103+0x54>)
    4858:	6002      	str	r2, [r0, #0]
    485a:	bd10      	pop	{r4, pc}
    485c:	000046b2 			; <UNDEFINED> instruction: 0x000046b2
    4860:	00004770 	andeq	r4, r0, r0, ror r7
    4864:	f1b00f00 			; <UNDEFINED> instruction: 0xf1b00f00
    4868:	2001ffdc 	ldrdcs	pc, [r1], -ip
    486c:	2001ffe4 	andcs	pc, r1, r4, ror #31

00004870 <Dictionary_1104>:
    4870:	000048ae 	andeq	r4, r0, lr, lsr #17
    4874:	64050000 	strvs	r0, [r5], #-0
    4878:	74696769 	strbtvc	r6, [r9], #-1897	; 0xfffff897

0000487c <Code_1104>:
    487c:	4bcf      	ldr	r3, [pc, #828]	; (4bbc <Code_1167+0xa>)
    487e:	681b      	ldr	r3, [r3, #0]

00004880 <digit_base_r3>:
    4880:	3e30      	subs	r6, #48	; 0x30
    4882:	d30b      	bcc.n	489c <digit_base_r3+0x1c>
    4884:	2e0a      	cmp	r6, #10
    4886:	d30b      	bcc.n	48a0 <digit_base_r3+0x20>
    4888:	3e07      	subs	r6, #7
    488a:	2e0a      	cmp	r6, #10
    488c:	d306      	bcc.n	489c <digit_base_r3+0x1c>
    488e:	2e24      	cmp	r6, #36	; 0x24
    4890:	d306      	bcc.n	48a0 <digit_base_r3+0x20>
    4892:	3e20      	subs	r6, #32
    4894:	2e0a      	cmp	r6, #10
    4896:	d301      	bcc.n	489c <digit_base_r3+0x1c>
    4898:	2e24      	cmp	r6, #36	; 0x24
    489a:	d301      	bcc.n	48a0 <digit_base_r3+0x20>
    489c:	2600      	movs	r6, #0
    489e:	4770      	bx	lr
    48a0:	429e      	cmp	r6, r3
    48a2:	d2fb      	bcs.n	489c <digit_base_r3+0x1c>
    48a4:	f847 6d04 	str.w	r6, [r7, #-4]!
    48a8:	2600      	movs	r6, #0
    48aa:	43f6      	mvns	r6, r6
    48ac:	4770      	bx	lr

000048ae <Dictionary_1106>:
    48ae:	000049b8 			; <UNDEFINED> instruction: 0x000049b8
    48b2:	6e060000 	cdpvs	0, 0, cr0, cr6, cr0, {0}
    48b6:	65626d75 	strbvs	r6, [r2, #-3445]!	; 0xfffff28b
    48ba:	 	ldrlt	r0, [pc, #-114]!	; 4850 <Code_1103+0x38>

000048bc <Code_1106>:
    48bc:	b53f      	push	{r0, r1, r2, r3, r4, r5, lr}
    48be:	0031      	movs	r1, r6
    48c0:	cf40      	ldmia	r7!, {r6}
    48c2:	1e70      	subs	r0, r6, #1
    48c4:	2601      	movs	r6, #1
    48c6:	2201      	movs	r2, #1
    48c8:	b404      	push	{r2}
    48ca:	4bbc      	ldr	r3, [pc, #752]	; (4bbc <Code_1167+0xa>)
    48cc:	681b      	ldr	r3, [r3, #0]
    48ce:	2400      	movs	r4, #0
    48d0:	2500      	movs	r5, #0
    48d2:	2900      	cmp	r1, #0
    48d4:	d03c      	beq.n	4950 <Code_1106+0x94>
    48d6:	3001      	adds	r0, #1
    48d8:	3901      	subs	r1, #1
    48da:	7802      	ldrb	r2, [r0, #0]
    48dc:	2a2d      	cmp	r2, #45	; 0x2d
    48de:	d104      	bne.n	48ea <Code_1106+0x2e>
    48e0:	b001      	add	sp, #4
    48e2:	2200      	movs	r2, #0
    48e4:	43d2      	mvns	r2, r2
    48e6:	b404      	push	{r2}
    48e8:	e7f3      	b.n	48d2 <Code_1106+0x16>
    48ea:	2a23      	cmp	r2, #35	; 0x23
    48ec:	d101      	bne.n	48f2 <Code_1106+0x36>
    48ee:	230a      	movs	r3, #10
    48f0:	e7ef      	b.n	48d2 <Code_1106+0x16>
    48f2:	2a24      	cmp	r2, #36	; 0x24
    48f4:	d101      	bne.n	48fa <Code_1106+0x3e>
    48f6:	2310      	movs	r3, #16
    48f8:	e7eb      	b.n	48d2 <Code_1106+0x16>
    48fa:	2a25      	cmp	r2, #37	; 0x25
    48fc:	d101      	bne.n	4902 <Code_1106+0x46>
    48fe:	2302      	movs	r3, #2
    4900:	e7e7      	b.n	48d2 <Code_1106+0x16>
    4902:	2a2e      	cmp	r2, #46	; 0x2e
    4904:	d101      	bne.n	490a <Code_1106+0x4e>
    4906:	2602      	movs	r6, #2
    4908:	e7e3      	b.n	48d2 <Code_1106+0x16>
    490a:	2a2c      	cmp	r2, #44	; 0x2c
    490c:	d036      	beq.n	497c <number_nachkommastellen>
    490e:	f847 6d04 	str.w	r6, [r7, #-4]!
    4912:	0016      	movs	r6, r2
    4914:	f7ff ffb4 	bl	4880 <digit_base_r3>
    4918:	2e00      	cmp	r6, #0
    491a:	cf40      	ldmia	r7!, {r6}
    491c:	d02b      	beq.n	4976 <Code_1106+0xba>
    491e:	f847 6d04 	str.w	r6, [r7, #-4]!
    4922:	0026      	movs	r6, r4
    4924:	f847 6d04 	str.w	r6, [r7, #-4]!
    4928:	002e      	movs	r6, r5
    492a:	f847 6d04 	str.w	r6, [r7, #-4]!
    492e:	001e      	movs	r6, r3
    4930:	f847 6d04 	str.w	r6, [r7, #-4]!
    4934:	2600      	movs	r6, #0
    4936:	b40f      	push	{r0, r1, r2, r3}
    4938:	f7fc f869 	bl	a0e <Code_115>
    493c:	bc0f      	pop	{r0, r1, r2, r3}
    493e:	0035      	movs	r5, r6
    4940:	cf40      	ldmia	r7!, {r6}
    4942:	0034      	movs	r4, r6
    4944:	cf40      	ldmia	r7!, {r6}
    4946:	2200      	movs	r2, #0
    4948:	19a4      	adds	r4, r4, r6
    494a:	4155      	adcs	r5, r2
    494c:	cf40      	ldmia	r7!, {r6}
    494e:	e7c0      	b.n	48d2 <Code_1106+0x16>
    4950:	bc04      	pop	{r2}
    4952:	2a00      	cmp	r2, #0
    4954:	d504      	bpl.n	4960 <Code_1106+0xa4>
    4956:	2200      	movs	r2, #0
    4958:	43e4      	mvns	r4, r4
    495a:	43ed      	mvns	r5, r5
    495c:	3401      	adds	r4, #1
    495e:	4155      	adcs	r5, r2
    4960:	0033      	movs	r3, r6
    4962:	0026      	movs	r6, r4
    4964:	2b01      	cmp	r3, #1
    4966:	d002      	beq.n	496e <Code_1106+0xb2>
    4968:	f847 6d04 	str.w	r6, [r7, #-4]!
    496c:	002e      	movs	r6, r5
    496e:	f847 6d04 	str.w	r6, [r7, #-4]!
    4972:	001e      	movs	r6, r3
    4974:	bd3f      	pop	{r0, r1, r2, r3, r4, r5, pc}
    4976:	b001      	add	sp, #4
    4978:	2600      	movs	r6, #0
    497a:	bd3f      	pop	{r0, r1, r2, r3, r4, r5, pc}

0000497c <number_nachkommastellen>:
    497c:	0025      	movs	r5, r4
    497e:	2400      	movs	r4, #0
    4980:	2602      	movs	r6, #2
    4982:	2900      	cmp	r1, #0
    4984:	d0e4      	beq.n	4950 <Code_1106+0x94>
    4986:	5c42      	ldrb	r2, [r0, r1]
    4988:	3901      	subs	r1, #1
    498a:	2a2e      	cmp	r2, #46	; 0x2e
    498c:	d0f9      	beq.n	4982 <number_nachkommastellen+0x6>
    498e:	f847 6d04 	str.w	r6, [r7, #-4]!
    4992:	0016      	movs	r6, r2
    4994:	f7ff ff74 	bl	4880 <digit_base_r3>
    4998:	2e00      	cmp	r6, #0
    499a:	cf40      	ldmia	r7!, {r6}
    499c:	d0eb      	beq.n	4976 <Code_1106+0xba>
    499e:	3f04      	subs	r7, #4
    49a0:	603c      	str	r4, [r7, #0]
    49a2:	f847 6d04 	str.w	r6, [r7, #-4]!
    49a6:	001e      	movs	r6, r3
    49a8:	b40f      	push	{r0, r1, r2, r3}
    49aa:	f7fc f8df 	bl	b6c <Code_151>
    49ae:	bc0f      	pop	{r0, r1, r2, r3}
    49b0:	0034      	movs	r4, r6
    49b2:	cf40      	ldmia	r7!, {r6}
    49b4:	cf40      	ldmia	r7!, {r6}
    49b6:	e7e4      	b.n	4982 <number_nachkommastellen+0x6>

000049b8 <Dictionary_1133>:
    49b8:	000049da 	ldrdeq	r4, [r0], -sl
    49bc:	2e060000 	cdpcs	0, 0, cr0, cr6, cr0, {0}
    49c0:	69676964 	stmdbvs	r7!, {r2, r5, r6, r8, fp, sp, lr}^
    49c4:	 	mcrcs	0, 0, r0, cr10, cr4, {3}

000049c6 <Code_1133>:
    49c6:	2e0a      	cmp	r6, #10
    49c8:	d201      	bcs.n	49ce <Code_1133+0x8>
    49ca:	3630      	adds	r6, #48	; 0x30
    49cc:	4770      	bx	lr
    49ce:	2e24      	cmp	r6, #36	; 0x24
    49d0:	d201      	bcs.n	49d6 <Code_1133+0x10>
    49d2:	3637      	adds	r6, #55	; 0x37
    49d4:	4770      	bx	lr
    49d6:	2623      	movs	r6, #35	; 0x23
    49d8:	4770      	bx	lr

000049da <Dictionary_1134>:
    49da:	00004a10 	andeq	r4, r0, r0, lsl sl
    49de:	68040000 	stmdavs	r4, {}	; <UNPREDICTABLE>
    49e2:	00646c6f 	rsbeq	r6, r4, pc, ror #24

000049e6 <Code_1134>:
    49e6:	0033      	movs	r3, r6
    49e8:	cf40      	ldmia	r7!, {r6}
    49ea:	4875      	ldr	r0, [pc, #468]	; (4bc0 <Code_1167+0xe>)
    49ec:	7801      	ldrb	r1, [r0, #0]
    49ee:	2943      	cmp	r1, #67	; 0x43
    49f0:	d20d      	bcs.n	4a0e <Code_1134+0x28>
    49f2:	3101      	adds	r1, #1
    49f4:	7001      	strb	r1, [r0, #0]
    49f6:	1840      	adds	r0, r0, r1
    49f8:	2901      	cmp	r1, #1
    49fa:	d007      	beq.n	4a0c <Code_1134+0x26>
    49fc:	3801      	subs	r0, #1
    49fe:	7802      	ldrb	r2, [r0, #0]
    4a00:	3001      	adds	r0, #1
    4a02:	7002      	strb	r2, [r0, #0]
    4a04:	3801      	subs	r0, #1
    4a06:	3901      	subs	r1, #1
    4a08:	2901      	cmp	r1, #1
    4a0a:	d1f7      	bne.n	49fc <Code_1134+0x16>
    4a0c:	7003      	strb	r3, [r0, #0]
    4a0e:	4770      	bx	lr

00004a10 <Dictionary_1136>:
    4a10:	00004a30 	andeq	r4, r0, r0, lsr sl
    4a14:	68050000 	stmdavs	r5, {}	; <UNPREDICTABLE>
    4a18:	3c646c6f 	stclcc	12, cr6, [r4], #-444	; 0xfffffe44

00004a1c <Code_1136>:
    4a1c:	0033      	movs	r3, r6
    4a1e:	cf40      	ldmia	r7!, {r6}
    4a20:	4867      	ldr	r0, [pc, #412]	; (4bc0 <Code_1167+0xe>)
    4a22:	7801      	ldrb	r1, [r0, #0]
    4a24:	2943      	cmp	r1, #67	; 0x43
    4a26:	d202      	bcs.n	4a2e <Code_1136+0x12>
    4a28:	3101      	adds	r1, #1
    4a2a:	7001      	strb	r1, [r0, #0]
    4a2c:	5443      	strb	r3, [r0, r1]
    4a2e:	4770      	bx	lr

00004a30 <Dictionary_1138>:
    4a30:	00004a48 	andeq	r4, r0, r8, asr #20
    4a34:	73040000 	movwvc	r0, #16384	; 0x4000
    4a38:	006e6769 	rsbeq	r6, lr, r9, ror #14

00004a3c <Code_1138>:
    4a3c:	2e00      	cmp	r6, #0
    4a3e:	d401      	bmi.n	4a44 <Code_1138+0x8>
    4a40:	cf40      	ldmia	r7!, {r6}
    4a42:	4770      	bx	lr
    4a44:	262d      	movs	r6, #45	; 0x2d
    4a46:	e7ce      	b.n	49e6 <Code_1134>

00004a48 <Dictionary_1140>:
    4a48:	00004a5c 	andeq	r4, r0, ip, asr sl
    4a4c:	23020000 	movwcs	r0, #8192	; 0x2000
    4a50:	 	ldmdami	fp, {r1, r2, r3, r4, r5}^

00004a52 <Code_1140>:
    4a52:	485b      	ldr	r0, [pc, #364]	; (4bc0 <Code_1167+0xe>)
    4a54:	7806      	ldrb	r6, [r0, #0]
    4a56:	3001      	adds	r0, #1
    4a58:	6038      	str	r0, [r7, #0]
    4a5a:	4770      	bx	lr

00004a5c <Dictionary_1141>:
    4a5c:	00004a74 	andeq	r4, r0, r4, ror sl
    4a60:	66030000 	strvs	r0, [r3], -r0
    4a64:	 	ldrlt	r5, [r0, #-803]	; 0xfffffcdd

00004a66 <Code_1141>:
    4a66:	b510      	push	{r4, lr}
    4a68:	2420      	movs	r4, #32
    4a6a:	f000 f808 	bl	4a7e <Code_1142>
    4a6e:	3c01      	subs	r4, #1
    4a70:	d1fb      	bne.n	4a6a <Code_1141+0x4>
    4a72:	bd10      	pop	{r4, pc}

00004a74 <Dictionary_1142>:
    4a74:	00004a96 	muleq	r0, r6, sl
    4a78:	66020000 	strvs	r0, [r2], -r0
    4a7c:	 	strlt	r0, [r0, #-35]	; 0xffffffdd

00004a7e <Code_1142>:
    4a7e:	b500      	push	{lr}
    4a80:	f847 6d04 	str.w	r6, [r7, #-4]!
    4a84:	4e4d      	ldr	r6, [pc, #308]	; (4bbc <Code_1167+0xa>)
    4a86:	6836      	ldr	r6, [r6, #0]
    4a88:	f7fb ff83 	bl	992 <Code_111>
    4a8c:	f7ff ff9b 	bl	49c6 <Code_1133>
    4a90:	f7ff ffc4 	bl	4a1c <Code_1136>
    4a94:	bd00      	pop	{pc}

00004a96 <Dictionary_1144>:
    4a96:	00004ab2 			; <UNDEFINED> instruction: 0x00004ab2
    4a9a:	23020000 	movwcs	r0, #8192	; 0x2000
    4a9e:	 	strlt	r0, [r0, #-83]	; 0xffffffad

00004aa0 <Code_1144>:
    4aa0:	b500      	push	{lr}
    4aa2:	f000 f80a 	bl	4aba <Code_1145>
    4aa6:	2e00      	cmp	r6, #0
    4aa8:	d1fb      	bne.n	4aa2 <Code_1144+0x2>
    4aaa:	6838      	ldr	r0, [r7, #0]
    4aac:	2800      	cmp	r0, #0
    4aae:	d1f8      	bne.n	4aa2 <Code_1144+0x2>
    4ab0:	bd00      	pop	{pc}

00004ab2 <Dictionary_1145>:
    4ab2:	00004ade 	ldrdeq	r4, [r0], -lr
    4ab6:	23010000 	movwcs	r0, #4096	; 0x1000

00004aba <Code_1145>:
    4aba:	b500      	push	{lr}
    4abc:	f847 6d04 	str.w	r6, [r7, #-4]!
    4ac0:	4e3e      	ldr	r6, [pc, #248]	; (4bbc <Code_1167+0xa>)
    4ac2:	6836      	ldr	r6, [r6, #0]
    4ac4:	f847 6d04 	str.w	r6, [r7, #-4]!
    4ac8:	2600      	movs	r6, #0
    4aca:	f7fc f86e 	bl	baa <Code_160>
    4ace:	f7fb fdce 	bl	66e <Code_71>
    4ad2:	cf40      	ldmia	r7!, {r6}
    4ad4:	f7ff ff77 	bl	49c6 <Code_1133>
    4ad8:	f7ff ff85 	bl	49e6 <Code_1134>
    4adc:	bd00      	pop	{pc}

00004ade <Dictionary_1150>:
    4ade:	00004af0 	strdeq	r4, [r0], -r0
    4ae2:	3c020000 	stccc	0, cr0, [r2], {-0}
    4ae6:	 	ldmdami	r5!, {r0, r1, r5}

00004ae8 <Code_1150>:
    4ae8:	4835      	ldr	r0, [pc, #212]	; (4bc0 <Code_1167+0xe>)
    4aea:	2100      	movs	r1, #0
    4aec:	7001      	strb	r1, [r0, #0]
    4aee:	4770      	bx	lr

00004af0 <Dictionary_1151>:
    4af0:	00004b02 	andeq	r4, r0, r2, lsl #22
    4af4:	66020000 	strvs	r0, [r2], -r0
    4af8:	 			; <UNDEFINED> instruction: 0xf847002e

00004afa <Code_1151>:
    4afa:	f847 6d04 	str.w	r6, [r7, #-4]!
    4afe:	2620      	movs	r6, #32
    4b00:	e004      	b.n	4b0c <Code_1154>

00004b02 <Dictionary_1154>:
    4b02:	00004b50 	andeq	r4, r0, r0, asr fp
    4b06:	66030000 	strvs	r0, [r3], -r0
    4b0a:	 	strlt	r6, [r0, #-3630]	; 0xfffff1d2

00004b0c <Code_1154>:
    4b0c:	b500      	push	{lr}
    4b0e:	b410      	push	{r4}
    4b10:	0034      	movs	r4, r6
    4b12:	cf40      	ldmia	r7!, {r6}
    4b14:	f7fc fa66 	bl	fe4 <Code_207>
    4b18:	f7fb fec0 	bl	89c <Code_99>
    4b1c:	f847 6d04 	str.w	r6, [r7, #-4]!
    4b20:	2600      	movs	r6, #0
    4b22:	f7ff ffe1 	bl	4ae8 <Code_1150>
    4b26:	f7ff ffbb 	bl	4aa0 <Code_1144>
    4b2a:	cf40      	ldmia	r7!, {r6}
    4b2c:	262c      	movs	r6, #44	; 0x2c
    4b2e:	f7ff ff75 	bl	4a1c <Code_1136>
    4b32:	2c00      	cmp	r4, #0
    4b34:	d003      	beq.n	4b3e <Code_1154+0x32>
    4b36:	f7ff ffa2 	bl	4a7e <Code_1142>
    4b3a:	3c01      	subs	r4, #1
    4b3c:	d1fb      	bne.n	4b36 <Code_1154+0x2a>
    4b3e:	bc10      	pop	{r4}
    4b40:	cf40      	ldmia	r7!, {r6}
    4b42:	f7ff ff7b 	bl	4a3c <Code_1138>
    4b46:	f847 6d04 	str.w	r6, [r7, #-4]!
    4b4a:	f847 6d04 	str.w	r6, [r7, #-4]!
    4b4e:	e01c      	b.n	4b8a <abschluss_zahlenausgabe>

00004b50 <Dictionary_1162>:
    4b50:	00004b66 	andeq	r4, r0, r6, ror #22
    4b54:	75030000 	strvc	r0, [r3, #-0]
    4b58:	 	strlt	r2, [r0, #-3684]	; 0xfffff19c

00004b5a <Code_1162>:
    4b5a:	b500      	push	{lr}
    4b5c:	f7ff ffc4 	bl	4ae8 <Code_1150>
    4b60:	f7ff ff9e 	bl	4aa0 <Code_1144>
    4b64:	e011      	b.n	4b8a <abschluss_zahlenausgabe>

00004b66 <Dictionary_1163>:
    4b66:	00004b98 	muleq	r0, r8, fp
    4b6a:	64020000 	strvs	r0, [r2], #-0
    4b6e:	 	strlt	r0, [r0, #-46]	; 0xffffffd2

00004b70 <Code_1163>:
    4b70:	b500      	push	{lr}
    4b72:	f7fc fa37 	bl	fe4 <Code_207>
    4b76:	f7fb fe91 	bl	89c <Code_99>
    4b7a:	f7ff ffb5 	bl	4ae8 <Code_1150>
    4b7e:	f7ff ff8f 	bl	4aa0 <Code_1144>
    4b82:	f7fc fa41 	bl	1008 <Code_208>
    4b86:	f7ff ff59 	bl	4a3c <Code_1138>

00004b8a <abschluss_zahlenausgabe>:
    4b8a:	f7ff ff62 	bl	4a52 <Code_1140>
    4b8e:	f7fe f9d5 	bl	2f3c <Code_669>
    4b92:	f7fe f92e 	bl	2df2 <Code_637>
    4b96:	bd00      	pop	{pc}

00004b98 <Dictionary_1164>:
    4b98:	00004baa 	andeq	r4, r0, sl, lsr #23
    4b9c:	75020000 	strvc	r0, [r2, #-0]
    4ba0:	 			; <UNDEFINED> instruction: 0xf847002e

00004ba2 <Code_1164>:
    4ba2:	f847 6d04 	str.w	r6, [r7, #-4]!
    4ba6:	2600      	movs	r6, #0
    4ba8:	e7d7      	b.n	4b5a <Code_1162>

00004baa <Dictionary_1167>:
    4baa:	00004d88 	andeq	r4, r0, r8, lsl #27
    4bae:	2e010000 	cdpcs	0, 0, cr0, cr1, cr0, {0}

00004bb2 <Code_1167>:
    4bb2:	f847 6d04 	str.w	r6, [r7, #-4]!
    4bb6:	17f6      	asrs	r6, r6, #31
    4bb8:	e7da      	b.n	4b70 <Code_1163>
    4bba:	fffc0000 			; <UNDEFINED> instruction: 0xfffc0000
    4bbe:	007c2001 	rsbseq	r2, ip, r1
    4bc2:	 	ldrlt	r2, [r0, #-0]!

00004bc4 <konstantenfaltungszeiger_setzen>:
    4bc4:	b530      	push	{r4, r5, lr}
    4bc6:	f04f 5400 	mov.w	r4, #536870912	; 0x20000000
    4bca:	6825      	ldr	r5, [r4, #0]
    4bcc:	2d00      	cmp	r5, #0
    4bce:	d101      	bne.n	4bd4 <konstantenfaltungszeiger_setzen+0x10>
    4bd0:	003d      	movs	r5, r7
    4bd2:	6025      	str	r5, [r4, #0]
    4bd4:	bd30      	pop	{r4, r5, pc}

00004bd6 <konstantenfaltungszeiger_neusetzen>:
    4bd6:	b530      	push	{r4, r5, lr}
    4bd8:	f04f 5400 	mov.w	r4, #536870912	; 0x20000000
    4bdc:	003d      	movs	r5, r7
    4bde:	6025      	str	r5, [r4, #0]
    4be0:	bd30      	pop	{r4, r5, pc}

00004be2 <konstantenfaltungszeiger_loeschen>:
    4be2:	b530      	push	{r4, r5, lr}
    4be4:	f04f 5400 	mov.w	r4, #536870912	; 0x20000000
    4be8:	2500      	movs	r5, #0
    4bea:	6025      	str	r5, [r4, #0]
    4bec:	bd30      	pop	{r4, r5, pc}

00004bee <wievielefaltkonstanten>:
    4bee:	f04f 5300 	mov.w	r3, #536870912	; 0x20000000
    4bf2:	681b      	ldr	r3, [r3, #0]
    4bf4:	1bdb      	subs	r3, r3, r7
    4bf6:	089b      	lsrs	r3, r3, #2
    4bf8:	4770      	bx	lr

00004bfa <kompilator>:
    4bfa:	b500      	push	{lr}
    4bfc:	0031      	movs	r1, r6
    4bfe:	cf40      	ldmia	r7!, {r6}
    4c00:	f44f 5080 	mov.w	r0, #4096	; 0x1000
    4c04:	4008      	ands	r0, r1
    4c06:	d002      	beq.n	4c0e <kompilator+0x14>
    4c08:	f000 f8a6 	bl	4d58 <inline_cache_parser>
    4c0c:	bd00      	pop	{pc}
    4c0e:	f44f 6080 	mov.w	r0, #1024	; 0x400
    4c12:	4008      	ands	r0, r1
    4c14:	d101      	bne.n	4c1a <kompilator+0x20>
    4c16:	f7fc fd7f 	bl	1718 <sprungschreiber_flaggenerator>
    4c1a:	0032      	movs	r2, r6
    4c1c:	cf40      	ldmia	r7!, {r6}
    4c1e:	f7ff ffd1 	bl	4bc4 <konstantenfaltungszeiger_setzen>
    4c22:	f44f 5000 	mov.w	r0, #8192	; 0x2000
    4c26:	4008      	ands	r0, r1
    4c28:	d003      	beq.n	4c32 <kompilator+0x38>
    4c2a:	f847 6d04 	str.w	r6, [r7, #-4]!
    4c2e:	0016      	movs	r6, r2
    4c30:	bd00      	pop	{pc}
    4c32:	f7ff ffdc 	bl	4bee <wievielefaltkonstanten>
    4c36:	2080      	movs	r0, #128	; 0x80
    4c38:	4008      	ands	r0, r1
    4c3a:	d106      	bne.n	4c4a <.interpret_faltoptimierung>
    4c3c:	2040      	movs	r0, #64	; 0x40
    4c3e:	4008      	ands	r0, r1
    4c40:	d009      	beq.n	4c56 <.interpret_allocator>

00004c42 <.interpret_genugkonstanten>:
    4c42:	200f      	movs	r0, #15
    4c44:	4008      	ands	r0, r1
    4c46:	4283      	cmp	r3, r0
    4c48:	d305      	bcc.n	4c56 <.interpret_allocator>

00004c4a <.interpret_faltoptimierung>:
    4c4a:	f847 6d04 	str.w	r6, [r7, #-4]!
    4c4e:	0016      	movs	r6, r2
    4c50:	f7fe fd20 	bl	3694 <Code_785>
    4c54:	bd00      	pop	{pc}

00004c56 <.interpret_allocator>:
    4c56:	f44f 7000 	mov.w	r0, #512	; 0x200
    4c5a:	4008      	ands	r0, r1
    4c5c:	d014      	beq.n	4c88 <.interpret_allocator_finished>
    4c5e:	f7fb fad6 	bl	20e <Code_30>
    4c62:	f847 6d04 	str.w	r6, [r7, #-4]!
    4c66:	0016      	movs	r6, r2
    4c68:	f847 6d04 	str.w	r6, [r7, #-4]!
    4c6c:	000e      	movs	r6, r1
    4c6e:	f000 f831 	bl	4cd4 <add_to_inline_cache>
    4c72:	0010      	movs	r0, r2
    4c74:	f7fe fc6c 	bl	3550 <suchedefinitionsende>
    4c78:	1c42      	adds	r2, r0, #1
    4c7a:	48cc      	ldr	r0, [pc, #816]	; (4fac <quit_innenschleife+0x56>)
    4c7c:	4790      	blx	r2
    4c7e:	f7ff ffaa 	bl	4bd6 <konstantenfaltungszeiger_neusetzen>
    4c82:	f7fb fad3 	bl	22c <nfaltkonstanten_aufschwimmen>
    4c86:	bd00      	pop	{pc}

00004c88 <.interpret_allocator_finished>:
    4c88:	f7fb fac1 	bl	20e <Code_30>
    4c8c:	f847 6d04 	str.w	r6, [r7, #-4]!
    4c90:	0016      	movs	r6, r2
    4c92:	f847 6d04 	str.w	r6, [r7, #-4]!
    4c96:	000e      	movs	r6, r1
    4c98:	f000 f81c 	bl	4cd4 <add_to_inline_cache>
    4c9c:	f7fb fb4a 	bl	334 <tidyup_register_allocator>
    4ca0:	f7ff ff9f 	bl	4be2 <konstantenfaltungszeiger_loeschen>
    4ca4:	f44f 6000 	mov.w	r0, #2048	; 0x800
    4ca8:	4008      	ands	r0, r1
    4caa:	d101      	bne.n	4cb0 <.prepared_for_classic>
    4cac:	f7fb fca7 	bl	5fe <push_lr_nachholen>

00004cb0 <.prepared_for_classic>:
    4cb0:	f847 6d04 	str.w	r6, [r7, #-4]!
    4cb4:	0016      	movs	r6, r2
    4cb6:	2210      	movs	r2, #16
    4cb8:	400a      	ands	r2, r1
    4cba:	d002      	beq.n	4cc2 <.prepared_for_classic+0x12>
    4cbc:	f7fe fcea 	bl	3694 <Code_785>
    4cc0:	bd00      	pop	{pc}
    4cc2:	2220      	movs	r2, #32
    4cc4:	400a      	ands	r2, r1
    4cc6:	d002      	beq.n	4cce <.prepared_for_classic+0x1e>
    4cc8:	f7fe fc2b 	bl	3522 <Code_761>
    4ccc:	bd00      	pop	{pc}
    4cce:	f7fe fb56 	bl	337e <Code_730>
    4cd2:	bd00      	pop	{pc}

00004cd4 <add_to_inline_cache>:
    4cd4:	b50f      	push	{r0, r1, r2, r3, lr}
    4cd6:	0032      	movs	r2, r6
    4cd8:	cf40      	ldmia	r7!, {r6}
    4cda:	0033      	movs	r3, r6
    4cdc:	cf40      	ldmia	r7!, {r6}
    4cde:	48b4      	ldr	r0, [pc, #720]	; (4fb0 <quit_innenschleife+0x5a>)
    4ce0:	6801      	ldr	r1, [r0, #0]
    4ce2:	2906      	cmp	r1, #6
    4ce4:	d207      	bcs.n	4cf6 <add_to_inline_cache+0x22>
    4ce6:	2006      	movs	r0, #6
    4ce8:	4341      	muls	r1, r0
    4cea:	48b2      	ldr	r0, [pc, #712]	; (4fb4 <quit_innenschleife+0x5e>)
    4cec:	1840      	adds	r0, r0, r1
    4cee:	8003      	strh	r3, [r0, #0]
    4cf0:	0c1b      	lsrs	r3, r3, #16
    4cf2:	8043      	strh	r3, [r0, #2]
    4cf4:	8082      	strh	r2, [r0, #4]
    4cf6:	48ae      	ldr	r0, [pc, #696]	; (4fb0 <quit_innenschleife+0x5a>)
    4cf8:	6801      	ldr	r1, [r0, #0]
    4cfa:	3101      	adds	r1, #1
    4cfc:	6001      	str	r1, [r0, #0]
    4cfe:	bd0f      	pop	{r0, r1, r2, r3, pc}

00004d00 <inline_cache_schreiben>:
    4d00:	b50f      	push	{r0, r1, r2, r3, lr}
    4d02:	48ab      	ldr	r0, [pc, #684]	; (4fb0 <quit_innenschleife+0x5a>)
    4d04:	6801      	ldr	r1, [r0, #0]
    4d06:	2906      	cmp	r1, #6
    4d08:	d81f      	bhi.n	4d4a <inline_cache_schreiben+0x4a>
    4d0a:	48aa      	ldr	r0, [pc, #680]	; (4fb4 <quit_innenschleife+0x5e>)
    4d0c:	3901      	subs	r1, #1
    4d0e:	d01d      	beq.n	4d4c <inline_cache_schreiben+0x4c>
    4d10:	f847 6d04 	str.w	r6, [r7, #-4]!
    4d14:	000e      	movs	r6, r1
    4d16:	f7fe fe43 	bl	39a0 <Code_849>
    4d1a:	f847 6d04 	str.w	r6, [r7, #-4]!
    4d1e:	8806      	ldrh	r6, [r0, #0]
    4d20:	f7fe fe3e 	bl	39a0 <Code_849>
    4d24:	f847 6d04 	str.w	r6, [r7, #-4]!
    4d28:	8846      	ldrh	r6, [r0, #2]
    4d2a:	f7fe fe39 	bl	39a0 <Code_849>
    4d2e:	f847 6d04 	str.w	r6, [r7, #-4]!
    4d32:	8886      	ldrh	r6, [r0, #4]
    4d34:	f7fe fe34 	bl	39a0 <Code_849>
    4d38:	3006      	adds	r0, #6
    4d3a:	3901      	subs	r1, #1
    4d3c:	d1ed      	bne.n	4d1a <inline_cache_schreiben+0x1a>
    4d3e:	f847 6d04 	str.w	r6, [r7, #-4]!
    4d42:	f241 0600 	movw	r6, #4096	; 0x1000
    4d46:	f7fe fdb5 	bl	38b4 <Code_830>
    4d4a:	bd0f      	pop	{r0, r1, r2, r3, pc}
    4d4c:	f847 6d04 	str.w	r6, [r7, #-4]!
    4d50:	2640      	movs	r6, #64	; 0x40
    4d52:	f7fe fdaf 	bl	38b4 <Code_830>
    4d56:	bd0f      	pop	{r0, r1, r2, r3, pc}

00004d58 <inline_cache_parser>:
    4d58:	b500      	push	{lr}
    4d5a:	0030      	movs	r0, r6
    4d5c:	cf40      	ldmia	r7!, {r6}
    4d5e:	f7fe fbf7 	bl	3550 <suchedefinitionsende>
    4d62:	8801      	ldrh	r1, [r0, #0]
    4d64:	3002      	adds	r0, #2
    4d66:	f847 6d04 	str.w	r6, [r7, #-4]!
    4d6a:	8806      	ldrh	r6, [r0, #0]
    4d6c:	8842      	ldrh	r2, [r0, #2]
    4d6e:	0412      	lsls	r2, r2, #16
    4d70:	4316      	orrs	r6, r2
    4d72:	f847 6d04 	str.w	r6, [r7, #-4]!
    4d76:	8886      	ldrh	r6, [r0, #4]
    4d78:	b403      	push	{r0, r1}
    4d7a:	f7ff ff3e 	bl	4bfa <kompilator>
    4d7e:	bc03      	pop	{r0, r1}
    4d80:	3006      	adds	r0, #6
    4d82:	3901      	subs	r1, #1
    4d84:	d1ef      	bne.n	4d66 <inline_cache_parser+0xe>
    4d86:	bd00      	pop	{pc}

00004d88 <Dictionary_1199>:
    4d88:	00004dd0 	ldrdeq	r4, [r0], -r0
    4d8c:	65080000 	strvs	r0, [r8, #-0]
    4d90:	756c6176 	strbvc	r6, [ip, #-374]!	; 0xfffffe8a
    4d94:	00657461 	rsbeq	r7, r5, r1, ror #8

00004d98 <Code_1199>:
    4d98:	b500      	push	{lr}
    4d9a:	f7fd ffc8 	bl	2d2e <Code_621>
    4d9e:	cf01      	ldmia	r7!, {r0}
    4da0:	b401      	push	{r0}
    4da2:	b440      	push	{r6}
    4da4:	cf40      	ldmia	r7!, {r6}
    4da6:	4884      	ldr	r0, [pc, #528]	; (4fb8 <quit_innenschleife+0x62>)
    4da8:	6801      	ldr	r1, [r0, #0]
    4daa:	b402      	push	{r1}
    4dac:	2100      	movs	r1, #0
    4dae:	6001      	str	r1, [r0, #0]
    4db0:	f7fd ffb0 	bl	2d14 <Code_619>
    4db4:	f000 f814 	bl	4de0 <Code_1201>
    4db8:	487f      	ldr	r0, [pc, #508]	; (4fb8 <quit_innenschleife+0x62>)
    4dba:	bc02      	pop	{r1}
    4dbc:	6001      	str	r1, [r0, #0]
    4dbe:	f847 6d04 	str.w	r6, [r7, #-4]!
    4dc2:	bc40      	pop	{r6}
    4dc4:	bc01      	pop	{r0}
    4dc6:	3f04      	subs	r7, #4
    4dc8:	6038      	str	r0, [r7, #0]
    4dca:	f7fd ffa3 	bl	2d14 <Code_619>
    4dce:	bd00      	pop	{pc}

00004dd0 <Dictionary_1201>:
    4dd0:	00004f00 	andeq	r4, r0, r0, lsl #30
    4dd4:	69090000 	stmdbvs	r9, {}	; <UNPREDICTABLE>
    4dd8:	7265746e 	rsbvc	r7, r5, #1845493760	; 0x6e000000
    4ddc:	74657270 	strbtvc	r7, [r5], #-624	; 0xfffffd90

00004de0 <Code_1201>:
    4de0:	b500      	push	{lr}
    4de2:	4876      	ldr	r0, [pc, #472]	; (4fbc <quit_innenschleife+0x66>)
    4de4:	4287      	cmp	r7, r0
    4de6:	d910      	bls.n	4e0a <Code_1201+0x2a>
    4de8:	f7fe f854 	bl	2e94 <dotgaensefuesschen>
    4dec:	5b1b151a 	blpl	6ca25c <ADC12_Common_CCR_VREFEN+0x2ca25c>
    4df0:	536d3133 	cmnpl	sp, #-1073741812	; 0xc000000c
    4df4:	6b636174 	blvs	18dd3cc <RCC_PLL1DIVR_Value+0x8ad12d>
    4df8:	646e7520 	strbtvs	r7, [lr], #-1312	; 0xfffffae0
    4dfc:	6c667265 	sfmvs	f7, 2, [r6], #-404	; 0xfffffe6c
    4e00:	5b1b776f 	blpl	6e2bc4 <ADC12_Common_CCR_VREFEN+0x2e2bc4>
    4e04:	000a6d30 	andeq	r6, sl, r0, lsr sp
    4e08:	e08e      	b.n	4f28 <Code_1230>
    4e0a:	486d      	ldr	r0, [pc, #436]	; (4fc0 <quit_innenschleife+0x6a>)
    4e0c:	4287      	cmp	r7, r0
    4e0e:	d20f      	bcs.n	4e30 <Code_1201+0x50>
    4e10:	f7fe f840 	bl	2e94 <dotgaensefuesschen>
    4e14:	5b1b1519 	blpl	6ca280 <ADC12_Common_CCR_VREFEN+0x2ca280>
    4e18:	536d3133 	cmnpl	sp, #-1073741812	; 0xc000000c
    4e1c:	6b636174 	blvs	18dd3f4 <RCC_PLL1DIVR_Value+0x8ad155>
    4e20:	65766f20 	ldrbvs	r6, [r6, #-3872]!	; 0xfffff0e0
    4e24:	6f6c6672 	svcvs	0x006c6672
    4e28:	305b1b77 	subscc	r1, fp, r7, ror fp
    4e2c:	e07b0a6d 	rsbs	r0, fp, sp, ror #20
    4e30:	f7ff fec8 	bl	4bc4 <konstantenfaltungszeiger_setzen>
    4e34:	f7ff fce6 	bl	4804 <Code_1101>
    4e38:	2e00      	cmp	r6, #0
    4e3a:	d102      	bne.n	4e42 <Code_1201+0x62>
    4e3c:	3704      	adds	r7, #4
    4e3e:	cf40      	ldmia	r7!, {r6}
    4e40:	bd00      	pop	{pc}
    4e42:	6838      	ldr	r0, [r7, #0]
    4e44:	f847 6d04 	str.w	r6, [r7, #-4]!
    4e48:	3f04      	subs	r7, #4
    4e4a:	6038      	str	r0, [r7, #0]
    4e4c:	f7ff f8ad 	bl	3faa <Code_933>
    4e50:	0031      	movs	r1, r6
    4e52:	cf40      	ldmia	r7!, {r6}
    4e54:	0032      	movs	r2, r6
    4e56:	cf40      	ldmia	r7!, {r6}
    4e58:	2a00      	cmp	r2, #0
    4e5a:	d120      	bne.n	4e9e <.interpret_token_found>
    4e5c:	6838      	ldr	r0, [r7, #0]
    4e5e:	0031      	movs	r1, r6
    4e60:	f7fc fc5a 	bl	1718 <sprungschreiber_flaggenerator>
    4e64:	f7ff fd2a 	bl	48bc <Code_1106>
    4e68:	0032      	movs	r2, r6
    4e6a:	cf40      	ldmia	r7!, {r6}
    4e6c:	2a00      	cmp	r2, #0
    4e6e:	d1b8      	bne.n	4de2 <Code_1201+0x2>

00004e70 <not_found_addr_r0_len_r1>:
    4e70:	f847 6d04 	str.w	r6, [r7, #-4]!
    4e74:	0006      	movs	r6, r0
    4e76:	f847 6d04 	str.w	r6, [r7, #-4]!
    4e7a:	000e      	movs	r6, r1
    4e7c:	f7fe f85e 	bl	2f3c <Code_669>
    4e80:	f7fe f808 	bl	2e94 <dotgaensefuesschen>
    4e84:	5b1b1516 	blpl	6ca2e4 <ADC12_Common_CCR_VREFEN+0x2ca2e4>
    4e88:	206d3133 	rsbcs	r3, sp, r3, lsr r1
    4e8c:	20746f6e 	rsbscs	r6, r4, lr, ror #30
    4e90:	6e756f66 	cdpvs	15, 7, cr6, cr5, cr6, {3}
    4e94:	5b1b2e64 	blpl	6d082c <ADC12_Common_CCR_VREFEN+0x2d082c>
    4e98:	000a6d30 	andeq	r6, sl, r0, lsr sp
    4e9c:	e044      	b.n	4f28 <Code_1230>

00004e9e <.interpret_token_found>:
    4e9e:	4b49      	ldr	r3, [pc, #292]	; (4fc4 <quit_innenschleife+0x6e>)
    4ea0:	681b      	ldr	r3, [r3, #0]
    4ea2:	2b00      	cmp	r3, #0
    4ea4:	d121      	bne.n	4eea <.ausfuehren+0x10>
    4ea6:	f7ff fe9c 	bl	4be2 <konstantenfaltungszeiger_loeschen>
    4eaa:	2330      	movs	r3, #48	; 0x30
    4eac:	400b      	ands	r3, r1
    4eae:	2b30      	cmp	r3, #48	; 0x30
    4eb0:	d113      	bne.n	4eda <.ausfuehren>
    4eb2:	f7fe f843 	bl	2f3c <Code_669>
    4eb6:	f7fd ffed 	bl	2e94 <dotgaensefuesschen>
    4eba:	5b1b151c 	blpl	6ca332 <ADC12_Common_CCR_VREFEN+0x2ca332>
    4ebe:	206d3133 	rsbcs	r3, sp, r3, lsr r1
    4ec2:	63207369 			; <UNDEFINED> instruction: 0x63207369
    4ec6:	69706d6f 	ldmdbvs	r0!, {r0, r1, r2, r3, r5, r6, r8, sl, fp, sp, lr}^
    4eca:	6f2d656c 	svcvs	0x002d656c
    4ece:	2e796c6e 	cdpcs	12, 7, cr6, cr9, cr14, {3}
    4ed2:	6d305b1b 	fldmdbxvs	r0!, {d5-d17}	;@ Deprecated
    4ed6:	e026000a 	eor	r0, r6, sl

00004eda <.ausfuehren>:
    4eda:	3704      	adds	r7, #4
    4edc:	cf40      	ldmia	r7!, {r6}
    4ede:	f847 6d04 	str.w	r6, [r7, #-4]!
    4ee2:	0016      	movs	r6, r2
    4ee4:	f7fe fbd6 	bl	3694 <Code_785>
    4ee8:	e77b      	b.n	4de2 <Code_1201+0x2>
    4eea:	3704      	adds	r7, #4
    4eec:	cf40      	ldmia	r7!, {r6}
    4eee:	f847 6d04 	str.w	r6, [r7, #-4]!
    4ef2:	0016      	movs	r6, r2
    4ef4:	f847 6d04 	str.w	r6, [r7, #-4]!
    4ef8:	000e      	movs	r6, r1
    4efa:	f7ff fe7e 	bl	4bfa <kompilator>
    4efe:	e770      	b.n	4de2 <Code_1201+0x2>

00004f00 <Dictionary_1227>:
    4f00:	00004f1c 	andeq	r4, r0, ip, lsl pc
    4f04:	68090081 	stmdavs	r9, {r0, r7}
    4f08:	2d6b6f6f 	stclcs	15, cr6, [fp, #-444]!	; 0xfffffe44
    4f0c:	74697571 	strbtvc	r7, [r9], #-1393	; 0xfffffa8f

00004f10 <Code_1227>:
    4f10:	f847 6d04 	str.w	r6, [r7, #-4]!
    4f14:	4e2c      	ldr	r6, [pc, #176]	; (4fc8 <quit_innenschleife+0x72>)
    4f16:	4770      	bx	lr
    4f18:	00004f56 	andeq	r4, r0, r6, asr pc

00004f1c <Dictionary_1230>:
    4f1c:	00004fe0 	andeq	r4, r0, r0, ror #31
    4f20:	71040000 	mrsvc	r0, (UNDEF: 4)
    4f24:	00746975 	rsbseq	r6, r4, r5, ror r9

00004f28 <Code_1230>:
    4f28:	f8df d0a0 	ldr.w	sp, [pc, #160]	; 4fcc <quit_innenschleife+0x76>
    4f2c:	4f23      	ldr	r7, [pc, #140]	; (4fbc <quit_innenschleife+0x66>)
    4f2e:	4828      	ldr	r0, [pc, #160]	; (4fd0 <quit_innenschleife+0x7a>)
    4f30:	210a      	movs	r1, #10
    4f32:	6001      	str	r1, [r0, #0]
    4f34:	4823      	ldr	r0, [pc, #140]	; (4fc4 <quit_innenschleife+0x6e>)
    4f36:	2100      	movs	r1, #0
    4f38:	6001      	str	r1, [r0, #0]
    4f3a:	f04f 5000 	mov.w	r0, #536870912	; 0x20000000
    4f3e:	6001      	str	r1, [r0, #0]
    4f40:	f7fb fa3f 	bl	3c2 <init_register_allocator>
    4f44:	481c      	ldr	r0, [pc, #112]	; (4fb8 <quit_innenschleife+0x62>)
    4f46:	6001      	str	r1, [r0, #0]
    4f48:	4822      	ldr	r0, [pc, #136]	; (4fd4 <quit_innenschleife+0x7e>)
    4f4a:	6001      	str	r1, [r0, #0]
    4f4c:	4922      	ldr	r1, [pc, #136]	; (4fd8 <quit_innenschleife+0x82>)
    4f4e:	6041      	str	r1, [r0, #4]

00004f50 <quit_intern>:
    4f50:	481d      	ldr	r0, [pc, #116]	; (4fc8 <quit_innenschleife+0x72>)
    4f52:	6800      	ldr	r0, [r0, #0]
    4f54:	4687      	mov	pc, r0

00004f56 <quit_innenschleife>:
    4f56:	f7fd fef8 	bl	2d4a <Code_623>
    4f5a:	f7ff ff41 	bl	4de0 <Code_1201>
    4f5e:	4819      	ldr	r0, [pc, #100]	; (4fc4 <quit_innenschleife+0x6e>)
    4f60:	6800      	ldr	r0, [r0, #0]
    4f62:	2800      	cmp	r0, #0
    4f64:	d006      	beq.n	4f74 <quit_innenschleife+0x1e>
    4f66:	f7fd ff95 	bl	2e94 <dotgaensefuesschen>
    4f6a:	1b062007 	blne	18cf8e <ADC12_Common_CSR_OVR_SLV+0x8cf8e>
    4f6e:	6d34335b 	ldcvs	3, cr3, [r4, #-364]!	; 0xfffffe94
    4f72:	e005      	b.n	4f80 <quit_innenschleife+0x2a>
    4f74:	f7fd ff8e 	bl	2e94 <dotgaensefuesschen>
    4f78:	1b062007 	blne	18cf9c <ADC12_Common_CSR_OVR_SLV+0x8cf9c>
    4f7c:	6d36335b 	ldcvs	3, cr3, [r6, #-364]!	; 0xfffffe94
    4f80:	4816      	ldr	r0, [pc, #88]	; (4fdc <quit_innenschleife+0x86>)
    4f82:	6800      	ldr	r0, [r0, #0]
    4f84:	f04f 5110 	mov.w	r1, #603979776	; 0x24000000
    4f88:	4288      	cmp	r0, r1
    4f8a:	d307      	bcc.n	4f9c <quit_innenschleife+0x46>
    4f8c:	f7fd ff82 	bl	2e94 <dotgaensefuesschen>
    4f90:	276b6f08 	strbcs	r6, [fp, -r8, lsl #30]!
    4f94:	6d305b1b 	fldmdbxvs	r0!, {d5-d17}	;@ Deprecated
    4f98:	e7dc000a 	ldrb	r0, [ip, sl]
    4f9c:	f7fd ff7a 	bl	2e94 <dotgaensefuesschen>
    4fa0:	2e6b6f08 	cdpcs	15, 6, cr6, cr11, cr8, {0}
    4fa4:	6d305b1b 	fldmdbxvs	r0!, {d5-d17}	;@ Deprecated
    4fa8:	e7d4000a 	ldrb	r0, [r4, sl]
    4fac:	20000020 	andcs	r0, r0, r0, lsr #32
    4fb0:	20000054 	andcs	r0, r0, r4, asr r0
    4fb4:	20000058 	andcs	r0, r0, r8, asr r0
    4fb8:	2001ffe4 	andcs	pc, r1, r4, ror #31
    4fbc:	20000288 	andcs	r0, r0, r8, lsl #5
    4fc0:	20000188 	andcs	r0, r0, r8, lsl #3
    4fc4:	2001ffd8 	ldrdcs	pc, [r1], -r8
    4fc8:	2001ffc8 	andcs	pc, r1, r8, asr #31
    4fcc:	20000388 	andcs	r0, r0, r8, lsl #7
    4fd0:	2001fffc 	strdcs	pc, [r1], -ip
    4fd4:	2001ffdc 	ldrdcs	pc, [r1], -ip
    4fd8:	200000c0 	andcs	r0, r0, r0, asr #1
    4fdc:	2001ffd0 	ldrdcs	pc, [r1], -r0

00004fe0 <Dictionary_1235>:
    4fe0:	00004ffa 	strdeq	r4, [r0], -sl
    4fe4:	65050000 	strvs	r0, [r5, #-0]
    4fe8:	3f746e69 	svccc	0x00746e69

00004fec <Code_1235>:
    4fec:	f847 6d04 	str.w	r6, [r7, #-4]!
    4ff0:	f3ef 8610 	mrs	r6, PRIMASK
    4ff4:	3e01      	subs	r6, #1
    4ff6:	41b6      	sbcs	r6, r6
    4ff8:	4770      	bx	lr

00004ffa <Dictionary_1237>:
    4ffa:	0000500a 	andeq	r5, r0, sl
    4ffe:	65040020 	strvs	r0, [r4, #-32]	; 0xffffffe0
    5002:	00746e69 	rsbseq	r6, r4, r9, ror #28

00005006 <Code_1237>:
    5006:	b662      	cpsie	i
    5008:	4770      	bx	lr

0000500a <Dictionary_1238>:
    500a:	0000501a 	andeq	r5, r0, sl, lsl r0
    500e:	64040020 	strvs	r0, [r4], #-32	; 0xffffffe0
    5012:	00746e69 	rsbseq	r6, r4, r9, ror #28

00005016 <Code_1238>:
    5016:	b672      	cpsid	i
    5018:	4770      	bx	lr

0000501a <Dictionary_1239>:
    501a:	00005030 	andeq	r5, r0, r0, lsr r0
    501e:	69040020 	stmdbvs	r4, {r5}
    5022:	00727370 	rsbseq	r7, r2, r0, ror r3

00005026 <Code_1239>:
    5026:	f847 6d04 	str.w	r6, [r7, #-4]!
    502a:	f3ef 8605 	mrs	r6, IPSR
    502e:	4770      	bx	lr

00005030 <Dictionary_1241>:
    5030:	0000503c 	andeq	r5, r0, ip, lsr r0
    5034:	6e030000 	cdpvs	0, 0, cr0, cr3, cr0, {0}
    5038:	 	ldrbmi	r7, [r0, -pc, rrx]!

0000503a <Code_1241>:
    503a:	4770      	bx	lr

0000503c <Dictionary_1242>:
    503c:	0000507e 	andeq	r5, r0, lr, ror r0
    5040:	75090000 	strvc	r0, [r9, #-0]
    5044:	6e61686e 	cdpvs	8, 6, cr6, cr1, cr14, {3}
    5048:	64656c64 	strbtvs	r6, [r5], #-3172	; 0xfffff39c

0000504c <Code_1242>:
    504c:	b500      	push	{lr}
    504e:	f7fd ff21 	bl	2e94 <dotgaensefuesschen>
    5052:	686e5514 	stmdavs	lr!, {r2, r4, r8, sl, ip, lr}^
    5056:	6c646e61 	stclvs	14, cr6, [r4], #-388	; 0xfffffe7c
    505a:	49206465 	stmdbmi	r0!, {r0, r2, r5, r6, sl, sp, lr}
    505e:	7265746e 	rsbvc	r7, r5, #1845493760	; 0x6e000000
    5062:	74707572 	ldrbtvc	r7, [r0], #-1394	; 0xfffffa8e
    5066:	f8470020 			; <UNDEFINED> instruction: 0xf8470020
    506a:	6d04      	ldr	r4, [r0, #80]	; 0x50
    506c:	f3ef 8605 	mrs	r6, IPSR
    5070:	f7fd ff78 	bl	2f64 <Code_672>
    5074:	f7fd ff0e 	bl	2e94 <dotgaensefuesschen>
    5078:	000a2102 	andeq	r2, sl, r2, lsl #2
    507c:	bd00      	pop	{pc}

0000507e <Dictionary_1246>:
    507e:	00005090 	muleq	r0, r0, r0
    5082:	72050000 	andvc	r0, r5, #0
    5086:	74657365 	strbtvc	r7, [r5], #-869	; 0xfffffc9b

0000508a <Code_1246>:
    508a:	488e      	ldr	r0, [pc, #568]	; (52c4 <Code_1295+0x2e>)
    508c:	498e      	ldr	r1, [pc, #568]	; (52c8 <Code_1295+0x32>)
    508e:	6001      	str	r1, [r0, #0]

00005090 <Dictionary_1248>:
    5090:	000050ba 	strheq	r5, [r0], -sl
    5094:	690b0081 	stmdbvs	fp, {r0, r7}
    5098:	732d7172 			; <UNDEFINED> instruction: 0x732d7172
    509c:	69747379 	ldmdbvs	r4!, {r0, r3, r4, r5, r6, r8, r9, ip, sp, lr}^
    50a0:	 			; <UNDEFINED> instruction: 0xf8476b63

000050a2 <Code_1248>:
    50a2:	f847 6d04 	str.w	r6, [r7, #-4]!
    50a6:	4e89      	ldr	r6, [pc, #548]	; (52cc <Code_1295+0x36>)
    50a8:	4770      	bx	lr
    50aa:	0000504c 	andeq	r5, r0, ip, asr #32

000050ae <irq_vektor_systick>:
    50ae:	f64f 70c4 	movw	r0, #65476	; 0xffc4
    50b2:	f2c2 0001 	movt	r0, #8193	; 0x2001
    50b6:	6800      	ldr	r0, [r0, #0]
    50b8:	4687      	mov	pc, r0

000050ba <Dictionary_1252>:
    50ba:	000050e2 	andeq	r5, r0, r2, ror #1
    50be:	69090081 	stmdbvs	r9, {r0, r7}
    50c2:	662d7172 			; <UNDEFINED> instruction: 0x662d7172
    50c6:	746c7561 	strbtvc	r7, [ip], #-1377	; 0xfffffa9f

000050ca <Code_1252>:
    50ca:	f847 6d04 	str.w	r6, [r7, #-4]!
    50ce:	4e80      	ldr	r6, [pc, #512]	; (52d0 <Code_1295+0x3a>)
    50d0:	4770      	bx	lr
    50d2:	0000504c 	andeq	r5, r0, ip, asr #32

000050d6 <faulthandler>:
    50d6:	f64f 70c0 	movw	r0, #65472	; 0xffc0
    50da:	f2c2 0001 	movt	r0, #8193	; 0x2001
    50de:	6800      	ldr	r0, [r0, #0]
    50e0:	4687      	mov	pc, r0

000050e2 <Dictionary_1256>:
    50e2:	00005110 	andeq	r5, r0, r0, lsl r1
    50e6:	690e0081 	stmdbvs	lr, {r0, r7}
    50ea:	632d7172 			; <UNDEFINED> instruction: 0x632d7172
    50ee:	656c6c6f 	strbvs	r6, [ip, #-3183]!	; 0xfffff391
    50f2:	6f697463 	svcvs	0x00697463
    50f6:	 			; <UNDEFINED> instruction: 0xf847006e

000050f8 <Code_1256>:
    50f8:	f847 6d04 	str.w	r6, [r7, #-4]!
    50fc:	4e75      	ldr	r6, [pc, #468]	; (52d4 <Code_1295+0x3e>)
    50fe:	4770      	bx	lr
    5100:	0000504c 	andeq	r5, r0, ip, asr #32

00005104 <nullhandler>:
    5104:	f64f 70bc 	movw	r0, #65468	; 0xffbc
    5108:	f2c2 0001 	movt	r0, #8193	; 0x2001
    510c:	6800      	ldr	r0, [r0, #0]
    510e:	4687      	mov	pc, r0

00005110 <Dictionary_1260>:
    5110:	00005138 	andeq	r5, r0, r8, lsr r1
    5114:	69090081 	stmdbvs	r9, {r0, r7}
    5118:	652d7172 	strvs	r7, [sp, #-370]!	; 0xfffffe8e
    511c:	30697478 	rsbcc	r7, r9, r8, ror r4

00005120 <Code_1260>:
    5120:	f847 6d04 	str.w	r6, [r7, #-4]!
    5124:	4e6c      	ldr	r6, [pc, #432]	; (52d8 <Code_1295+0x42>)
    5126:	4770      	bx	lr
    5128:	0000504c 	andeq	r5, r0, ip, asr #32

0000512c <irq_vektor_exti0>:
    512c:	f64f 70b8 	movw	r0, #65464	; 0xffb8
    5130:	f2c2 0001 	movt	r0, #8193	; 0x2001
    5134:	6800      	ldr	r0, [r0, #0]
    5136:	4687      	mov	pc, r0

00005138 <Dictionary_1264>:
    5138:	00005160 	andeq	r5, r0, r0, ror #2
    513c:	69090081 	stmdbvs	r9, {r0, r7}
    5140:	652d7172 	strvs	r7, [sp, #-370]!	; 0xfffffe8e
    5144:	31697478 	smccc	38728	; 0x9748

00005148 <Code_1264>:
    5148:	f847 6d04 	str.w	r6, [r7, #-4]!
    514c:	4e63      	ldr	r6, [pc, #396]	; (52dc <Code_1295+0x46>)
    514e:	4770      	bx	lr
    5150:	0000504c 	andeq	r5, r0, ip, asr #32

00005154 <irq_vektor_exti1>:
    5154:	f64f 70b4 	movw	r0, #65460	; 0xffb4
    5158:	f2c2 0001 	movt	r0, #8193	; 0x2001
    515c:	6800      	ldr	r0, [r0, #0]
    515e:	4687      	mov	pc, r0

00005160 <Dictionary_1268>:
    5160:	00005188 	andeq	r5, r0, r8, lsl #3
    5164:	69090081 	stmdbvs	r9, {r0, r7}
    5168:	652d7172 	strvs	r7, [sp, #-370]!	; 0xfffffe8e
    516c:	32697478 	rsbcc	r7, r9, #120, 8	; 0x78000000

00005170 <Code_1268>:
    5170:	f847 6d04 	str.w	r6, [r7, #-4]!
    5174:	4e5a      	ldr	r6, [pc, #360]	; (52e0 <Code_1295+0x4a>)
    5176:	4770      	bx	lr
    5178:	0000504c 	andeq	r5, r0, ip, asr #32

0000517c <irq_vektor_exti2>:
    517c:	f64f 70b0 	movw	r0, #65456	; 0xffb0
    5180:	f2c2 0001 	movt	r0, #8193	; 0x2001
    5184:	6800      	ldr	r0, [r0, #0]
    5186:	4687      	mov	pc, r0

00005188 <Dictionary_1272>:
    5188:	000051b0 			; <UNDEFINED> instruction: 0x000051b0
    518c:	69090081 	stmdbvs	r9, {r0, r7}
    5190:	652d7172 	strvs	r7, [sp, #-370]!	; 0xfffffe8e
    5194:	33697478 	cmncc	r9, #120, 8	; 0x78000000

00005198 <Code_1272>:
    5198:	f847 6d04 	str.w	r6, [r7, #-4]!
    519c:	4e51      	ldr	r6, [pc, #324]	; (52e4 <Code_1295+0x4e>)
    519e:	4770      	bx	lr
    51a0:	0000504c 	andeq	r5, r0, ip, asr #32

000051a4 <irq_vektor_exti3>:
    51a4:	f64f 70ac 	movw	r0, #65452	; 0xffac
    51a8:	f2c2 0001 	movt	r0, #8193	; 0x2001
    51ac:	6800      	ldr	r0, [r0, #0]
    51ae:	4687      	mov	pc, r0

000051b0 <Dictionary_1276>:
    51b0:	000051d8 	ldrdeq	r5, [r0], -r8
    51b4:	69090081 	stmdbvs	r9, {r0, r7}
    51b8:	652d7172 	strvs	r7, [sp, #-370]!	; 0xfffffe8e
    51bc:	34697478 	strbtcc	r7, [r9], #-1144	; 0xfffffb88

000051c0 <Code_1276>:
    51c0:	f847 6d04 	str.w	r6, [r7, #-4]!
    51c4:	4e48      	ldr	r6, [pc, #288]	; (52e8 <Code_1295+0x52>)
    51c6:	4770      	bx	lr
    51c8:	0000504c 	andeq	r5, r0, ip, asr #32

000051cc <irq_vektor_exti4>:
    51cc:	f64f 70a8 	movw	r0, #65448	; 0xffa8
    51d0:	f2c2 0001 	movt	r0, #8193	; 0x2001
    51d4:	6800      	ldr	r0, [r0, #0]
    51d6:	4687      	mov	pc, r0

000051d8 <Dictionary_1280>:
    51d8:	000051fe 	strdeq	r5, [r0], -lr
    51dc:	69070081 	stmdbvs	r7, {r0, r7}
    51e0:	612d7172 			; <UNDEFINED> instruction: 0x612d7172
    51e4:	 			; <UNDEFINED> instruction: 0xf8476364

000051e6 <Code_1280>:
    51e6:	f847 6d04 	str.w	r6, [r7, #-4]!
    51ea:	4e40      	ldr	r6, [pc, #256]	; (52ec <Code_1295+0x56>)
    51ec:	4770      	bx	lr
    51ee:	0000504c 	andeq	r5, r0, ip, asr #32

000051f2 <irq_vektor_adc>:
    51f2:	f64f 70a4 	movw	r0, #65444	; 0xffa4
    51f6:	f2c2 0001 	movt	r0, #8193	; 0x2001
    51fa:	6800      	ldr	r0, [r0, #0]
    51fc:	4687      	mov	pc, r0

000051fe <Dictionary_1284>:
    51fe:	00005226 	andeq	r5, r0, r6, lsr #4
    5202:	69080081 	stmdbvs	r8, {r0, r7}
    5206:	742d7172 	strtvc	r7, [sp], #-370	; 0xfffffe8e
    520a:	00326d69 	eorseq	r6, r2, r9, ror #26

0000520e <Code_1284>:
    520e:	f847 6d04 	str.w	r6, [r7, #-4]!
    5212:	4e37      	ldr	r6, [pc, #220]	; (52f0 <Code_1295+0x5a>)
    5214:	4770      	bx	lr
    5216:	0000504c 	andeq	r5, r0, ip, asr #32

0000521a <irq_vektor_tim2>:
    521a:	f64f 70a0 	movw	r0, #65440	; 0xffa0
    521e:	f2c2 0001 	movt	r0, #8193	; 0x2001
    5222:	6800      	ldr	r0, [r0, #0]
    5224:	4687      	mov	pc, r0

00005226 <Dictionary_1288>:
    5226:	0000524e 	andeq	r5, r0, lr, asr #4
    522a:	69080081 	stmdbvs	r8, {r0, r7}
    522e:	742d7172 	strtvc	r7, [sp], #-370	; 0xfffffe8e
    5232:	00336d69 	eorseq	r6, r3, r9, ror #26

00005236 <Code_1288>:
    5236:	f847 6d04 	str.w	r6, [r7, #-4]!
    523a:	4e2e      	ldr	r6, [pc, #184]	; (52f4 <Code_1295+0x5e>)
    523c:	4770      	bx	lr
    523e:	0000504c 	andeq	r5, r0, ip, asr #32

00005242 <irq_vektor_tim3>:
    5242:	f64f 709c 	movw	r0, #65436	; 0xff9c
    5246:	f2c2 0001 	movt	r0, #8193	; 0x2001
    524a:	6800      	ldr	r0, [r0, #0]
    524c:	4687      	mov	pc, r0

0000524e <Dictionary_1292>:
    524e:	00005276 	andeq	r5, r0, r6, ror r2
    5252:	69080081 	stmdbvs	r8, {r0, r7}
    5256:	742d7172 	strtvc	r7, [sp], #-370	; 0xfffffe8e
    525a:	00346d69 	eorseq	r6, r4, r9, ror #26

0000525e <Code_1292>:
    525e:	f847 6d04 	str.w	r6, [r7, #-4]!
    5262:	4e25      	ldr	r6, [pc, #148]	; (52f8 <Code_1295+0x62>)
    5264:	4770      	bx	lr
    5266:	0000504c 	andeq	r5, r0, ip, asr #32

0000526a <irq_vektor_tim4>:
    526a:	f64f 7098 	movw	r0, #65432	; 0xff98
    526e:	f2c2 0001 	movt	r0, #8193	; 0x2001
    5272:	6800      	ldr	r0, [r0, #0]
    5274:	4687      	mov	pc, r0

00005276 <Dictionary_1295>:
    5276:	24000000 	strcs	r0, [r0], #-0
    527a:	2d18ffff 	ldccs	15, cr15, [r8, #-1020]	; 0xfffffc04
    527e:	46202d2d 	strtmi	r2, [r0], -sp, lsr #26
    5282:	6873616c 	ldmdavs	r3!, {r2, r3, r5, r6, r8, sp, lr}^
    5286:	63694420 	cmnvs	r9, #32, 8	; 0x20000000
    528a:	6e6f6974 			; <UNDEFINED> instruction: 0x6e6f6974
    528e:	20797261 	rsbscs	r7, r9, r1, ror #4
    5292:	002d2d2d 	eoreq	r2, sp, sp, lsr #26

00005296 <Code_1295>:
    5296:	f7fd fa81 	bl	279c <enable_caches>
    529a:	f05f 6000 	movs.w	r0, #134217728	; 0x8000000
    529e:	f05f 0100 	movs.w	r1, #0
    52a2:	f245 42c0 	movw	r2, #21696	; 0x54c0
    52a6:	c808      	ldmia	r0!, {r3}
    52a8:	c108      	stmia	r1!, {r3}
    52aa:	4291      	cmp	r1, r2
    52ac:	d1fb      	bne.n	52a6 <Code_1295+0x10>
    52ae:	4813      	ldr	r0, [pc, #76]	; (52fc <Code_1295+0x66>)
    52b0:	2100      	movs	r1, #0
    52b2:	6001      	str	r1, [r0, #0]
    52b4:	f3bf 8f4f 	dsb	sy
    52b8:	f3bf 8f6f 	isb	sy
    52bc:	f245 3101 	movw	r1, #21249	; 0x5301
    52c0:	4708      	bx	r1
    52c2:	ed0c0000 	stc	0, cr0, [ip, #-0]
    52c6:	0004e000 	andeq	lr, r4, r0
    52ca:	ffc405fa 			; <UNDEFINED> instruction: 0xffc405fa
    52ce:	ffc02001 			; <UNDEFINED> instruction: 0xffc02001
    52d2:	ffbc2001 			; <UNDEFINED> instruction: 0xffbc2001
    52d6:	ffb82001 			; <UNDEFINED> instruction: 0xffb82001
    52da:	ffb42001 			; <UNDEFINED> instruction: 0xffb42001
    52de:	ffb02001 			; <UNDEFINED> instruction: 0xffb02001
    52e2:	ffac2001 			; <UNDEFINED> instruction: 0xffac2001
    52e6:	ffa82001 			; <UNDEFINED> instruction: 0xffa82001
    52ea:	ffa42001 			; <UNDEFINED> instruction: 0xffa42001
    52ee:	ffa02001 			; <UNDEFINED> instruction: 0xffa02001
    52f2:	ff9c2001 			; <UNDEFINED> instruction: 0xff9c2001
    52f6:	ff982001 			; <UNDEFINED> instruction: 0xff982001
    52fa:	ed082001 	stc	0, cr2, [r8, #-4]
    52fe:	 			; <UNDEFINED> instruction: 0xf7fce000

00005300 <Handover>:
    5300:	f7fc fd77 	bl	1df2 <Code_433>
    5304:	f7fd faa0 	bl	2848 <Code_550>
    5308:	f7fd faac 	bl	2864 <Code_551>
    530c:	f7fd fabb 	bl	2886 <Code_552>
    5310:	f7fd facc 	bl	28ac <Code_553>
    5314:	f7fc fda7 	bl	1e66 <Code_437>
    5318:	f7fd faf4 	bl	2904 <Code_554>
    531c:	f04f 5010 	mov.w	r0, #603979776	; 0x24000000
    5320:	495d      	ldr	r1, [pc, #372]	; (5498 <init_name+0x6>)
    5322:	f04f 32ff 	mov.w	r2, #4294967295	; 0xffffffff
    5326:	0013      	movs	r3, r2
    5328:	c00c      	stmia	r0!, {r2, r3}
    532a:	4288      	cmp	r0, r1
    532c:	d1fc      	bne.n	5328 <Handover+0x28>
    532e:	f04f 0c00 	mov.w	ip, #0
    5332:	4f5a      	ldr	r7, [pc, #360]	; (549c <init_name+0xa>)
    5334:	2600      	movs	r6, #0
    5336:	f847 6d04 	str.w	r6, [r7, #-4]!
    533a:	f04f 5610 	mov.w	r6, #603979776	; 0x24000000
    533e:	f847 6d04 	str.w	r6, [r7, #-4]!
    5342:	f44f 2600 	mov.w	r6, #524288	; 0x80000
    5346:	f7fc ff0d 	bl	2164 <Code_454>
    534a:	4855      	ldr	r0, [pc, #340]	; (54a0 <init_name+0xe>)
    534c:	4685      	mov	sp, r0
    534e:	4f53      	ldr	r7, [pc, #332]	; (549c <init_name+0xa>)
    5350:	262a      	movs	r6, #42	; 0x2a
    5352:	f847 6d04 	str.w	r6, [r7, #-4]!
    5356:	4e53      	ldr	r6, [pc, #332]	; (54a4 <init_name+0x12>)
    5358:	4d53      	ldr	r5, [pc, #332]	; (54a8 <init_name+0x16>)

0000535a <SucheFlashPointer_Hangelschleife>:
    535a:	88b1      	ldrh	r1, [r6, #4]
    535c:	f64f 73ff 	movw	r3, #65535	; 0xffff
    5360:	4299      	cmp	r1, r3
    5362:	d025      	beq.n	53b0 <Sucheflashpointer_Speicherbelegung_fertig>
    5364:	f44f 7380 	mov.w	r3, #256	; 0x100
    5368:	400b      	ands	r3, r1
    536a:	d00a      	beq.n	5382 <SucheFlashPointer_Hangelschleife+0x28>
    536c:	1db0      	adds	r0, r6, #6
    536e:	f7fe fe0d 	bl	3f8c <skipstring>
    5372:	f7fe f8ed 	bl	3550 <suchedefinitionsende>
    5376:	8803      	ldrh	r3, [r0, #0]
    5378:	8840      	ldrh	r0, [r0, #2]
    537a:	0400      	lsls	r0, r0, #16
    537c:	4303      	orrs	r3, r0
    537e:	1aed      	subs	r5, r5, r3
    5380:	e016      	b.n	53b0 <Sucheflashpointer_Speicherbelegung_fertig>
    5382:	2380      	movs	r3, #128	; 0x80
    5384:	400b      	ands	r3, r1
    5386:	d013      	beq.n	53b0 <Sucheflashpointer_Speicherbelegung_fertig>
    5388:	230f      	movs	r3, #15
    538a:	4019      	ands	r1, r3
    538c:	0089      	lsls	r1, r1, #2
    538e:	1a6d      	subs	r5, r5, r1
    5390:	1db0      	adds	r0, r6, #6
    5392:	f7fe fdfb 	bl	3f8c <skipstring>
    5396:	f7fe f8db 	bl	3550 <suchedefinitionsende>
    539a:	f847 6d04 	str.w	r6, [r7, #-4]!
    539e:	0006      	movs	r6, r0
    53a0:	f847 6d04 	str.w	r6, [r7, #-4]!
    53a4:	002e      	movs	r6, r5
    53a6:	f847 6d04 	str.w	r6, [r7, #-4]!
    53aa:	000e      	movs	r6, r1
    53ac:	f7fc fa7a 	bl	18a4 <Code_372>

000053b0 <Sucheflashpointer_Speicherbelegung_fertig>:
    53b0:	f7fe fdb7 	bl	3f22 <Code_928>
    53b4:	0030      	movs	r0, r6
    53b6:	cf40      	ldmia	r7!, {r6}
    53b8:	d0cf      	beq.n	535a <SucheFlashPointer_Hangelschleife>
    53ba:	483c      	ldr	r0, [pc, #240]	; (54ac <init_name+0x1a>)
    53bc:	6006      	str	r6, [r0, #0]
    53be:	cf40      	ldmia	r7!, {r6}
    53c0:	483b      	ldr	r0, [pc, #236]	; (54b0 <init_name+0x1e>)
    53c2:	6005      	str	r5, [r0, #0]
    53c4:	4834      	ldr	r0, [pc, #208]	; (5498 <init_name+0x6>)
    53c6:	f04f 5110 	mov.w	r1, #603979776	; 0x24000000
    53ca:	f64f 72ff 	movw	r2, #65535	; 0xffff
    53ce:	4288      	cmp	r0, r1
    53d0:	d004      	beq.n	53dc <Sucheflashpointer_Speicherbelegung_fertig+0x2c>
    53d2:	3802      	subs	r0, #2
    53d4:	8803      	ldrh	r3, [r0, #0]
    53d6:	4293      	cmp	r3, r2
    53d8:	d0f9      	beq.n	53ce <Sucheflashpointer_Speicherbelegung_fertig+0x1e>
    53da:	3002      	adds	r0, #2
    53dc:	4935      	ldr	r1, [pc, #212]	; (54b4 <init_name+0x22>)
    53de:	6008      	str	r0, [r1, #0]
    53e0:	f7fd fb02 	bl	29e8 <Code_565>
    53e4:	f7fd fd56 	bl	2e94 <dotgaensefuesschen>
    53e8:	63654d43 	cmnvs	r5, #4288	; 0x10c0
    53ec:	70736972 	rsbsvc	r6, r3, r2, ror r9
    53f0:	6574532d 	ldrbvs	r5, [r4, #-813]!	; 0xfffffcd3
    53f4:	72616c6c 	rsbvc	r6, r1, #108, 24	; 0x6c00
    53f8:	52207369 	eorpl	r7, r0, #-1543503871	; 0xa4000001
    53fc:	2e322041 	cdpcs	0, 3, cr2, cr2, cr1, {2}
    5400:	20352e36 	eorscs	r2, r5, r6, lsr lr
    5404:	20726f66 	rsbscs	r6, r2, r6, ror #30
    5408:	334d5453 	movtcc	r5, #54355	; 0xd453
    540c:	35374832 	ldrcc	r4, [r7, #-2098]!	; 0xfffff7ce
    5410:	65572030 	ldrbvs	r2, [r7, #-48]	; 0xffffffd0
    5414:	20544341 	subscs	r4, r4, r1, asr #6
    5418:	62203256 	eorvs	r3, r0, #1610612741	; 0x60000005
    541c:	614d2079 	hvcvs	53769	; 0xd209
    5420:	69687474 	stmdbvs	r8!, {r2, r4, r5, r6, sl, ip, sp, lr}^
    5424:	4b207361 	blmi	8221b0 <ADC12_Common_CCR_TSEN+0x221b0>
    5428:	0a68636f 	beq	1a1e1ec <RCC_PLL1DIVR_Value+0x9edf4d>
    542c:	f1bc 0f00 	cmp.w	ip, #0
    5430:	d019      	beq.n	5466 <Sucheflashpointer_Speicherbelegung_fertig+0xb6>
    5432:	f7fd fd2f 	bl	2e94 <dotgaensefuesschen>
    5436:	6172451e 	cmnvs	r2, lr, lsl r5
    543a:	676e6973 			; <UNDEFINED> instruction: 0x676e6973
    543e:	74786520 	ldrbtvc	r6, [r8], #-1312	; 0xfffffae0
    5442:	616e7265 	cmnvs	lr, r5, ror #4
    5446:	5053206c 	subspl	r2, r3, ip, rrx
    544a:	6c662049 	stclvs	0, cr2, [r6], #-292	; 0xfffffedc
    544e:	2e687361 	cdpcs	3, 6, cr7, cr8, cr1, {3}
    5452:	00202e2e 	eoreq	r2, r0, lr, lsr #28
    5456:	f7fc ffb7 	bl	23c8 <Code_470>
    545a:	f7fd fd1b 	bl	2e94 <dotgaensefuesschen>
    545e:	4e4f4406 	cdpmi	4, 4, cr4, cr15, cr6, {0}
    5462:	000a2145 	andeq	r2, sl, r5, asr #2
    5466:	f04f 5000 	mov.w	r0, #536870912	; 0x20000000
    546a:	2100      	movs	r1, #0
    546c:	6001      	str	r1, [r0, #0]
    546e:	f7fa ffa8 	bl	3c2 <init_register_allocator>
    5472:	f847 6d04 	str.w	r6, [r7, #-4]!
    5476:	4e10      	ldr	r6, [pc, #64]	; (54b8 <init_name+0x26>)
    5478:	f847 6d04 	str.w	r6, [r7, #-4]!
    547c:	2604      	movs	r6, #4
    547e:	f7fe fd94 	bl	3faa <Code_933>
    5482:	cf40      	ldmia	r7!, {r6}
    5484:	2e00      	cmp	r6, #0
    5486:	d002      	beq.n	548e <Sucheflashpointer_Speicherbelegung_fertig+0xde>
    5488:	f7fe f904 	bl	3694 <Code_785>
    548c:	e560      	b.n	4f50 <quit_intern>
    548e:	cf40      	ldmia	r7!, {r6}
    5490:	e54a      	b.n	4f28 <Code_1230>

00005492 <init_name>:
    5492:	74696e69 	strbtvc	r6, [r9], #-3689	; 0xfffff197
    5496:	00000000 	andeq	r0, r0, r0
    549a:	02882408 	addeq	r2, r8, #8, 8	; 0x8000000
    549e:	03882000 	orreq	r2, r8, #0
    54a2:	01e42000 	mvneq	r2, r0
    54a6:	00000000 	andeq	r0, r0, r0
    54aa:	00142002 	andseq	r2, r4, r2
    54ae:	001c2000 	andseq	r2, ip, r0
    54b2:	00102000 	andseq	r2, r0, r0
    54b6:	54922000 	ldrpl	r2, [r2], #0
    54ba:	ffff0000 			; <UNDEFINED> instruction: 0xffff0000
    54be:	Address 0x00000000000054be is out of bounds.


Disassembly of section .ARM.attributes:

00000000 <.ARM.attributes>:
   0:	00002041 	andeq	r2, r0, r1, asr #32
   4:	61656100 	cmnvs	r5, r0, lsl #2
   8:	01006962 	tsteq	r0, r2, ror #18
   c:	00000016 	andeq	r0, r0, r6, lsl r0
  10:	726f4305 	rsbvc	r4, pc, #335544320	; 0x14000000
  14:	2d786574 	cfldr64cs	mvdx6, [r8, #-464]!	; 0xfffffe30
  18:	0600374d 	streq	r3, [r0], -sp, asr #14
  1c:	094d070d 	stmdbeq	sp, {r0, r2, r3, r8, r9, sl}^
  20:	Address 0x0000000000000020 is out of bounds.


Disassembly of section .debug_line:

00000000 <.debug_line>:
       0:	00001ab5 			; <UNDEFINED> instruction: 0x00001ab5
       4:	02550003 	subseq	r0, r5, #3
       8:	01020000 	mrseq	r0, (UNDEF: 2)
       c:	000d0efb 	strdeq	r0, [sp], -fp
      10:	01010101 	tsteq	r1, r1, lsl #2
      14:	01000000 	mrseq	r0, (UNDEF: 0)
      18:	2e010000 	cdpcs	0, 0, cr0, cr1, cr0, {0}
      1c:	6f632f2e 	svcvs	0x00632f2e
      20:	6e6f6d6d 	cdpvs	13, 6, cr6, cr15, cr13, {3}
      24:	0061722f 	rsbeq	r7, r1, pc, lsr #4
      28:	632f2e2e 			; <UNDEFINED> instruction: 0x632f2e2e
      2c:	6f6d6d6f 	svcvs	0x006d6d6f
      30:	7200006e 	andvc	r0, r0, #110	; 0x6e
      34:	6e692d61 	cdpvs	13, 6, cr2, cr9, cr1, {3}
      38:	73617266 	cmnvc	r1, #1610612742	; 0x60000006
      3c:	63757274 	cmnvs	r5, #116, 4	; 0x40000007
      40:	65727574 	ldrbvs	r7, [r2, #-1396]!	; 0xfffffa8c
      44:	0100732e 	tsteq	r0, lr, lsr #6
      48:	61720000 	cmnvs	r2, r0
      4c:	6f6f742d 	svcvs	0x006f742d
      50:	732e736c 			; <UNDEFINED> instruction: 0x732e736c
      54:	00000100 	andeq	r0, r0, r0, lsl #2
      58:	62756f64 	rsbsvs	r6, r5, #100, 30	; 0x190
      5c:	732e656c 			; <UNDEFINED> instruction: 0x732e656c
      60:	00000100 	andeq	r0, r0, r0, lsl #2
      64:	63617473 	cmnvs	r1, #1929379840	; 0x73000000
      68:	67756a6b 	ldrbvs	r6, [r5, -fp, ror #20]!
      6c:	72656c67 	rsbvc	r6, r5, #26368	; 0x6700
      70:	00732e73 	rsbseq	r2, r3, r3, ror lr
      74:	6c000001 	stcvs	0, cr0, [r0], {1}
      78:	6369676f 	cmnvs	r9, #29097984	; 0x1bc0000
      7c:	0100732e 	tsteq	r0, lr, lsr #6
      80:	61720000 	cmnvs	r2, r0
      84:	676f6c2d 	strbvs	r6, [pc, -sp, lsr #24]!
      88:	732e6369 			; <UNDEFINED> instruction: 0x732e6369
      8c:	00000100 	andeq	r0, r0, r0, lsl #2
      90:	706d6f63 	rsbvc	r6, sp, r3, ror #30
      94:	73697261 	cmnvc	r9, #268435462	; 0x10000006
      98:	736e6f69 	cmnvc	lr, #420	; 0x1a4
      9c:	0100732e 	tsteq	r0, lr, lsr #6
      a0:	656d0000 	strbvs	r0, [sp, #-0]!
      a4:	79726f6d 	ldmdbvc	r2!, {r0, r2, r3, r5, r6, r8, r9, sl, fp, sp, lr}^
      a8:	0100732e 	tsteq	r0, lr, lsr #6
      ac:	6c660000 	stclvs	0, cr0, [r6], #-0
      b0:	2e687361 	cdpcs	3, 6, cr7, cr8, cr1, {3}
      b4:	00000073 	andeq	r0, r0, r3, ror r0
      b8:	6c616300 	stclvs	3, cr6, [r1], #-0
      bc:	616c7563 	cmnvs	ip, r3, ror #10
      c0:	6e6f6974 			; <UNDEFINED> instruction: 0x6e6f6974
      c4:	00732e73 	rsbseq	r2, r3, r3, ror lr
      c8:	63000001 	movwvs	r0, #1
      cc:	65686361 	strbvs	r6, [r8, #-865]!	; 0xfffffc9f
      d0:	0000732e 	andeq	r7, r0, lr, lsr #6
      d4:	6c630000 	stclvs	0, cr0, [r3], #-0
      d8:	2e6b636f 	cdpcs	3, 6, cr6, cr11, cr15, {3}
      dc:	00000073 	andeq	r0, r0, r3, ror r0
      e0:	63726300 	cmnvs	r2, #0, 6
      e4:	0000732e 	andeq	r7, r0, lr, lsr #6
      e8:	61680000 	cmnvs	r8, r0
      ec:	732e6873 			; <UNDEFINED> instruction: 0x732e6873
      f0:	00000000 	andeq	r0, r0, r0
      f4:	6d726574 	cfldr64vs	mvdx6, [r2, #-464]!	; 0xfffffe30
      f8:	6c616e69 	stclvs	14, cr6, [r1], #-420	; 0xfffffe5c
      fc:	0000732e 	andeq	r7, r0, lr, lsr #6
     100:	65740000 	ldrbvs	r0, [r4, #-0]!
     104:	6e696d72 	mcrvs	13, 3, r6, cr9, cr2, {3}
     108:	6f686c61 	svcvs	0x00686c61
     10c:	2e736b6f 	vsubcs.f64	d22, d3, d31
     110:	00020073 	andeq	r0, r2, r3, ror r0
     114:	65757100 	ldrbvs	r7, [r5, #-256]!	; 0xffffff00
     118:	732e7972 			; <UNDEFINED> instruction: 0x732e7972
     11c:	00000200 	andeq	r0, r0, r0, lsl #4
     120:	69727473 	ldmdbvs	r2!, {r0, r1, r4, r5, r6, sl, ip, sp, lr}^
     124:	2e73676e 	cdpcs	7, 7, cr6, cr3, cr14, {3}
     128:	00020073 	andeq	r0, r2, r3, ror r0
     12c:	65656400 	strbvs	r6, [r5, #-1024]!	; 0xfffffc00
     130:	736e6970 	cmnvc	lr, #112, 18	; 0x1c0000
     134:	74686769 	strbtvc	r6, [r8], #-1897	; 0xfffff897
     138:	0200732e 	andeq	r7, r0, #-1207959552	; 0xb8000000
     13c:	6f630000 	svcvs	0x00630000
     140:	65676564 	strbvs	r6, [r7, #-1380]!	; 0xfffffa9c
     144:	6172656e 	cmnvs	r2, lr, ror #10
     148:	2d726f74 	ldclcs	15, cr6, [r2, #-464]!	; 0xfffffe30
     14c:	732e336d 			; <UNDEFINED> instruction: 0x732e336d
     150:	00000200 	andeq	r0, r0, r0, lsl #4
     154:	706d6f63 	rsbvc	r6, sp, r3, ror #30
     158:	72656c69 	rsbvc	r6, r5, #26880	; 0x6900
     15c:	0200732e 	andeq	r7, r0, #-1207959552	; 0xb8000000
     160:	6f630000 	svcvs	0x00630000
     164:	6c69706d 	stclvs	0, cr7, [r9], #-436	; 0xfffffe4c
     168:	662d7265 	strtvs	r7, [sp], -r5, ror #4
     16c:	6873616c 	ldmdavs	r3!, {r2, r3, r5, r6, r8, sp, lr}^
     170:	0200732e 	andeq	r7, r0, #-1207959552	; 0xb8000000
     174:	6f630000 	svcvs	0x00630000
     178:	6f72746e 	svcvs	0x0072746e
     17c:	7274736c 	rsbsvc	r7, r4, #108, 6	; 0xb0000001
     180:	75746375 	ldrbvc	r6, [r4, #-885]!	; 0xfffffc8b
     184:	2e736572 	mrccs	5, 3, r6, cr3, cr2, {3}
     188:	00010073 	andeq	r0, r1, r3, ror r0
     18c:	6c6f6400 	cfstrdvs	mvd6, [pc], #-0	; 194 <Flag_buffer_foldable+0x54>
     190:	2e706f6f 	cdpcs	15, 7, cr6, cr0, cr15, {3}
     194:	00010073 	andeq	r0, r1, r3, ror r0
     198:	73616300 	cmnvc	r1, #0, 6
     19c:	00732e65 	rsbseq	r2, r3, r5, ror #28
     1a0:	74000001 	strvc	r0, [r0], #-1
     1a4:	6e656b6f 	vnmulvs.f64	d22, d5, d31
     1a8:	0200732e 	andeq	r7, r0, #-1207959552	; 0xb8000000
     1ac:	756e0000 	strbvc	r0, [lr, #-0]!
     1b0:	7265626d 	rsbvc	r6, r5, #-805306362	; 0xd0000006
     1b4:	69727473 	ldmdbvs	r2!, {r0, r1, r4, r5, r6, sl, ip, sp, lr}^
     1b8:	2e73676e 	cdpcs	7, 7, cr6, cr3, cr14, {3}
     1bc:	00020073 	andeq	r0, r2, r3, ror r0
     1c0:	2d617200 	sfmcs	f7, 2, [r1, #-0]
     1c4:	706d6f6b 	rsbvc	r6, sp, fp, ror #30
     1c8:	74616c69 	strbtvc	r6, [r1], #-3177	; 0xfffff397
     1cc:	732e726f 			; <UNDEFINED> instruction: 0x732e726f
     1d0:	00000100 	andeq	r0, r0, r0, lsl #2
     1d4:	692d6172 	pushvs	{r1, r4, r5, r6, r8, sp, lr}
     1d8:	6e696c6e 	cdpvs	12, 6, cr6, cr9, cr14, {3}
     1dc:	00732e65 	rsbseq	r2, r3, r5, ror #28
     1e0:	69000001 	stmdbvs	r0, {r0}
     1e4:	7265746e 	rsbvc	r7, r5, #1845493760	; 0x6e000000
     1e8:	74657270 	strbtvc	r7, [r5], #-624	; 0xfffffd90
     1ec:	732e7265 			; <UNDEFINED> instruction: 0x732e7265
     1f0:	00000100 	andeq	r0, r0, r0, lsl #2
     1f4:	65746e69 	ldrbvs	r6, [r4, #-3689]!	; 0xfffff197
     1f8:	70757272 	rsbsvc	r7, r5, r2, ror r2
     1fc:	632d7374 			; <UNDEFINED> instruction: 0x632d7374
     200:	6f6d6d6f 	svcvs	0x006d6d6f
     204:	00732e6e 	rsbseq	r2, r3, lr, ror #28
     208:	69000002 	stmdbvs	r0, {r1}
     20c:	7265746e 	rsbvc	r7, r5, #1845493760	; 0x6e000000
     210:	74707572 	ldrbtvc	r7, [r0], #-1394	; 0xfffffa8e
     214:	00732e73 	rsbseq	r2, r3, r3, ror lr
     218:	6d000000 	stcvs	0, cr0, [r0, #-0]
     21c:	69726365 	ldmdbvs	r2!, {r0, r2, r5, r6, r8, r9, sp, lr}^
     220:	732d7073 			; <UNDEFINED> instruction: 0x732d7073
     224:	6c6c6574 	cfstr64vs	mvdx6, [ip], #-464	; 0xfffffe30
     228:	73697261 	cmnvc	r9, #268435462	; 0x10000006
     22c:	6d74732d 	ldclvs	3, cr7, [r4, #-180]!	; 0xffffff4c
     230:	37683233 			; <UNDEFINED> instruction: 0x37683233
     234:	732e3035 			; <UNDEFINED> instruction: 0x732e3035
     238:	00000000 	andeq	r0, r0, r0
     23c:	63746163 	cmnvs	r4, #-1073741800	; 0xc0000018
     240:	616c6668 	cmnvs	ip, r8, ror #12
     244:	6f706873 	svcvs	0x00706873
     248:	65746e69 	ldrbvs	r6, [r4, #-3689]!	; 0xfffff197
     24c:	732e7372 			; <UNDEFINED> instruction: 0x732e7372
     250:	00000200 	andeq	r0, r0, r0, lsl #4
     254:	746f6f62 	strbtvc	r6, [pc], #-3938	; 25c <npush_faltkonstante+0x16>
     258:	0200732e 	andeq	r7, r0, #-1207959552	; 0xb8000000
     25c:	00000000 	andeq	r0, r0, r0
     260:	020e0205 	andeq	r0, lr, #1342177280	; 0x50000000
     264:	2b030000 	blcs	c026c <ADC12_Common_CSR_EOS_SLV+0x4026c>
     268:	21232101 			; <UNDEFINED> instruction: 0x21232101
     26c:	302f2f25 	eorcc	r2, pc, r5, lsr #30
     270:	23212121 			; <UNDEFINED> instruction: 0x23212121
     274:	22212128 	eorcs	r2, r1, #40, 2
     278:	21232121 			; <UNDEFINED> instruction: 0x21232121
     27c:	28232f2f 	stmdacs	r3!, {r0, r1, r2, r3, r5, r8, r9, sl, fp, sp}
     280:	213d3d22 	teqcs	sp, r2, lsr #26
     284:	2f24212f 	svccs	0x0024212f
     288:	302f2f22 	eorcc	r2, pc, r2, lsr #30
     28c:	3d212228 	sfmcc	f2, 4, [r1, #-160]!	; 0xffffff60
     290:	23222f21 			; <UNDEFINED> instruction: 0x23222f21
     294:	25302f2f 	ldrcs	r2, [r0, #-3887]!	; 0xfffff0d1
     298:	21212221 			; <UNDEFINED> instruction: 0x21212221
     29c:	0c033021 	stceq	0, cr3, [r3], {33}	; 0x21
     2a0:	21212120 			; <UNDEFINED> instruction: 0x21212120
     2a4:	21212121 			; <UNDEFINED> instruction: 0x21212121
     2a8:	21212123 			; <UNDEFINED> instruction: 0x21212123
     2ac:	21212121 			; <UNDEFINED> instruction: 0x21212121
     2b0:	25222122 	strcs	r2, [r2, #-290]!	; 0xfffffede
     2b4:	21212123 			; <UNDEFINED> instruction: 0x21212123
     2b8:	25312f23 	ldrcs	r2, [r1, #-3875]!	; 0xfffff0dd
     2bc:	21212122 			; <UNDEFINED> instruction: 0x21212122
     2c0:	21222521 			; <UNDEFINED> instruction: 0x21222521
     2c4:	21222121 			; <UNDEFINED> instruction: 0x21222121
     2c8:	21222121 			; <UNDEFINED> instruction: 0x21222121
     2cc:	21222121 			; <UNDEFINED> instruction: 0x21222121
     2d0:	23222522 			; <UNDEFINED> instruction: 0x23222522
     2d4:	22212321 	eorcs	r2, r1, #-2080374784	; 0x84000000
     2d8:	23212321 			; <UNDEFINED> instruction: 0x23212321
     2dc:	2e100321 	cdpcs	3, 1, cr0, cr0, cr1, {1}
     2e0:	322f212f 	eorcc	r2, pc, #-1073741813	; 0xc000000b
     2e4:	2f2f2127 	svccs	0x002f2127
     2e8:	252f2f2f 	strcs	r2, [pc, #-3887]!	; fffff3c1 <erasedword+0xfffff3c2>
     2ec:	252f2121 	strcs	r2, [pc, #-289]!	; 1d3 <Flag_buffer_foldable+0x93>
     2f0:	252f2121 	strcs	r2, [pc, #-289]!	; 1d7 <Flag_buffer_foldable+0x97>
     2f4:	252f2121 	strcs	r2, [pc, #-289]!	; 1db <Flag_buffer_foldable+0x9b>
     2f8:	262f2121 	strtcs	r2, [pc], -r1, lsr #2
     2fc:	21222126 			; <UNDEFINED> instruction: 0x21222126
     300:	4b222128 	blmi	8887a8 <ADC12_Common_CCR_TSEN+0x887a8>
     304:	2421232f 	strtcs	r2, [r1], #-815	; 0xfffffcd1
     308:	2f3d3d23 	svccs	0x003d3d23
     30c:	4b222124 	blmi	8887a4 <ADC12_Common_CCR_TSEN+0x887a4>
     310:	2f342121 	svccs	0x00342121
     314:	21212228 			; <UNDEFINED> instruction: 0x21212228
     318:	22222121 	eorcs	r2, r2, #1073741832	; 0x40000008
     31c:	22212221 	eorcs	r2, r1, #268435458	; 0x10000002
     320:	fb030204 	blx	c0b3a <ADC12_Common_CSR_EOS_SLV+0x40b3a>
     324:	3d21207c 	stccc	0, cr2, [r1, #-496]!	; 0xfffffe10
     328:	262f3d2f 	strtcs	r3, [pc], -pc, lsr #26
     32c:	21212123 			; <UNDEFINED> instruction: 0x21212123
     330:	21212121 			; <UNDEFINED> instruction: 0x21212121
     334:	22212125 	eorcs	r2, r1, #1073741833	; 0x40000009
     338:	21222121 			; <UNDEFINED> instruction: 0x21222121
     33c:	21212221 			; <UNDEFINED> instruction: 0x21212221
     340:	24212122 	strtcs	r2, [r1], #-290	; 0xfffffede
     344:	2f3d3d21 	svccs	0x003d3d21
     348:	23212121 			; <UNDEFINED> instruction: 0x23212121
     34c:	2f3d2f3d 	svccs	0x003d2f3d
     350:	55030104 	strpl	r0, [r3, #-260]	; 0xfffffefc
     354:	2e3e032e 	cdpcs	3, 3, cr0, cr14, cr14, {1}
     358:	032e2303 			; <UNDEFINED> instruction: 0x032e2303
     35c:	032e018a 			; <UNDEFINED> instruction: 0x032e018a
     360:	36362e21 	ldrtcc	r2, [r6], -r1, lsr #28
     364:	96030204 	strls	r0, [r3], -r4, lsl #4
     368:	21222e7e 			; <UNDEFINED> instruction: 0x21222e7e
     36c:	21212121 			; <UNDEFINED> instruction: 0x21212121
     370:	21302122 	teqcs	r0, r2, lsr #2
     374:	21302130 	teqcs	r0, r0, lsr r1
     378:	21212230 			; <UNDEFINED> instruction: 0x21212230
     37c:	21212322 			; <UNDEFINED> instruction: 0x21212322
     380:	21212121 			; <UNDEFINED> instruction: 0x21212121
     384:	21212121 			; <UNDEFINED> instruction: 0x21212121
     388:	4c242121 	stfmis	f2, [r4], #-132	; 0xffffff7c
     38c:	23212121 			; <UNDEFINED> instruction: 0x23212121
     390:	2121222f 			; <UNDEFINED> instruction: 0x2121222f
     394:	21252522 			; <UNDEFINED> instruction: 0x21252522
     398:	30212221 	eorcc	r2, r1, r1, lsr #4
     39c:	2124252f 			; <UNDEFINED> instruction: 0x2124252f
     3a0:	30212221 	eorcc	r2, r1, r1, lsr #4
     3a4:	252f3021 	strcs	r3, [pc, #-33]!	; 38b <tidyup_register_allocator_tos+0x17>
     3a8:	22212124 	eorcs	r2, r1, #36, 2
     3ac:	30213021 	eorcc	r3, r1, r1, lsr #32
     3b0:	252f3021 	strcs	r3, [pc, #-33]!	; 397 <tidyup_register_allocator_tos+0x23>
     3b4:	22212124 	eorcs	r2, r1, #36, 2
     3b8:	30213021 	eorcc	r3, r1, r1, lsr #32
     3bc:	30213021 	eorcc	r3, r1, r1, lsr #32
     3c0:	7eee032f 	cdpvc	3, 14, cr0, cr14, cr15, {1}
     3c4:	019a0320 	orrseq	r0, sl, r0, lsr #6
     3c8:	2121242e 			; <UNDEFINED> instruction: 0x2121242e
     3cc:	212f2121 			; <UNDEFINED> instruction: 0x212f2121
     3d0:	21242723 			; <UNDEFINED> instruction: 0x21242723
     3d4:	2f212121 	svccs	0x00212121
     3d8:	24262321 	strtcs	r2, [r6], #-801	; 0xfffffcdf
     3dc:	21212121 			; <UNDEFINED> instruction: 0x21212121
     3e0:	0323212f 			; <UNDEFINED> instruction: 0x0323212f
     3e4:	2122200b 			; <UNDEFINED> instruction: 0x2122200b
     3e8:	21222121 			; <UNDEFINED> instruction: 0x21222121
     3ec:	21212121 			; <UNDEFINED> instruction: 0x21212121
     3f0:	2f232123 	svccs	0x00232123
     3f4:	21212f21 			; <UNDEFINED> instruction: 0x21212f21
     3f8:	21222630 			; <UNDEFINED> instruction: 0x21222630
     3fc:	22212121 	eorcs	r2, r1, #1073741832	; 0x40000008
     400:	21212121 			; <UNDEFINED> instruction: 0x21212121
     404:	21212121 			; <UNDEFINED> instruction: 0x21212121
     408:	2f212f24 	svccs	0x00212f24
     40c:	25302121 	ldrcs	r2, [r0, #-289]!	; 0xfffffedf
     410:	2f2f2f22 	svccs	0x002f2f22
     414:	21212521 			; <UNDEFINED> instruction: 0x21212521
     418:	21222121 			; <UNDEFINED> instruction: 0x21222121
     41c:	304b2321 	subcc	r2, fp, r1, lsr #6
     420:	04207303 	strteq	r7, [r0], #-771	; 0xfffffcfd
     424:	7d960303 	ldcvc	3, cr0, [r6, #12]
     428:	212f2182 	smlawbcs	pc, r2, r1, r2	; <UNPREDICTABLE>
     42c:	2f212121 	svccs	0x00212121
     430:	21217a2f 			; <UNDEFINED> instruction: 0x21217a2f
     434:	2f2f2121 	svccs	0x002f2121
     438:	2121217a 			; <UNDEFINED> instruction: 0x2121217a
     43c:	2121212f 			; <UNDEFINED> instruction: 0x2121212f
     440:	21302223 	teqcs	r0, r3, lsr #4
     444:	21222121 			; <UNDEFINED> instruction: 0x21222121
     448:	21222121 			; <UNDEFINED> instruction: 0x21222121
     44c:	21222121 			; <UNDEFINED> instruction: 0x21222121
     450:	7a222121 	bvc	8888dc <ADC12_Common_CCR_TSEN+0x888dc>
     454:	22212121 	eorcs	r2, r1, #1073741832	; 0x40000008
     458:	2f2f2f21 	svccs	0x002f2f21
     45c:	2f21792f 	svccs	0x0021792f
     460:	79212121 	stmdbvc	r1!, {r0, r5, r8, sp}
     464:	2f212121 	svccs	0x00212121
     468:	21212121 			; <UNDEFINED> instruction: 0x21212121
     46c:	217a2121 	cmncs	sl, r1, lsr #2
     470:	21212221 			; <UNDEFINED> instruction: 0x21212221
     474:	21212122 			; <UNDEFINED> instruction: 0x21212122
     478:	21217a22 			; <UNDEFINED> instruction: 0x21217a22
     47c:	22212122 	eorcs	r2, r1, #-2147483640	; 0x80000008
     480:	22212121 	eorcs	r2, r1, #1073741832	; 0x40000008
     484:	21660f03 	cmncs	r6, r3, lsl #30
     488:	21212121 			; <UNDEFINED> instruction: 0x21212121
     48c:	2f2f2f21 	svccs	0x002f2f21
     490:	212f6c2f 			; <UNDEFINED> instruction: 0x212f6c2f
     494:	21212121 			; <UNDEFINED> instruction: 0x21212121
     498:	2f2f2f21 	svccs	0x002f2f21
     49c:	212f6b2f 			; <UNDEFINED> instruction: 0x212f6b2f
     4a0:	2121212f 			; <UNDEFINED> instruction: 0x2121212f
     4a4:	2f2f4b2f 	svccs	0x002f4b2f
     4a8:	21212187 	smlawbcs	r1, r7, r1, r2
     4ac:	032f4b2f 			; <UNDEFINED> instruction: 0x032f4b2f
     4b0:	2121660b 			; <UNDEFINED> instruction: 0x2121660b
     4b4:	21212121 			; <UNDEFINED> instruction: 0x21212121
     4b8:	2121216b 			; <UNDEFINED> instruction: 0x2121216b
     4bc:	21792121 	cmncs	r9, r1, lsr #2
     4c0:	21212121 			; <UNDEFINED> instruction: 0x21212121
     4c4:	21217921 			; <UNDEFINED> instruction: 0x21217921
     4c8:	21222121 			; <UNDEFINED> instruction: 0x21222121
     4cc:	2f302f30 	svccs	0x00302f30
     4d0:	303d302f 	eorscc	r3, sp, pc, lsr #32
     4d4:	7a2f4b2f 	bvc	bd3198 <ADC12_Common_CCR_TSEN+0x3d3198>
     4d8:	0e032121 	adfeqsp	f2, f3, f1
     4dc:	21212182 	smlawbcs	r1, r2, r1, r2
     4e0:	21212121 			; <UNDEFINED> instruction: 0x21212121
     4e4:	2121216b 			; <UNDEFINED> instruction: 0x2121216b
     4e8:	22212122 	eorcs	r2, r1, #-2147483640	; 0x80000008
     4ec:	2f2f2f21 	svccs	0x002f2f21
     4f0:	2f2f2f2f 	svccs	0x002f2f2f
     4f4:	4b2f2f2f 	blmi	bcc1b8 <ADC12_Common_CCR_TSEN+0x3cc1b8>
     4f8:	21216b2f 			; <UNDEFINED> instruction: 0x21216b2f
     4fc:	22212121 	eorcs	r2, r1, #1073741832	; 0x40000008
     500:	2f2f2f21 	svccs	0x002f2f21
     504:	2f2f2f2f 	svccs	0x002f2f2f
     508:	4b2f2f2f 	blmi	bcc1cc <ADC12_Common_CCR_TSEN+0x3cc1cc>
     50c:	212f6b2f 			; <UNDEFINED> instruction: 0x212f6b2f
     510:	2f2f2121 	svccs	0x002f2121
     514:	20032f4b 	andcs	r2, r3, fp, asr #30
     518:	212f2166 			; <UNDEFINED> instruction: 0x212f2166
     51c:	21322f22 	teqcs	r2, r2, lsr #30
     520:	21322f2f 	teqcs	r2, pc, lsr #30
     524:	2f312122 	svccs	0x00312122
     528:	222f2f30 	eorcs	r2, pc, #48, 30	; 0xc0
     52c:	222f2f30 	eorcs	r2, pc, #48, 30	; 0xc0
     530:	1e032f30 	mcrne	15, 0, r2, cr3, cr0, {1}
     534:	212f2166 			; <UNDEFINED> instruction: 0x212f2166
     538:	032f2f22 			; <UNDEFINED> instruction: 0x032f2f22
     53c:	21246610 			; <UNDEFINED> instruction: 0x21246610
     540:	21212421 			; <UNDEFINED> instruction: 0x21212421
     544:	21212221 			; <UNDEFINED> instruction: 0x21212221
     548:	22212121 	eorcs	r2, r1, #1073741832	; 0x40000008
     54c:	21212121 			; <UNDEFINED> instruction: 0x21212121
     550:	21212122 			; <UNDEFINED> instruction: 0x21212122
     554:	03222122 			; <UNDEFINED> instruction: 0x03222122
     558:	2321740c 			; <UNDEFINED> instruction: 0x2321740c
     55c:	212f212f 			; <UNDEFINED> instruction: 0x212f212f
     560:	2f322f30 	svccs	0x00322f30
     564:	21212f21 			; <UNDEFINED> instruction: 0x21212f21
     568:	322f222f 	eorcc	r2, pc, #-268435454	; 0xf0000002
     56c:	222f212f 	eorcs	r2, pc, #-1073741813	; 0xc000000b
     570:	21232f21 			; <UNDEFINED> instruction: 0x21232f21
     574:	21212221 			; <UNDEFINED> instruction: 0x21212221
     578:	212f2421 			; <UNDEFINED> instruction: 0x212f2421
     57c:	2f21222f 	svccs	0x0021222f
     580:	22212123 	eorcs	r2, r1, #-1073741816	; 0xc0000008
     584:	23212121 			; <UNDEFINED> instruction: 0x23212121
     588:	22212121 	eorcs	r2, r1, #1073741832	; 0x40000008
     58c:	2f2f216d 	svccs	0x002f216d
     590:	7a212f3d 	bvc	84c28c <ADC12_Common_CCR_TSEN+0x4c28c>
     594:	3d2f2f21 	stccc	15, cr2, [pc, #-132]!	; 518 <expect_three_elements+0x12>
     598:	2f216d2f 	svccs	0x00216d2f
     59c:	212f3d2f 			; <UNDEFINED> instruction: 0x212f3d2f
     5a0:	2f2f2188 	svccs	0x002f2188
     5a4:	21892f3d 	orrcs	r2, r9, sp, lsr pc
     5a8:	21212f3d 			; <UNDEFINED> instruction: 0x21212f3d
     5ac:	212f217b 			; <UNDEFINED> instruction: 0x212f217b
     5b0:	0321212f 			; <UNDEFINED> instruction: 0x0321212f
     5b4:	09038225 	stmdbeq	r3, {r0, r2, r5, r9, pc}
     5b8:	21212120 			; <UNDEFINED> instruction: 0x21212120
     5bc:	22232126 	eorcs	r2, r3, #-2147483639	; 0x80000009
     5c0:	212321bb 			; <UNDEFINED> instruction: 0x212321bb
     5c4:	21222121 			; <UNDEFINED> instruction: 0x21222121
     5c8:	21212228 			; <UNDEFINED> instruction: 0x21212228
     5cc:	09032221 	stmdbeq	r3, {r0, r5, r9, sp}
     5d0:	22212174 	eorcs	r2, r1, #116, 2
     5d4:	22212f2f 	eorcs	r2, r1, #47, 30	; 0xbc
     5d8:	2f302f2f 	svccs	0x00302f2f
     5dc:	2f232f2f 	svccs	0x00232f2f
     5e0:	2f232f2f 	svccs	0x00232f2f
     5e4:	302f2221 	eorcc	r2, pc, r1, lsr #4
     5e8:	2f2f2f30 	svccs	0x002f2f30
     5ec:	2f2f232f 	svccs	0x002f232f
     5f0:	2f2f216b 	svccs	0x002f216b
     5f4:	21660d03 	cmncs	r6, r3, lsl #26
     5f8:	2f2f2221 	svccs	0x002f2221
     5fc:	30312321 	eorscc	r2, r1, r1, lsr #6
     600:	23222121 			; <UNDEFINED> instruction: 0x23222121
     604:	3122212f 			; <UNDEFINED> instruction: 0x3122212f
     608:	22212130 	eorcs	r2, r1, #48, 2
     60c:	21216d2f 			; <UNDEFINED> instruction: 0x21216d2f
     610:	212f2f22 			; <UNDEFINED> instruction: 0x212f2f22
     614:	2f2f2f23 	svccs	0x002f2f23
     618:	212f232f 			; <UNDEFINED> instruction: 0x212f232f
     61c:	2f2f2f23 	svccs	0x002f2f23
     620:	0a032f2f 	beq	cc2e4 <ADC12_Common_CSR_EOS_SLV+0x4c2e4>
     624:	21212166 			; <UNDEFINED> instruction: 0x21212166
     628:	30212221 	eorcc	r2, r1, r1, lsr #4
     62c:	31222121 			; <UNDEFINED> instruction: 0x31222121
     630:	2122212f 			; <UNDEFINED> instruction: 0x2122212f
     634:	232f4b22 			; <UNDEFINED> instruction: 0x232f4b22
     638:	6b2f2121 	blvs	bc8ac4 <ADC12_Common_CCR_TSEN+0x3c8ac4>
     63c:	21212121 			; <UNDEFINED> instruction: 0x21212121
     640:	21302122 	teqcs	r0, r2, lsr #2
     644:	304b2321 	subcc	r2, fp, r1, lsr #6
     648:	21232f2f 			; <UNDEFINED> instruction: 0x21232f2f
     64c:	2f302121 	svccs	0x00302121
     650:	660c032f 	strvs	r0, [ip], -pc, lsr #6
     654:	21222121 			; <UNDEFINED> instruction: 0x21222121
     658:	2221216c 	eorcs	r2, r1, #108, 2
     65c:	21216d21 			; <UNDEFINED> instruction: 0x21216d21
     660:	6c212122 	stfvss	f2, [r1], #-136	; 0xffffff78
     664:	21222121 			; <UNDEFINED> instruction: 0x21222121
     668:	21212221 			; <UNDEFINED> instruction: 0x21212221
     66c:	2221216b 	eorcs	r2, r1, #-1073741798	; 0xc000001a
     670:	6b2f2f21 	blvs	bcc2fc <ADC12_Common_CCR_TSEN+0x3cc2fc>
     674:	21212121 			; <UNDEFINED> instruction: 0x21212121
     678:	2f4b2122 	svccs	0x004b2122
     67c:	21226b2f 			; <UNDEFINED> instruction: 0x21226b2f
     680:	21212221 			; <UNDEFINED> instruction: 0x21212221
     684:	2f212222 	svccs	0x00212222
     688:	21226b2f 			; <UNDEFINED> instruction: 0x21226b2f
     68c:	22212221 	eorcs	r2, r1, #268435458	; 0x10000002
     690:	2f2f2122 	svccs	0x002f2122
     694:	2f2f2123 	svccs	0x002f2123
     698:	2f2f2f2f 	svccs	0x002f2f2f
     69c:	207ab003 	rsbscs	fp, sl, r3
     6a0:	2e00c603 	cfmadd32cs	mvax0, mvfx12, mvfx0, mvfx3
     6a4:	a5030404 	strge	r0, [r3, #-1028]	; 0xfffffbfc
     6a8:	212f747c 			; <UNDEFINED> instruction: 0x212f747c
     6ac:	6b21216b 	blvs	848c60 <ADC12_Common_CCR_TSEN+0x48c60>
     6b0:	216b212f 	cmncs	fp, pc, lsr #2
     6b4:	232f6d21 			; <UNDEFINED> instruction: 0x232f6d21
     6b8:	22213021 	eorcs	r3, r1, #33	; 0x21
     6bc:	7a222130 	bvc	888b84 <ADC12_Common_CCR_TSEN+0x88b84>
     6c0:	21252321 			; <UNDEFINED> instruction: 0x21252321
     6c4:	2f4b2221 	svccs	0x004b2221
     6c8:	21792f23 	cmncs	r9, r3, lsr #30
     6cc:	21792f21 	cmncs	r9, r1, lsr #30
     6d0:	22232121 	eorcs	r2, r3, #1073741832	; 0x40000008
     6d4:	21212131 			; <UNDEFINED> instruction: 0x21212131
     6d8:	21212122 			; <UNDEFINED> instruction: 0x21212122
     6dc:	23216b22 			; <UNDEFINED> instruction: 0x23216b22
     6e0:	30200a03 	eorcc	r0, r0, r3, lsl #20
     6e4:	2f222121 	svccs	0x00222121
     6e8:	792f4b24 	stmdbvc	pc!, {r2, r5, r8, r9, fp, lr}	; <UNPREDICTABLE>
     6ec:	2223212f 	eorcs	r2, r3, #-1073741813	; 0xc000000b
     6f0:	30222130 	eorcc	r2, r2, r0, lsr r1
     6f4:	217b2221 	cmncs	fp, r1, lsr #4
     6f8:	22212121 	eorcs	r2, r1, #1073741832	; 0x40000008
     6fc:	2f2f2f21 	svccs	0x002f2f21
     700:	2121216c 			; <UNDEFINED> instruction: 0x2121216c
     704:	21232121 			; <UNDEFINED> instruction: 0x21232121
     708:	22212135 	eorcs	r2, r1, #1073741837	; 0x4000000d
     70c:	21222121 			; <UNDEFINED> instruction: 0x21222121
     710:	21212221 			; <UNDEFINED> instruction: 0x21212221
     714:	21217a21 			; <UNDEFINED> instruction: 0x21217a21
     718:	23212121 			; <UNDEFINED> instruction: 0x23212121
     71c:	032f2f21 			; <UNDEFINED> instruction: 0x032f2f21
     720:	7c2f740a 	cfstrsvc	mvf7, [pc], #-40	; 700 <Code_76+0xa>
     724:	212f2121 			; <UNDEFINED> instruction: 0x212f2121
     728:	21212f87 	smlawbcs	r1, r7, pc, r2	; <UNPREDICTABLE>
     72c:	216d2121 	cmncs	sp, r1, lsr #2
     730:	2f212321 	svccs	0x00212321
     734:	214c302f 	cmpcs	ip, pc, lsr #32
     738:	2f2f2221 	svccs	0x002f2221
     73c:	23212f6b 			; <UNDEFINED> instruction: 0x23212f6b
     740:	2f2f2f21 	svccs	0x002f2f21
     744:	21214c22 			; <UNDEFINED> instruction: 0x21214c22
     748:	2f6b2f22 	svccs	0x006b2f22
     74c:	2f212121 	svccs	0x00212121
     750:	2121792f 			; <UNDEFINED> instruction: 0x2121792f
     754:	2f4b2f21 	svccs	0x004b2f21
     758:	21212179 			; <UNDEFINED> instruction: 0x21212179
     75c:	21740903 	cmncs	r4, r3, lsl #18
     760:	21222121 			; <UNDEFINED> instruction: 0x21222121
     764:	22201503 	eorcs	r1, r0, #12582912	; 0xc00000
     768:	22212121 	eorcs	r2, r1, #1073741832	; 0x40000008
     76c:	21232221 			; <UNDEFINED> instruction: 0x21232221
     770:	21740903 	cmncs	r4, r3, lsl #18
     774:	27252121 	strcs	r2, [r5, -r1, lsr #2]!
     778:	21212123 			; <UNDEFINED> instruction: 0x21212123
     77c:	21232321 			; <UNDEFINED> instruction: 0x21232321
     780:	207ecc03 	rsbscs	ip, lr, r3, lsl #24
     784:	042e0b03 	strteq	r0, [lr], #-2819	; 0xfffff4fd
     788:	7dfc0305 	ldclvc	3, cr0, [ip, #20]!
     78c:	22212174 	eorcs	r2, r1, #116, 2
     790:	21216b4b 			; <UNDEFINED> instruction: 0x21216b4b
     794:	6c4b2221 	sfmvs	f2, 2, [fp], {33}	; 0x21
     798:	4b232121 	blmi	8c8c24 <ADC12_Common_CCR_TSEN+0xc8c24>
     79c:	2321216c 			; <UNDEFINED> instruction: 0x2321216c
     7a0:	21215d4b 			; <UNDEFINED> instruction: 0x21215d4b
     7a4:	1d034b22 	vstrne	d4, [r3, #-136]	; 0xffffff78
     7a8:	21222f66 			; <UNDEFINED> instruction: 0x21222f66
     7ac:	2f212f2f 	svccs	0x00212f2f
     7b0:	2f303021 	svccs	0x00303021
     7b4:	66260330 			; <UNDEFINED> instruction: 0x66260330
     7b8:	0e032121 	adfeqsp	f2, f3, f1
     7bc:	032121c8 			; <UNDEFINED> instruction: 0x032121c8
     7c0:	2121e40e 			; <UNDEFINED> instruction: 0x2121e40e
     7c4:	884b2221 	stmdahi	fp, {r0, r5, r9, sp}^
     7c8:	23212121 			; <UNDEFINED> instruction: 0x23212121
     7cc:	304c4b21 	subcc	r4, ip, r1, lsr #22
     7d0:	21212121 			; <UNDEFINED> instruction: 0x21212121
     7d4:	21218821 			; <UNDEFINED> instruction: 0x21218821
     7d8:	4b212321 	blmi	849464 <ADC12_Common_CCR_TSEN+0x49464>
     7dc:	2121884b 			; <UNDEFINED> instruction: 0x2121884b
     7e0:	4b212321 	blmi	84946c <ADC12_Common_CCR_TSEN+0x4946c>
     7e4:	2121303e 			; <UNDEFINED> instruction: 0x2121303e
     7e8:	232f2122 			; <UNDEFINED> instruction: 0x232f2122
     7ec:	21302123 	teqcs	r0, r3, lsr #2
     7f0:	21232121 			; <UNDEFINED> instruction: 0x21232121
     7f4:	21222122 			; <UNDEFINED> instruction: 0x21222122
     7f8:	222f2321 	eorcs	r2, pc, #-2080374784	; 0x84000000
     7fc:	3021232f 	eorcc	r2, r1, pc, lsr #6
     800:	2f21214b 	svccs	0x0021214b
     804:	ef030604 	svc	0x00030604
     808:	2f22207d 	svccs	0x0022207d
     80c:	09032325 	stmdbeq	r3, {r0, r2, r5, r8, r9, sp}
     810:	2121212e 			; <UNDEFINED> instruction: 0x2121212e
     814:	21212134 			; <UNDEFINED> instruction: 0x21212134
     818:	21213134 			; <UNDEFINED> instruction: 0x21213134
     81c:	2f212f22 	svccs	0x00212f22
     820:	25212122 	strcs	r2, [r1, #-290]!	; 0xfffffede
     824:	2321212f 			; <UNDEFINED> instruction: 0x2321212f
     828:	2121212f 			; <UNDEFINED> instruction: 0x2121212f
     82c:	21212f24 			; <UNDEFINED> instruction: 0x21212f24
     830:	22212f23 	eorcs	r2, r1, #35, 30	; 0x8c
     834:	30302621 	eorscc	r2, r0, r1, lsr #12
     838:	22212421 	eorcs	r2, r1, #553648128	; 0x21000000
     83c:	25252f30 	strcs	r2, [r5, #-3888]!	; 0xfffff0d0
     840:	31312222 	teqcc	r1, r2, lsr #4
     844:	222f2f30 	eorcs	r2, pc, #48, 30	; 0xc0
     848:	05042f30 	streq	r2, [r4, #-3888]	; 0xfffff0d0
     84c:	04205103 	strteq	r5, [r0], #-259	; 0xfffffefd
     850:	2e660306 	cdpcs	3, 6, cr0, cr6, cr6, {0}
     854:	04363535 	ldrteq	r3, [r6], #-1333	; 0xfffffacb
     858:	7fb10307 	svcvc	0x00b10307
     85c:	23212174 			; <UNDEFINED> instruction: 0x23212174
     860:	302f2f21 	eorcc	r2, pc, r1, lsr #30
     864:	216b212f 	cmncs	fp, pc, lsr #2
     868:	21232121 			; <UNDEFINED> instruction: 0x21232121
     86c:	2f302f2f 	svccs	0x00302f2f
     870:	23216b21 			; <UNDEFINED> instruction: 0x23216b21
     874:	304b3021 	subcc	r3, fp, r1, lsr #32
     878:	307c212f 	rsbscc	r2, ip, pc, lsr #2
     87c:	2f792121 	svccs	0x00792121
     880:	21216b21 			; <UNDEFINED> instruction: 0x21216b21
     884:	4b222121 	blmi	888d10 <ADC12_Common_CCR_TSEN+0x88d10>
     888:	21216b4b 			; <UNDEFINED> instruction: 0x21216b4b
     88c:	4b222121 	blmi	888d18 <ADC12_Common_CCR_TSEN+0x88d18>
     890:	21215e4b 			; <UNDEFINED> instruction: 0x21215e4b
     894:	4b222121 	blmi	888d20 <ADC12_Common_CCR_TSEN+0x88d20>
     898:	21215e4b 			; <UNDEFINED> instruction: 0x21215e4b
     89c:	4b222121 	blmi	888d28 <ADC12_Common_CCR_TSEN+0x88d28>
     8a0:	21216b4b 			; <UNDEFINED> instruction: 0x21216b4b
     8a4:	4b222121 	blmi	888d30 <ADC12_Common_CCR_TSEN+0x88d30>
     8a8:	21216b4b 			; <UNDEFINED> instruction: 0x21216b4b
     8ac:	4b222121 	blmi	888d38 <ADC12_Common_CCR_TSEN+0x88d38>
     8b0:	21216b4b 			; <UNDEFINED> instruction: 0x21216b4b
     8b4:	4b4b2221 	blmi	12c9140 <RCC_PLL1DIVR_Value+0x298ea1>
     8b8:	2121216b 			; <UNDEFINED> instruction: 0x2121216b
     8bc:	6c4b4b22 	mcrrvs	11, 2, r4, fp, cr2
     8c0:	21212221 			; <UNDEFINED> instruction: 0x21212221
     8c4:	2f4b2221 	svccs	0x004b2221
     8c8:	2122215e 			; <UNDEFINED> instruction: 0x2122215e
     8cc:	2f4b2221 	svccs	0x004b2221
     8d0:	2f332127 	svccs	0x00332127
     8d4:	26302f2f 	ldrtcs	r2, [r0], -pc, lsr #30
     8d8:	2e0b0321 	cdpcs	3, 0, cr0, cr11, cr1, {1}
     8dc:	21312f2f 	teqcs	r1, pc, lsr #30
     8e0:	3d2f2121 	stfccs	f2, [pc, #-132]!	; 864 <Code_94+0x14>
     8e4:	21212423 			; <UNDEFINED> instruction: 0x21212423
     8e8:	22212121 	eorcs	r2, r1, #1073741832	; 0x40000008
     8ec:	2121214b 			; <UNDEFINED> instruction: 0x2121214b
     8f0:	2f212f27 	svccs	0x00212f27
     8f4:	24212122 	strtcs	r2, [r1], #-290	; 0xfffffede
     8f8:	2121212f 			; <UNDEFINED> instruction: 0x2121212f
     8fc:	31272f2f 			; <UNDEFINED> instruction: 0x31272f2f
     900:	2221244d 	eorcs	r2, r1, #1291845632	; 0x4d000000
     904:	21322f32 	teqcs	r2, r2, lsr pc
     908:	21222521 			; <UNDEFINED> instruction: 0x21222521
     90c:	2f222121 	svccs	0x00222121
     910:	24282121 	strtcs	r2, [r8], #-289	; 0xfffffedf
     914:	24212221 	strtcs	r2, [r1], #-545	; 0xfffffddf
     918:	21222f2f 			; <UNDEFINED> instruction: 0x21222f2f
     91c:	232f2f21 			; <UNDEFINED> instruction: 0x232f2f21
     920:	2f2f2121 	svccs	0x002f2121
     924:	3022252f 	eorcc	r2, r2, pc, lsr #10
     928:	4b302f4b 	blmi	c0c65c <ADC12_Common_CCR_TSEN+0x40c65c>
     92c:	23304b2f 	teqcs	r0, #48128	; 0xbc00
     930:	212f2f21 			; <UNDEFINED> instruction: 0x212f2f21
     934:	232f2121 			; <UNDEFINED> instruction: 0x232f2121
     938:	21212122 			; <UNDEFINED> instruction: 0x21212122
     93c:	216c2f21 	cmncs	ip, r1, lsr #30
     940:	22212121 	eorcs	r2, r1, #1073741832	; 0x40000008
     944:	21216c4b 			; <UNDEFINED> instruction: 0x21216c4b
     948:	4b222121 	blmi	888dd4 <ADC12_Common_CCR_TSEN+0x88dd4>
     94c:	21212179 			; <UNDEFINED> instruction: 0x21212179
     950:	794b2221 	stmdbvc	fp, {r0, r5, r9, sp}^
     954:	21212121 			; <UNDEFINED> instruction: 0x21212121
     958:	30214d22 	eorcc	r4, r1, r2, lsr #26
     95c:	21212121 			; <UNDEFINED> instruction: 0x21212121
     960:	21242f21 			; <UNDEFINED> instruction: 0x21242f21
     964:	21213321 			; <UNDEFINED> instruction: 0x21213321
     968:	322f3121 	eorcc	r3, pc, #1073741832	; 0x40000008
     96c:	214b2223 	cmpcs	fp, r3, lsr #4
     970:	4b2f2f21 	blmi	bcc5fc <ADC12_Common_CCR_TSEN+0x3cc5fc>
     974:	2f302121 	svccs	0x00302121
     978:	2e7ea003 	cdpcs	0, 7, cr10, cr14, cr3, {0}
     97c:	042e2b03 	strteq	r2, [lr], #-2819	; 0xfffff4fd
     980:	7db80308 	ldcvc	3, cr0, [r8, #32]!
     984:	322f2282 	eorcc	r2, pc, #536870920	; 0x20000008
     988:	21212321 			; <UNDEFINED> instruction: 0x21212321
     98c:	21232122 			; <UNDEFINED> instruction: 0x21232122
     990:	23212121 			; <UNDEFINED> instruction: 0x23212121
     994:	21212121 			; <UNDEFINED> instruction: 0x21212121
     998:	7c212221 	sfmvc	f2, 4, [r1], #-132	; 0xffffff7c
     99c:	2221312f 	eorcs	r3, r1, #-1073741813	; 0xc000000b
     9a0:	21222121 			; <UNDEFINED> instruction: 0x21222121
     9a4:	4d23215e 	stfmis	f2, [r3, #-376]!	; 0xfffffe88
     9a8:	21213121 			; <UNDEFINED> instruction: 0x21213121
     9ac:	21212321 			; <UNDEFINED> instruction: 0x21212321
     9b0:	22212221 	eorcs	r2, r1, #268435458	; 0x10000002
     9b4:	30232131 	eorcc	r2, r3, r1, lsr r1
     9b8:	215e2f21 	cmpcs	lr, r1, lsr #30
     9bc:	4d232121 	stfmis	f2, [r3, #-132]!	; 0xffffff7c
     9c0:	21213121 			; <UNDEFINED> instruction: 0x21213121
     9c4:	21212321 			; <UNDEFINED> instruction: 0x21212321
     9c8:	22212221 	eorcs	r2, r1, #268435458	; 0x10000002
     9cc:	2421232f 	strtcs	r2, [r1], #-815	; 0xfffffcd1
     9d0:	21212121 			; <UNDEFINED> instruction: 0x21212121
     9d4:	2f302130 	svccs	0x00302130
     9d8:	21216c2f 			; <UNDEFINED> instruction: 0x21216c2f
     9dc:	22212121 	eorcs	r2, r1, #1073741832	; 0x40000008
     9e0:	2f2f2f21 	svccs	0x002f2f21
     9e4:	2f2f2f2f 	svccs	0x002f2f2f
     9e8:	21661103 	cmncs	r6, r3, lsl #2
     9ec:	4d2f2123 	stfmis	f2, [pc, #-140]!	; 968 <Code_107>
     9f0:	23212121 			; <UNDEFINED> instruction: 0x23212121
     9f4:	22212121 	eorcs	r2, r1, #1073741832	; 0x40000008
     9f8:	21312221 	teqcs	r1, r1, lsr #4
     9fc:	2f213023 	svccs	0x00213023
     a00:	2121216c 			; <UNDEFINED> instruction: 0x2121216c
     a04:	4d2f2123 	stfmis	f2, [pc, #-140]!	; 980 <Code_107+0x18>
     a08:	23212121 			; <UNDEFINED> instruction: 0x23212121
     a0c:	22212121 	eorcs	r2, r1, #1073741832	; 0x40000008
     a10:	232f2221 			; <UNDEFINED> instruction: 0x232f2221
     a14:	21212421 			; <UNDEFINED> instruction: 0x21212421
     a18:	21302121 	teqcs	r0, r1, lsr #2
     a1c:	6d2f2f30 	stcvs	15, cr2, [pc, #-192]!	; 964 <Dictionary_107+0x6>
     a20:	21212121 			; <UNDEFINED> instruction: 0x21212121
     a24:	2f212221 	svccs	0x00212221
     a28:	2f2f2f2f 	svccs	0x002f2f2f
     a2c:	216d2f2f 	cmncs	sp, pc, lsr #30
     a30:	4d2f2123 	stfmis	f2, [pc, #-140]!	; 9ac <alloc_multiplikation_m3+0x8>
     a34:	23212121 			; <UNDEFINED> instruction: 0x23212121
     a38:	22212121 	eorcs	r2, r1, #1073741832	; 0x40000008
     a3c:	21312221 	teqcs	r1, r1, lsr #4
     a40:	2f213023 	svccs	0x00213023
     a44:	2121216c 			; <UNDEFINED> instruction: 0x2121216c
     a48:	4d2f2123 	stfmis	f2, [pc, #-140]!	; 9c4 <alloc_multiplikation_m3+0x20>
     a4c:	23212121 			; <UNDEFINED> instruction: 0x23212121
     a50:	22212121 	eorcs	r2, r1, #1073741832	; 0x40000008
     a54:	232f2221 			; <UNDEFINED> instruction: 0x232f2221
     a58:	21212421 			; <UNDEFINED> instruction: 0x21212421
     a5c:	21302121 	teqcs	r0, r1, lsr #2
     a60:	6c2f2f30 	stcvs	15, cr2, [pc], #-192	; 9a8 <alloc_multiplikation_m3+0x4>
     a64:	21212121 			; <UNDEFINED> instruction: 0x21212121
     a68:	2f212221 	svccs	0x00212221
     a6c:	2f2f2f2f 	svccs	0x002f2f2f
     a70:	217c2f2f 	cmncs	ip, pc, lsr #30
     a74:	21212121 			; <UNDEFINED> instruction: 0x21212121
     a78:	7a4b2122 	bvc	12c8f08 <RCC_PLL1DIVR_Value+0x298c69>
     a7c:	21212121 			; <UNDEFINED> instruction: 0x21212121
     a80:	2f212221 	svccs	0x00212221
     a84:	4b2f2f2f 	blmi	bcc748 <ADC12_Common_CCR_TSEN+0x3cc748>
     a88:	7a2f2f2f 	bvc	bcc74c <ADC12_Common_CCR_TSEN+0x3cc74c>
     a8c:	21212121 			; <UNDEFINED> instruction: 0x21212121
     a90:	4c212221 	sfmmi	f2, 4, [r1], #-132	; 0xffffff7c
     a94:	302f2f2f 	eorcc	r2, pc, pc, lsr #30
     a98:	7a2f2f2f 	bvc	bcc75c <ADC12_Common_CCR_TSEN+0x3cc75c>
     a9c:	21282121 			; <UNDEFINED> instruction: 0x21282121
     aa0:	2f21232f 	svccs	0x0021232f
     aa4:	2f2f4b30 	svccs	0x002f4b30
     aa8:	2121217a 			; <UNDEFINED> instruction: 0x2121217a
     aac:	21222121 			; <UNDEFINED> instruction: 0x21222121
     ab0:	21217a4b 			; <UNDEFINED> instruction: 0x21217a4b
     ab4:	22212121 	eorcs	r2, r1, #1073741832	; 0x40000008
     ab8:	2f2f2f21 	svccs	0x002f2f21
     abc:	2f2f4b2f 	svccs	0x002f4b2f
     ac0:	21217a2f 			; <UNDEFINED> instruction: 0x21217a2f
     ac4:	22212121 	eorcs	r2, r1, #1073741832	; 0x40000008
     ac8:	2f2f4c21 	svccs	0x002f4c21
     acc:	2f2f302f 	svccs	0x002f302f
     ad0:	21217a2f 			; <UNDEFINED> instruction: 0x21217a2f
     ad4:	232f2128 			; <UNDEFINED> instruction: 0x232f2128
     ad8:	7a2f2f21 	bvc	bcc764 <ADC12_Common_CCR_TSEN+0x3cc764>
     adc:	21212121 			; <UNDEFINED> instruction: 0x21212121
     ae0:	4b212221 	blmi	84936c <ADC12_Common_CCR_TSEN+0x4936c>
     ae4:	2121217a 			; <UNDEFINED> instruction: 0x2121217a
     ae8:	21222121 			; <UNDEFINED> instruction: 0x21222121
     aec:	2f2f2f2f 	svccs	0x002f2f2f
     af0:	2f2f2f4b 	svccs	0x002f2f4b
     af4:	2121217a 			; <UNDEFINED> instruction: 0x2121217a
     af8:	21222121 			; <UNDEFINED> instruction: 0x21222121
     afc:	2f2f2f4c 	svccs	0x002f2f4c
     b00:	2f2f2f30 	svccs	0x002f2f30
     b04:	2821217a 	stmdacs	r1!, {r1, r3, r4, r5, r6, r8, sp}
     b08:	21232f21 			; <UNDEFINED> instruction: 0x21232f21
     b0c:	09042f2f 	stmdbeq	r4, {r0, r1, r2, r3, r5, r8, r9, sl, fp, sp}
     b10:	ac7ae903 			; <UNDEFINED> instruction: 0xac7ae903
     b14:	0322212f 			; <UNDEFINED> instruction: 0x0322212f
     b18:	302fac0d 	eorcc	sl, pc, sp, lsl #24
     b1c:	b4302fb4 	ldrtlt	r2, [r0], #-4020	; 0xfffff04c
     b20:	1703302f 	strne	r3, [r3, -pc, lsr #32]
     b24:	2f212f90 	svccs	0x00212f90
     b28:	2f212f23 	svccs	0x00212f23
     b2c:	2f212f23 	svccs	0x00212f23
     b30:	2f2f3123 	svccs	0x002f3123
     b34:	2f2f312f 	svccs	0x002f312f
     b38:	2f2f2f31 	svccs	0x002f2f31
     b3c:	2f2f3131 	svccs	0x002f3131
     b40:	2f2f312f 	svccs	0x002f312f
     b44:	2f2f2f31 	svccs	0x002f2f31
     b48:	2f2f2f31 	svccs	0x002f2f31
     b4c:	312f2f30 			; <UNDEFINED> instruction: 0x312f2f30
     b50:	2f232f31 	svccs	0x00232f31
     b54:	98222123 	stmdals	r2!, {r0, r1, r5, r8, sp}
     b58:	21312f31 	teqcs	r1, r1, lsr pc
     b5c:	21232123 			; <UNDEFINED> instruction: 0x21232123
     b60:	85232123 	strhi	r2, [r3, #-291]!	; 0xfffffedd
     b64:	2127232f 			; <UNDEFINED> instruction: 0x2127232f
     b68:	2123212f 			; <UNDEFINED> instruction: 0x2123212f
     b6c:	21a68431 			; <UNDEFINED> instruction: 0x21a68431
     b70:	31a5302f 			; <UNDEFINED> instruction: 0x31a5302f
     b74:	21232131 			; <UNDEFINED> instruction: 0x21232131
     b78:	21232123 			; <UNDEFINED> instruction: 0x21232123
     b7c:	232f8522 			; <UNDEFINED> instruction: 0x232f8522
     b80:	212f2123 			; <UNDEFINED> instruction: 0x212f2123
     b84:	8a842223 	bhi	fe109418 <erasedword+0xfe109419>
     b88:	232f2f31 			; <UNDEFINED> instruction: 0x232f2f31
     b8c:	23212321 			; <UNDEFINED> instruction: 0x23212321
     b90:	22212321 	eorcs	r2, r1, #-2080374784	; 0x84000000
     b94:	21232f77 			; <UNDEFINED> instruction: 0x21232f77
     b98:	212f2133 			; <UNDEFINED> instruction: 0x212f2133
     b9c:	212f2123 			; <UNDEFINED> instruction: 0x212f2123
     ba0:	237c7622 	cmncs	ip, #35651584	; 0x2200000
     ba4:	21232f2f 			; <UNDEFINED> instruction: 0x21232f2f
     ba8:	21232123 			; <UNDEFINED> instruction: 0x21232123
     bac:	77222123 	strvc	r2, [r2, -r3, lsr #2]!
     bb0:	2521232f 	strcs	r2, [r1, #-815]!	; 0xfffffcd1
     bb4:	23212f21 			; <UNDEFINED> instruction: 0x23212f21
     bb8:	22212f21 	eorcs	r2, r1, #33, 30	; 0x84
     bbc:	23239876 			; <UNDEFINED> instruction: 0x23239876
     bc0:	21232f2f 			; <UNDEFINED> instruction: 0x21232f2f
     bc4:	23212123 			; <UNDEFINED> instruction: 0x23212123
     bc8:	22212321 	eorcs	r2, r1, #-2080374784	; 0x84000000
     bcc:	25232f77 	strcs	r2, [r3, #-3959]!	; 0xfffff089
     bd0:	23212f21 			; <UNDEFINED> instruction: 0x23212f21
     bd4:	23212323 			; <UNDEFINED> instruction: 0x23212323
     bd8:	232f232f 			; <UNDEFINED> instruction: 0x232f232f
     bdc:	212f2321 			; <UNDEFINED> instruction: 0x212f2321
     be0:	77222121 	strvc	r2, [r2, -r1, lsr #2]!
     be4:	900a0321 	andls	r0, sl, r1, lsr #6
     be8:	2f212123 	svccs	0x00212123
     bec:	21213132 			; <UNDEFINED> instruction: 0x21213132
     bf0:	212f3223 			; <UNDEFINED> instruction: 0x212f3223
     bf4:	23232121 			; <UNDEFINED> instruction: 0x23232121
     bf8:	232f2f21 			; <UNDEFINED> instruction: 0x232f2f21
     bfc:	820a0321 	andhi	r0, sl, #-2080374784	; 0x84000000
     c00:	21233122 			; <UNDEFINED> instruction: 0x21233122
     c04:	2f212321 	svccs	0x00212321
     c08:	2f232121 	svccs	0x00232121
     c0c:	2321232f 			; <UNDEFINED> instruction: 0x2321232f
     c10:	23212321 			; <UNDEFINED> instruction: 0x23212321
     c14:	2f772221 	svccs	0x00772221
     c18:	21252123 			; <UNDEFINED> instruction: 0x21252123
     c1c:	2123212f 			; <UNDEFINED> instruction: 0x2123212f
     c20:	7622212f 	strtvc	r2, [r2], -pc, lsr #2
     c24:	31228a2f 			; <UNDEFINED> instruction: 0x31228a2f
     c28:	23212123 			; <UNDEFINED> instruction: 0x23212123
     c2c:	21212f21 			; <UNDEFINED> instruction: 0x21212f21
     c30:	232f2f23 			; <UNDEFINED> instruction: 0x232f2f23
     c34:	23212321 			; <UNDEFINED> instruction: 0x23212321
     c38:	22212321 	eorcs	r2, r1, #-2080374784	; 0x84000000
     c3c:	21232f77 			; <UNDEFINED> instruction: 0x21232f77
     c40:	212f2133 			; <UNDEFINED> instruction: 0x212f2133
     c44:	212f2123 			; <UNDEFINED> instruction: 0x212f2123
     c48:	b32f7622 			; <UNDEFINED> instruction: 0xb32f7622
     c4c:	21232123 			; <UNDEFINED> instruction: 0x21232123
     c50:	21232123 			; <UNDEFINED> instruction: 0x21232123
     c54:	232f7722 			; <UNDEFINED> instruction: 0x232f7722
     c58:	2f213121 	svccs	0x00213121
     c5c:	98763021 	ldmdals	r6!, {r0, r5, ip, sp}^
     c60:	2f2f2122 	svccs	0x002f2122
     c64:	952f9622 	strls	r9, [pc, #-1570]!	; 64a <Dictionary_69+0x6>
     c68:	2331952f 	teqcs	r1, #197132288	; 0xbc00000
     c6c:	212f2331 			; <UNDEFINED> instruction: 0x212f2331
     c70:	21232123 			; <UNDEFINED> instruction: 0x21232123
     c74:	21232123 			; <UNDEFINED> instruction: 0x21232123
     c78:	232f7722 			; <UNDEFINED> instruction: 0x232f7722
     c7c:	212f2125 			; <UNDEFINED> instruction: 0x212f2125
     c80:	30217622 	eorcc	r7, r1, r2, lsr #12
     c84:	233123a6 	teqcs	r1, #-1744830462	; 0x98000002
     c88:	23212321 			; <UNDEFINED> instruction: 0x23212321
     c8c:	22212321 	eorcs	r2, r1, #-2080374784	; 0x84000000
     c90:	21232f77 			; <UNDEFINED> instruction: 0x21232f77
     c94:	212f2131 			; <UNDEFINED> instruction: 0x212f2131
     c98:	03307630 	teqeq	r0, #48, 12	; 0x3000000
     c9c:	032e79b2 			; <UNDEFINED> instruction: 0x032e79b2
     ca0:	032e00c1 			; <UNDEFINED> instruction: 0x032e00c1
     ca4:	03342e0c 	teqeq	r4, #12, 28	; 0xc0
     ca8:	1e032e14 	mcrne	14, 0, r2, cr3, cr4, {0}
     cac:	0332312e 	teqeq	r2, #-2147483637	; 0x8000000b
     cb0:	312e038b 	smlawbcc	lr, fp, r3, r0
     cb4:	ea030a04 	b	c34cc <ADC12_Common_CSR_EOS_SLV+0x434cc>
     cb8:	2121667b 			; <UNDEFINED> instruction: 0x2121667b
     cbc:	4c302124 	ldfmis	f2, [r0], #-144	; 0xffffff70
     cc0:	214d222f 	cmpcs	sp, pc, lsr #4
     cc4:	5e2f2121 	sufplep	f2, f7, f1
     cc8:	21242121 			; <UNDEFINED> instruction: 0x21242121
     ccc:	222f4c30 	eorcs	r4, pc, #48, 24	; 0x3000
     cd0:	2121364e 			; <UNDEFINED> instruction: 0x2121364e
     cd4:	21212121 			; <UNDEFINED> instruction: 0x21212121
     cd8:	21302423 	teqcs	r0, r3, lsr #8
     cdc:	30212121 	eorcc	r2, r1, r1, lsr #2
     ce0:	2f3d262f 	svccs	0x003d262f
     ce4:	23212122 			; <UNDEFINED> instruction: 0x23212122
     ce8:	22222221 	eorcs	r2, r2, #268435458	; 0x10000002
     cec:	302f3031 	eorcc	r3, pc, r1, lsr r0	; <UNPREDICTABLE>
     cf0:	2623252f 	strtcs	r2, [r3], -pc, lsr #10
     cf4:	24212232 	strtcs	r2, [r1], #-562	; 0xfffffdce
     cf8:	30312421 	eorscc	r2, r1, r1, lsr #8
     cfc:	216d3021 	cmncs	sp, r1, lsr #32
     d00:	216c4b23 	cmncs	ip, r3, lsr #22
     d04:	216c4b22 	cmncs	ip, r2, lsr #22
     d08:	216c4b22 	cmncs	ip, r2, lsr #22
     d0c:	21794b22 	cmncs	r9, r2, lsr #22
     d10:	21874b22 	orrcs	r4, r7, r2, lsr #22
     d14:	2f214d23 	svccs	0x00214d23
     d18:	2f212121 	svccs	0x00212121
     d1c:	216b2f21 	cmncs	fp, r1, lsr #30
     d20:	216b4b23 	cmncs	fp, r3, lsr #22
     d24:	216b4b22 	cmncs	fp, r2, lsr #22
     d28:	22216b22 	eorcs	r6, r1, #34816	; 0x8800
     d2c:	2221793d 	eorcs	r7, r1, #999424	; 0xf4000
     d30:	22216c3d 	eorcs	r6, r1, #15616	; 0x3d00
     d34:	21216c4b 			; <UNDEFINED> instruction: 0x21216c4b
     d38:	30212221 	eorcc	r2, r1, r1, lsr #4
     d3c:	2121213d 			; <UNDEFINED> instruction: 0x2121213d
     d40:	4b30212f 	blmi	c09204 <ADC12_Common_CCR_TSEN+0x409204>
     d44:	2c032f30 	stccs	15, cr2, [r3], {48}	; 0x30
     d48:	2f212174 	svccs	0x00212174
     d4c:	21212121 			; <UNDEFINED> instruction: 0x21212121
     d50:	21743b03 	cmncs	r4, r3, lsl #22
     d54:	21212f21 			; <UNDEFINED> instruction: 0x21212f21
     d58:	216d2121 	cmncs	sp, r1, lsr #2
     d5c:	1003212f 	andne	r2, r3, pc, lsr #2
     d60:	222f2158 	eorcs	r2, pc, #88, 2
     d64:	312f2f21 			; <UNDEFINED> instruction: 0x312f2f21
     d68:	2221222f 	eorcs	r2, r1, #-268435454	; 0xf0000002
     d6c:	30303021 	eorscc	r3, r0, r1, lsr #32
     d70:	217b2f2f 	cmncs	fp, pc, lsr #30
     d74:	11032121 	tstne	r3, r1, lsr #2
     d78:	a4212f74 	strtge	r2, [r1], #-3956	; 0xfffff08c
     d7c:	87212121 	strhi	r2, [r1, -r1, lsr #2]!
     d80:	6b212121 	blvs	84920c <ADC12_Common_CCR_TSEN+0x4920c>
     d84:	03212121 			; <UNDEFINED> instruction: 0x03212121
     d88:	03207c86 			; <UNDEFINED> instruction: 0x03207c86
     d8c:	9b032e1b 	blls	cc600 <ADC12_Common_CSR_EOS_SLV+0x4c600>
     d90:	2a032e03 	bcs	cc5a4 <ADC12_Common_CSR_EOS_SLV+0x4c5a4>
     d94:	030b042e 	movweq	r0, #46126	; 0xb42e
     d98:	032e7c99 			; <UNDEFINED> instruction: 0x032e7c99
     d9c:	21212009 			; <UNDEFINED> instruction: 0x21212009
     da0:	2016032f 	andscs	r0, r6, pc, lsr #6
     da4:	21213021 			; <UNDEFINED> instruction: 0x21213021
     da8:	2121212f 			; <UNDEFINED> instruction: 0x2121212f
     dac:	2f21302f 	svccs	0x0021302f
     db0:	2f302f21 	svccs	0x00302f21
     db4:	21200b03 			; <UNDEFINED> instruction: 0x21200b03
     db8:	2f302f21 	svccs	0x00302f21
     dbc:	1d032f21 	stcne	15, cr2, [r3, #-132]	; 0xffffff7c
     dc0:	ac13032e 	ldcge	3, cr0, [r3], {46}	; 0x2e
     dc4:	212f2121 			; <UNDEFINED> instruction: 0x212f2121
     dc8:	21c81203 	biccs	r1, r8, r3, lsl #4
     dcc:	04212f21 	strteq	r2, [r1], #-3873	; 0xfffff0df
     dd0:	7ecc030c 	cdpvc	3, 12, cr0, cr12, cr12, {0}
     dd4:	2f212182 	svccs	0x00212182
     dd8:	217b222f 	cmncs	fp, pc, lsr #4
     ddc:	21232f21 			; <UNDEFINED> instruction: 0x21232f21
     de0:	2189222f 	orrcs	r2, r9, pc, lsr #4
     de4:	21232f21 			; <UNDEFINED> instruction: 0x21232f21
     de8:	2003222f 	andcs	r2, r3, pc, lsr #4
     dec:	3121239e 			; <UNDEFINED> instruction: 0x3121239e
     df0:	21232f21 			; <UNDEFINED> instruction: 0x21232f21
     df4:	2321232f 			; <UNDEFINED> instruction: 0x2321232f
     df8:	21232f21 			; <UNDEFINED> instruction: 0x21232f21
     dfc:	212f282f 			; <UNDEFINED> instruction: 0x212f282f
     e00:	232f212f 			; <UNDEFINED> instruction: 0x232f212f
     e04:	04222f21 	strteq	r2, [r2], #-3873	; 0xfffff0df
     e08:	7f87030d 	svcvc	0x0087030d
     e0c:	2f212190 	svccs	0x00212190
     e10:	21219722 			; <UNDEFINED> instruction: 0x21219722
     e14:	740a0322 	strvc	r0, [sl], #-802	; 0xfffffcde
     e18:	23212323 			; <UNDEFINED> instruction: 0x23212323
     e1c:	21232121 			; <UNDEFINED> instruction: 0x21232121
     e20:	212f217b 			; <UNDEFINED> instruction: 0x212f217b
     e24:	78030b04 	stmdavc	r3, {r2, r8, r9, fp}
     e28:	2e190320 	cdpcs	3, 1, cr0, cr9, cr0, {1}
     e2c:	032e1e03 			; <UNDEFINED> instruction: 0x032e1e03
     e30:	16032e38 			; <UNDEFINED> instruction: 0x16032e38
     e34:	030c042e 	movweq	r0, #50222	; 0xc42e
     e38:	032e7ed0 			; <UNDEFINED> instruction: 0x032e7ed0
     e3c:	11032e0d 	tstne	r3, sp, lsl #28
     e40:	2e3b032e 	cdpcs	3, 3, cr0, cr11, cr14, {1}
     e44:	a6030d04 	strge	r0, [r3], -r4, lsl #26
     e48:	0c032e7f 	stceq	14, cr2, [r3], {127}	; 0x7f
     e4c:	030e042e 	movweq	r0, #58414	; 0xe42e
     e50:	21219e74 			; <UNDEFINED> instruction: 0x21219e74
     e54:	2f88222f 	svccs	0x0088222f
     e58:	2e730321 	cdpcs	3, 7, cr0, cr3, cr1, {1}
     e5c:	042e0c03 	strteq	r0, [lr], #-3075	; 0xfffff3fd
     e60:	7439030f 	ldrtvc	r0, [r9], #-783	; 0xfffffcf1
     e64:	22972f2f 	addscs	r2, r7, #47, 30	; 0xbc
     e68:	21212121 			; <UNDEFINED> instruction: 0x21212121
     e6c:	2f4b2f31 	svccs	0x004b2f31
     e70:	2f302196 	svccs	0x00302196
     e74:	21222121 			; <UNDEFINED> instruction: 0x21222121
     e78:	96222121 	strtls	r2, [r2], -r1, lsr #2
     e7c:	212f3021 			; <UNDEFINED> instruction: 0x212f3021
     e80:	21212121 			; <UNDEFINED> instruction: 0x21212121
     e84:	22212121 	eorcs	r2, r1, #1073741832	; 0x40000008
     e88:	21213088 	smlawbcs	r1, r8, r0, r3
     e8c:	21222121 			; <UNDEFINED> instruction: 0x21222121
     e90:	96222122 	strtls	r2, [r2], -r2, lsr #2
     e94:	21212121 			; <UNDEFINED> instruction: 0x21212121
     e98:	2f222121 	svccs	0x00222121
     e9c:	04212222 	strteq	r2, [r1], #-546	; 0xfffffdde
     ea0:	7eea0310 	mcrvc	3, 7, r0, cr10, cr0, {0}
     ea4:	03212f90 			; <UNDEFINED> instruction: 0x03212f90
     ea8:	212fac0c 			; <UNDEFINED> instruction: 0x212fac0c
     eac:	2fba0b03 	svccs	0x00ba0b03
     eb0:	ac0b0321 	stcge	3, cr0, [fp], {33}	; 0x21
     eb4:	0b03212f 	bleq	c9378 <ADC12_Common_CSR_EOS_SLV+0x49378>
     eb8:	97212fba 			; <UNDEFINED> instruction: 0x97212fba
     ebc:	6c2f2121 	stfvss	f2, [pc], #-132	; e40 <Dictionary_183+0x2>
     ec0:	792f2121 	stmdbvc	pc!, {r0, r5, r8, sp}	; <UNPREDICTABLE>
     ec4:	21792121 	cmncs	r9, r1, lsr #2
     ec8:	21217a21 			; <UNDEFINED> instruction: 0x21217a21
     ecc:	0f042124 	svceq	0x00042124
     ed0:	04205803 	strteq	r5, [r0], #-2051	; 0xfffff7fd
     ed4:	2e440310 	mcrcs	3, 2, r0, cr4, cr0, {0}
     ed8:	032e0e03 			; <UNDEFINED> instruction: 0x032e0e03
     edc:	0d032e0d 	stceq	14, cr2, [r3, #-52]	; 0xffffffcc
     ee0:	2e0d032e 	cdpcs	3, 0, cr0, cr13, cr14, {1}
     ee4:	eb030f04 	bl	c4afc <ADC12_Common_CSR_EOS_SLV+0x44afc>
     ee8:	2f2fac00 	svccs	0x002fac00
     eec:	2f212198 	svccs	0x00212198
     ef0:	2f212123 	svccs	0x00212123
     ef4:	2f212123 	svccs	0x00212123
     ef8:	222f2123 	eorcs	r2, pc, #-1073741816	; 0xc0000008
     efc:	34206a03 	strtcc	r6, [r0], #-2563	; 0xfffff5fd
     f00:	03110434 	tsteq	r1, #52, 8	; 0x34000000
     f04:	21907ec8 	orrscs	r7, r0, r8, asr #29
     f08:	21212121 			; <UNDEFINED> instruction: 0x21212121
     f0c:	2121212f 			; <UNDEFINED> instruction: 0x2121212f
     f10:	20090388 	andcs	r0, r9, r8, lsl #7
     f14:	2f232121 	svccs	0x00232121
     f18:	21222130 			; <UNDEFINED> instruction: 0x21222130
     f1c:	21222124 			; <UNDEFINED> instruction: 0x21222124
     f20:	21222121 			; <UNDEFINED> instruction: 0x21222121
     f24:	03222122 			; <UNDEFINED> instruction: 0x03222122
     f28:	24214a1a 	strtcs	r4, [r1], #-2586	; 0xfffff5e6
     f2c:	21212521 			; <UNDEFINED> instruction: 0x21212521
     f30:	21212128 			; <UNDEFINED> instruction: 0x21212128
     f34:	22212424 	eorcs	r2, r1, #36, 8	; 0x24000000
     f38:	21212f3d 			; <UNDEFINED> instruction: 0x21212f3d
     f3c:	6c2f2123 	stfvss	f2, [pc], #-140	; eb8 <Code_185+0x2>
     f40:	2f6c212f 	svccs	0x006c212f
     f44:	212fdd21 			; <UNDEFINED> instruction: 0x212fdd21
     f48:	21c80903 	biccs	r0, r8, r3, lsl #18
     f4c:	21212121 			; <UNDEFINED> instruction: 0x21212121
     f50:	21222f88 	smlawbcs	r2, r8, pc, r2	; <UNPREDICTABLE>
     f54:	7a212121 	bvc	8493e0 <ADC12_Common_CCR_TSEN+0x493e0>
     f58:	22212122 	eorcs	r2, r1, #-2147483640	; 0x80000008
     f5c:	2f3d2f2f 	svccs	0x003d2f2f
     f60:	2e410330 	mcrcs	3, 2, r0, cr1, cr0, {1}
     f64:	2e090336 	mcrcs	3, 0, r0, cr9, cr6, {1}
     f68:	8d031204 	sfmhi	f1, 4, [r3, #-16]
     f6c:	2f22907f 	svccs	0x0022907f
     f70:	24232221 	strtcs	r2, [r3], #-545	; 0xfffffddf
     f74:	21212221 			; <UNDEFINED> instruction: 0x21212221
     f78:	215a5923 	cmpcs	sl, r3, lsr #18
     f7c:	21232123 			; <UNDEFINED> instruction: 0x21232123
     f80:	3d216b21 	fstmdbxcc	r1!, {d6-d21}	;@ Deprecated
     f84:	3d7a3d6b 	ldclcc	13, cr3, [sl, #-428]!	; 0xfffffe54
     f88:	22212187 	eorcs	r2, r1, #-1073741791	; 0xc0000021
     f8c:	2122212f 			; <UNDEFINED> instruction: 0x2122212f
     f90:	2f217a88 	svccs	0x00217a88
     f94:	3d5d2121 	ldfcce	f2, [sp, #-132]	; 0xffffff7c
     f98:	2f213e5d 	svccs	0x00213e5d
     f9c:	21226b2f 			; <UNDEFINED> instruction: 0x21226b2f
     fa0:	2f3d303d 	svccs	0x003d303d
     fa4:	2f22262f 	svccs	0x0022262f
     fa8:	21242121 			; <UNDEFINED> instruction: 0x21242121
     fac:	31272121 			; <UNDEFINED> instruction: 0x31272121
     fb0:	26216b21 	strtcs	r6, [r1], -r1, lsr #22
     fb4:	2421212f 	strtcs	r2, [r1], #-303	; 0xfffffed1
     fb8:	27212121 	strcs	r2, [r1, -r1, lsr #2]!
     fbc:	26216b31 			; <UNDEFINED> instruction: 0x26216b31
     fc0:	212f212f 			; <UNDEFINED> instruction: 0x212f212f
     fc4:	21212124 			; <UNDEFINED> instruction: 0x21212124
     fc8:	217b3127 	cmncs	fp, r7, lsr #2
     fcc:	7a21212f 	bvc	849490 <ADC12_Common_CCR_TSEN+0x49490>
     fd0:	7a2f2f21 	bvc	bccc5c <ADC12_Common_CCR_TSEN+0x3ccc5c>
     fd4:	24212221 	strtcs	r2, [r1], #-545	; 0xfffffddf
     fd8:	212f212f 			; <UNDEFINED> instruction: 0x212f212f
     fdc:	04212221 	strteq	r2, [r1], #-545	; 0xfffffddf
     fe0:	7de80313 	stclvc	3, cr0, [r8, #76]!	; 0x4c
     fe4:	212f2174 			; <UNDEFINED> instruction: 0x212f2174
     fe8:	21302122 	teqcs	r0, r2, lsr #2
     fec:	21212122 			; <UNDEFINED> instruction: 0x21212122
     ff0:	2f232121 	svccs	0x00232121
     ff4:	6c2f2221 	sfmvs	f2, 4, [pc], #-132	; f78 <swap_allocator+0xe>
     ff8:	216c2121 	cmncs	ip, r1, lsr #2
     ffc:	23216c21 			; <UNDEFINED> instruction: 0x23216c21
    1000:	21212221 			; <UNDEFINED> instruction: 0x21212221
    1004:	21212223 			; <UNDEFINED> instruction: 0x21212223
    1008:	21222321 			; <UNDEFINED> instruction: 0x21222321
    100c:	21232121 			; <UNDEFINED> instruction: 0x21232121
    1010:	21222321 			; <UNDEFINED> instruction: 0x21222321
    1014:	22212123 	eorcs	r2, r1, #-1073741816	; 0xc0000008
    1018:	3d752221 	lfmcc	f2, 2, [r5, #-132]!	; 0xffffff7c
    101c:	21214d2f 			; <UNDEFINED> instruction: 0x21214d2f
    1020:	22212321 	eorcs	r2, r1, #-2080374784	; 0x84000000
    1024:	3d212223 	sfmcc	f2, 4, [r1, #-140]!	; 0xffffff74
    1028:	21212221 			; <UNDEFINED> instruction: 0x21212221
    102c:	223d6723 	eorscs	r6, sp, #9175040	; 0x8c0000
    1030:	00f00359 	rscseq	r0, r0, r9, asr r3
    1034:	313e2174 	teqcc	lr, r4, ror r1
    1038:	67312f75 			; <UNDEFINED> instruction: 0x67312f75
    103c:	6731212f 	ldrvs	r2, [r1, -pc, lsr #2]!
    1040:	6731212f 	ldrvs	r2, [r1, -pc, lsr #2]!
    1044:	303d2f21 	eorscc	r2, sp, r1, lsr #30
    1048:	30212f67 	eorcc	r2, r1, r7, ror #30
    104c:	222f2f3e 	eorcs	r2, pc, #62, 30	; 0xf8
    1050:	30218821 	eorcc	r8, r1, r1, lsr #16
    1054:	222f2221 	eorcs	r2, pc, #268435458	; 0x10000002
    1058:	04212325 	strteq	r2, [r1], #-805	; 0xfffffcdb
    105c:	7ed70312 	mrcvc	3, 6, r0, cr7, cr2, {0}
    1060:	2e2b0320 	cdpcs	3, 2, cr0, cr11, cr0, {1}
    1064:	042e2003 	strteq	r2, [lr], #-3
    1068:	7ecd0313 	mcrvc	3, 6, r0, cr13, cr3, {0}
    106c:	3136362e 	teqcc	r6, lr, lsr #12
    1070:	032e2303 			; <UNDEFINED> instruction: 0x032e2303
    1074:	b6032e16 			; <UNDEFINED> instruction: 0xb6032e16
    1078:	0b032e01 	bleq	cc884 <ADC12_Common_CSR_EOS_SLV+0x4c884>
    107c:	0314042e 	tsteq	r4, #771751936	; 0x2e000000
    1080:	23ba7df5 			; <UNDEFINED> instruction: 0x23ba7df5
    1084:	2f2f2221 	svccs	0x002f2221
    1088:	22212f27 	eorcs	r2, r1, #39, 30	; 0x9c
    108c:	2121212f 			; <UNDEFINED> instruction: 0x2121212f
    1090:	2f2f2f22 	svccs	0x002f2f22
    1094:	212f262f 			; <UNDEFINED> instruction: 0x212f262f
    1098:	21212f22 			; <UNDEFINED> instruction: 0x21212f22
    109c:	2f212221 	svccs	0x00212221
    10a0:	262f2f2f 	strtcs	r2, [pc], -pc, lsr #30
    10a4:	21222121 			; <UNDEFINED> instruction: 0x21222121
    10a8:	21222121 			; <UNDEFINED> instruction: 0x21222121
    10ac:	21222121 			; <UNDEFINED> instruction: 0x21222121
    10b0:	2f222121 	svccs	0x00222121
    10b4:	032f2f2f 			; <UNDEFINED> instruction: 0x032f2f2f
    10b8:	2421200a 	strtcs	r2, [r1], #-10
    10bc:	2f312123 	svccs	0x00312123
    10c0:	21232121 			; <UNDEFINED> instruction: 0x21232121
    10c4:	03212f24 			; <UNDEFINED> instruction: 0x03212f24
    10c8:	2821200f 	stmdacs	r1!, {r0, r1, r2, r3, sp}
    10cc:	212f3521 			; <UNDEFINED> instruction: 0x212f3521
    10d0:	22212f22 	eorcs	r2, r1, #34, 30	; 0x88
    10d4:	2f22212f 	svccs	0x0022212f
    10d8:	302f262f 	eorcc	r2, pc, pc, lsr #12
    10dc:	22212f2f 	eorcs	r2, r1, #47, 30	; 0xbc
    10e0:	22212f2f 	eorcs	r2, r1, #47, 30	; 0xbc
    10e4:	22212f2f 	eorcs	r2, r1, #47, 30	; 0xbc
    10e8:	22233021 	eorcs	r3, r3, #33	; 0x21
    10ec:	2f302f26 	svccs	0x00302f26
    10f0:	2f22212f 	svccs	0x0022212f
    10f4:	2f22212f 	svccs	0x0022212f
    10f8:	2f22212f 	svccs	0x0022212f
    10fc:	2223212f 	eorcs	r2, r3, #-1073741813	; 0xc000000b
    1100:	252f22cf 	strcs	r2, [pc, #-719]!	; e39 <Code_180+0x19>
    1104:	212f2221 			; <UNDEFINED> instruction: 0x212f2221
    1108:	2130232f 	teqcs	r0, pc, lsr #6
    110c:	212f2121 			; <UNDEFINED> instruction: 0x212f2121
    1110:	21242f21 			; <UNDEFINED> instruction: 0x21242f21
    1114:	21212130 			; <UNDEFINED> instruction: 0x21212130
    1118:	2f21212f 	svccs	0x0021212f
    111c:	22972222 	addscs	r2, r7, #536870914	; 0x20000002
    1120:	3432232f 	ldrtcc	r2, [r2], #-815	; 0xfffffcd1
    1124:	30222f2f 	eorcc	r2, r2, pc, lsr #30
    1128:	21201103 			; <UNDEFINED> instruction: 0x21201103
    112c:	2f212f22 	svccs	0x00212f22
    1130:	200b0330 	andcs	r0, fp, r0, lsr r3
    1134:	313d2221 	teqcc	sp, r1, lsr #4
    1138:	0c032f4b 	stceq	15, cr2, [r3], {75}	; 0x4b
    113c:	2f232174 	svccs	0x00232174
    1140:	2f282130 	svccs	0x00282130
    1144:	2f222121 	svccs	0x00222121
    1148:	262f2121 	strtcs	r2, [pc], -r1, lsr #2
    114c:	2f302127 	svccs	0x00302127
    1150:	2f222221 	svccs	0x00222221
    1154:	22222121 	eorcs	r2, r2, #1073741832	; 0x40000008
    1158:	3d23212f 	stfccs	f2, [r3, #-188]!	; 0xffffff44
    115c:	4b229630 	blmi	8a6a24 <ADC12_Common_CCR_TSEN+0xa6a24>
    1160:	3d304b2f 	fldmdbxcc	r0!, {d4-d26}	;@ Deprecated
    1164:	34218730 	strtcc	r8, [r1], #-1840	; 0xfffff8d0
    1168:	2f263030 	svccs	0x00263030
    116c:	032e1003 			; <UNDEFINED> instruction: 0x032e1003
    1170:	3030740e 	eorscc	r7, r0, lr, lsl #8
    1174:	03322f26 	teqeq	r2, #38, 30	; 0x98
    1178:	362f2015 			; <UNDEFINED> instruction: 0x362f2015
    117c:	03212221 			; <UNDEFINED> instruction: 0x03212221
    1180:	212000c3 	smlawtcs	r0, r3, r0, r0
    1184:	25232121 	strcs	r2, [r3, #-289]!	; 0xfffffedf
    1188:	2f222f21 	svccs	0x00222f21
    118c:	21820903 	orrcs	r0, r2, r3, lsl #18
    1190:	2e00dd03 	cdpcs	13, 0, cr13, cr0, cr3, {0}
    1194:	2121212f 			; <UNDEFINED> instruction: 0x2121212f
    1198:	304b3121 	subcc	r3, fp, r1, lsr #2
    119c:	15042f3d 	strne	r2, [r4, #-3901]	; 0xfffff0c3
    11a0:	6679ff03 	ldrbtvs	pc, [r9], -r3, lsl #30	; <UNPREDICTABLE>
    11a4:	2f2f215e 	svccs	0x002f215e
    11a8:	3422962f 	strtcc	r9, [r2], #-1583	; 0xfffff9d1
    11ac:	2f2f3d3d 	svccs	0x002f3d3d
    11b0:	032f212f 			; <UNDEFINED> instruction: 0x032f212f
    11b4:	1003821d 	andne	r8, r3, sp, lsl r2
    11b8:	312f2f20 			; <UNDEFINED> instruction: 0x312f2f20
    11bc:	21212121 			; <UNDEFINED> instruction: 0x21212121
    11c0:	3d222121 	stfccs	f2, [r2, #-132]!	; 0xffffff7c
    11c4:	21222130 			; <UNDEFINED> instruction: 0x21222130
    11c8:	322f2628 	eorcc	r2, pc, #40, 12	; 0x2800000
    11cc:	21212221 			; <UNDEFINED> instruction: 0x21212221
    11d0:	7c212221 	sfmvc	f2, 4, [r1], #-132	; 0xffffff7c
    11d4:	09037a4b 	stmdbeq	r3, {r0, r1, r3, r6, r9, fp, ip, sp, lr}
    11d8:	21212f82 	smlawbcs	r1, r2, pc, r2	; <UNPREDICTABLE>
    11dc:	7b212f7a 	blvc	84cfcc <ADC12_Common_CCR_TSEN+0x4cfcc>
    11e0:	21212121 			; <UNDEFINED> instruction: 0x21212121
    11e4:	2121215e 			; <UNDEFINED> instruction: 0x2121215e
    11e8:	2221225d 	eorcs	r2, r1, #-805306363	; 0xd0000005
    11ec:	23212133 			; <UNDEFINED> instruction: 0x23212133
    11f0:	0b032121 	bleq	c967c <ADC12_Common_CSR_EOS_SLV+0x4967c>
    11f4:	58090320 	stmdapl	r9, {r5, r8, r9}
    11f8:	21212122 			; <UNDEFINED> instruction: 0x21212122
    11fc:	22212122 	eorcs	r2, r1, #-2147483640	; 0x80000008
    1200:	44082f21 	strmi	r2, [r8], #-3873	; 0xfffff0df
    1204:	21212121 			; <UNDEFINED> instruction: 0x21212121
    1208:	2f4b2121 	svccs	0x004b2121
    120c:	242f344b 	strtcs	r3, [pc], #-1099	; 1214 <Dictionary_242+0x8>
    1210:	3030304b 	eorscc	r3, r0, fp, asr #32
    1214:	3d952f88 	ldccc	15, cr2, [r5, #544]	; 0x220
    1218:	3da33d88 	stccc	13, cr3, [r3, #544]!	; 0x220
    121c:	3da33da4 	stccc	13, cr3, [r3, #656]!	; 0x290
    1220:	3da33da3 	stccc	13, cr3, [r3, #652]!	; 0x28c
    1224:	3da33da3 	stccc	13, cr3, [r3, #652]!	; 0x28c
    1228:	3da33da3 	stccc	13, cr3, [r3, #652]!	; 0x28c
    122c:	2f2f2195 	svccs	0x002f2195
    1230:	2f2f2f4b 	svccs	0x002f2f4b
    1234:	3d2f2195 	stfccs	f2, [pc, #-596]!	; fe8 <Code_207+0x4>
    1238:	0314042f 	tsteq	r4, #788529152	; 0x2f000000
    123c:	03207ed7 			; <UNDEFINED> instruction: 0x03207ed7
    1240:	36032e20 	strcc	r2, [r3], -r0, lsr #28
    1244:	2e0e032e 	cdpcs	3, 0, cr0, cr14, cr14, {1}
    1248:	2e00ee03 	cdpcs	14, 0, cr14, cr0, cr3, {0}
    124c:	2e120333 	mrccs	3, 0, r0, cr2, cr3, {1}
    1250:	2e018903 	vmlacs.f16	s16, s2, s6	; <UNPREDICTABLE>
    1254:	03150431 	tsteq	r5, #822083584	; 0x31000000
    1258:	032e7be4 			; <UNDEFINED> instruction: 0x032e7be4
    125c:	032e0181 			; <UNDEFINED> instruction: 0x032e0181
    1260:	0d032e1c 	stceq	14, cr2, [r3, #-112]	; 0xffffff90
    1264:	2e1d032e 	cdpcs	3, 1, cr0, cr13, cr14, {1}
    1268:	03160432 	tsteq	r6, #838860800	; 0x32000000
    126c:	22907e95 	addscs	r7, r0, #2384	; 0x950
    1270:	222f2221 	eorcs	r2, pc, #268435458	; 0x10000002
    1274:	21201103 			; <UNDEFINED> instruction: 0x21201103
    1278:	22212f21 	eorcs	r2, r1, #33, 30	; 0x84
    127c:	03312f2f 	teqeq	r1, #47, 30	; 0xbc
    1280:	21212e0f 			; <UNDEFINED> instruction: 0x21212e0f
    1284:	2421213e 	strtcs	r2, [r1], #-318	; 0xfffffec2
    1288:	2f212221 	svccs	0x00212221
    128c:	2f302527 	svccs	0x00302527
    1290:	21239730 			; <UNDEFINED> instruction: 0x21239730
    1294:	27222f22 	strcs	r2, [r2, -r2, lsr #30]!
    1298:	21212121 			; <UNDEFINED> instruction: 0x21212121
    129c:	21302721 	teqcs	r0, r1, lsr #14
    12a0:	2f212221 	svccs	0x00212221
    12a4:	21212122 			; <UNDEFINED> instruction: 0x21212122
    12a8:	21872123 	orrcs	r2, r7, r3, lsr #2
    12ac:	0b032121 	bleq	c9738 <ADC12_Common_CSR_EOS_SLV+0x49738>
    12b0:	21222182 	smlawbcs	r2, r2, r1, r2
    12b4:	233d2221 	teqcs	sp, #268435458	; 0x10000002
    12b8:	2131237b 	teqcs	r1, fp, ror r3
    12bc:	22222122 	eorcs	r2, r2, #-2147483640	; 0x80000008
    12c0:	03312f2f 	teqeq	r1, #47, 30	; 0xbc
    12c4:	216600cb 	smulbtcs	r6, fp, r0
    12c8:	222f2221 	eorcs	r2, pc, #268435458	; 0x10000002
    12cc:	232f3d26 			; <UNDEFINED> instruction: 0x232f3d26
    12d0:	2f3d232f 	svccs	0x003d232f
    12d4:	4b233d24 	blmi	8d076c <ADC12_Common_CCR_TSEN+0xd076c>
    12d8:	2127216c 			; <UNDEFINED> instruction: 0x2127216c
    12dc:	21212121 			; <UNDEFINED> instruction: 0x21212121
    12e0:	25212421 	strcs	r2, [r1, #-1057]!	; 0xfffffbdf
    12e4:	3d26222f 	sfmcc	f2, 4, [r6, #-188]!	; 0xffffff44
    12e8:	232f2330 			; <UNDEFINED> instruction: 0x232f2330
    12ec:	2e09033d 	mcrcs	3, 0, r0, cr9, cr13, {1}
    12f0:	302f215f 	eorcc	r2, pc, pc, asr r1	; <UNPREDICTABLE>
    12f4:	216c2f21 	cmncs	ip, r1, lsr #30
    12f8:	28882121 	stmcs	r8, {r0, r5, r8, sp}
    12fc:	30212121 	eorcc	r2, r1, r1, lsr #2
    1300:	2f3d2221 	svccs	0x003d2221
    1304:	21212f23 			; <UNDEFINED> instruction: 0x21212f23
    1308:	22212f21 	eorcs	r2, r1, #33, 30	; 0x84
    130c:	212f2221 			; <UNDEFINED> instruction: 0x212f2221
    1310:	2f212121 	svccs	0x00212121
    1314:	21232121 			; <UNDEFINED> instruction: 0x21232121
    1318:	212f2321 			; <UNDEFINED> instruction: 0x212f2321
    131c:	22217b2f 	eorcs	r7, r1, #48128	; 0xbc00
    1320:	2f26222f 	svccs	0x0026222f
    1324:	21212222 			; <UNDEFINED> instruction: 0x21212222
    1328:	21232fe8 			; <UNDEFINED> instruction: 0x21232fe8
    132c:	d9212122 	stmdble	r1!, {r1, r5, r8, sp}
    1330:	212f9621 			; <UNDEFINED> instruction: 0x212f9621
    1334:	03212f97 			; <UNDEFINED> instruction: 0x03212f97
    1338:	3121ac0a 			; <UNDEFINED> instruction: 0x3121ac0a
    133c:	21242121 			; <UNDEFINED> instruction: 0x21242121
    1340:	31b12121 			; <UNDEFINED> instruction: 0x31b12121
    1344:	222f2221 	eorcs	r2, pc, #268435458	; 0x10000002
    1348:	2221b326 	eorcs	fp, r1, #-1744830464	; 0x98000000
    134c:	c124222f 			; <UNDEFINED> instruction: 0xc124222f
    1350:	222f2221 	eorcs	r2, pc, #268435458	; 0x10000002
    1354:	21212424 			; <UNDEFINED> instruction: 0x21212424
    1358:	22212121 	eorcs	r2, r1, #1073741832	; 0x40000008
    135c:	21212121 			; <UNDEFINED> instruction: 0x21212121
    1360:	21212821 			; <UNDEFINED> instruction: 0x21212821
    1364:	22212421 	eorcs	r2, r1, #553648128	; 0x21000000
    1368:	223d0821 	eorscs	r0, sp, #2162688	; 0x210000
    136c:	a32121b1 			; <UNDEFINED> instruction: 0xa32121b1
    1370:	2121222f 			; <UNDEFINED> instruction: 0x2121222f
    1374:	21222121 			; <UNDEFINED> instruction: 0x21222121
    1378:	2e7b8803 	cdpcs	8, 7, cr8, cr11, cr3, {0}
    137c:	322e3103 	eorcc	r3, lr, #-1073741824	; 0xc0000000
    1380:	2e028203 	cdpcs	2, 0, cr8, cr2, cr3, {0}
    1384:	2e019203 	cdpcs	2, 0, cr9, cr1, cr3, {0}
    1388:	032e0c03 			; <UNDEFINED> instruction: 0x032e0c03
    138c:	09032e10 	stmdbeq	r3, {r4, r9, sl, fp, sp}
    1390:	2e10032e 	cdpcs	3, 1, cr0, cr0, cr14, {1}
    1394:	2e3d0334 	mrccs	3, 1, r0, cr13, cr4, {1}
    1398:	2e270335 	mcrcs	3, 1, r0, cr7, cr5, {1}
    139c:	219e1503 	orrscs	r1, lr, r3, lsl #10
    13a0:	08222131 	stmdaeq	r2!, {r0, r4, r5, r8, sp}
    13a4:	24305a40 	ldrtcs	r5, [r0], #-2624	; 0xfffff5c0
    13a8:	5c212221 	sfmpl	f2, 4, [r1], #-132	; 0xffffff7c
    13ac:	0d032f9f 	stceq	15, cr2, [r3, #-636]	; 0xfffffd84
    13b0:	22213166 	eorcs	r3, r1, #-2147483623	; 0x80000019
    13b4:	0903222f 	stmdbeq	r3, {r0, r1, r2, r3, r5, r9, sp}
    13b8:	032f2120 			; <UNDEFINED> instruction: 0x032f2120
    13bc:	3d2f2014 	stccc	0, cr2, [pc, #-80]!	; 1374 <Code_265+0x36>
    13c0:	21352f30 	teqcs	r5, r0, lsr pc
    13c4:	212f2222 			; <UNDEFINED> instruction: 0x212f2222
    13c8:	21212126 			; <UNDEFINED> instruction: 0x21212126
    13cc:	21242f2f 			; <UNDEFINED> instruction: 0x21242f2f
    13d0:	21312622 	teqcs	r1, r2, lsr #12
    13d4:	2f31212f 	svccs	0x0031212f
    13d8:	2f21312f 	svccs	0x0021312f
    13dc:	21213223 			; <UNDEFINED> instruction: 0x21213223
    13e0:	3d962321 	ldccc	3, cr2, [r6, #132]	; 0x84
    13e4:	21973d95 			; <UNDEFINED> instruction: 0x21973d95
    13e8:	2f222130 	svccs	0x00222130
    13ec:	20160322 	andscs	r0, r6, r2, lsr #6
    13f0:	34212421 	strtcc	r2, [r1], #-1057	; 0xfffffbdf
    13f4:	2221212f 	eorcs	r2, r1, #-1073741813	; 0xc000000b
    13f8:	212f2121 			; <UNDEFINED> instruction: 0x212f2121
    13fc:	2f213d24 	svccs	0x00213d24
    1400:	2f32262f 	svccs	0x0032262f
    1404:	212f2221 			; <UNDEFINED> instruction: 0x212f2221
    1408:	8a2f2f24 	bhi	bcd0a0 <ADC12_Common_CCR_TSEN+0x3cd0a0>
    140c:	21213121 			; <UNDEFINED> instruction: 0x21213121
    1410:	22212122 	eorcs	r2, r1, #-2147483640	; 0x80000008
    1414:	222f2221 	eorcs	r2, pc, #268435458	; 0x10000002
    1418:	21200a03 			; <UNDEFINED> instruction: 0x21200a03
    141c:	2f4b3131 	svccs	0x004b3131
    1420:	3030262f 	eorscc	r2, r0, pc, lsr #12
    1424:	21212224 			; <UNDEFINED> instruction: 0x21212224
    1428:	21212121 			; <UNDEFINED> instruction: 0x21212121
    142c:	3d231308 	stccc	3, cr1, [r3, #-32]!	; 0xffffffe0
    1430:	2f23242f 	svccs	0x0023242f
    1434:	21212121 			; <UNDEFINED> instruction: 0x21212121
    1438:	2f212f31 	svccs	0x00212f31
    143c:	4b30212f 	blmi	c09900 <ADC12_Common_CCR_TSEN+0x409900>
    1440:	ba0c0330 	blt	302108 <ADC12_Common_CSR_JEOC_SLV+0x102108>
    1444:	2f2f2221 	svccs	0x002f2221
    1448:	22212422 	eorcs	r2, r1, #570425344	; 0x22000000
    144c:	20032121 	andcs	r2, r3, r1, lsr #2
    1450:	2f2121ba 	svccs	0x002121ba
    1454:	21212121 			; <UNDEFINED> instruction: 0x21212121
    1458:	223d2121 	eorscs	r2, sp, #1073741832	; 0x40000008
    145c:	0321212f 			; <UNDEFINED> instruction: 0x0321212f
    1460:	03207cff 			; <UNDEFINED> instruction: 0x03207cff
    1464:	22032e0f 	andcs	r2, r3, #15, 28	; 0xf0
    1468:	2e38032e 	cdpcs	3, 3, cr0, cr8, cr14, {1}
    146c:	2e01a803 	cdpcs	8, 0, cr10, cr1, cr3, {0}
    1470:	2e190331 	mrccs	3, 0, r0, cr9, cr1, {1}
    1474:	2e1d0331 	mrccs	3, 0, r0, cr13, cr1, {1}
    1478:	ac00c103 	stfged	f4, [r0], {3}
    147c:	22212221 	eorcs	r2, r1, #268435458	; 0x10000002
    1480:	22252121 	eorcs	r2, r5, #1073741832	; 0x40000008
    1484:	22212221 	eorcs	r2, r1, #268435458	; 0x10000002
    1488:	03212121 			; <UNDEFINED> instruction: 0x03212121
    148c:	21217409 			; <UNDEFINED> instruction: 0x21217409
    1490:	03212f96 			; <UNDEFINED> instruction: 0x03212f96
    1494:	21279e11 			; <UNDEFINED> instruction: 0x21279e11
    1498:	302f2221 	eorcc	r2, pc, r1, lsr #4
    149c:	21212f31 			; <UNDEFINED> instruction: 0x21212f31
    14a0:	25212124 	strcs	r2, [r1, #-292]!	; 0xfffffedc
    14a4:	23212124 			; <UNDEFINED> instruction: 0x23212124
    14a8:	23215a59 			; <UNDEFINED> instruction: 0x23215a59
    14ac:	21212421 			; <UNDEFINED> instruction: 0x21212421
    14b0:	2f23212f 	svccs	0x0023212f
    14b4:	200a0322 	andcs	r0, sl, r2, lsr #6
    14b8:	21212f21 			; <UNDEFINED> instruction: 0x21212f21
    14bc:	21252121 			; <UNDEFINED> instruction: 0x21252121
    14c0:	22253e21 	eorcs	r3, r5, #528	; 0x210
    14c4:	2f212221 	svccs	0x00212221
    14c8:	21212122 			; <UNDEFINED> instruction: 0x21212122
    14cc:	7efc032f 	cdpvc	3, 15, cr0, cr12, cr15, {1}
    14d0:	2e090320 	cdpcs	3, 0, cr0, cr9, cr0, {1}
    14d4:	94031704 	strls	r1, [r3], #-1796	; 0xfffff8fc
    14d8:	322f9077 	eorcc	r9, pc, #119	; 0x77
    14dc:	212f2821 			; <UNDEFINED> instruction: 0x212f2821
    14e0:	212f2221 			; <UNDEFINED> instruction: 0x212f2221
    14e4:	2121f623 	msrcs	R9_usr, r3
    14e8:	23212122 			; <UNDEFINED> instruction: 0x23212122
    14ec:	21222124 			; <UNDEFINED> instruction: 0x21222124
    14f0:	2f7b212f 	svccs	0x007b212f
    14f4:	21282130 			; <UNDEFINED> instruction: 0x21282130
    14f8:	21222121 			; <UNDEFINED> instruction: 0x21222121
    14fc:	2f212421 	svccs	0x00212421
    1500:	7a3d3026 	bvc	f4d5a0 <ADC12_Common_CCR_TSEN+0x74d5a0>
    1504:	b221212f 	eorlt	r2, r1, #-1073741813	; 0xc000000b
    1508:	2821212f 	stmdacs	r1!, {r0, r1, r2, r3, r5, r8, sp}
    150c:	2f2f4b21 	svccs	0x002f4b21
    1510:	2f212323 	svccs	0x00212323
    1514:	232f4b3d 			; <UNDEFINED> instruction: 0x232f4b3d
    1518:	4b3d2f21 	blmi	f4d1a4 <ADC12_Common_CCR_TSEN+0x74d1a4>
    151c:	2f21232f 	svccs	0x0021232f
    1520:	2f4b3d2f 	svccs	0x004b3d2f
    1524:	3d2f2123 	stfccs	f2, [pc, #-140]!	; 14a0 <allocator_unequal_zero>
    1528:	2f21242f 	svccs	0x0021242f
    152c:	232f3d2f 			; <UNDEFINED> instruction: 0x232f3d2f
    1530:	2f3d2f21 	svccs	0x003d2f21
    1534:	2f2f2124 	svccs	0x002f2124
    1538:	4b2f2123 	blmi	bc99cc <ADC12_Common_CCR_TSEN+0x3c99cc>
    153c:	2f21232f 	svccs	0x0021232f
    1540:	27262f4b 	strcs	r2, [r6, -fp, asr #30]!
    1544:	302f2f30 	eorcc	r2, pc, r0, lsr pc	; <UNPREDICTABLE>
    1548:	2f212121 	svccs	0x00212121
    154c:	21214b32 			; <UNDEFINED> instruction: 0x21214b32
    1550:	7c303030 	ldcvc	0, cr3, [r0], #-192	; 0xffffff40
    1554:	22212121 	eorcs	r2, r1, #1073741832	; 0x40000008
    1558:	21222121 			; <UNDEFINED> instruction: 0x21222121
    155c:	792f3d2f 	stmdbvc	pc!, {r0, r1, r2, r3, r5, r8, sl, fp, ip, sp}	; <UNPREDICTABLE>
    1560:	2f2f2f21 	svccs	0x002f2f21
    1564:	4b2f216d 	blmi	bc9b20 <ADC12_Common_CCR_TSEN+0x3c9b20>
    1568:	30302223 	eorscc	r2, r0, r3, lsr #4
    156c:	21222121 			; <UNDEFINED> instruction: 0x21222121
    1570:	222f3031 	eorcs	r3, pc, #49	; 0x31
    1574:	303d2f2f 	eorscc	r2, sp, pc, lsr #30
    1578:	2f217a4b 	svccs	0x00217a4b
    157c:	2f21873d 	svccs	0x0021873d
    1580:	2f21792f 	svccs	0x0021792f
    1584:	2f21222f 	svccs	0x0021222f
    1588:	a408242f 	strge	r2, [r8], #-1071	; 0xfffffbd1
    158c:	21212121 			; <UNDEFINED> instruction: 0x21212121
    1590:	22212122 	eorcs	r2, r1, #-2147483640	; 0x80000008
    1594:	21213021 			; <UNDEFINED> instruction: 0x21213021
    1598:	30312222 	eorscc	r2, r1, r2, lsr #4
    159c:	2f222f3e 	svccs	0x00222f3e
    15a0:	3d2f2f22 	stccc	15, cr2, [pc, #-136]!	; 1520 <Code_287+0xe>
    15a4:	217a2f4b 	cmncs	sl, fp, asr #30
    15a8:	217a2121 	cmncs	sl, r1, lsr #2
    15ac:	a4033d2f 	strge	r3, [r3], #-3375	; 0xfffff2d1
    15b0:	1903207d 	stmdbne	r3, {r0, r2, r3, r4, r5, r6, sp}
    15b4:	2103332e 	tstcs	r3, lr, lsr #6
    15b8:	0318042e 	tsteq	r8, #771751936	; 0x2e000000
    15bc:	2f667f9a 	svccs	0x00667f9a
    15c0:	5e4b2221 	cdppl	2, 4, cr2, cr11, cr1, {1}
    15c4:	4c24212f 	stfmis	f2, [r4], #-188	; 0xffffff44
    15c8:	212f2f21 			; <UNDEFINED> instruction: 0x212f2f21
    15cc:	5e2f2121 	sufplep	f2, f7, f1
    15d0:	4b21223d 	blmi	849ecc <ADC12_Common_CCR_TSEN+0x49ecc>
    15d4:	21212f2f 			; <UNDEFINED> instruction: 0x21212f2f
    15d8:	7428032f 	strtvc	r0, [r8], #-815	; 0xfffffcd1
    15dc:	21200a03 			; <UNDEFINED> instruction: 0x21200a03
    15e0:	21232122 			; <UNDEFINED> instruction: 0x21232122
    15e4:	21212321 			; <UNDEFINED> instruction: 0x21212321
    15e8:	222f2126 	eorcs	r2, pc, #-2147483639	; 0x80000009
    15ec:	23232131 			; <UNDEFINED> instruction: 0x23232131
    15f0:	22212221 	eorcs	r2, r1, #268435458	; 0x10000002
    15f4:	0d032189 	stfeqs	f2, [r3, #-548]	; 0xfffffddc
    15f8:	21212174 			; <UNDEFINED> instruction: 0x21212174
    15fc:	212f2122 			; <UNDEFINED> instruction: 0x212f2122
    1600:	1103312f 	tstne	r3, pc, lsr #2
    1604:	22222f20 	eorcs	r2, r2, #32, 30	; 0x80
    1608:	032f2122 			; <UNDEFINED> instruction: 0x032f2122
    160c:	2121740b 			; <UNDEFINED> instruction: 0x2121740b
    1610:	2f212221 	svccs	0x00212221
    1614:	30312f21 	eorscc	r2, r1, r1, lsr #30
    1618:	2f222f21 	svccs	0x00222f21
    161c:	21232f21 			; <UNDEFINED> instruction: 0x21232f21
    1620:	660a0321 	strvs	r0, [sl], -r1, lsr #6
    1624:	31212f22 			; <UNDEFINED> instruction: 0x31212f22
    1628:	3d3d2121 	ldfccs	f2, [sp, #-132]!	; 0xffffff7c
    162c:	243f2f22 	ldrtcs	r2, [pc], #-3874	; 1634 <Dictionary_327+0x4>
    1630:	21232f21 			; <UNDEFINED> instruction: 0x21232f21
    1634:	0d032f2f 	stceq	15, cr2, [r3, #-188]	; 0xffffff44
    1638:	212f2166 			; <UNDEFINED> instruction: 0x212f2166
    163c:	21304b31 	teqcs	r0, r1, lsr fp
    1640:	232f4021 			; <UNDEFINED> instruction: 0x232f4021
    1644:	2f22213d 	svccs	0x0022213d
    1648:	2f21243d 	svccs	0x0021243d
    164c:	302f2126 	eorcc	r2, pc, r6, lsr #2
    1650:	4b302f2f 	blmi	c0d314 <ADC12_Common_CCR_TSEN+0x40d314>
    1654:	22212130 	eorcs	r2, r1, #48, 2
    1658:	2f21214b 	svccs	0x0021214b
    165c:	3d212f22 	stccc	15, cr2, [r1, #-136]!	; 0xffffff78
    1660:	22212133 	eorcs	r2, r1, #-1073741812	; 0xc000000c
    1664:	2f21214b 	svccs	0x0021214b
    1668:	3d212f22 	stccc	15, cr2, [r1, #-136]!	; 0xffffff78
    166c:	32302f31 	eorscc	r2, r0, #49, 30	; 0xc4
    1670:	2e7deb03 	vaddcs.f64	d30, d13, d3
    1674:	2e00c403 	cdpcs	4, 0, cr12, cr0, cr3, {0}
    1678:	032e3103 			; <UNDEFINED> instruction: 0x032e3103
    167c:	14032e0c 	strne	r2, [r3], #-3596	; 0xfffff1f4
    1680:	0319042e 	tsteq	r9, #771751936	; 0x2e000000
    1684:	21827e8d 	orrcs	r7, r2, sp, lsl #29
    1688:	033d3d2f 	teqeq	sp, #3008	; 0xbc0
    168c:	2321660c 			; <UNDEFINED> instruction: 0x2321660c
    1690:	6c222121 	stfvss	f2, [r2], #-132	; 0xffffff7c
    1694:	21212123 			; <UNDEFINED> instruction: 0x21212123
    1698:	333d2222 	teqcc	sp, #536870914	; 0x20000002
    169c:	3e223d2f 	cdpcc	13, 2, cr3, cr2, cr15, {1}
    16a0:	21212430 			; <UNDEFINED> instruction: 0x21212430
    16a4:	30232221 	eorcc	r2, r3, r1, lsr #4
    16a8:	4b332f2f 	blmi	ccd36c <ADC12_Common_CCR_TSEN+0x4cd36c>
    16ac:	2121232f 			; <UNDEFINED> instruction: 0x2121232f
    16b0:	22212123 	eorcs	r2, r1, #-1073741816	; 0xc0000008
    16b4:	21214b21 			; <UNDEFINED> instruction: 0x21214b21
    16b8:	212f2821 			; <UNDEFINED> instruction: 0x212f2821
    16bc:	2121222f 			; <UNDEFINED> instruction: 0x2121222f
    16c0:	2f222126 	svccs	0x00222126
    16c4:	232f262f 			; <UNDEFINED> instruction: 0x232f262f
    16c8:	2f302221 	svccs	0x00302221
    16cc:	212f2430 			; <UNDEFINED> instruction: 0x212f2430
    16d0:	21741503 	cmncs	r4, r3, lsl #10
    16d4:	21222121 			; <UNDEFINED> instruction: 0x21222121
    16d8:	303d2f30 	eorscc	r2, sp, r0, lsr pc
    16dc:	21893d3d 	orrcs	r3, r9, sp, lsr sp
    16e0:	21222121 			; <UNDEFINED> instruction: 0x21222121
    16e4:	23262f30 			; <UNDEFINED> instruction: 0x23262f30
    16e8:	21222130 			; <UNDEFINED> instruction: 0x21222130
    16ec:	21212221 			; <UNDEFINED> instruction: 0x21212221
    16f0:	30222f21 	eorcc	r2, r2, r1, lsr #30
    16f4:	04222122 	strteq	r2, [r2], #-290	; 0xfffffede
    16f8:	7e9d031a 	mrcvc	3, 4, r0, cr13, cr10, {0}
    16fc:	7a212f74 	bvc	84d4d4 <ADC12_Common_CCR_TSEN+0x4d4d4>
    1700:	22212123 	eorcs	r2, r1, #-1073741816	; 0xc0000008
    1704:	21232221 			; <UNDEFINED> instruction: 0x21232221
    1708:	21212122 			; <UNDEFINED> instruction: 0x21212122
    170c:	21212121 			; <UNDEFINED> instruction: 0x21212121
    1710:	21212123 			; <UNDEFINED> instruction: 0x21212123
    1714:	21222121 			; <UNDEFINED> instruction: 0x21222121
    1718:	21232121 			; <UNDEFINED> instruction: 0x21232121
    171c:	21232123 			; <UNDEFINED> instruction: 0x21232123
    1720:	03190422 	tsteq	r9, #570425344	; 0x22000000
    1724:	0e032057 	mcreq	0, 0, r2, cr3, cr7, {2}
    1728:	00d5032e 	sbcseq	r0, r5, lr, lsr #6
    172c:	031a042e 	tsteq	sl, #771751936	; 0x2e000000
    1730:	322e7f97 	eorcc	r7, lr, #604	; 0x25c
    1734:	77031b04 	strvc	r1, [r3, -r4, lsl #22]
    1738:	21232182 	smlawbcs	r3, r2, r1, r2
    173c:	21262122 			; <UNDEFINED> instruction: 0x21262122
    1740:	25212321 	strcs	r2, [r1, #-801]!	; 0xfffffcdf
    1744:	21232121 			; <UNDEFINED> instruction: 0x21232121
    1748:	21200903 			; <UNDEFINED> instruction: 0x21200903
    174c:	2f222126 	svccs	0x00222126
    1750:	1c032121 	stfnes	f2, [r3], {33}	; 0x21
    1754:	222f2282 	eorcs	r2, pc, #536870920	; 0x20000008
    1758:	21222122 			; <UNDEFINED> instruction: 0x21222122
    175c:	21262122 			; <UNDEFINED> instruction: 0x21262122
    1760:	23212123 			; <UNDEFINED> instruction: 0x23212123
    1764:	21212121 			; <UNDEFINED> instruction: 0x21212121
    1768:	21222121 			; <UNDEFINED> instruction: 0x21222121
    176c:	21222121 			; <UNDEFINED> instruction: 0x21222121
    1770:	21222121 			; <UNDEFINED> instruction: 0x21222121
    1774:	21222121 			; <UNDEFINED> instruction: 0x21222121
    1778:	21222121 			; <UNDEFINED> instruction: 0x21222121
    177c:	212f3d24 			; <UNDEFINED> instruction: 0x212f3d24
    1780:	3d3d2521 	cfldr32cc	mvfx2, [sp, #-132]!	; 0xffffff7c
    1784:	2f213e3d 	svccs	0x00213e3d
    1788:	21302f22 	teqcs	r0, r2, lsr #30
    178c:	25222121 	strcs	r2, [r2, #-289]!	; 0xfffffedf
    1790:	21232121 			; <UNDEFINED> instruction: 0x21232121
    1794:	22212121 	eorcs	r2, r1, #1073741832	; 0x40000008
    1798:	21212121 			; <UNDEFINED> instruction: 0x21212121
    179c:	21243e3d 			; <UNDEFINED> instruction: 0x21243e3d
    17a0:	21212521 			; <UNDEFINED> instruction: 0x21212521
    17a4:	21232123 			; <UNDEFINED> instruction: 0x21232123
    17a8:	3d242122 	stfccs	f2, [r4, #-136]!	; 0xffffff78
    17ac:	2421212f 	strtcs	r2, [r1], #-303	; 0xfffffed1
    17b0:	213f2121 	teqcs	pc, r1, lsr #2
    17b4:	222f212f 	eorcs	r2, pc, #-1073741813	; 0xc000000b
    17b8:	21820f03 	orrcs	r0, r2, r3, lsl #30
    17bc:	21222121 			; <UNDEFINED> instruction: 0x21222121
    17c0:	21222121 			; <UNDEFINED> instruction: 0x21222121
    17c4:	30741303 	rsbscc	r1, r4, r3, lsl #6
    17c8:	23212221 			; <UNDEFINED> instruction: 0x23212221
    17cc:	21232321 			; <UNDEFINED> instruction: 0x21232321
    17d0:	21212123 			; <UNDEFINED> instruction: 0x21212123
    17d4:	21212221 			; <UNDEFINED> instruction: 0x21212221
    17d8:	307a2223 	rsbscc	r2, sl, r3, lsr #4
    17dc:	22212221 	eorcs	r2, r1, #268435458	; 0x10000002
    17e0:	03212121 			; <UNDEFINED> instruction: 0x03212121
    17e4:	21217409 			; <UNDEFINED> instruction: 0x21217409
    17e8:	6e212221 	cdpvs	2, 2, cr2, cr1, cr1, {1}
    17ec:	21212121 			; <UNDEFINED> instruction: 0x21212121
    17f0:	2f22216d 	svccs	0x0022216d
    17f4:	09032221 	stmdbeq	r3, {r0, r5, r9, sp}
    17f8:	212f2166 			; <UNDEFINED> instruction: 0x212f2166
    17fc:	2f2f2f21 	svccs	0x002f2f21
    1800:	21660903 	cmncs	r6, r3, lsl #18
    1804:	2122212f 			; <UNDEFINED> instruction: 0x2122212f
    1808:	0c032121 	stfeqs	f2, [r3], {33}	; 0x21
    180c:	212f2158 			; <UNDEFINED> instruction: 0x212f2158
    1810:	30303e21 	eorscc	r3, r0, r1, lsr #28
    1814:	6e303022 	cdpvs	0, 3, cr3, cr0, cr2, {1}
    1818:	6d212121 	stfvss	f2, [r1, #-132]!	; 0xffffff7c
    181c:	21216e3d 			; <UNDEFINED> instruction: 0x21216e3d
    1820:	3d302f31 	ldccc	15, cr2, [r0, #-196]!	; 0xffffff3c
    1824:	21222f30 			; <UNDEFINED> instruction: 0x21222f30
    1828:	2f222130 	svccs	0x00222130
    182c:	21212221 			; <UNDEFINED> instruction: 0x21212221
    1830:	6d2f2f30 	stcvs	15, cr2, [pc, #-192]!	; 1778 <sprungschreiber_flaggenerator+0x60>
    1834:	6c2f2f21 	stcvs	15, cr2, [pc], #-132	; 17b8 <Dictionary_355+0x2>
    1838:	2f302f21 	svccs	0x00302f21
    183c:	2f312f2f 	svccs	0x00312f2f
    1840:	0a032f2f 	beq	cd504 <ADC12_Common_CSR_EOS_SLV+0x4d504>
    1844:	2f603d66 	svccs	0x00603d66
    1848:	7be10321 	blvc	ff8424d4 <erasedword+0xff8424d5>
    184c:	029e032e 	addseq	r0, lr, #-1207959552	; 0xb8000000
    1850:	031c042e 	tsteq	ip, #771751936	; 0x2e000000
    1854:	242e7dd8 	strtcs	r7, [lr], #-3544	; 0xfffff228
    1858:	2321212f 			; <UNDEFINED> instruction: 0x2321212f
    185c:	21252221 			; <UNDEFINED> instruction: 0x21252221
    1860:	2521212f 	strcs	r2, [r1, #-303]!	; 0xfffffed1
    1864:	21212f21 			; <UNDEFINED> instruction: 0x21212f21
    1868:	21212f25 			; <UNDEFINED> instruction: 0x21212f25
    186c:	30212521 	eorcc	r2, r1, r1, lsr #10
    1870:	2f21212f 	svccs	0x0021212f
    1874:	21212f23 			; <UNDEFINED> instruction: 0x21212f23
    1878:	2f312f32 	svccs	0x00312f32
    187c:	233d2121 	teqcs	sp, #1073741832	; 0x40000008
    1880:	212e0c03 			; <UNDEFINED> instruction: 0x212e0c03
    1884:	21212521 			; <UNDEFINED> instruction: 0x21212521
    1888:	21222125 			; <UNDEFINED> instruction: 0x21222125
    188c:	032f3d25 			; <UNDEFINED> instruction: 0x032f3d25
    1890:	212f200f 			; <UNDEFINED> instruction: 0x212f200f
    1894:	3d3d3322 	ldccc	3, cr3, [sp, #-136]!	; 0xffffff78
    1898:	222f2131 	eorcs	r2, pc, #1073741836	; 0x4000000c
    189c:	2f302421 	svccs	0x00302421
    18a0:	3d3d3027 	ldccc	0, cr3, [sp, #-156]!	; 0xffffff64
    18a4:	2f332f30 	svccs	0x00332f30
    18a8:	3e332121 	rsfccsp	f2, f3, f1
    18ac:	2f222121 	svccs	0x00222121
    18b0:	22212122 	eorcs	r2, r1, #-2147483640	; 0x80000008
    18b4:	042f222f 	strteq	r2, [pc], #-559	; 18bc <Code_372+0x18>
    18b8:	7ebf031d 	mrcvc	3, 5, r0, cr15, cr13, {0}
    18bc:	302f2220 	eorcc	r2, pc, r0, lsr #4
    18c0:	23212221 			; <UNDEFINED> instruction: 0x23212221
    18c4:	23212221 			; <UNDEFINED> instruction: 0x23212221
    18c8:	24222121 	strtcs	r2, [r2], #-289	; 0xfffffedf
    18cc:	22212121 	eorcs	r2, r1, #1073741832	; 0x40000008
    18d0:	22212225 	eorcs	r2, r1, #1342177282	; 0x50000002
    18d4:	21212421 			; <UNDEFINED> instruction: 0x21212421
    18d8:	2f313d22 	svccs	0x00313d22
    18dc:	212f3021 			; <UNDEFINED> instruction: 0x212f3021
    18e0:	30212f30 	eorcc	r2, r1, r0, lsr pc
    18e4:	4b232121 	blmi	8c9d70 <ADC12_Common_CCR_TSEN+0xc9d70>
    18e8:	2f3d2331 	svccs	0x003d2331
    18ec:	2f2f2225 	svccs	0x002f2225
    18f0:	212f2421 			; <UNDEFINED> instruction: 0x212f2421
    18f4:	2f222121 	svccs	0x00222121
    18f8:	212f2122 			; <UNDEFINED> instruction: 0x212f2122
    18fc:	04222121 	strteq	r2, [r2], #-289	; 0xfffffedf
    1900:	7f92031e 	svcvc	0x0092031e
    1904:	21312190 	teqcs	r1, r0	; <illegal shifter operand>
    1908:	21222121 			; <UNDEFINED> instruction: 0x21222121
    190c:	22212121 	eorcs	r2, r1, #1073741832	; 0x40000008
    1910:	2121302f 			; <UNDEFINED> instruction: 0x2121302f
    1914:	21212f23 			; <UNDEFINED> instruction: 0x21212f23
    1918:	96302221 	ldrtls	r2, [r0], -r1, lsr #4
    191c:	21212128 			; <UNDEFINED> instruction: 0x21212128
    1920:	21211408 			; <UNDEFINED> instruction: 0x21211408
    1924:	3231f721 	eorscc	pc, r1, #8650752	; 0x840000
    1928:	032f2121 			; <UNDEFINED> instruction: 0x032f2121
    192c:	3159200b 	cmpcc	r9, fp
    1930:	2421362f 	strtcs	r3, [r1], #-1583	; 0xfffff9d1
    1934:	35302221 	ldrcc	r2, [r0, #-545]!	; 0xfffffddf
    1938:	3d24212f 	stfccs	f2, [r4, #-188]!	; 0xffffff44
    193c:	0c032f3d 	stceq	15, cr2, [r3], {61}	; 0x3d
    1940:	212121e4 			; <UNDEFINED> instruction: 0x212121e4
    1944:	21213022 			; <UNDEFINED> instruction: 0x21213022
    1948:	082f2121 	stmdaeq	pc!, {r0, r5, r8, sp}	; <UNPREDICTABLE>
    194c:	2f3d2f23 	svccs	0x003d2f23
    1950:	3e3d3028 	cdpcc	0, 3, cr3, cr13, cr8, {1}
    1954:	212f972f 			; <UNDEFINED> instruction: 0x212f972f
    1958:	31900e03 	orrscc	r0, r0, r3, lsl #28
    195c:	22212128 	eorcs	r2, r1, #40, 2
    1960:	30222121 	eorcc	r2, r2, r1, lsr #2
    1964:	22223022 	eorcs	r3, r2, #34	; 0x22
    1968:	23212122 			; <UNDEFINED> instruction: 0x23212122
    196c:	2f232121 	svccs	0x00232121
    1970:	21212133 			; <UNDEFINED> instruction: 0x21212133
    1974:	6a216721 	bvs	85b600 <ADC12_Common_CCR_TSEN+0x5b600>
    1978:	222f2221 	eorcs	r2, pc, #268435458	; 0x10000002
    197c:	75217525 	strvc	r7, [r1, #-1317]!	; 0xfffffadb
    1980:	8c031c04 	stchi	12, cr1, [r3], {4}
    1984:	1d04207f 	stcne	0, cr2, [r4, #-508]	; 0xfffffe04
    1988:	2e7ef803 	cdpcs	8, 7, cr15, cr14, cr3, {0}
    198c:	042e0a03 	strteq	r0, [lr], #-2563	; 0xfffff5fd
    1990:	2403291e 	strcs	r2, [r3], #-2334	; 0xfffff6e2
    1994:	d003332e 	andle	r3, r3, lr, lsr #6
    1998:	28032e00 	stmdacs	r3, {r9, sl, fp, sp}
    199c:	2e0f032e 	cdpcs	3, 0, cr0, cr15, cr14, {1}
    19a0:	032e0b03 			; <UNDEFINED> instruction: 0x032e0b03
    19a4:	03312e12 	teqeq	r1, #288	; 0x120
    19a8:	1f042e19 	svcne	0x00042e19
    19ac:	827e8d03 	rsbshi	r8, lr, #3, 26	; 0xc0
    19b0:	21212f2f 			; <UNDEFINED> instruction: 0x21212f2f
    19b4:	21792179 	cmncs	r9, r9, ror r1
    19b8:	6c2f2f79 	stcvs	15, cr2, [pc], #-484	; 17dc <Dictionary_358+0x8>
    19bc:	2fc92296 	svccs	0x00c92296
    19c0:	7a4b2f2f 	bvc	12cd684 <RCC_PLL1DIVR_Value+0x29d3e5>
    19c4:	c5032121 	strgt	r2, [r3, #-289]	; 0xfffffedf
    19c8:	3d089e00 	stccc	14, cr9, [r8, #-0]
    19cc:	20046708 	andcs	r6, r4, r8, lsl #14
    19d0:	087f8a03 	ldmdaeq	pc!, {r0, r1, r9, fp, pc}^	; <UNPREDICTABLE>
    19d4:	083d083c 	ldmdaeq	sp!, {r2, r3, r4, r5, fp}
    19d8:	083d083d 	ldmdaeq	sp!, {r0, r2, r3, r4, r5, fp}
    19dc:	082f083d 	stmdaeq	pc!, {r0, r2, r3, r4, r5, fp}	; <UNPREDICTABLE>
    19e0:	083d083d 	ldmdaeq	sp!, {r0, r2, r3, r4, r5, fp}
    19e4:	0321043d 			; <UNDEFINED> instruction: 0x0321043d
    19e8:	32ac083c 	adccc	r0, ip, #60, 16	; 0x3c0000
    19ec:	212f2f2f 			; <UNDEFINED> instruction: 0x212f2f2f
    19f0:	21262121 			; <UNDEFINED> instruction: 0x21262121
    19f4:	302f2121 	eorcc	r2, pc, r1, lsr #2
    19f8:	031f042f 	tsteq	pc, #788529152	; 0x2f000000
    19fc:	032f2e52 			; <UNDEFINED> instruction: 0x032f2e52
    1a00:	2f2e00c6 	svccs	0x002e00c6
    1a04:	0320042f 			; <UNDEFINED> instruction: 0x0320042f
    1a08:	2f2e7f8a 	svccs	0x002e7f8a
    1a0c:	2f2f2f2f 	svccs	0x002f2f2f
    1a10:	042f2f2f 	strteq	r2, [pc], #-3887	; 1a18 <Code_390+0x2>
    1a14:	00cc0321 	sbceq	r0, ip, r1, lsr #6
    1a18:	2e0e032e 	cdpcs	3, 0, cr0, cr14, cr14, {1}
    1a1c:	2f2f2f2f 	svccs	0x002f2f2f
    1a20:	2f312f31 	svccs	0x00312f31
    1a24:	21212f21 			; <UNDEFINED> instruction: 0x21212f21
    1a28:	23322821 	teqcs	r2, #2162688	; 0x210000
    1a2c:	2f2f2f21 	svccs	0x002f2f21
    1a30:	0322042f 			; <UNDEFINED> instruction: 0x0322042f
    1a34:	212e7efa 	strdcs	r7, [lr, -sl]!
    1a38:	0d032524 	cfstr32eq	mvfx2, [r3, #-144]	; 0xffffff70
    1a3c:	23212f20 			; <UNDEFINED> instruction: 0x23212f20
    1a40:	24213022 	strtcs	r3, [r1], #-34	; 0xffffffde
    1a44:	2123212f 			; <UNDEFINED> instruction: 0x2123212f
    1a48:	21213230 			; <UNDEFINED> instruction: 0x21213230
    1a4c:	22212321 	eorcs	r2, r1, #-2080374784	; 0x84000000
    1a50:	21252221 			; <UNDEFINED> instruction: 0x21252221
    1a54:	0b032124 	bleq	c9eec <ADC12_Common_CSR_EOS_SLV+0x49eec>
    1a58:	31302120 	teqcc	r0, r0, lsr #2
    1a5c:	353d3d3d 	ldrcc	r3, [sp, #-3389]!	; 0xfffff2c3
    1a60:	21232f2f 			; <UNDEFINED> instruction: 0x21232f2f
    1a64:	26212221 	strtcs	r2, [r1], -r1, lsr #4
    1a68:	21322f21 	teqcs	r2, r1, lsr #30
    1a6c:	21212122 			; <UNDEFINED> instruction: 0x21212122
    1a70:	04212323 	strteq	r2, [r1], #-803	; 0xfffffcdd
    1a74:	02302621 	eorseq	r2, r0, #34603008	; 0x2100000
    1a78:	212f1324 			; <UNDEFINED> instruction: 0x212f1324
    1a7c:	042f2108 	strteq	r2, [pc], #-264	; 1a84 <Code_393+0x14>
    1a80:	7ee90323 	cdpvc	3, 14, cr0, cr9, cr3, {1}
    1a84:	23212f66 			; <UNDEFINED> instruction: 0x23212f66
    1a88:	3d212f33 	stccc	15, cr2, [r1, #-204]!	; 0xffffff34
    1a8c:	2221212f 	eorcs	r2, r1, #-1073741813	; 0xc000000b
    1a90:	0421222f 	strteq	r2, [r1], #-559	; 0xfffffdd1
    1a94:	00db0321 	sbcseq	r0, fp, r1, lsr #6
    1a98:	2e11034a 	cdpcs	3, 1, cr0, cr1, cr10, {2}
    1a9c:	82032204 	andhi	r2, r3, #4, 4	; 0x40000000
    1aa0:	18032e7f 	stmdane	r3, {r0, r1, r2, r3, r4, r5, r6, r9, sl, fp, sp}
    1aa4:	cf032f2e 	svcgt	0x00032f2e
    1aa8:	03322e00 	teqeq	r2, #0, 28
    1aac:	23042e19 	movwcs	r2, #19993	; 0x4e19
    1ab0:	2e7f8203 	cdpcs	2, 7, cr8, cr15, cr3, {0}
    1ab4:	01000402 	tsteq	r0, r2, lsl #8
    1ab8:	Address 0x0000000000001ab8 is out of bounds.


Disassembly of section .debug_info:

00000000 <.debug_info>:
   0:	00000022 	andeq	r0, r0, r2, lsr #32
   4:	00000002 	andeq	r0, r0, r2
   8:	01040000 	mrseq	r0, (UNDEF: 4)
	...
  14:	000054c0 	andeq	r5, r0, r0, asr #9
  18:	00000000 	andeq	r0, r0, r0
  1c:	00000021 	andeq	r0, r0, r1, lsr #32
  20:	00000078 	andeq	r0, r0, r8, ror r0
  24:	Address 0x0000000000000024 is out of bounds.


Disassembly of section .debug_abbrev:

00000000 <.debug_abbrev>:
   0:	10001101 	andne	r1, r0, r1, lsl #2
   4:	12011106 	andne	r1, r1, #-2147483647	; 0x80000001
   8:	1b0e0301 	blne	380c14 <ADC12_Common_CSR_JEOC_SLV+0x180c14>
   c:	130e250e 	movwne	r2, #58638	; 0xe50e
  10:	00000005 	andeq	r0, r0, r5

Disassembly of section .debug_aranges:

00000000 <.debug_aranges>:
   0:	0000001c 	andeq	r0, r0, ip, lsl r0
   4:	00000002 	andeq	r0, r0, r2
   8:	00040000 	andeq	r0, r4, r0
	...
  14:	000054c0 	andeq	r5, r0, r0, asr #9
	...

Disassembly of section .debug_str:

00000000 <.debug_str>:
   0:	632f2e2e 			; <UNDEFINED> instruction: 0x632f2e2e
   4:	6f6d6d6f 	svcvs	0x006d6d6f
   8:	61722f6e 	cmnvs	r2, lr, ror #30
   c:	2d61722f 	sfmcs	f7, 2, [r1, #-188]!	; 0xffffff44
  10:	72666e69 	rsbvc	r6, r6, #1680	; 0x690
  14:	72747361 	rsbsvc	r7, r4, #-2080374783	; 0x84000001
  18:	75746375 	ldrbvc	r6, [r4, #-885]!	; 0xfffffc8b
  1c:	732e6572 			; <UNDEFINED> instruction: 0x732e6572
  20:	6f682f00 	svcvs	0x00682f00
  24:	6d2f656d 	cfstr32vs	mvfx6, [pc, #-436]!	; fffffe78 <erasedword+0xfffffe79>
  28:	6972726f 	ldmdbvs	r2!, {r0, r1, r2, r3, r5, r6, r9, ip, sp, lr}^
  2c:	74532f73 	ldrbvc	r2, [r3], #-3955	; 0xfffff08d
  30:	2f666675 	svccs	0x00666675
  34:	74726f66 	ldrbtvc	r6, [r2], #-3942	; 0xfffff09a
  38:	656d2f68 	strbvs	r2, [sp, #-3944]!	; 0xfffff098
  3c:	73697263 	cmnvc	r9, #805306374	; 0x30000006
  40:	74732d70 	ldrbtvc	r2, [r3], #-3440	; 0xfffff290
  44:	616c6c65 	cmnvs	ip, r5, ror #24
  48:	2d736972 			; <UNDEFINED> instruction: 0x2d736972
  4c:	2e362e32 	mrccs	14, 1, r2, cr6, cr2, {1}
  50:	656d2f35 	strbvs	r2, [sp, #-3893]!	; 0xfffff0cb
  54:	73697263 	cmnvc	r9, #805306374	; 0x30000006
  58:	74732d70 	ldrbtvc	r2, [r3], #-3440	; 0xfffff290
  5c:	616c6c65 	cmnvs	ip, r5, ror #24
  60:	2d736972 			; <UNDEFINED> instruction: 0x2d736972
  64:	72756f73 	rsbsvc	r6, r5, #460	; 0x1cc
  68:	732f6563 			; <UNDEFINED> instruction: 0x732f6563
  6c:	32336d74 	eorscc	r6, r3, #116, 26	; 0x1d00
  70:	30353768 	eorscc	r3, r5, r8, ror #14
  74:	0061722d 	rsbeq	r7, r1, sp, lsr #4
  78:	20554e47 	subscs	r4, r5, r7, asr #28
  7c:	32205341 	eorcc	r5, r0, #67108865	; 0x4000001
  80:	0038332e 	eorseq	r3, r8, lr, lsr #6
