
mecrisp-stellaris-stm32h745.elf:     file format elf32-littlearm


Disassembly of section .text:

08000000 <CoreDictionaryAnfang-0x1e4>:
 8000000:	24000388 	strcs	r0, [r0], #-904	; 0xfffffc78
 8000004:	08005293 	stmdaeq	r0, {r0, r1, r4, r7, r9, ip, lr}
 8000008:	080050d3 	stmdaeq	r0, {r0, r1, r4, r6, r7, ip, lr}
 800000c:	080050d3 	stmdaeq	r0, {r0, r1, r4, r6, r7, ip, lr}
 8000010:	080050d3 	stmdaeq	r0, {r0, r1, r4, r6, r7, ip, lr}
 8000014:	080050d3 	stmdaeq	r0, {r0, r1, r4, r6, r7, ip, lr}
 8000018:	080050d3 	stmdaeq	r0, {r0, r1, r4, r6, r7, ip, lr}
	...
 800002c:	08005101 	stmdaeq	r0, {r0, r8, ip, lr}
 8000030:	08005101 	stmdaeq	r0, {r0, r8, ip, lr}
 8000034:	00000000 	andeq	r0, r0, r0
 8000038:	08005101 	stmdaeq	r0, {r0, r8, ip, lr}
 800003c:	080050ab 	stmdaeq	r0, {r0, r1, r3, r5, r7, ip, lr}
 8000040:	08005101 	stmdaeq	r0, {r0, r8, ip, lr}
 8000044:	08005101 	stmdaeq	r0, {r0, r8, ip, lr}
 8000048:	08005101 	stmdaeq	r0, {r0, r8, ip, lr}
 800004c:	08005101 	stmdaeq	r0, {r0, r8, ip, lr}
 8000050:	08005101 	stmdaeq	r0, {r0, r8, ip, lr}
 8000054:	08005101 	stmdaeq	r0, {r0, r8, ip, lr}
 8000058:	08005129 	stmdaeq	r0, {r0, r3, r5, r8, ip, lr}
 800005c:	08005151 	stmdaeq	r0, {r0, r4, r6, r8, ip, lr}
 8000060:	08005179 	stmdaeq	r0, {r0, r3, r4, r5, r6, r8, ip, lr}
 8000064:	080051a1 	stmdaeq	r0, {r0, r5, r7, r8, ip, lr}
 8000068:	080051c9 	stmdaeq	r0, {r0, r3, r6, r7, r8, ip, lr}
 800006c:	08005101 	stmdaeq	r0, {r0, r8, ip, lr}
 8000070:	08005101 	stmdaeq	r0, {r0, r8, ip, lr}
 8000074:	08005101 	stmdaeq	r0, {r0, r8, ip, lr}
 8000078:	08005101 	stmdaeq	r0, {r0, r8, ip, lr}
 800007c:	08005101 	stmdaeq	r0, {r0, r8, ip, lr}
 8000080:	08005101 	stmdaeq	r0, {r0, r8, ip, lr}
 8000084:	08005101 	stmdaeq	r0, {r0, r8, ip, lr}
 8000088:	080051ef 	stmdaeq	r0, {r0, r1, r2, r3, r5, r6, r7, r8, ip, lr}
 800008c:	08005101 	stmdaeq	r0, {r0, r8, ip, lr}
 8000090:	08005101 	stmdaeq	r0, {r0, r8, ip, lr}
 8000094:	08005101 	stmdaeq	r0, {r0, r8, ip, lr}
 8000098:	08005101 	stmdaeq	r0, {r0, r8, ip, lr}
 800009c:	08005101 	stmdaeq	r0, {r0, r8, ip, lr}
 80000a0:	08005101 	stmdaeq	r0, {r0, r8, ip, lr}
 80000a4:	08005101 	stmdaeq	r0, {r0, r8, ip, lr}
 80000a8:	08005101 	stmdaeq	r0, {r0, r8, ip, lr}
 80000ac:	08005101 	stmdaeq	r0, {r0, r8, ip, lr}
 80000b0:	08005217 	stmdaeq	r0, {r0, r1, r2, r4, r9, ip, lr}
 80000b4:	0800523f 	stmdaeq	r0, {r0, r1, r2, r3, r4, r5, r9, ip, lr}
 80000b8:	08005267 	stmdaeq	r0, {r0, r1, r2, r5, r6, r9, ip, lr}
 80000bc:	08005101 	stmdaeq	r0, {r0, r8, ip, lr}
 80000c0:	08005101 	stmdaeq	r0, {r0, r8, ip, lr}
 80000c4:	08005101 	stmdaeq	r0, {r0, r8, ip, lr}
 80000c8:	08005101 	stmdaeq	r0, {r0, r8, ip, lr}
 80000cc:	08005101 	stmdaeq	r0, {r0, r8, ip, lr}
 80000d0:	08005101 	stmdaeq	r0, {r0, r8, ip, lr}
 80000d4:	08005101 	stmdaeq	r0, {r0, r8, ip, lr}
 80000d8:	08005101 	stmdaeq	r0, {r0, r8, ip, lr}
 80000dc:	08005101 	stmdaeq	r0, {r0, r8, ip, lr}
 80000e0:	08005101 	stmdaeq	r0, {r0, r8, ip, lr}
 80000e4:	08005101 	stmdaeq	r0, {r0, r8, ip, lr}
 80000e8:	08005101 	stmdaeq	r0, {r0, r8, ip, lr}
 80000ec:	08005101 	stmdaeq	r0, {r0, r8, ip, lr}
 80000f0:	08005101 	stmdaeq	r0, {r0, r8, ip, lr}
 80000f4:	08005101 	stmdaeq	r0, {r0, r8, ip, lr}
 80000f8:	08005101 	stmdaeq	r0, {r0, r8, ip, lr}
 80000fc:	08005101 	stmdaeq	r0, {r0, r8, ip, lr}
 8000100:	08005101 	stmdaeq	r0, {r0, r8, ip, lr}
 8000104:	08005101 	stmdaeq	r0, {r0, r8, ip, lr}
 8000108:	08005101 	stmdaeq	r0, {r0, r8, ip, lr}
 800010c:	08005101 	stmdaeq	r0, {r0, r8, ip, lr}
 8000110:	08005101 	stmdaeq	r0, {r0, r8, ip, lr}
 8000114:	08005101 	stmdaeq	r0, {r0, r8, ip, lr}
 8000118:	08005101 	stmdaeq	r0, {r0, r8, ip, lr}
 800011c:	08005101 	stmdaeq	r0, {r0, r8, ip, lr}
 8000120:	08005101 	stmdaeq	r0, {r0, r8, ip, lr}
 8000124:	08005101 	stmdaeq	r0, {r0, r8, ip, lr}
 8000128:	08005101 	stmdaeq	r0, {r0, r8, ip, lr}
 800012c:	08005101 	stmdaeq	r0, {r0, r8, ip, lr}
 8000130:	08005101 	stmdaeq	r0, {r0, r8, ip, lr}
 8000134:	08005101 	stmdaeq	r0, {r0, r8, ip, lr}
 8000138:	08005101 	stmdaeq	r0, {r0, r8, ip, lr}
 800013c:	08005101 	stmdaeq	r0, {r0, r8, ip, lr}
 8000140:	08005101 	stmdaeq	r0, {r0, r8, ip, lr}
 8000144:	08005101 	stmdaeq	r0, {r0, r8, ip, lr}
 8000148:	08005101 	stmdaeq	r0, {r0, r8, ip, lr}
 800014c:	08005101 	stmdaeq	r0, {r0, r8, ip, lr}
 8000150:	08005101 	stmdaeq	r0, {r0, r8, ip, lr}
 8000154:	08005101 	stmdaeq	r0, {r0, r8, ip, lr}
 8000158:	08005101 	stmdaeq	r0, {r0, r8, ip, lr}
 800015c:	08005101 	stmdaeq	r0, {r0, r8, ip, lr}
 8000160:	08005101 	stmdaeq	r0, {r0, r8, ip, lr}
 8000164:	08005101 	stmdaeq	r0, {r0, r8, ip, lr}
 8000168:	08005101 	stmdaeq	r0, {r0, r8, ip, lr}
 800016c:	08005101 	stmdaeq	r0, {r0, r8, ip, lr}
 8000170:	08005101 	stmdaeq	r0, {r0, r8, ip, lr}
 8000174:	08005101 	stmdaeq	r0, {r0, r8, ip, lr}
 8000178:	08005101 	stmdaeq	r0, {r0, r8, ip, lr}
 800017c:	08005101 	stmdaeq	r0, {r0, r8, ip, lr}
 8000180:	08005101 	stmdaeq	r0, {r0, r8, ip, lr}
 8000184:	08005101 	stmdaeq	r0, {r0, r8, ip, lr}
 8000188:	08005101 	stmdaeq	r0, {r0, r8, ip, lr}
 800018c:	08005101 	stmdaeq	r0, {r0, r8, ip, lr}
 8000190:	08005101 	stmdaeq	r0, {r0, r8, ip, lr}
 8000194:	08005101 	stmdaeq	r0, {r0, r8, ip, lr}
 8000198:	08005101 	stmdaeq	r0, {r0, r8, ip, lr}
 800019c:	08005101 	stmdaeq	r0, {r0, r8, ip, lr}
 80001a0:	08005101 	stmdaeq	r0, {r0, r8, ip, lr}
 80001a4:	08005101 	stmdaeq	r0, {r0, r8, ip, lr}
 80001a8:	08005101 	stmdaeq	r0, {r0, r8, ip, lr}
 80001ac:	08005101 	stmdaeq	r0, {r0, r8, ip, lr}
 80001b0:	08005101 	stmdaeq	r0, {r0, r8, ip, lr}
 80001b4:	08005101 	stmdaeq	r0, {r0, r8, ip, lr}
 80001b8:	08005101 	stmdaeq	r0, {r0, r8, ip, lr}
 80001bc:	08005101 	stmdaeq	r0, {r0, r8, ip, lr}
 80001c0:	08005101 	stmdaeq	r0, {r0, r8, ip, lr}
 80001c4:	08005101 	stmdaeq	r0, {r0, r8, ip, lr}
 80001c8:	08005101 	stmdaeq	r0, {r0, r8, ip, lr}
 80001cc:	08005101 	stmdaeq	r0, {r0, r8, ip, lr}
 80001d0:	08005101 	stmdaeq	r0, {r0, r8, ip, lr}
 80001d4:	08005101 	stmdaeq	r0, {r0, r8, ip, lr}
 80001d8:	08005101 	stmdaeq	r0, {r0, r8, ip, lr}
 80001dc:	08005101 	stmdaeq	r0, {r0, r8, ip, lr}
 80001e0:	08005101 	stmdaeq	r0, {r0, r8, ip, lr}

080001e4 <CoreDictionaryAnfang>:
 80001e4:	08000620 	stmdaeq	r0, {r5, r9, sl}
 80001e8:	2d22ffff 	stccs	15, cr15, [r2, #-1020]!	; 0xfffffc04
 80001ec:	4d202d2d 	stcmi	13, cr2, [r0, #-180]!	; 0xffffff4c
 80001f0:	69726365 	ldmdbvs	r2!, {r0, r2, r5, r6, r8, r9, sp, lr}^
 80001f4:	532d7073 			; <UNDEFINED> instruction: 0x532d7073
 80001f8:	6c6c6574 	cfstr64vs	mvdx6, [ip], #-464	; 0xfffffe30
 80001fc:	73697261 	cmnvc	r9, #268435462	; 0x10000006
 8000200:	20415220 	subcs	r5, r1, r0, lsr #4
 8000204:	2e362e32 	mrccs	14, 1, r2, cr6, cr2, {1}
 8000208:	2d2d2035 	stccs	0, cr2, [sp, #-212]!	; 0xffffff2c
 800020c:	 	strlt	r0, [r7, #-45]	; 0xffffffd3

0800020e <Code_31>:
 800020e:	b507      	push	{r0, r1, r2, lr}
 8000210:	4890      	ldr	r0, [pc, #576]	; (8000454 <r0_unfrei+0x18>)
 8000212:	2b00      	cmp	r3, #0
 8000214:	d009      	beq.n	800022a <Code_31+0x1c>
 8000216:	f000 f83d 	bl	8000294 <free_5os_element>
 800021a:	f000 f843 	bl	80002a4 <elemente_einen_weiterrutschen_lassen>
 800021e:	f000 f828 	bl	8000272 <nget_faltkonstante>
 8000222:	6042      	str	r2, [r0, #4]
 8000224:	2128      	movs	r1, #40	; 0x28
 8000226:	6001      	str	r1, [r0, #0]
 8000228:	e7f3      	b.n	8000212 <Code_31+0x4>
 800022a:	bd07      	pop	{r0, r1, r2, pc}

0800022c <nfaltkonstanten_aufschwimmen>:
 800022c:	b500      	push	{lr}
 800022e:	4889      	ldr	r0, [pc, #548]	; (8000454 <r0_unfrei+0x18>)
 8000230:	2300      	movs	r3, #0
 8000232:	6801      	ldr	r1, [r0, #0]
 8000234:	2928      	cmp	r1, #40	; 0x28
 8000236:	d105      	bne.n	8000244 <nfaltkonstanten_aufschwimmen+0x18>
 8000238:	6842      	ldr	r2, [r0, #4]
 800023a:	f000 f804 	bl	8000246 <npush_faltkonstante>
 800023e:	f000 f84e 	bl	80002de <eliminiere_tos>
 8000242:	e7f6      	b.n	8000232 <nfaltkonstanten_aufschwimmen+0x6>
 8000244:	bd00      	pop	{pc}

08000246 <npush_faltkonstante>:
 8000246:	b503      	push	{r0, r1, lr}
 8000248:	f847 6d04 	str.w	r6, [r7, #-4]!
 800024c:	0016      	movs	r6, r2
 800024e:	f847 6d04 	str.w	r6, [r7, #-4]!
 8000252:	001e      	movs	r6, r3
 8000254:	b408      	push	{r3}
 8000256:	f000 ff9f 	bl	8001198 <Code_231>
 800025a:	bc08      	pop	{r3}
 800025c:	3301      	adds	r3, #1
 800025e:	f847 6d04 	str.w	r6, [r7, #-4]!
 8000262:	4e7d      	ldr	r6, [pc, #500]	; (8000458 <r0_unfrei+0x1c>)
 8000264:	f847 6d04 	str.w	r6, [r7, #-4]!
 8000268:	f240 2661 	movw	r6, #609	; 0x261
 800026c:	f004 fd30 	bl	8004cd0 <add_to_inline_cache>
 8000270:	bd03      	pop	{r0, r1, pc}

08000272 <nget_faltkonstante>:
 8000272:	b503      	push	{r0, r1, lr}
 8000274:	3b01      	subs	r3, #1
 8000276:	f847 6d04 	str.w	r6, [r7, #-4]!
 800027a:	001e      	movs	r6, r3
 800027c:	b408      	push	{r3}
 800027e:	f000 ff75 	bl	800116c <Code_229>
 8000282:	bc08      	pop	{r3}
 8000284:	0032      	movs	r2, r6
 8000286:	f847 6d04 	str.w	r6, [r7, #-4]!
 800028a:	f44f 5600 	mov.w	r6, #8192	; 0x2000
 800028e:	f004 fd1f 	bl	8004cd0 <add_to_inline_cache>
 8000292:	bd03      	pop	{r0, r1, pc}

08000294 <free_5os_element>:
 8000294:	b503      	push	{r0, r1, lr}
 8000296:	4871      	ldr	r0, [pc, #452]	; (800045c <r0_unfrei+0x20>)
 8000298:	6801      	ldr	r1, [r0, #0]
 800029a:	291e      	cmp	r1, #30
 800029c:	d001      	beq.n	80002a2 <free_5os_element+0xe>
 800029e:	f000 f834 	bl	800030a <element_to_stack>
 80002a2:	bd03      	pop	{r0, r1, pc}

080002a4 <elemente_einen_weiterrutschen_lassen>:
 80002a4:	6981      	ldr	r1, [r0, #24]
 80002a6:	6201      	str	r1, [r0, #32]
 80002a8:	6901      	ldr	r1, [r0, #16]
 80002aa:	6181      	str	r1, [r0, #24]
 80002ac:	6881      	ldr	r1, [r0, #8]
 80002ae:	6101      	str	r1, [r0, #16]
 80002b0:	6801      	ldr	r1, [r0, #0]
 80002b2:	6081      	str	r1, [r0, #8]
 80002b4:	69c1      	ldr	r1, [r0, #28]
 80002b6:	6241      	str	r1, [r0, #36]	; 0x24
 80002b8:	6941      	ldr	r1, [r0, #20]
 80002ba:	61c1      	str	r1, [r0, #28]
 80002bc:	68c1      	ldr	r1, [r0, #12]
 80002be:	6141      	str	r1, [r0, #20]
 80002c0:	6841      	ldr	r1, [r0, #4]
 80002c2:	60c1      	str	r1, [r0, #12]
 80002c4:	211e      	movs	r1, #30
 80002c6:	6001      	str	r1, [r0, #0]
 80002c8:	4770      	bx	lr

080002ca <befreie_tos>:
 80002ca:	b50f      	push	{r0, r1, r2, r3, lr}
 80002cc:	4861      	ldr	r0, [pc, #388]	; (8000454 <r0_unfrei+0x18>)
 80002ce:	6801      	ldr	r1, [r0, #0]
 80002d0:	291e      	cmp	r1, #30
 80002d2:	d003      	beq.n	80002dc <befreie_tos+0x12>
 80002d4:	f7ff ffde 	bl	8000294 <free_5os_element>
 80002d8:	f7ff ffe4 	bl	80002a4 <elemente_einen_weiterrutschen_lassen>
 80002dc:	bd0f      	pop	{r0, r1, r2, r3, pc}

080002de <eliminiere_tos>:
 80002de:	b502      	push	{r1, lr}
 80002e0:	6881      	ldr	r1, [r0, #8]
 80002e2:	6001      	str	r1, [r0, #0]
 80002e4:	68c1      	ldr	r1, [r0, #12]
 80002e6:	6041      	str	r1, [r0, #4]
 80002e8:	e000      	b.n	80002ec <eliminiere_nos+0x2>

080002ea <eliminiere_nos>:
 80002ea:	b502      	push	{r1, lr}
 80002ec:	6901      	ldr	r1, [r0, #16]
 80002ee:	6081      	str	r1, [r0, #8]
 80002f0:	6941      	ldr	r1, [r0, #20]
 80002f2:	60c1      	str	r1, [r0, #12]
 80002f4:	6981      	ldr	r1, [r0, #24]
 80002f6:	6101      	str	r1, [r0, #16]
 80002f8:	69c1      	ldr	r1, [r0, #28]
 80002fa:	6141      	str	r1, [r0, #20]
 80002fc:	6a01      	ldr	r1, [r0, #32]
 80002fe:	6181      	str	r1, [r0, #24]
 8000300:	6a41      	ldr	r1, [r0, #36]	; 0x24
 8000302:	61c1      	str	r1, [r0, #28]
 8000304:	211e      	movs	r1, #30
 8000306:	6201      	str	r1, [r0, #32]
 8000308:	bd02      	pop	{r1, pc}

0800030a <element_to_stack>:
 800030a:	b508      	push	{r3, lr}
 800030c:	6801      	ldr	r1, [r0, #0]
 800030e:	221e      	movs	r2, #30
 8000310:	6002      	str	r2, [r0, #0]
 8000312:	2908      	cmp	r1, #8
 8000314:	d201      	bcs.n	800031a <element_to_stack+0x10>
 8000316:	000b      	movs	r3, r1
 8000318:	e004      	b.n	8000324 <element_to_stack+0x1a>
 800031a:	2928      	cmp	r1, #40	; 0x28
 800031c:	d109      	bne.n	8000332 <element_to_stack+0x28>
 800031e:	6843      	ldr	r3, [r0, #4]
 8000320:	f000 f85b 	bl	80003da <generiere_konstante>
 8000324:	f847 6d04 	str.w	r6, [r7, #-4]!
 8000328:	4e4d      	ldr	r6, [pc, #308]	; (8000460 <r0_unfrei+0x24>)
 800032a:	ea56 3603 	orrs.w	r6, r6, r3, lsl #12
 800032e:	f003 fb5f 	bl	80039f0 <Code_888>
 8000332:	bd08      	pop	{r3, pc}

08000334 <tidyup_register_allocator>:
 8000334:	b500      	push	{lr}
 8000336:	f000 f809 	bl	800034c <tidyup_register_allocator_5os>
 800033a:	f000 f80c 	bl	8000356 <tidyup_register_allocator_4os>
 800033e:	f000 f80f 	bl	8000360 <tidyup_register_allocator_3os>
 8000342:	f000 f812 	bl	800036a <tidyup_register_allocator_nos>
 8000346:	f000 f815 	bl	8000374 <tidyup_register_allocator_tos>
 800034a:	bd00      	pop	{pc}

0800034c <tidyup_register_allocator_5os>:
 800034c:	b50f      	push	{r0, r1, r2, r3, lr}
 800034e:	4843      	ldr	r0, [pc, #268]	; (800045c <r0_unfrei+0x20>)
 8000350:	f7ff ffdb 	bl	800030a <element_to_stack>
 8000354:	bd0f      	pop	{r0, r1, r2, r3, pc}

08000356 <tidyup_register_allocator_4os>:
 8000356:	b50f      	push	{r0, r1, r2, r3, lr}
 8000358:	4842      	ldr	r0, [pc, #264]	; (8000464 <r0_unfrei+0x28>)
 800035a:	f7ff ffd6 	bl	800030a <element_to_stack>
 800035e:	bd0f      	pop	{r0, r1, r2, r3, pc}

08000360 <tidyup_register_allocator_3os>:
 8000360:	b50f      	push	{r0, r1, r2, r3, lr}
 8000362:	4841      	ldr	r0, [pc, #260]	; (8000468 <r0_unfrei+0x2c>)
 8000364:	f7ff ffd1 	bl	800030a <element_to_stack>
 8000368:	bd0f      	pop	{r0, r1, r2, r3, pc}

0800036a <tidyup_register_allocator_nos>:
 800036a:	b50f      	push	{r0, r1, r2, r3, lr}
 800036c:	483f      	ldr	r0, [pc, #252]	; (800046c <r0_unfrei+0x30>)
 800036e:	f7ff ffcc 	bl	800030a <element_to_stack>
 8000372:	bd0f      	pop	{r0, r1, r2, r3, pc}

08000374 <tidyup_register_allocator_tos>:
 8000374:	b50f      	push	{r0, r1, r2, r3, lr}
 8000376:	4837      	ldr	r0, [pc, #220]	; (8000454 <r0_unfrei+0x18>)
 8000378:	6801      	ldr	r1, [r0, #0]
 800037a:	2206      	movs	r2, #6
 800037c:	6002      	str	r2, [r0, #0]
 800037e:	291e      	cmp	r1, #30
 8000380:	d106      	bne.n	8000390 <tidyup_register_allocator_tos+0x1c>
 8000382:	f847 6d04 	str.w	r6, [r7, #-4]!
 8000386:	f64c 7640 	movw	r6, #53056	; 0xcf40
 800038a:	f003 fb01 	bl	8003990 <Code_879>
 800038e:	e015      	b.n	80003bc <tidyup_finish>
 8000390:	2928      	cmp	r1, #40	; 0x28
 8000392:	d109      	bne.n	80003a8 <tidyup_register_allocator_tos+0x34>
 8000394:	6843      	ldr	r3, [r0, #4]
 8000396:	f847 6d04 	str.w	r6, [r7, #-4]!
 800039a:	001e      	movs	r6, r3
 800039c:	f847 6d04 	str.w	r6, [r7, #-4]!
 80003a0:	2606      	movs	r6, #6
 80003a2:	f002 ff7b 	bl	800329c <Code_754>
 80003a6:	e009      	b.n	80003bc <tidyup_finish>
 80003a8:	2906      	cmp	r1, #6
 80003aa:	d007      	beq.n	80003bc <tidyup_finish>
 80003ac:	f847 6d04 	str.w	r6, [r7, #-4]!
 80003b0:	f244 6606 	movw	r6, #17926	; 0x4606
 80003b4:	00c9      	lsls	r1, r1, #3
 80003b6:	430e      	orrs	r6, r1
 80003b8:	f003 faea 	bl	8003990 <Code_879>

080003bc <tidyup_finish>:
 80003bc:	f000 f801 	bl	80003c2 <init_register_allocator>
 80003c0:	bd0f      	pop	{r0, r1, r2, r3, pc}

080003c2 <init_register_allocator>:
 80003c2:	4824      	ldr	r0, [pc, #144]	; (8000454 <r0_unfrei+0x18>)
 80003c4:	211e      	movs	r1, #30
 80003c6:	6201      	str	r1, [r0, #32]
 80003c8:	6181      	str	r1, [r0, #24]
 80003ca:	6101      	str	r1, [r0, #16]
 80003cc:	6081      	str	r1, [r0, #8]
 80003ce:	62c1      	str	r1, [r0, #44]	; 0x2c
 80003d0:	2106      	movs	r1, #6
 80003d2:	6001      	str	r1, [r0, #0]
 80003d4:	2100      	movs	r1, #0
 80003d6:	6281      	str	r1, [r0, #40]	; 0x28
 80003d8:	4770      	bx	lr

080003da <generiere_konstante>:
 80003da:	b507      	push	{r0, r1, r2, lr}
 80003dc:	f847 6d04 	str.w	r6, [r7, #-4]!
 80003e0:	001e      	movs	r6, r3
 80003e2:	f000 f845 	bl	8000470 <get_free_register>
 80003e6:	f847 6d04 	str.w	r6, [r7, #-4]!
 80003ea:	001e      	movs	r6, r3
 80003ec:	f002 ff56 	bl	800329c <Code_754>
 80003f0:	bd07      	pop	{r0, r1, r2, pc}

080003f2 <generiere_adresskonstante>:
 80003f2:	b507      	push	{r0, r1, r2, lr}
 80003f4:	6ac1      	ldr	r1, [r0, #44]	; 0x2c
 80003f6:	2928      	cmp	r1, #40	; 0x28
 80003f8:	d104      	bne.n	8000404 <generiere_adresskonstante+0x12>
 80003fa:	6b01      	ldr	r1, [r0, #48]	; 0x30
 80003fc:	4299      	cmp	r1, r3
 80003fe:	d101      	bne.n	8000404 <generiere_adresskonstante+0x12>
 8000400:	2300      	movs	r3, #0
 8000402:	bd07      	pop	{r0, r1, r2, pc}
 8000404:	6801      	ldr	r1, [r0, #0]
 8000406:	2900      	cmp	r1, #0
 8000408:	d018      	beq.n	800043c <r0_unfrei>
 800040a:	6881      	ldr	r1, [r0, #8]
 800040c:	2900      	cmp	r1, #0
 800040e:	d015      	beq.n	800043c <r0_unfrei>
 8000410:	6901      	ldr	r1, [r0, #16]
 8000412:	2900      	cmp	r1, #0
 8000414:	d012      	beq.n	800043c <r0_unfrei>
 8000416:	6981      	ldr	r1, [r0, #24]
 8000418:	2900      	cmp	r1, #0
 800041a:	d00f      	beq.n	800043c <r0_unfrei>
 800041c:	6a01      	ldr	r1, [r0, #32]
 800041e:	2900      	cmp	r1, #0
 8000420:	d00c      	beq.n	800043c <r0_unfrei>
 8000422:	6303      	str	r3, [r0, #48]	; 0x30
 8000424:	f847 6d04 	str.w	r6, [r7, #-4]!
 8000428:	001e      	movs	r6, r3
 800042a:	f847 6d04 	str.w	r6, [r7, #-4]!
 800042e:	2600      	movs	r6, #0
 8000430:	f002 ff34 	bl	800329c <Code_754>
 8000434:	2128      	movs	r1, #40	; 0x28
 8000436:	62c1      	str	r1, [r0, #44]	; 0x2c
 8000438:	2300      	movs	r3, #0
 800043a:	bd07      	pop	{r0, r1, r2, pc}

0800043c <r0_unfrei>:
 800043c:	f847 6d04 	str.w	r6, [r7, #-4]!
 8000440:	001e      	movs	r6, r3
 8000442:	f000 f815 	bl	8000470 <get_free_register>
 8000446:	f847 6d04 	str.w	r6, [r7, #-4]!
 800044a:	001e      	movs	r6, r3
 800044c:	f002 ff26 	bl	800329c <Code_754>
 8000450:	bd07      	pop	{r0, r1, r2, pc}
 8000452:	00200000 	eoreq	r0, r0, r0
 8000456:	0f202400 	svceq	0x00202400
 800045a:	00400800 	subeq	r0, r0, r0, lsl #16
 800045e:	0d042400 	cfstrseq	mvf2, [r4, #-0]
 8000462:	0038f847 	eorseq	pc, r8, r7, asr #16
 8000466:	00302400 	eorseq	r2, r0, r0, lsl #8
 800046a:	00282400 	eoreq	r2, r8, r0, lsl #8
 800046e:	 	ldrlt	r2, [r7, #-1024]!	; 0xfffffc00

08000470 <get_free_register>:
 8000470:	b537      	push	{r0, r1, r2, r4, r5, lr}
 8000472:	4836      	ldr	r0, [pc, #216]	; (800054c <expect_four_elements+0x26>)
 8000474:	6801      	ldr	r1, [r0, #0]
 8000476:	6882      	ldr	r2, [r0, #8]
 8000478:	6903      	ldr	r3, [r0, #16]
 800047a:	6984      	ldr	r4, [r0, #24]
 800047c:	6a05      	ldr	r5, [r0, #32]
 800047e:	2006      	movs	r0, #6
 8000480:	f000 f80e 	bl	80004a0 <get_free_register_intern>
 8000484:	2003      	movs	r0, #3
 8000486:	f000 f80b 	bl	80004a0 <get_free_register_intern>
 800048a:	2002      	movs	r0, #2
 800048c:	f000 f808 	bl	80004a0 <get_free_register_intern>
 8000490:	2001      	movs	r0, #1
 8000492:	f000 f805 	bl	80004a0 <get_free_register_intern>
 8000496:	2300      	movs	r3, #0
 8000498:	482c      	ldr	r0, [pc, #176]	; (800054c <expect_four_elements+0x26>)
 800049a:	211e      	movs	r1, #30
 800049c:	62c1      	str	r1, [r0, #44]	; 0x2c
 800049e:	bd37      	pop	{r0, r1, r2, r4, r5, pc}

080004a0 <get_free_register_intern>:
 80004a0:	4281      	cmp	r1, r0
 80004a2:	d009      	beq.n	80004b8 <get_free_register_intern+0x18>
 80004a4:	4282      	cmp	r2, r0
 80004a6:	d007      	beq.n	80004b8 <get_free_register_intern+0x18>
 80004a8:	4283      	cmp	r3, r0
 80004aa:	d005      	beq.n	80004b8 <get_free_register_intern+0x18>
 80004ac:	4284      	cmp	r4, r0
 80004ae:	d003      	beq.n	80004b8 <get_free_register_intern+0x18>
 80004b0:	4285      	cmp	r5, r0
 80004b2:	d001      	beq.n	80004b8 <get_free_register_intern+0x18>
 80004b4:	0003      	movs	r3, r0
 80004b6:	bd37      	pop	{r0, r1, r2, r4, r5, pc}
 80004b8:	4770      	bx	lr

080004ba <erstes_element_belegen>:
 80004ba:	f847 6d04 	str.w	r6, [r7, #-4]!
 80004be:	f64c 7600 	movw	r6, #52992	; 0xcf00

080004c2 <element_belegen>:
 80004c2:	b500      	push	{lr}
 80004c4:	5881      	ldr	r1, [r0, r2]
 80004c6:	291e      	cmp	r1, #30
 80004c8:	d105      	bne.n	80004d6 <element_belegen+0x14>
 80004ca:	f7ff ffd1 	bl	8000470 <get_free_register>
 80004ce:	5083      	str	r3, [r0, r2]
 80004d0:	2101      	movs	r1, #1
 80004d2:	4099      	lsls	r1, r3
 80004d4:	430e      	orrs	r6, r1
 80004d6:	bd00      	pop	{pc}

080004d8 <expect_one_element>:
 80004d8:	b500      	push	{lr}
 80004da:	6801      	ldr	r1, [r0, #0]
 80004dc:	291e      	cmp	r1, #30
 80004de:	d104      	bne.n	80004ea <expect_one_element+0x12>
 80004e0:	2200      	movs	r2, #0
 80004e2:	f7ff ffea 	bl	80004ba <erstes_element_belegen>
 80004e6:	f003 fa53 	bl	8003990 <Code_879>
 80004ea:	bd00      	pop	{pc}

080004ec <expect_two_elements>:
 80004ec:	b500      	push	{lr}
 80004ee:	6881      	ldr	r1, [r0, #8]
 80004f0:	291e      	cmp	r1, #30
 80004f2:	d107      	bne.n	8000504 <expect_two_elements+0x18>
 80004f4:	2208      	movs	r2, #8
 80004f6:	f7ff ffe0 	bl	80004ba <erstes_element_belegen>
 80004fa:	2200      	movs	r2, #0
 80004fc:	f7ff ffe1 	bl	80004c2 <element_belegen>
 8000500:	f003 fa46 	bl	8003990 <Code_879>
 8000504:	bd00      	pop	{pc}

08000506 <expect_three_elements>:
 8000506:	b500      	push	{lr}
 8000508:	6901      	ldr	r1, [r0, #16]
 800050a:	291e      	cmp	r1, #30
 800050c:	d10a      	bne.n	8000524 <expect_three_elements+0x1e>
 800050e:	2210      	movs	r2, #16
 8000510:	f7ff ffd3 	bl	80004ba <erstes_element_belegen>
 8000514:	2208      	movs	r2, #8
 8000516:	f7ff ffd4 	bl	80004c2 <element_belegen>
 800051a:	2200      	movs	r2, #0
 800051c:	f7ff ffd1 	bl	80004c2 <element_belegen>
 8000520:	f003 fa36 	bl	8003990 <Code_879>
 8000524:	bd00      	pop	{pc}

08000526 <expect_four_elements>:
 8000526:	b500      	push	{lr}
 8000528:	6981      	ldr	r1, [r0, #24]
 800052a:	291e      	cmp	r1, #30
 800052c:	d10d      	bne.n	800054a <expect_four_elements+0x24>
 800052e:	2218      	movs	r2, #24
 8000530:	f7ff ffc3 	bl	80004ba <erstes_element_belegen>
 8000534:	2210      	movs	r2, #16
 8000536:	f7ff ffc4 	bl	80004c2 <element_belegen>
 800053a:	2208      	movs	r2, #8
 800053c:	f7ff ffc1 	bl	80004c2 <element_belegen>
 8000540:	2200      	movs	r2, #0
 8000542:	f7ff ffbe 	bl	80004c2 <element_belegen>
 8000546:	f003 fa23 	bl	8003990 <Code_879>
 800054a:	bd00      	pop	{pc}
 800054c:	24000020 	strcs	r0, [r0], #-32	; 0xffffffe0

08000550 <expect_tos_in_register>:
 8000550:	b500      	push	{lr}
 8000552:	6801      	ldr	r1, [r0, #0]
 8000554:	2928      	cmp	r1, #40	; 0x28
 8000556:	d104      	bne.n	8000562 <expect_tos_in_register+0x12>
 8000558:	6843      	ldr	r3, [r0, #4]
 800055a:	f7ff ff3e 	bl	80003da <generiere_konstante>
 800055e:	6003      	str	r3, [r0, #0]
 8000560:	0019      	movs	r1, r3
 8000562:	bd00      	pop	{pc}

08000564 <expect_nos_in_register>:
 8000564:	b500      	push	{lr}
 8000566:	6881      	ldr	r1, [r0, #8]
 8000568:	2928      	cmp	r1, #40	; 0x28
 800056a:	d104      	bne.n	8000576 <expect_nos_in_register+0x12>
 800056c:	68c3      	ldr	r3, [r0, #12]
 800056e:	f7ff ff34 	bl	80003da <generiere_konstante>
 8000572:	6083      	str	r3, [r0, #8]
 8000574:	0019      	movs	r1, r3
 8000576:	bd00      	pop	{pc}

08000578 <expect_3os_in_register>:
 8000578:	b500      	push	{lr}
 800057a:	6901      	ldr	r1, [r0, #16]
 800057c:	2928      	cmp	r1, #40	; 0x28
 800057e:	d104      	bne.n	800058a <expect_3os_in_register+0x12>
 8000580:	6943      	ldr	r3, [r0, #20]
 8000582:	f7ff ff2a 	bl	80003da <generiere_konstante>
 8000586:	6103      	str	r3, [r0, #16]
 8000588:	0019      	movs	r1, r3
 800058a:	bd00      	pop	{pc}

0800058c <nos_change_tos_away_later>:
 800058c:	b53e      	push	{r1, r2, r3, r4, r5, lr}
 800058e:	6882      	ldr	r2, [r0, #8]
 8000590:	6903      	ldr	r3, [r0, #16]
 8000592:	6984      	ldr	r4, [r0, #24]
 8000594:	6a05      	ldr	r5, [r0, #32]
 8000596:	429a      	cmp	r2, r3
 8000598:	d003      	beq.n	80005a2 <nos_change_tos_away_later+0x16>
 800059a:	42a2      	cmp	r2, r4
 800059c:	d001      	beq.n	80005a2 <nos_change_tos_away_later+0x16>
 800059e:	42aa      	cmp	r2, r5
 80005a0:	d10a      	bne.n	80005b8 <nos_change_tos_away_later+0x2c>
 80005a2:	2a07      	cmp	r2, #7
 80005a4:	d808      	bhi.n	80005b8 <nos_change_tos_away_later+0x2c>
 80005a6:	f847 6d04 	str.w	r6, [r7, #-4]!
 80005aa:	00d6      	lsls	r6, r2, #3
 80005ac:	f7ff ff60 	bl	8000470 <get_free_register>
 80005b0:	431e      	orrs	r6, r3
 80005b2:	6083      	str	r3, [r0, #8]
 80005b4:	f003 f9ec 	bl	8003990 <Code_879>
 80005b8:	bd3e      	pop	{r1, r2, r3, r4, r5, pc}

080005ba <make_tos_changeable>:
 80005ba:	b53e      	push	{r1, r2, r3, r4, r5, lr}
 80005bc:	6801      	ldr	r1, [r0, #0]
 80005be:	6882      	ldr	r2, [r0, #8]
 80005c0:	6903      	ldr	r3, [r0, #16]
 80005c2:	6984      	ldr	r4, [r0, #24]
 80005c4:	6a05      	ldr	r5, [r0, #32]
 80005c6:	4291      	cmp	r1, r2
 80005c8:	d006      	beq.n	80005d8 <make_tos_changeable+0x1e>
 80005ca:	4299      	cmp	r1, r3
 80005cc:	d004      	beq.n	80005d8 <make_tos_changeable+0x1e>
 80005ce:	42a1      	cmp	r1, r4
 80005d0:	d002      	beq.n	80005d8 <make_tos_changeable+0x1e>
 80005d2:	42a9      	cmp	r1, r5
 80005d4:	d000      	beq.n	80005d8 <make_tos_changeable+0x1e>
 80005d6:	bd3e      	pop	{r1, r2, r3, r4, r5, pc}
 80005d8:	f847 6d04 	str.w	r6, [r7, #-4]!
 80005dc:	00ce      	lsls	r6, r1, #3
 80005de:	f7ff ff47 	bl	8000470 <get_free_register>
 80005e2:	431e      	orrs	r6, r3
 80005e4:	6003      	str	r3, [r0, #0]
 80005e6:	f003 f9d3 	bl	8003990 <Code_879>
 80005ea:	bd3e      	pop	{r1, r2, r3, r4, r5, pc}

080005ec <tos_registerwechsel>:
 80005ec:	b500      	push	{lr}
 80005ee:	f7ff fe76 	bl	80002de <eliminiere_tos>
 80005f2:	f7ff fe6a 	bl	80002ca <befreie_tos>
 80005f6:	f7ff ff3b 	bl	8000470 <get_free_register>
 80005fa:	6003      	str	r3, [r0, #0]
 80005fc:	bd00      	pop	{pc}

080005fe <push_lr_nachholen>:
 80005fe:	b501      	push	{r0, lr}
 8000600:	4806      	ldr	r0, [pc, #24]	; (800061c <push_lr_nachholen+0x1e>)
 8000602:	6803      	ldr	r3, [r0, #0]
 8000604:	3301      	adds	r3, #1
 8000606:	d008      	beq.n	800061a <push_lr_nachholen+0x1c>
 8000608:	2300      	movs	r3, #0
 800060a:	43db      	mvns	r3, r3
 800060c:	6003      	str	r3, [r0, #0]
 800060e:	f847 6d04 	str.w	r6, [r7, #-4]!
 8000612:	f24b 5600 	movw	r6, #46336	; 0xb500
 8000616:	f003 f9bb 	bl	8003990 <Code_879>
 800061a:	bd01      	pop	{r0, pc}
 800061c:	2407ffd8 	strcs	pc, [r7], #-4056	; 0xfffff028

08000620 <Dictionary_68>:
 8000620:	08000644 	stmdaeq	r0, {r2, r6, r9, sl}
 8000624:	32040242 	andcc	r0, r4, #536870916	; 0x20000004
 8000628:	00707564 	rsbseq	r7, r0, r4, ror #10

0800062c <Code_68>:
 800062c:	6838      	ldr	r0, [r7, #0]
 800062e:	f847 6d04 	str.w	r6, [r7, #-4]!
 8000632:	3f04      	subs	r7, #4
 8000634:	6038      	str	r0, [r7, #0]
 8000636:	4770      	bx	lr
 8000638:	b500      	push	{lr}
 800063a:	f000 fcc3 	bl	8000fc4 <over_allocator>
 800063e:	f000 fcc1 	bl	8000fc4 <over_allocator>
 8000642:	bd00      	pop	{pc}

08000644 <Dictionary_70>:
 8000644:	08000662 	stmdaeq	r0, {r1, r5, r6, r9, sl}
 8000648:	32050262 	andcc	r0, r5, #536870918	; 0x20000006
 800064c:	706f7264 	rsbvc	r7, pc, r4, ror #4

08000650 <Code_70>:
 8000650:	3704      	adds	r7, #4
 8000652:	cf40      	ldmia	r7!, {r6}
 8000654:	4770      	bx	lr
 8000656:	b500      	push	{lr}
 8000658:	f000 fc64 	bl	8000f24 <drop_allocator>
 800065c:	f000 fc62 	bl	8000f24 <drop_allocator>
 8000660:	bd00      	pop	{pc}

08000662 <Dictionary_72>:
 8000662:	080006a8 	stmdaeq	r0, {r3, r5, r7, r9, sl}
 8000666:	32050244 	andcc	r0, r5, #68, 4	; 0x40000004
 800066a:	70617773 	rsbvc	r7, r1, r3, ror r7

0800066e <Code_72>:
 800066e:	cf07      	ldmia	r7!, {r0, r1, r2}
 8000670:	3f04      	subs	r7, #4
 8000672:	6038      	str	r0, [r7, #0]
 8000674:	f847 6d04 	str.w	r6, [r7, #-4]!
 8000678:	3f04      	subs	r7, #4
 800067a:	603a      	str	r2, [r7, #0]
 800067c:	000e      	movs	r6, r1
 800067e:	4770      	bx	lr

08000680 <dswap_allocator>:
 8000680:	b500      	push	{lr}
 8000682:	f7ff ff50 	bl	8000526 <expect_four_elements>
 8000686:	6802      	ldr	r2, [r0, #0]
 8000688:	6903      	ldr	r3, [r0, #16]
 800068a:	6003      	str	r3, [r0, #0]
 800068c:	6102      	str	r2, [r0, #16]
 800068e:	6842      	ldr	r2, [r0, #4]
 8000690:	6943      	ldr	r3, [r0, #20]
 8000692:	6043      	str	r3, [r0, #4]
 8000694:	6142      	str	r2, [r0, #20]
 8000696:	6882      	ldr	r2, [r0, #8]
 8000698:	6983      	ldr	r3, [r0, #24]
 800069a:	6083      	str	r3, [r0, #8]
 800069c:	6182      	str	r2, [r0, #24]
 800069e:	68c2      	ldr	r2, [r0, #12]
 80006a0:	69c3      	ldr	r3, [r0, #28]
 80006a2:	60c3      	str	r3, [r0, #12]
 80006a4:	61c2      	str	r2, [r0, #28]
 80006a6:	bd00      	pop	{pc}

080006a8 <Dictionary_74>:
 80006a8:	080006d0 	stmdaeq	r0, {r4, r6, r7, r9, sl}
 80006ac:	32040262 	andcc	r0, r4, #536870918	; 0x20000006
 80006b0:	0070696e 	rsbseq	r6, r0, lr, ror #18

080006b4 <Code_74>:
 80006b4:	cf07      	ldmia	r7!, {r0, r1, r2}
 80006b6:	3f04      	subs	r7, #4
 80006b8:	6038      	str	r0, [r7, #0]
 80006ba:	4770      	bx	lr
 80006bc:	b500      	push	{lr}
 80006be:	f7ff ff32 	bl	8000526 <expect_four_elements>
 80006c2:	f7ff ffdd 	bl	8000680 <dswap_allocator>
 80006c6:	f7ff fe0a 	bl	80002de <eliminiere_tos>
 80006ca:	f7ff fe08 	bl	80002de <eliminiere_tos>
 80006ce:	bd00      	pop	{pc}

080006d0 <Dictionary_75>:
 80006d0:	080006ea 	stmdaeq	r0, {r1, r3, r5, r6, r7, r9, sl}
 80006d4:	32050044 	andcc	r0, r5, #68	; 0x44
 80006d8:	7265766f 	rsbvc	r7, r5, #116391936	; 0x6f00000

080006dc <Code_75>:
 80006dc:	68b8      	ldr	r0, [r7, #8]
 80006de:	f847 6d04 	str.w	r6, [r7, #-4]!
 80006e2:	3f04      	subs	r7, #4
 80006e4:	6038      	str	r0, [r7, #0]
 80006e6:	68fe      	ldr	r6, [r7, #12]
 80006e8:	4770      	bx	lr

080006ea <Dictionary_77>:
 80006ea:	0800070e 	stmdaeq	r0, {r1, r2, r3, r8, r9, sl}
 80006ee:	32050044 	andcc	r0, r5, #68	; 0x44
 80006f2:	6b637574 	blvs	98ddcca <FlashDictionaryEnde+0x17ddcca>

080006f6 <Code_77>:
 80006f6:	cf07      	ldmia	r7!, {r0, r1, r2}
 80006f8:	3f04      	subs	r7, #4
 80006fa:	6038      	str	r0, [r7, #0]
 80006fc:	f847 6d04 	str.w	r6, [r7, #-4]!
 8000700:	3f04      	subs	r7, #4
 8000702:	603a      	str	r2, [r7, #0]
 8000704:	3f04      	subs	r7, #4
 8000706:	6039      	str	r1, [r7, #0]
 8000708:	3f04      	subs	r7, #4
 800070a:	6038      	str	r0, [r7, #0]
 800070c:	4770      	bx	lr

0800070e <Dictionary_79>:
 800070e:	08000730 	stmdaeq	r0, {r4, r5, r8, r9, sl}
 8000712:	32040046 	andcc	r0, r4, #70	; 0x46
 8000716:	00746f72 	rsbseq	r6, r4, r2, ror pc

0800071a <Code_79>:
 800071a:	6838      	ldr	r0, [r7, #0]
 800071c:	68b9      	ldr	r1, [r7, #8]
 800071e:	693a      	ldr	r2, [r7, #16]
 8000720:	60b8      	str	r0, [r7, #8]
 8000722:	6139      	str	r1, [r7, #16]
 8000724:	603a      	str	r2, [r7, #0]
 8000726:	6879      	ldr	r1, [r7, #4]
 8000728:	607e      	str	r6, [r7, #4]
 800072a:	68fe      	ldr	r6, [r7, #12]
 800072c:	60f9      	str	r1, [r7, #12]
 800072e:	4770      	bx	lr

08000730 <Dictionary_80>:
 8000730:	08000752 	stmdaeq	r0, {r1, r4, r6, r8, r9, sl}
 8000734:	32050046 	andcc	r0, r5, #70	; 0x46
 8000738:	746f722d 	strbtvc	r7, [pc], #-557	; 8000740 <Code_80+0x4>

0800073c <Code_80>:
 800073c:	6838      	ldr	r0, [r7, #0]
 800073e:	68b9      	ldr	r1, [r7, #8]
 8000740:	693a      	ldr	r2, [r7, #16]
 8000742:	6138      	str	r0, [r7, #16]
 8000744:	6039      	str	r1, [r7, #0]
 8000746:	60ba      	str	r2, [r7, #8]
 8000748:	68f9      	ldr	r1, [r7, #12]
 800074a:	60fe      	str	r6, [r7, #12]
 800074c:	687e      	ldr	r6, [r7, #4]
 800074e:	6079      	str	r1, [r7, #4]
 8000750:	4770      	bx	lr

08000752 <Dictionary_81>:
 8000752:	0800077a 	stmdaeq	r0, {r1, r3, r4, r5, r6, r8, r9, sl}
 8000756:	32030220 	andcc	r0, r3, #32, 4
 800075a:	 	svcgt	0x0001723e

0800075c <Code_81>:
 800075c:	cf01      	ldmia	r7!, {r0}
 800075e:	b401      	push	{r0}
 8000760:	b440      	push	{r6}
 8000762:	cf40      	ldmia	r7!, {r6}
 8000764:	4770      	bx	lr
 8000766:	b500      	push	{lr}
 8000768:	f7ff ff49 	bl	80005fe <push_lr_nachholen>
 800076c:	f000 fbfd 	bl	8000f6a <swap_allocator>
 8000770:	f000 fc9d 	bl	80010ae <allocator_to_r>
 8000774:	f000 fc9b 	bl	80010ae <allocator_to_r>
 8000778:	bd00      	pop	{pc}

0800077a <Dictionary_82>:
 800077a:	080007a6 	stmdaeq	r0, {r1, r2, r5, r7, r8, r9, sl}
 800077e:	32030220 	andcc	r0, r3, #32, 4
 8000782:	 			; <UNDEFINED> instruction: 0xf8473e72

08000784 <Code_82>:
 8000784:	f847 6d04 	str.w	r6, [r7, #-4]!
 8000788:	bc40      	pop	{r6}
 800078a:	bc01      	pop	{r0}
 800078c:	3f04      	subs	r7, #4
 800078e:	6038      	str	r0, [r7, #0]
 8000790:	4770      	bx	lr
 8000792:	b500      	push	{lr}
 8000794:	f7ff ff33 	bl	80005fe <push_lr_nachholen>
 8000798:	f000 fca5 	bl	80010e6 <allocator_r_from>
 800079c:	f000 fca3 	bl	80010e6 <allocator_r_from>
 80007a0:	f000 fbe3 	bl	8000f6a <swap_allocator>
 80007a4:	bd00      	pop	{pc}

080007a6 <Dictionary_84>:
 80007a6:	080007d6 	stmdaeq	r0, {r1, r2, r4, r6, r7, r8, r9, sl}
 80007aa:	32030220 	andcc	r0, r3, #32, 4
 80007ae:	 			; <UNDEFINED> instruction: 0xf8474072

080007b0 <Code_84>:
 80007b0:	f847 6d04 	str.w	r6, [r7, #-4]!
 80007b4:	9e01      	ldr	r6, [sp, #4]
 80007b6:	f847 6d04 	str.w	r6, [r7, #-4]!
 80007ba:	9e00      	ldr	r6, [sp, #0]
 80007bc:	4770      	bx	lr
 80007be:	b500      	push	{lr}
 80007c0:	f7ff ff1d 	bl	80005fe <push_lr_nachholen>
 80007c4:	f847 6d04 	str.w	r6, [r7, #-4]!
 80007c8:	f649 0601 	movw	r6, #38913	; 0x9801
 80007cc:	f003 fe3b 	bl	8004446 <loop_j_allocator>
 80007d0:	f003 fe35 	bl	800443e <rfetch_allocator>
 80007d4:	bd00      	pop	{pc}

080007d6 <Dictionary_89>:
 80007d6:	080007fc 	stmdaeq	r0, {r2, r3, r4, r5, r6, r7, r8, r9, sl}
 80007da:	32060220 	andcc	r0, r6, #32, 4
 80007de:	6f726472 	svcvs	0x00726472
 80007e2:	 	andlt	r0, r2, r0, ror r0

080007e4 <Code_89>:
 80007e4:	b002      	add	sp, #8
 80007e6:	4770      	bx	lr
 80007e8:	b500      	push	{lr}
 80007ea:	f7ff ff08 	bl	80005fe <push_lr_nachholen>
 80007ee:	f847 6d04 	str.w	r6, [r7, #-4]!
 80007f2:	f24b 0602 	movw	r6, #45058	; 0xb002
 80007f6:	f003 f8cb 	bl	8003990 <Code_879>
 80007fa:	bd00      	pop	{pc}

080007fc <Dictionary_92>:
 80007fc:	08000814 	stmdaeq	r0, {r2, r4, fp}
 8000800:	64030042 	strvs	r0, [r3], #-66	; 0xffffffbe
 8000804:	 	ldmdavs	r8!, {r1, r4, r5, r8, r9, sl, fp, sp}

08000806 <Code_92>:
 8000806:	6838      	ldr	r0, [r7, #0]
 8000808:	07f1      	lsls	r1, r6, #31
 800080a:	1076      	asrs	r6, r6, #1
 800080c:	0840      	lsrs	r0, r0, #1
 800080e:	4308      	orrs	r0, r1
 8000810:	6038      	str	r0, [r7, #0]
 8000812:	4770      	bx	lr

08000814 <Dictionary_93>:
 8000814:	0800082a 	stmdaeq	r0, {r1, r3, r5, fp}
 8000818:	64030262 	strvs	r0, [r3], #-610	; 0xfffffd9e
 800081c:	 	ldmdavs	r8!, {r1, r4, r5, r9, fp, sp}

0800081e <Code_93>:
 800081e:	6838      	ldr	r0, [r7, #0]
 8000820:	1800      	adds	r0, r0, r0
 8000822:	4176      	adcs	r6, r6
 8000824:	6038      	str	r0, [r7, #0]
 8000826:	4770      	bx	lr
 8000828:	e017      	b.n	800085a <Code_95+0xa>

0800082a <Dictionary_94>:
 800082a:	08000844 	stmdaeq	r0, {r2, r6, fp}
 800082e:	64040042 	strvs	r0, [r4], #-66	; 0xffffffbe
 8000832:	00726873 	rsbseq	r6, r2, r3, ror r8

08000836 <Code_94>:
 8000836:	6838      	ldr	r0, [r7, #0]
 8000838:	07f1      	lsls	r1, r6, #31
 800083a:	0876      	lsrs	r6, r6, #1
 800083c:	0840      	lsrs	r0, r0, #1
 800083e:	4308      	orrs	r0, r1
 8000840:	6038      	str	r0, [r7, #0]
 8000842:	4770      	bx	lr

08000844 <Dictionary_95>:
 8000844:	08000890 	stmdaeq	r0, {r4, r7, fp}
 8000848:	64040262 	strvs	r0, [r4], #-610	; 0xfffffd9e
 800084c:	006c6873 	rsbeq	r6, ip, r3, ror r8

08000850 <Code_95>:
 8000850:	6838      	ldr	r0, [r7, #0]
 8000852:	1800      	adds	r0, r0, r0
 8000854:	4176      	adcs	r6, r6
 8000856:	6038      	str	r0, [r7, #0]
 8000858:	4770      	bx	lr
 800085a:	b500      	push	{lr}
 800085c:	f7ff fe46 	bl	80004ec <expect_two_elements>
 8000860:	f7ff fe76 	bl	8000550 <expect_tos_in_register>
 8000864:	f7ff fea9 	bl	80005ba <make_tos_changeable>
 8000868:	f000 fb7f 	bl	8000f6a <swap_allocator>
 800086c:	f7ff fe70 	bl	8000550 <expect_tos_in_register>
 8000870:	f7ff fea3 	bl	80005ba <make_tos_changeable>
 8000874:	f847 6d04 	str.w	r6, [r7, #-4]!
 8000878:	2640      	movs	r6, #64	; 0x40
 800087a:	f001 fea5 	bl	80025c8 <smalltworegisters>
 800087e:	f000 fb74 	bl	8000f6a <swap_allocator>
 8000882:	f847 6d04 	str.w	r6, [r7, #-4]!
 8000886:	f244 1640 	movw	r6, #16704	; 0x4140
 800088a:	f001 fe9d 	bl	80025c8 <smalltworegisters>
 800088e:	bd00      	pop	{pc}

08000890 <Dictionary_100>:
 8000890:	080008a2 	stmdaeq	r0, {r1, r5, r7, fp}
 8000894:	64040042 	strvs	r0, [r4], #-66	; 0xffffffbe
 8000898:	00736261 	rsbseq	r6, r3, r1, ror #4

0800089c <Code_100>:
 800089c:	2e00      	cmp	r6, #0
 800089e:	d407      	bmi.n	80008b0 <Code_101>
 80008a0:	4770      	bx	lr

080008a2 <Dictionary_101>:
 80008a2:	080008c0 	stmdaeq	r0, {r6, r7, fp}
 80008a6:	64070042 	strvs	r0, [r7], #-66	; 0xffffffbe
 80008aa:	6167656e 	cmnvs	r7, lr, ror #10
 80008ae:	 	ldmdavs	r8!, {r2, r4, r5, r6, r8, sl, sp, lr}

080008b0 <Code_101>:
 80008b0:	6838      	ldr	r0, [r7, #0]
 80008b2:	2100      	movs	r1, #0
 80008b4:	43c0      	mvns	r0, r0
 80008b6:	43f6      	mvns	r6, r6
 80008b8:	3001      	adds	r0, #1
 80008ba:	414e      	adcs	r6, r1
 80008bc:	6038      	str	r0, [r7, #0]
 80008be:	4770      	bx	lr

080008c0 <Dictionary_102>:
 80008c0:	08000910 	stmdaeq	r0, {r4, r8, fp}
 80008c4:	64020264 	strvs	r0, [r2], #-612	; 0xfffffd9c
 80008c8:	 	svcgt	0x0007002d

080008ca <Code_102>:
 80008ca:	cf07      	ldmia	r7!, {r0, r1, r2}
 80008cc:	1a12      	subs	r2, r2, r0
 80008ce:	41b1      	sbcs	r1, r6
 80008d0:	000e      	movs	r6, r1
 80008d2:	3f04      	subs	r7, #4
 80008d4:	603a      	str	r2, [r7, #0]
 80008d6:	4770      	bx	lr
 80008d8:	b500      	push	{lr}
 80008da:	f7ff fe24 	bl	8000526 <expect_four_elements>
 80008de:	f000 fb99 	bl	8001014 <rot_allocator>
 80008e2:	f7ff fe35 	bl	8000550 <expect_tos_in_register>
 80008e6:	f7ff fe68 	bl	80005ba <make_tos_changeable>
 80008ea:	f000 fb3e 	bl	8000f6a <swap_allocator>
 80008ee:	f7ff fe2f 	bl	8000550 <expect_tos_in_register>
 80008f2:	f7ff fe62 	bl	80005ba <make_tos_changeable>
 80008f6:	f7ff fec3 	bl	8000680 <dswap_allocator>
 80008fa:	f001 fdcf 	bl	800249c <minus_allocator>
 80008fe:	f000 fba5 	bl	800104c <minusrot_allocator>
 8000902:	f847 6d04 	str.w	r6, [r7, #-4]!
 8000906:	f244 1680 	movw	r6, #16768	; 0x4180
 800090a:	f000 fd4e 	bl	80013aa <alloc_unkommutativ>
 800090e:	bd00      	pop	{pc}

08000910 <Dictionary_105>:
 8000910:	0800095e 	stmdaeq	r0, {r1, r2, r3, r4, r6, r8, fp}
 8000914:	64020264 	strvs	r0, [r2], #-612	; 0xfffffd9c
 8000918:	 	svcgt	0x0007002b

0800091a <Code_105>:
 800091a:	cf07      	ldmia	r7!, {r0, r1, r2}
 800091c:	1812      	adds	r2, r2, r0
 800091e:	414e      	adcs	r6, r1
 8000920:	3f04      	subs	r7, #4
 8000922:	603a      	str	r2, [r7, #0]
 8000924:	4770      	bx	lr
 8000926:	b500      	push	{lr}
 8000928:	f7ff fdfd 	bl	8000526 <expect_four_elements>
 800092c:	f000 fb72 	bl	8001014 <rot_allocator>
 8000930:	f7ff fe0e 	bl	8000550 <expect_tos_in_register>
 8000934:	f7ff fe41 	bl	80005ba <make_tos_changeable>
 8000938:	f000 fb17 	bl	8000f6a <swap_allocator>
 800093c:	f7ff fe08 	bl	8000550 <expect_tos_in_register>
 8000940:	f7ff fe3b 	bl	80005ba <make_tos_changeable>
 8000944:	f7ff fe9c 	bl	8000680 <dswap_allocator>
 8000948:	f001 fd8d 	bl	8002466 <plus_allocator>
 800094c:	f000 fb7e 	bl	800104c <minusrot_allocator>
 8000950:	f847 6d04 	str.w	r6, [r7, #-4]!
 8000954:	f244 1640 	movw	r6, #16704	; 0x4140
 8000958:	f000 fd2b 	bl	80013b2 <alloc_kommutativ>
 800095c:	bd00      	pop	{pc}

0800095e <Dictionary_108>:
 800095e:	08000988 	stmdaeq	r0, {r3, r7, r8, fp}
 8000962:	73030261 	movwvc	r0, #12897	; 0x3261
 8000966:	 			; <UNDEFINED> instruction: 0xf847643e

08000968 <Code_108>:
 8000968:	f847 6d04 	str.w	r6, [r7, #-4]!
 800096c:	17f6      	asrs	r6, r6, #31
 800096e:	4770      	bx	lr
 8000970:	b500      	push	{lr}
 8000972:	f000 fac5 	bl	8000f00 <dup_allocator>
 8000976:	f7ff fe20 	bl	80005ba <make_tos_changeable>
 800097a:	f847 6d04 	str.w	r6, [r7, #-4]!
 800097e:	f241 76c0 	movw	r6, #6080	; 0x17c0
 8000982:	f001 fe21 	bl	80025c8 <smalltworegisters>
 8000986:	bd00      	pop	{pc}

08000988 <Dictionary_112>:
 8000988:	080009e6 	stmdaeq	r0, {r1, r2, r5, r6, r7, r8, fp}
 800098c:	75030262 	strvc	r0, [r3, #-610]	; 0xfffffd9e
 8000990:	 	ldmdavs	r8!, {r0, r2, r3, r5, r6, r9, fp, sp}

08000992 <Code_112>:
 8000992:	6838      	ldr	r0, [r7, #0]
 8000994:	fba0 0606 	umull	r0, r6, r0, r6
 8000998:	6038      	str	r0, [r7, #0]
 800099a:	4770      	bx	lr
 800099c:	f847 6d04 	str.w	r6, [r7, #-4]!
 80009a0:	f8df 6500 	ldr.w	r6, [pc, #1280]	; 8000ea4 <dgleichungleich_common+0x1c>

080009a4 <alloc_multiplikation_m3>:
 80009a4:	b500      	push	{lr}
 80009a6:	f7ff fda1 	bl	80004ec <expect_two_elements>
 80009aa:	f7ff fdd1 	bl	8000550 <expect_tos_in_register>
 80009ae:	f7ff fdd9 	bl	8000564 <expect_nos_in_register>
 80009b2:	6801      	ldr	r1, [r0, #0]
 80009b4:	430e      	orrs	r6, r1
 80009b6:	6881      	ldr	r1, [r0, #8]
 80009b8:	ea56 4601 	orrs.w	r6, r6, r1, lsl #16
 80009bc:	f7ff fc8f 	bl	80002de <eliminiere_tos>
 80009c0:	f7ff fc8d 	bl	80002de <eliminiere_tos>
 80009c4:	f7ff fc81 	bl	80002ca <befreie_tos>
 80009c8:	f7ff fd52 	bl	8000470 <get_free_register>
 80009cc:	6003      	str	r3, [r0, #0]
 80009ce:	ea56 3603 	orrs.w	r6, r6, r3, lsl #12
 80009d2:	f7ff fc7a 	bl	80002ca <befreie_tos>
 80009d6:	f7ff fd4b 	bl	8000470 <get_free_register>
 80009da:	6003      	str	r3, [r0, #0]
 80009dc:	ea56 2603 	orrs.w	r6, r6, r3, lsl #8
 80009e0:	f003 f806 	bl	80039f0 <Code_888>
 80009e4:	bd00      	pop	{pc}

080009e6 <Dictionary_114>:
 80009e6:	08000a04 	stmdaeq	r0, {r2, r9, fp}
 80009ea:	6d020262 	sfmvs	f0, 4, [r2, #-392]	; 0xfffffe78
 80009ee:	 	ldmdavs	r8!, {r1, r3, r5}

080009f0 <Code_114>:
 80009f0:	6838      	ldr	r0, [r7, #0]
 80009f2:	fb80 0606 	smull	r0, r6, r0, r6
 80009f6:	6038      	str	r0, [r7, #0]
 80009f8:	4770      	bx	lr
 80009fa:	f847 6d04 	str.w	r6, [r7, #-4]!
 80009fe:	f8df 64a8 	ldr.w	r6, [pc, #1192]	; 8000ea8 <dgleichungleich_common+0x20>
 8000a02:	e7cf      	b.n	80009a4 <alloc_multiplikation_m3>

08000a04 <Dictionary_116>:
 8000a04:	08000a42 	stmdaeq	r0, {r1, r6, r9, fp}
 8000a08:	75030044 	strvc	r0, [r3, #-68]	; 0xffffffbc
 8000a0c:	 	svcgt	0x00072a64

08000a0e <Code_116>:
 8000a0e:	cf07      	ldmia	r7!, {r0, r1, r2}

08000a10 <ud_star_registers>:
 8000a10:	4356      	muls	r6, r2
 8000a12:	4341      	muls	r1, r0
 8000a14:	1876      	adds	r6, r6, r1

08000a16 <ud_star_late_entry>:
 8000a16:	0c01      	lsrs	r1, r0, #16
 8000a18:	0c13      	lsrs	r3, r2, #16
 8000a1a:	4359      	muls	r1, r3
 8000a1c:	1876      	adds	r6, r6, r1
 8000a1e:	0c01      	lsrs	r1, r0, #16
 8000a20:	b280      	uxth	r0, r0
 8000a22:	b292      	uxth	r2, r2
 8000a24:	4351      	muls	r1, r2
 8000a26:	4343      	muls	r3, r0
 8000a28:	4350      	muls	r0, r2
 8000a2a:	2200      	movs	r2, #0
 8000a2c:	18c9      	adds	r1, r1, r3
 8000a2e:	4152      	adcs	r2, r2
 8000a30:	0412      	lsls	r2, r2, #16
 8000a32:	18b6      	adds	r6, r6, r2
 8000a34:	040a      	lsls	r2, r1, #16
 8000a36:	0c09      	lsrs	r1, r1, #16
 8000a38:	1880      	adds	r0, r0, r2
 8000a3a:	414e      	adcs	r6, r1
 8000a3c:	3f04      	subs	r7, #4
 8000a3e:	6038      	str	r0, [r7, #0]
 8000a40:	4770      	bx	lr

08000a42 <Dictionary_117>:
 8000a42:	08000ad4 	stmdaeq	r0, {r2, r4, r6, r7, r9, fp}
 8000a46:	75040044 	strvc	r0, [r4, #-68]	; 0xffffffbc
 8000a4a:	002a6d64 	eoreq	r6, sl, r4, ror #26

08000a4e <Code_117>:
 8000a4e:	b510      	push	{r4, lr}
 8000a50:	2400      	movs	r4, #0
 8000a52:	f847 6d04 	str.w	r6, [r7, #-4]!
 8000a56:	687e      	ldr	r6, [r7, #4]
 8000a58:	f847 6d04 	str.w	r6, [r7, #-4]!
 8000a5c:	693e      	ldr	r6, [r7, #16]
 8000a5e:	f7ff ff98 	bl	8000992 <Code_112>
 8000a62:	0031      	movs	r1, r6
 8000a64:	cf40      	ldmia	r7!, {r6}
 8000a66:	0030      	movs	r0, r6
 8000a68:	cf40      	ldmia	r7!, {r6}
 8000a6a:	f847 6d04 	str.w	r6, [r7, #-4]!
 8000a6e:	683e      	ldr	r6, [r7, #0]
 8000a70:	f847 6d04 	str.w	r6, [r7, #-4]!
 8000a74:	68fe      	ldr	r6, [r7, #12]
 8000a76:	b403      	push	{r0, r1}
 8000a78:	f7ff ff8b 	bl	8000992 <Code_112>
 8000a7c:	bc03      	pop	{r0, r1}
 8000a7e:	0033      	movs	r3, r6
 8000a80:	cf40      	ldmia	r7!, {r6}
 8000a82:	0032      	movs	r2, r6
 8000a84:	cf40      	ldmia	r7!, {r6}
 8000a86:	f847 6d04 	str.w	r6, [r7, #-4]!
 8000a8a:	683e      	ldr	r6, [r7, #0]
 8000a8c:	f847 6d04 	str.w	r6, [r7, #-4]!
 8000a90:	693e      	ldr	r6, [r7, #16]
 8000a92:	b40f      	push	{r0, r1, r2, r3}
 8000a94:	f7ff ff7d 	bl	8000992 <Code_112>
 8000a98:	bc0f      	pop	{r0, r1, r2, r3}
 8000a9a:	1992      	adds	r2, r2, r6
 8000a9c:	4163      	adcs	r3, r4
 8000a9e:	cf40      	ldmia	r7!, {r6}
 8000aa0:	1989      	adds	r1, r1, r6
 8000aa2:	4162      	adcs	r2, r4
 8000aa4:	4163      	adcs	r3, r4
 8000aa6:	cf40      	ldmia	r7!, {r6}
 8000aa8:	f847 6d04 	str.w	r6, [r7, #-4]!
 8000aac:	687e      	ldr	r6, [r7, #4]
 8000aae:	f847 6d04 	str.w	r6, [r7, #-4]!
 8000ab2:	68fe      	ldr	r6, [r7, #12]
 8000ab4:	b40f      	push	{r0, r1, r2, r3}
 8000ab6:	f7ff ff6c 	bl	8000992 <Code_112>
 8000aba:	bc0f      	pop	{r0, r1, r2, r3}
 8000abc:	1992      	adds	r2, r2, r6
 8000abe:	4163      	adcs	r3, r4
 8000ac0:	cf40      	ldmia	r7!, {r6}
 8000ac2:	1989      	adds	r1, r1, r6
 8000ac4:	4162      	adcs	r2, r4
 8000ac6:	4163      	adcs	r3, r4
 8000ac8:	cf40      	ldmia	r7!, {r6}
 8000aca:	001e      	movs	r6, r3
 8000acc:	603a      	str	r2, [r7, #0]
 8000ace:	6079      	str	r1, [r7, #4]
 8000ad0:	60b8      	str	r0, [r7, #8]
 8000ad2:	bd10      	pop	{r4, pc}

08000ad4 <Dictionary_134>:
 8000ad4:	08000af6 	stmdaeq	r0, {r1, r2, r4, r5, r6, r7, r9, fp}
 8000ad8:	2a020043 	bcs	8080bec <FlashDictionaryAnfang+0x60bec>
 8000adc:	 	strlt	r0, [r0, #-47]	; 0xffffffd1

08000ade <Code_134>:
 8000ade:	b500      	push	{lr}
 8000ae0:	b440      	push	{r6}
 8000ae2:	cf40      	ldmia	r7!, {r6}
 8000ae4:	f7ff ff84 	bl	80009f0 <Code_114>
 8000ae8:	f847 6d04 	str.w	r6, [r7, #-4]!
 8000aec:	bc40      	pop	{r6}
 8000aee:	f000 f84c 	bl	8000b8a <Code_157>
 8000af2:	3704      	adds	r7, #4
 8000af4:	bd00      	pop	{pc}

08000af6 <Dictionary_139>:
 8000af6:	08000b18 	stmdaeq	r0, {r3, r4, r8, r9, fp}
 8000afa:	2a050043 	bcs	8140c0e <FlashDictionaryEnde+0x40c0e>
 8000afe:	646f6d2f 	strbtvs	r6, [pc], #-3375	; 8000b06 <Code_139+0x4>

08000b02 <Code_139>:
 8000b02:	b500      	push	{lr}
 8000b04:	b440      	push	{r6}
 8000b06:	cf40      	ldmia	r7!, {r6}
 8000b08:	f7ff ff72 	bl	80009f0 <Code_114>
 8000b0c:	f847 6d04 	str.w	r6, [r7, #-4]!
 8000b10:	bc40      	pop	{r6}
 8000b12:	f000 f83a 	bl	8000b8a <Code_157>
 8000b16:	bd00      	pop	{pc}

08000b18 <Dictionary_143>:
 8000b18:	08000b3a 	stmdaeq	r0, {r1, r3, r4, r5, r8, r9, fp}
 8000b1c:	75030043 	strvc	r0, [r3, #-67]	; 0xffffffbd
 8000b20:	 	strlt	r2, [r0, #-3882]	; 0xfffff0d6

08000b22 <Code_143>:
 8000b22:	b500      	push	{lr}
 8000b24:	b440      	push	{r6}
 8000b26:	cf40      	ldmia	r7!, {r6}
 8000b28:	f7ff ff33 	bl	8000992 <Code_112>
 8000b2c:	f847 6d04 	str.w	r6, [r7, #-4]!
 8000b30:	bc40      	pop	{r6}
 8000b32:	f000 f81b 	bl	8000b6c <Code_152>
 8000b36:	3704      	adds	r7, #4
 8000b38:	bd00      	pop	{pc}

08000b3a <Dictionary_148>:
 8000b3a:	08000b5e 	stmdaeq	r0, {r1, r2, r3, r4, r6, r8, r9, fp}
 8000b3e:	75060043 	strvc	r0, [r6, #-67]	; 0xffffffbd
 8000b42:	6f6d2f2a 	svcvs	0x006d2f2a
 8000b46:	 	strlt	r0, [r0, #-100]	; 0xffffff9c

08000b48 <Code_148>:
 8000b48:	b500      	push	{lr}
 8000b4a:	b440      	push	{r6}
 8000b4c:	cf40      	ldmia	r7!, {r6}
 8000b4e:	f7ff ff20 	bl	8000992 <Code_112>
 8000b52:	f847 6d04 	str.w	r6, [r7, #-4]!
 8000b56:	bc40      	pop	{r6}
 8000b58:	f000 f808 	bl	8000b6c <Code_152>
 8000b5c:	bd00      	pop	{pc}

08000b5e <Dictionary_152>:
 8000b5e:	08000b7e 	stmdaeq	r0, {r1, r2, r3, r4, r5, r6, r8, r9, fp}
 8000b62:	75060043 	strvc	r0, [r6, #-67]	; 0xffffffbd
 8000b66:	6f6d2f6d 	svcvs	0x006d2f6d
 8000b6a:	 	strlt	r0, [r0, #-100]	; 0xffffff9c

08000b6c <Code_152>:
 8000b6c:	b500      	push	{lr}
 8000b6e:	f847 6d04 	str.w	r6, [r7, #-4]!
 8000b72:	2600      	movs	r6, #0
 8000b74:	f000 f819 	bl	8000baa <Code_161>
 8000b78:	cf40      	ldmia	r7!, {r6}
 8000b7a:	3704      	adds	r7, #4
 8000b7c:	bd00      	pop	{pc}

08000b7e <Dictionary_157>:
 8000b7e:	08000b9c 	stmdaeq	r0, {r2, r3, r4, r7, r8, r9, fp}
 8000b82:	6d050043 	stcvs	0, cr0, [r5, #-268]	; 0xfffffef4
 8000b86:	646f6d2f 	strbtvs	r6, [pc], #-3375	; 8000b8e <Code_157+0x4>

08000b8a <Code_157>:
 8000b8a:	b500      	push	{lr}
 8000b8c:	f847 6d04 	str.w	r6, [r7, #-4]!
 8000b90:	17f6      	asrs	r6, r6, #31
 8000b92:	f000 f832 	bl	8000bfa <Code_163>
 8000b96:	cf40      	ldmia	r7!, {r6}
 8000b98:	3704      	adds	r7, #4
 8000b9a:	bd00      	pop	{pc}

08000b9c <Dictionary_161>:
 8000b9c:	08000bee 	stmdaeq	r0, {r1, r2, r3, r5, r6, r7, r8, r9, fp}
 8000ba0:	75060044 	strvc	r0, [r6, #-68]	; 0xffffffbc
 8000ba4:	6f6d2f64 	svcvs	0x006d2f64
 8000ba8:	 	ldrtlt	r0, [r0], #-100	; 0xffffff9c

08000baa <Code_161>:
 8000baa:	b430      	push	{r4, r5}
 8000bac:	2300      	movs	r3, #0
 8000bae:	2200      	movs	r2, #0
 8000bb0:	6879      	ldr	r1, [r7, #4]
 8000bb2:	68b8      	ldr	r0, [r7, #8]

08000bb4 <ud_slash_mod_internal>:
 8000bb4:	0035      	movs	r5, r6
 8000bb6:	683c      	ldr	r4, [r7, #0]
 8000bb8:	2640      	movs	r6, #64	; 0x40
 8000bba:	0040      	lsls	r0, r0, #1
 8000bbc:	4149      	adcs	r1, r1
 8000bbe:	4152      	adcs	r2, r2
 8000bc0:	415b      	adcs	r3, r3
 8000bc2:	42ab      	cmp	r3, r5
 8000bc4:	d802      	bhi.n	8000bcc <ud_slash_mod_internal+0x18>
 8000bc6:	d304      	bcc.n	8000bd2 <ud_slash_mod_internal+0x1e>
 8000bc8:	42a2      	cmp	r2, r4
 8000bca:	d302      	bcc.n	8000bd2 <ud_slash_mod_internal+0x1e>
 8000bcc:	1b12      	subs	r2, r2, r4
 8000bce:	41ab      	sbcs	r3, r5
 8000bd0:	3001      	adds	r0, #1
 8000bd2:	3e01      	subs	r6, #1
 8000bd4:	d1f1      	bne.n	8000bba <ud_slash_mod_internal+0x6>
 8000bd6:	000e      	movs	r6, r1
 8000bd8:	6038      	str	r0, [r7, #0]
 8000bda:	607b      	str	r3, [r7, #4]
 8000bdc:	60ba      	str	r2, [r7, #8]
 8000bde:	bc30      	pop	{r4, r5}
 8000be0:	4770      	bx	lr

08000be2 <uf_slash_mod>:
 8000be2:	b430      	push	{r4, r5}
 8000be4:	2300      	movs	r3, #0
 8000be6:	687a      	ldr	r2, [r7, #4]
 8000be8:	68b9      	ldr	r1, [r7, #8]
 8000bea:	2000      	movs	r0, #0
 8000bec:	e7e2      	b.n	8000bb4 <ud_slash_mod_internal>

08000bee <Dictionary_163>:
 8000bee:	08000c64 	stmdaeq	r0, {r2, r5, r6, sl, fp}
 8000bf2:	64050044 	strvs	r0, [r5], #-68	; 0xffffffbc
 8000bf6:	646f6d2f 	strbtvs	r6, [pc], #-3375	; 8000bfe <Code_163+0x4>

08000bfa <Code_163>:
 8000bfa:	b500      	push	{lr}
 8000bfc:	17f0      	asrs	r0, r6, #31
 8000bfe:	d019      	beq.n	8000c34 <Code_163+0x3a>
 8000c00:	f7ff fe56 	bl	80008b0 <Code_101>
 8000c04:	f7ff fd33 	bl	800066e <Code_72>
 8000c08:	17f0      	asrs	r0, r6, #31
 8000c0a:	d00c      	beq.n	8000c26 <Code_163+0x2c>
 8000c0c:	f7ff fe50 	bl	80008b0 <Code_101>
 8000c10:	f7ff fd2d 	bl	800066e <Code_72>
 8000c14:	f7ff ffc9 	bl	8000baa <Code_161>
 8000c18:	f7ff fd29 	bl	800066e <Code_72>
 8000c1c:	f7ff fe48 	bl	80008b0 <Code_101>
 8000c20:	f7ff fd25 	bl	800066e <Code_72>
 8000c24:	bd00      	pop	{pc}
 8000c26:	f7ff fd22 	bl	800066e <Code_72>
 8000c2a:	f7ff ffbe 	bl	8000baa <Code_161>
 8000c2e:	f7ff fe3f 	bl	80008b0 <Code_101>
 8000c32:	bd00      	pop	{pc}
 8000c34:	f7ff fd1b 	bl	800066e <Code_72>
 8000c38:	17f0      	asrs	r0, r6, #31
 8000c3a:	d00e      	beq.n	8000c5a <Code_163+0x60>
 8000c3c:	f7ff fe38 	bl	80008b0 <Code_101>
 8000c40:	f7ff fd15 	bl	800066e <Code_72>
 8000c44:	f7ff ffb1 	bl	8000baa <Code_161>
 8000c48:	f7ff fe32 	bl	80008b0 <Code_101>
 8000c4c:	f7ff fd0f 	bl	800066e <Code_72>
 8000c50:	f7ff fe2e 	bl	80008b0 <Code_101>
 8000c54:	f7ff fd0b 	bl	800066e <Code_72>
 8000c58:	bd00      	pop	{pc}
 8000c5a:	f7ff fd08 	bl	800066e <Code_72>
 8000c5e:	f7ff ffa4 	bl	8000baa <Code_161>
 8000c62:	bd00      	pop	{pc}

08000c64 <Dictionary_164>:
 8000c64:	08000c7a 	stmdaeq	r0, {r1, r3, r4, r5, r6, sl, fp}
 8000c68:	64020044 	strvs	r0, [r2], #-68	; 0xffffffbc
 8000c6c:	 	strlt	r0, [r0, #-47]	; 0xffffffd1

08000c6e <Code_164>:
 8000c6e:	b500      	push	{lr}
 8000c70:	f7ff ffc3 	bl	8000bfa <Code_163>
 8000c74:	f7ff fd1e 	bl	80006b4 <Code_74>
 8000c78:	bd00      	pop	{pc}

08000c7a <Dictionary_165>:
 8000c7a:	08000cc2 	stmdaeq	r0, {r1, r6, r7, sl, fp}
 8000c7e:	66020044 	strvs	r0, [r2], -r4, asr #32
 8000c82:	 	strlt	r0, [r0, #-42]	; 0xffffffd6

08000c84 <Code_165>:
 8000c84:	b500      	push	{lr}
 8000c86:	17f0      	asrs	r0, r6, #31
 8000c88:	d00d      	beq.n	8000ca6 <Code_165+0x22>
 8000c8a:	f7ff fe11 	bl	80008b0 <Code_101>
 8000c8e:	f7ff fcee 	bl	800066e <Code_72>
 8000c92:	17f0      	asrs	r0, r6, #31
 8000c94:	d00d      	beq.n	8000cb2 <Code_165+0x2e>
 8000c96:	f7ff fe0b 	bl	80008b0 <Code_101>
 8000c9a:	f7ff fed8 	bl	8000a4e <Code_117>
 8000c9e:	cf40      	ldmia	r7!, {r6}
 8000ca0:	cf01      	ldmia	r7!, {r0}
 8000ca2:	6038      	str	r0, [r7, #0]
 8000ca4:	bd00      	pop	{pc}
 8000ca6:	f7ff fce2 	bl	800066e <Code_72>
 8000caa:	17f0      	asrs	r0, r6, #31
 8000cac:	d0f5      	beq.n	8000c9a <Code_165+0x16>
 8000cae:	f7ff fdff 	bl	80008b0 <Code_101>
 8000cb2:	f7ff fecc 	bl	8000a4e <Code_117>
 8000cb6:	cf40      	ldmia	r7!, {r6}
 8000cb8:	cf01      	ldmia	r7!, {r0}
 8000cba:	6038      	str	r0, [r7, #0]
 8000cbc:	f7ff fdf8 	bl	80008b0 <Code_101>
 8000cc0:	bd00      	pop	{pc}

08000cc2 <Dictionary_168>:
 8000cc2:	08000d0e 	stmdaeq	r0, {r1, r2, r3, r8, sl, fp}
 8000cc6:	66020044 	strvs	r0, [r2], -r4, asr #32
 8000cca:	 	strlt	r0, [r0, #-47]	; 0xffffffd1

08000ccc <Code_168>:
 8000ccc:	b500      	push	{lr}
 8000cce:	17f0      	asrs	r0, r6, #31
 8000cd0:	d00e      	beq.n	8000cf0 <Code_168+0x24>
 8000cd2:	f7ff fded 	bl	80008b0 <Code_101>
 8000cd6:	f7ff fcca 	bl	800066e <Code_72>
 8000cda:	17f0      	asrs	r0, r6, #31
 8000cdc:	d00e      	beq.n	8000cfc <Code_168+0x30>
 8000cde:	f7ff fde7 	bl	80008b0 <Code_101>
 8000ce2:	f7ff fcc4 	bl	800066e <Code_72>
 8000ce6:	f7ff ff7c 	bl	8000be2 <uf_slash_mod>
 8000cea:	f7ff fce3 	bl	80006b4 <Code_74>
 8000cee:	bd00      	pop	{pc}
 8000cf0:	f7ff fcbd 	bl	800066e <Code_72>
 8000cf4:	17f0      	asrs	r0, r6, #31
 8000cf6:	d0f4      	beq.n	8000ce2 <Code_168+0x16>
 8000cf8:	f7ff fdda 	bl	80008b0 <Code_101>
 8000cfc:	f7ff fcb7 	bl	800066e <Code_72>
 8000d00:	f7ff ff6f 	bl	8000be2 <uf_slash_mod>
 8000d04:	f7ff fdd4 	bl	80008b0 <Code_101>
 8000d08:	f7ff fcd4 	bl	80006b4 <Code_74>
 8000d0c:	bd00      	pop	{pc}

08000d0e <Dictionary_169>:
 8000d0e:	08000d56 	stmdaeq	r0, {r1, r2, r4, r6, r8, sl, fp}
 8000d12:	32020220 	andcc	r0, r2, #32, 4
 8000d16:	 	svcgt	0x00060021

08000d18 <Code_169>:
 8000d18:	cf06      	ldmia	r7!, {r1, r2}
 8000d1a:	6031      	str	r1, [r6, #0]
 8000d1c:	6072      	str	r2, [r6, #4]
 8000d1e:	cf40      	ldmia	r7!, {r6}
 8000d20:	4770      	bx	lr
 8000d22:	b500      	push	{lr}
 8000d24:	f7ff fbef 	bl	8000506 <expect_three_elements>
 8000d28:	6801      	ldr	r1, [r0, #0]
 8000d2a:	6842      	ldr	r2, [r0, #4]
 8000d2c:	b406      	push	{r1, r2}
 8000d2e:	f000 fe0c 	bl	800194a <allocator_4store>
 8000d32:	f7ff faca 	bl	80002ca <befreie_tos>
 8000d36:	bc06      	pop	{r1, r2}
 8000d38:	6001      	str	r1, [r0, #0]
 8000d3a:	2928      	cmp	r1, #40	; 0x28
 8000d3c:	d006      	beq.n	8000d4c <Code_169+0x34>
 8000d3e:	f847 6d04 	str.w	r6, [r7, #-4]!
 8000d42:	f246 0640 	movw	r6, #24640	; 0x6040
 8000d46:	f000 fe04 	bl	8001952 <allocator_4store_anderer_opcode>
 8000d4a:	bd00      	pop	{pc}
 8000d4c:	3204      	adds	r2, #4
 8000d4e:	6042      	str	r2, [r0, #4]
 8000d50:	f000 fdfb 	bl	800194a <allocator_4store>
 8000d54:	bd00      	pop	{pc}

08000d56 <Dictionary_173>:
 8000d56:	08000da0 	stmdaeq	r0, {r5, r7, r8, sl, fp}
 8000d5a:	32020220 	andcc	r0, r2, #32, 4
 8000d5e:	 	svccc	0x00040040

08000d60 <Code_173>:
 8000d60:	3f04      	subs	r7, #4
 8000d62:	6870      	ldr	r0, [r6, #4]
 8000d64:	6038      	str	r0, [r7, #0]
 8000d66:	6836      	ldr	r6, [r6, #0]
 8000d68:	4770      	bx	lr
 8000d6a:	b500      	push	{lr}
 8000d6c:	f000 f8c8 	bl	8000f00 <dup_allocator>
 8000d70:	6801      	ldr	r1, [r0, #0]
 8000d72:	2928      	cmp	r1, #40	; 0x28
 8000d74:	d00a      	beq.n	8000d8c <Code_173+0x2c>
 8000d76:	f847 6d04 	str.w	r6, [r7, #-4]!
 8000d7a:	f646 0640 	movw	r6, #26688	; 0x6840
 8000d7e:	f000 fdc5 	bl	800190c <allocator_4fetch_anderer_opcode>
 8000d82:	f000 f8f2 	bl	8000f6a <swap_allocator>
 8000d86:	f000 fdbd 	bl	8001904 <allocator_4fetch>
 8000d8a:	bd00      	pop	{pc}
 8000d8c:	6841      	ldr	r1, [r0, #4]
 8000d8e:	3104      	adds	r1, #4
 8000d90:	6041      	str	r1, [r0, #4]
 8000d92:	f000 fdb7 	bl	8001904 <allocator_4fetch>
 8000d96:	f000 f8e8 	bl	8000f6a <swap_allocator>
 8000d9a:	f000 fdb3 	bl	8001904 <allocator_4fetch>
 8000d9e:	bd00      	pop	{pc}

08000da0 <Dictionary_176>:
 8000da0:	08000db4 	stmdaeq	r0, {r2, r4, r5, r7, r8, sl, fp}
 8000da4:	64030044 	strvs	r0, [r3], #-68	; 0xffffffbc
 8000da8:	 	svcgt	0x00073c75

08000daa <Code_176>:
 8000daa:	cf07      	ldmia	r7!, {r0, r1, r2}
 8000dac:	1a12      	subs	r2, r2, r0
 8000dae:	41b1      	sbcs	r1, r6
 8000db0:	41b6      	sbcs	r6, r6
 8000db2:	4770      	bx	lr

08000db4 <Dictionary_177>:
 8000db4:	08000dc8 	stmdaeq	r0, {r3, r6, r7, r8, sl, fp}
 8000db8:	64030044 	strvs	r0, [r3], #-68	; 0xffffffbc
 8000dbc:	 	svcgt	0x00073e75

08000dbe <Code_177>:
 8000dbe:	cf07      	ldmia	r7!, {r0, r1, r2}
 8000dc0:	1a80      	subs	r0, r0, r2
 8000dc2:	418e      	sbcs	r6, r1
 8000dc4:	41b6      	sbcs	r6, r6
 8000dc6:	4770      	bx	lr

08000dc8 <Dictionary_178>:
 8000dc8:	08000dde 	stmdaeq	r0, {r1, r2, r3, r4, r6, r7, r8, sl, fp}
 8000dcc:	64020044 	strvs	r0, [r2], #-68	; 0xffffffbc
 8000dd0:	 	svcgt	0x0007003c

08000dd2 <Code_178>:
 8000dd2:	cf07      	ldmia	r7!, {r0, r1, r2}
 8000dd4:	1a12      	subs	r2, r2, r0
 8000dd6:	41b1      	sbcs	r1, r6
 8000dd8:	db0c      	blt.n	8000df4 <Code_179+0xc>
 8000dda:	2600      	movs	r6, #0
 8000ddc:	4770      	bx	lr

08000dde <Dictionary_179>:
 8000dde:	08000dfa 	stmdaeq	r0, {r1, r3, r4, r5, r6, r7, r8, sl, fp}
 8000de2:	64020044 	strvs	r0, [r2], #-68	; 0xffffffbc
 8000de6:	 	svcgt	0x0007003e

08000de8 <Code_179>:
 8000de8:	cf07      	ldmia	r7!, {r0, r1, r2}
 8000dea:	1a80      	subs	r0, r0, r2
 8000dec:	418e      	sbcs	r6, r1
 8000dee:	db01      	blt.n	8000df4 <Code_179+0xc>
 8000df0:	2600      	movs	r6, #0
 8000df2:	4770      	bx	lr
 8000df4:	2600      	movs	r6, #0
 8000df6:	43f6      	mvns	r6, r6
 8000df8:	4770      	bx	lr

08000dfa <Dictionary_180>:
 8000dfa:	08000e16 	stmdaeq	r0, {r1, r2, r4, r9, sl, fp}
 8000dfe:	64030262 	strvs	r0, [r3], #-610	; 0xfffffd9e
 8000e02:	 	smladxcc	r4, r0, ip, r3

08000e04 <Code_180>:
 8000e04:	3704      	adds	r7, #4
 8000e06:	17f6      	asrs	r6, r6, #31
 8000e08:	4770      	bx	lr
 8000e0a:	b500      	push	{lr}
 8000e0c:	f000 f8c0 	bl	8000f90 <nip_allocator>
 8000e10:	f000 fb58 	bl	80014c4 <alloc_nullkleiner>
 8000e14:	bd00      	pop	{pc}

08000e16 <Dictionary_181>:
 8000e16:	08000e3e 	stmdaeq	r0, {r1, r2, r3, r4, r5, r9, sl, fp}
 8000e1a:	64030262 	strvs	r0, [r3], #-610	; 0xfffffd9e
 8000e1e:	 	svcgt	0x00013d30

08000e20 <Code_181>:
 8000e20:	cf01      	ldmia	r7!, {r0}
 8000e22:	4306      	orrs	r6, r0
 8000e24:	3e01      	subs	r6, #1
 8000e26:	41b6      	sbcs	r6, r6
 8000e28:	4770      	bx	lr
 8000e2a:	b500      	push	{lr}
 8000e2c:	f847 6d04 	str.w	r6, [r7, #-4]!
 8000e30:	f244 3600 	movw	r6, #17152	; 0x4300
 8000e34:	f000 fabd 	bl	80013b2 <alloc_kommutativ>
 8000e38:	f000 fb1e 	bl	8001478 <allocator_equal_zero>
 8000e3c:	bd00      	pop	{pc}

08000e3e <Dictionary_184>:
 8000e3e:	08000e64 	stmdaeq	r0, {r2, r5, r6, r9, sl, fp}
 8000e42:	64030244 	strvs	r0, [r3], #-580	; 0xfffffdbc
 8000e46:	 	svcgt	0x00073e3c

08000e48 <Code_184>:
 8000e48:	cf07      	ldmia	r7!, {r0, r1, r2}
 8000e4a:	4050      	eors	r0, r2
 8000e4c:	404e      	eors	r6, r1
 8000e4e:	4306      	orrs	r6, r0
 8000e50:	3e01      	subs	r6, #1
 8000e52:	41b6      	sbcs	r6, r6
 8000e54:	43f6      	mvns	r6, r6
 8000e56:	4770      	bx	lr
 8000e58:	b500      	push	{lr}
 8000e5a:	f000 f815 	bl	8000e88 <dgleichungleich_common>
 8000e5e:	f000 fb1f 	bl	80014a0 <allocator_unequal_zero>
 8000e62:	bd00      	pop	{pc}

08000e64 <Dictionary_185>:
 8000e64:	08000eac 	stmdaeq	r0, {r2, r3, r5, r7, r9, sl, fp}
 8000e68:	64020244 	strvs	r0, [r2], #-580	; 0xfffffdbc
 8000e6c:	 	svcgt	0x0007003d

08000e6e <Code_185>:
 8000e6e:	cf07      	ldmia	r7!, {r0, r1, r2}
 8000e70:	4050      	eors	r0, r2
 8000e72:	404e      	eors	r6, r1
 8000e74:	4306      	orrs	r6, r0
 8000e76:	3e01      	subs	r6, #1
 8000e78:	41b6      	sbcs	r6, r6
 8000e7a:	4770      	bx	lr
 8000e7c:	b500      	push	{lr}
 8000e7e:	f000 f803 	bl	8000e88 <dgleichungleich_common>
 8000e82:	f000 faf9 	bl	8001478 <allocator_equal_zero>
 8000e86:	bd00      	pop	{pc}

08000e88 <dgleichungleich_common>:
 8000e88:	b500      	push	{lr}
 8000e8a:	f7ff fb4c 	bl	8000526 <expect_four_elements>
 8000e8e:	f000 f8c1 	bl	8001014 <rot_allocator>
 8000e92:	f000 f9c3 	bl	800121c <xor_allocator>
 8000e96:	f000 f8d9 	bl	800104c <minusrot_allocator>
 8000e9a:	f000 f9bf 	bl	800121c <xor_allocator>
 8000e9e:	f000 f9b0 	bl	8001202 <or_allocator>
 8000ea2:	bd00      	pop	{pc}
 8000ea4:	fba00000 	blx	6800eae <stack_canary+0x26df529>
 8000ea8:	fb800000 	blx	6000eb2 <stack_canary+0x1edf52d>

08000eac <Dictionary_186>:
 8000eac:	08000ebe 	stmdaeq	r0, {r1, r2, r3, r4, r5, r7, r9, sl, fp}
 8000eb0:	73030020 	movwvc	r0, #12320	; 0x3020
 8000eb4:	 			; <UNDEFINED> instruction: 0xf8474070

08000eb6 <Code_186>:
 8000eb6:	f847 6d04 	str.w	r6, [r7, #-4]!
 8000eba:	003e      	movs	r6, r7
 8000ebc:	4770      	bx	lr

08000ebe <Dictionary_188>:
 8000ebe:	08000ece 	stmdaeq	r0, {r1, r2, r3, r6, r7, r9, sl, fp}
 8000ec2:	73030020 	movwvc	r0, #12320	; 0x3020
 8000ec6:	 	eorseq	r2, r7, r0, ror r1

08000ec8 <Code_188>:
 8000ec8:	0037      	movs	r7, r6
 8000eca:	cf40      	ldmia	r7!, {r6}
 8000ecc:	4770      	bx	lr

08000ece <Dictionary_189>:
 8000ece:	08000ee0 	stmdaeq	r0, {r5, r6, r7, r9, sl, fp}
 8000ed2:	72030020 	andvc	r0, r3, #32
 8000ed6:	 			; <UNDEFINED> instruction: 0xf8474070

08000ed8 <Code_189>:
 8000ed8:	f847 6d04 	str.w	r6, [r7, #-4]!
 8000edc:	466e      	mov	r6, sp
 8000ede:	4770      	bx	lr

08000ee0 <Dictionary_191>:
 8000ee0:	08000ef0 	stmdaeq	r0, {r4, r5, r6, r7, r9, sl, fp}
 8000ee4:	72030020 	andvc	r0, r3, #32
 8000ee8:	 			; <UNDEFINED> instruction: 0x46b52170

08000eea <Code_191>:
 8000eea:	46b5      	mov	sp, r6
 8000eec:	cf40      	ldmia	r7!, {r6}
 8000eee:	4770      	bx	lr

08000ef0 <Dictionary_192>:
 8000ef0:	08000f14 	stmdaeq	r0, {r2, r4, r8, r9, sl, fp}
 8000ef4:	64030261 	strvs	r0, [r3], #-609	; 0xfffffd9f
 8000ef8:	 			; <UNDEFINED> instruction: 0xf8477075

08000efa <Code_192>:
 8000efa:	f847 6d04 	str.w	r6, [r7, #-4]!
 8000efe:	4770      	bx	lr

08000f00 <dup_allocator>:
 8000f00:	b506      	push	{r1, r2, lr}
 8000f02:	f7ff fae9 	bl	80004d8 <expect_one_element>
 8000f06:	6801      	ldr	r1, [r0, #0]
 8000f08:	6842      	ldr	r2, [r0, #4]
 8000f0a:	f7ff f9de 	bl	80002ca <befreie_tos>
 8000f0e:	6001      	str	r1, [r0, #0]
 8000f10:	6042      	str	r2, [r0, #4]
 8000f12:	bd06      	pop	{r1, r2, pc}

08000f14 <Dictionary_195>:
 8000f14:	08000f40 	stmdaeq	r0, {r6, r8, r9, sl, fp}
 8000f18:	64040261 	strvs	r0, [r4], #-609	; 0xfffffd9f
 8000f1c:	00706f72 	rsbseq	r6, r0, r2, ror pc

08000f20 <Code_195>:
 8000f20:	cf40      	ldmia	r7!, {r6}
 8000f22:	4770      	bx	lr

08000f24 <drop_allocator>:
 8000f24:	b500      	push	{lr}
 8000f26:	6801      	ldr	r1, [r0, #0]
 8000f28:	291e      	cmp	r1, #30
 8000f2a:	d106      	bne.n	8000f3a <drop_allocator+0x16>
 8000f2c:	f847 6d04 	str.w	r6, [r7, #-4]!
 8000f30:	f243 7604 	movw	r6, #14084	; 0x3704
 8000f34:	f002 fd2c 	bl	8003990 <Code_879>
 8000f38:	bd00      	pop	{pc}
 8000f3a:	f7ff f9d0 	bl	80002de <eliminiere_tos>
 8000f3e:	bd00      	pop	{pc}

08000f40 <Dictionary_199>:
 8000f40:	08000f56 	stmdaeq	r0, {r1, r2, r4, r6, r8, r9, sl, fp}
 8000f44:	3f040061 	svccc	0x00040061
 8000f48:	00707564 	rsbseq	r7, r0, r4, ror #10

08000f4c <Code_199>:
 8000f4c:	2e00      	cmp	r6, #0
 8000f4e:	d001      	beq.n	8000f54 <Code_199+0x8>
 8000f50:	f847 6d04 	str.w	r6, [r7, #-4]!
 8000f54:	4770      	bx	lr

08000f56 <Dictionary_201>:
 8000f56:	08000f82 	stmdaeq	r0, {r1, r7, r8, r9, sl, fp}
 8000f5a:	73040262 	movwvc	r0, #16994	; 0x4262
 8000f5e:	00706177 	rsbseq	r6, r0, r7, ror r1

08000f62 <Code_201>:
 8000f62:	6839      	ldr	r1, [r7, #0]
 8000f64:	603e      	str	r6, [r7, #0]
 8000f66:	000e      	movs	r6, r1
 8000f68:	4770      	bx	lr

08000f6a <swap_allocator>:
 8000f6a:	b50c      	push	{r2, r3, lr}
 8000f6c:	f7ff fabe 	bl	80004ec <expect_two_elements>
 8000f70:	6802      	ldr	r2, [r0, #0]
 8000f72:	6883      	ldr	r3, [r0, #8]
 8000f74:	6003      	str	r3, [r0, #0]
 8000f76:	6082      	str	r2, [r0, #8]
 8000f78:	6842      	ldr	r2, [r0, #4]
 8000f7a:	68c3      	ldr	r3, [r0, #12]
 8000f7c:	6043      	str	r3, [r0, #4]
 8000f7e:	60c2      	str	r2, [r0, #12]
 8000f80:	bd0c      	pop	{r2, r3, pc}

08000f82 <Dictionary_202>:
 8000f82:	08000fb0 	stmdaeq	r0, {r4, r5, r7, r8, r9, sl, fp}
 8000f86:	6e030262 	cdpvs	2, 0, cr0, cr3, cr2, {3}
 8000f8a:	 	strcc	r7, [r4, -r9, rrx]

08000f8c <Code_202>:
 8000f8c:	3704      	adds	r7, #4
 8000f8e:	4770      	bx	lr

08000f90 <nip_allocator>:
 8000f90:	b500      	push	{lr}
 8000f92:	f7ff faa1 	bl	80004d8 <expect_one_element>
 8000f96:	6881      	ldr	r1, [r0, #8]
 8000f98:	291e      	cmp	r1, #30
 8000f9a:	d002      	beq.n	8000fa2 <nip_allocator+0x12>
 8000f9c:	f7ff f9a5 	bl	80002ea <eliminiere_nos>
 8000fa0:	bd00      	pop	{pc}
 8000fa2:	f847 6d04 	str.w	r6, [r7, #-4]!
 8000fa6:	f243 7604 	movw	r6, #14084	; 0x3704
 8000faa:	f002 fcf1 	bl	8003990 <Code_879>
 8000fae:	bd00      	pop	{pc}

08000fb0 <Dictionary_206>:
 8000fb0:	08000fd8 	stmdaeq	r0, {r3, r4, r6, r7, r8, r9, sl, fp}
 8000fb4:	6f040262 	svcvs	0x00040262
 8000fb8:	00726576 	rsbseq	r6, r2, r6, ror r5

08000fbc <Code_206>:
 8000fbc:	f847 6d04 	str.w	r6, [r7, #-4]!
 8000fc0:	687e      	ldr	r6, [r7, #4]
 8000fc2:	4770      	bx	lr

08000fc4 <over_allocator>:
 8000fc4:	b500      	push	{lr}
 8000fc6:	f7ff fa91 	bl	80004ec <expect_two_elements>
 8000fca:	6881      	ldr	r1, [r0, #8]
 8000fcc:	68c2      	ldr	r2, [r0, #12]
 8000fce:	f7ff f97c 	bl	80002ca <befreie_tos>
 8000fd2:	6001      	str	r1, [r0, #0]
 8000fd4:	6042      	str	r2, [r0, #4]
 8000fd6:	bd00      	pop	{pc}

08000fd8 <Dictionary_208>:
 8000fd8:	08000ffe 	stmdaeq	r0, {r1, r2, r3, r4, r5, r6, r7, r8, r9, sl, fp}
 8000fdc:	74040262 	strvc	r0, [r4], #-610	; 0xfffffd9e
 8000fe0:	006b6375 	rsbeq	r6, fp, r5, ror r3

08000fe4 <Code_208>:
 8000fe4:	cf01      	ldmia	r7!, {r0}
 8000fe6:	3f08      	subs	r7, #8
 8000fe8:	607e      	str	r6, [r7, #4]
 8000fea:	6038      	str	r0, [r7, #0]
 8000fec:	4770      	bx	lr
 8000fee:	b500      	push	{lr}
 8000ff0:	f7ff fa7c 	bl	80004ec <expect_two_elements>
 8000ff4:	f7ff ff84 	bl	8000f00 <dup_allocator>
 8000ff8:	f000 f828 	bl	800104c <minusrot_allocator>
 8000ffc:	bd00      	pop	{pc}

08000ffe <Dictionary_209>:
 8000ffe:	08001034 	stmdaeq	r0, {r2, r4, r5, ip}
 8001002:	72030263 	andvc	r0, r3, #805306374	; 0x30000006
 8001006:	 	svcgt	0x0003746f

08001008 <Code_209>:
 8001008:	cf03      	ldmia	r7!, {r0, r1}
 800100a:	3f08      	subs	r7, #8
 800100c:	6078      	str	r0, [r7, #4]
 800100e:	603e      	str	r6, [r7, #0]
 8001010:	000e      	movs	r6, r1
 8001012:	4770      	bx	lr

08001014 <rot_allocator>:
 8001014:	b50e      	push	{r1, r2, r3, lr}
 8001016:	f7ff fa76 	bl	8000506 <expect_three_elements>
 800101a:	6801      	ldr	r1, [r0, #0]
 800101c:	6882      	ldr	r2, [r0, #8]
 800101e:	6903      	ldr	r3, [r0, #16]
 8001020:	6081      	str	r1, [r0, #8]
 8001022:	6102      	str	r2, [r0, #16]
 8001024:	6003      	str	r3, [r0, #0]
 8001026:	6841      	ldr	r1, [r0, #4]
 8001028:	68c2      	ldr	r2, [r0, #12]
 800102a:	6943      	ldr	r3, [r0, #20]
 800102c:	60c1      	str	r1, [r0, #12]
 800102e:	6142      	str	r2, [r0, #20]
 8001030:	6043      	str	r3, [r0, #4]
 8001032:	bd0e      	pop	{r1, r2, r3, pc}

08001034 <Dictionary_210>:
 8001034:	08001058 	stmdaeq	r0, {r3, r4, r6, ip}
 8001038:	2d040263 	sfmcs	f0, 4, [r4, #-396]	; 0xfffffe74
 800103c:	00746f72 	rsbseq	r6, r4, r2, ror pc

08001040 <Code_210>:
 8001040:	cf03      	ldmia	r7!, {r0, r1}
 8001042:	3f08      	subs	r7, #8
 8001044:	607e      	str	r6, [r7, #4]
 8001046:	6039      	str	r1, [r7, #0]
 8001048:	0006      	movs	r6, r0
 800104a:	4770      	bx	lr

0800104c <minusrot_allocator>:
 800104c:	b500      	push	{lr}
 800104e:	f7ff ffe1 	bl	8001014 <rot_allocator>
 8001052:	f7ff ffdf 	bl	8001014 <rot_allocator>
 8001056:	bd00      	pop	{pc}

08001058 <Dictionary_211>:
 8001058:	0800106a 	stmdaeq	r0, {r1, r3, r5, r6, ip}
 800105c:	70040020 	andvc	r0, r4, r0, lsr #32
 8001060:	006b6369 	rsbeq	r6, fp, r9, ror #6

08001064 <Code_211>:
 8001064:	f857 6026 	ldr.w	r6, [r7, r6, lsl #2]
 8001068:	4770      	bx	lr

0800106a <Dictionary_212>:
 800106a:	08001082 	stmdaeq	r0, {r1, r7, ip}
 800106e:	64050000 	strvs	r0, [r5], #-0
 8001072:	68747065 	ldmdavs	r4!, {r0, r2, r5, r6, ip, sp, lr}^

08001076 <Code_212>:
 8001076:	494f      	ldr	r1, [pc, #316]	; (80011b4 <Code_231+0x1c>)
 8001078:	1bc9      	subs	r1, r1, r7
 800107a:	f847 6d04 	str.w	r6, [r7, #-4]!
 800107e:	108e      	asrs	r6, r1, #2
 8001080:	4770      	bx	lr

08001082 <Dictionary_214>:
 8001082:	0800109e 	stmdaeq	r0, {r1, r2, r3, r4, r7, ip}
 8001086:	72060000 	andvc	r0, r6, #0
 800108a:	74706564 	ldrbtvc	r6, [r0], #-1380	; 0xfffffa9c
 800108e:	 			; <UNDEFINED> instruction: 0xf8470068

08001090 <Code_214>:
 8001090:	f847 6d04 	str.w	r6, [r7, #-4]!
 8001094:	466e      	mov	r6, sp
 8001096:	4948      	ldr	r1, [pc, #288]	; (80011b8 <Code_231+0x20>)
 8001098:	1b89      	subs	r1, r1, r6
 800109a:	108e      	asrs	r6, r1, #2
 800109c:	4770      	bx	lr

0800109e <Dictionary_216>:
 800109e:	080010d4 	stmdaeq	r0, {r2, r4, r6, r7, ip}
 80010a2:	3e020220 	cdpcc	2, 0, cr0, cr2, cr0, {1}
 80010a6:	 	strblt	r0, [r0], #-114	; 0xffffff8e

080010a8 <Code_216>:
 80010a8:	b440      	push	{r6}
 80010aa:	cf40      	ldmia	r7!, {r6}
 80010ac:	4770      	bx	lr

080010ae <allocator_to_r>:
 80010ae:	b500      	push	{lr}
 80010b0:	f7ff faa5 	bl	80005fe <push_lr_nachholen>
 80010b4:	f7ff fa10 	bl	80004d8 <expect_one_element>
 80010b8:	f7ff fa4a 	bl	8000550 <expect_tos_in_register>
 80010bc:	f847 6d04 	str.w	r6, [r7, #-4]!
 80010c0:	f24b 4600 	movw	r6, #46080	; 0xb400
 80010c4:	2201      	movs	r2, #1
 80010c6:	408a      	lsls	r2, r1
 80010c8:	4316      	orrs	r6, r2
 80010ca:	f002 fc61 	bl	8003990 <Code_879>
 80010ce:	f7ff f906 	bl	80002de <eliminiere_tos>
 80010d2:	bd00      	pop	{pc}

080010d4 <Dictionary_219>:
 80010d4:	0800110a 	stmdaeq	r0, {r1, r3, r8, ip}
 80010d8:	72020220 	andvc	r0, r2, #32, 4
 80010dc:	 			; <UNDEFINED> instruction: 0xf847003e

080010de <Code_219>:
 80010de:	f847 6d04 	str.w	r6, [r7, #-4]!
 80010e2:	bc40      	pop	{r6}
 80010e4:	4770      	bx	lr

080010e6 <allocator_r_from>:
 80010e6:	b500      	push	{lr}
 80010e8:	f7ff fa89 	bl	80005fe <push_lr_nachholen>
 80010ec:	f7ff f8ed 	bl	80002ca <befreie_tos>
 80010f0:	f7ff f9be 	bl	8000470 <get_free_register>
 80010f4:	6003      	str	r3, [r0, #0]
 80010f6:	f847 6d04 	str.w	r6, [r7, #-4]!
 80010fa:	f64b 4600 	movw	r6, #48128	; 0xbc00
 80010fe:	2201      	movs	r2, #1
 8001100:	409a      	lsls	r2, r3
 8001102:	4316      	orrs	r6, r2
 8001104:	f002 fc44 	bl	8003990 <Code_879>
 8001108:	bd00      	pop	{pc}

0800110a <Dictionary_223>:
 800110a:	08001128 	stmdaeq	r0, {r3, r5, r8, ip}
 800110e:	72020220 	andvc	r0, r2, #32, 4
 8001112:	 			; <UNDEFINED> instruction: 0xf8470040

08001114 <Code_223>:
 8001114:	f847 6d04 	str.w	r6, [r7, #-4]!
 8001118:	9e00      	ldr	r6, [sp, #0]
 800111a:	4770      	bx	lr
 800111c:	b500      	push	{lr}
 800111e:	f7ff fa6e 	bl	80005fe <push_lr_nachholen>
 8001122:	f003 f98c 	bl	800443e <rfetch_allocator>
 8001126:	bd00      	pop	{pc}

08001128 <Dictionary_225>:
 8001128:	0800114c 	stmdaeq	r0, {r2, r3, r6, r8, ip}
 800112c:	72050220 	andvc	r0, r5, #32, 4
 8001130:	706f7264 	rsbvc	r7, pc, r4, ror #4

08001134 <Code_225>:
 8001134:	b001      	add	sp, #4
 8001136:	4770      	bx	lr
 8001138:	b500      	push	{lr}
 800113a:	f7ff fa60 	bl	80005fe <push_lr_nachholen>
 800113e:	f847 6d04 	str.w	r6, [r7, #-4]!
 8001142:	f24b 0601 	movw	r6, #45057	; 0xb001
 8001146:	f002 fc23 	bl	8003990 <Code_879>
 800114a:	bd00      	pop	{pc}

0800114c <Dictionary_228>:
 800114c:	08001160 	stmdaeq	r0, {r5, r6, r8, ip}
 8001150:	72050020 	andvc	r0, r5, #32
 8001154:	6b636970 	blvs	98db71c <FlashDictionaryEnde+0x17db71c>

08001158 <Code_228>:
 8001158:	00b6      	lsls	r6, r6, #2
 800115a:	446e      	add	r6, sp
 800115c:	6836      	ldr	r6, [r6, #0]
 800115e:	4770      	bx	lr

08001160 <Dictionary_229>:
 8001160:	0800118c 	stmdaeq	r0, {r2, r3, r7, r8, ip}
 8001164:	72040000 	andvc	r0, r4, #0
 8001168:	006c6c6f 	rsbeq	r6, ip, pc, ror #24

0800116c <Code_229>:
 800116c:	2e00      	cmp	r6, #0
 800116e:	d101      	bne.n	8001174 <Code_229+0x8>
 8001170:	cf40      	ldmia	r7!, {r6}
 8001172:	4770      	bx	lr
 8001174:	00b0      	lsls	r0, r6, #2
 8001176:	5839      	ldr	r1, [r7, r0]
 8001178:	19c0      	adds	r0, r0, r7
 800117a:	1f03      	subs	r3, r0, #4
 800117c:	681a      	ldr	r2, [r3, #0]
 800117e:	6002      	str	r2, [r0, #0]
 8001180:	3804      	subs	r0, #4
 8001182:	3e01      	subs	r6, #1
 8001184:	d1f9      	bne.n	800117a <Code_229+0xe>
 8001186:	3704      	adds	r7, #4
 8001188:	000e      	movs	r6, r1
 800118a:	4770      	bx	lr

0800118c <Dictionary_231>:
 800118c:	080011bc 	stmdaeq	r0, {r2, r3, r4, r5, r7, r8, ip}
 8001190:	2d050000 	stccs	0, cr0, [r5, #-0]
 8001194:	6c6c6f72 	stclvs	15, cr6, [ip], #-456	; 0xfffffe38

08001198 <Code_231>:
 8001198:	2e00      	cmp	r6, #0
 800119a:	d101      	bne.n	80011a0 <Code_231+0x8>
 800119c:	cf40      	ldmia	r7!, {r6}
 800119e:	4770      	bx	lr
 80011a0:	6838      	ldr	r0, [r7, #0]
 80011a2:	4639      	mov	r1, r7
 80011a4:	684a      	ldr	r2, [r1, #4]
 80011a6:	600a      	str	r2, [r1, #0]
 80011a8:	3104      	adds	r1, #4
 80011aa:	3e01      	subs	r6, #1
 80011ac:	d1fa      	bne.n	80011a4 <Code_231+0xc>
 80011ae:	6008      	str	r0, [r1, #0]
 80011b0:	cf40      	ldmia	r7!, {r6}
 80011b2:	4770      	bx	lr
 80011b4:	24000288 	strcs	r0, [r0], #-648	; 0xfffffd78
 80011b8:	24000388 	strcs	r0, [r0], #-904	; 0xfffffc78

080011bc <Dictionary_234>:
 80011bc:	080011d6 	stmdaeq	r0, {r1, r2, r4, r6, r7, r8, ip}
 80011c0:	61030262 	tstvs	r3, r2, ror #4
 80011c4:	 	svcgt	0x0001646e

080011c6 <Code_234>:
 80011c6:	cf01      	ldmia	r7!, {r0}
 80011c8:	4006      	ands	r6, r0
 80011ca:	4770      	bx	lr
 80011cc:	f847 6d04 	str.w	r6, [r7, #-4]!
 80011d0:	f244 0600 	movw	r6, #16384	; 0x4000
 80011d4:	e0ed      	b.n	80013b2 <alloc_kommutativ>

080011d6 <Dictionary_237>:
 80011d6:	080011f2 	stmdaeq	r0, {r1, r4, r5, r6, r7, r8, ip}
 80011da:	62030262 	andvs	r0, r3, #536870918	; 0x20000006
 80011de:	 	svcgt	0x00016369

080011e0 <Code_237>:
 80011e0:	cf01      	ldmia	r7!, {r0}
 80011e2:	43b0      	bics	r0, r6
 80011e4:	0006      	movs	r6, r0
 80011e6:	4770      	bx	lr
 80011e8:	f847 6d04 	str.w	r6, [r7, #-4]!
 80011ec:	f244 3680 	movw	r6, #17280	; 0x4380
 80011f0:	e0db      	b.n	80013aa <alloc_unkommutativ>

080011f2 <Dictionary_240>:
 80011f2:	0800120c 	stmdaeq	r0, {r2, r3, r9, ip}
 80011f6:	6f020262 	svcvs	0x00020262
 80011fa:	 	svcgt	0x00010072

080011fc <Code_240>:
 80011fc:	cf01      	ldmia	r7!, {r0}
 80011fe:	4306      	orrs	r6, r0
 8001200:	4770      	bx	lr

08001202 <or_allocator>:
 8001202:	f847 6d04 	str.w	r6, [r7, #-4]!
 8001206:	f244 3600 	movw	r6, #17152	; 0x4300
 800120a:	e0d2      	b.n	80013b2 <alloc_kommutativ>

0800120c <Dictionary_243>:
 800120c:	08001226 	stmdaeq	r0, {r1, r2, r5, r9, ip}
 8001210:	78030262 	stmdavc	r3, {r1, r5, r6, r9}
 8001214:	 	svcgt	0x0001726f

08001216 <Code_243>:
 8001216:	cf01      	ldmia	r7!, {r0}
 8001218:	4046      	eors	r6, r0
 800121a:	4770      	bx	lr

0800121c <xor_allocator>:
 800121c:	f847 6d04 	str.w	r6, [r7, #-4]!
 8001220:	f244 0640 	movw	r6, #16448	; 0x4040
 8001224:	e0c5      	b.n	80013b2 <alloc_kommutativ>

08001226 <Dictionary_246>:
 8001226:	0800123e 	stmdaeq	r0, {r1, r2, r3, r4, r5, r9, ip}
 800122a:	2a010262 	bcs	8041bba <FlashDictionaryAnfang+0x21bba>

0800122e <Code_246>:
 800122e:	cf01      	ldmia	r7!, {r0}
 8001230:	4346      	muls	r6, r0
 8001232:	4770      	bx	lr
 8001234:	f847 6d04 	str.w	r6, [r7, #-4]!
 8001238:	f244 3640 	movw	r6, #17216	; 0x4340
 800123c:	e0b9      	b.n	80013b2 <alloc_kommutativ>

0800123e <Dictionary_249>:
 800123e:	08001272 	stmdaeq	r0, {r1, r4, r5, r6, r9, ip}
 8001242:	63030261 	movwvs	r0, #12897	; 0x3261
 8001246:	 	blx	6d9fbfe <stack_canary+0x2c7e279>

08001248 <Code_249>:
 8001248:	fab6 f686 	clz	r6, r6
 800124c:	4770      	bx	lr
 800124e:	b500      	push	{lr}
 8001250:	f7ff f942 	bl	80004d8 <expect_one_element>
 8001254:	f847 6d04 	str.w	r6, [r7, #-4]!
 8001258:	4e7e      	ldr	r6, [pc, #504]	; (8001454 <m3_opcodieren+0x24>)
 800125a:	f7ff f979 	bl	8000550 <expect_tos_in_register>
 800125e:	430e      	orrs	r6, r1
 8001260:	ea56 4601 	orrs.w	r6, r6, r1, lsl #16
 8001264:	f7ff f9c2 	bl	80005ec <tos_registerwechsel>
 8001268:	ea56 2603 	orrs.w	r6, r6, r3, lsl #8
 800126c:	f002 fbc0 	bl	80039f0 <Code_888>
 8001270:	bd00      	pop	{pc}

08001272 <Dictionary_251>:
 8001272:	08001290 	stmdaeq	r0, {r4, r7, r9, ip}
 8001276:	72031861 	andvc	r1, r3, #6356992	; 0x610000
 800127a:	 	andcs	r7, r1, pc, ror #4

0800127c <Code_251>:
 800127c:	2001      	movs	r0, #1
 800127e:	41c6      	rors	r6, r0
 8001280:	4770      	bx	lr
 8001282:	00010002 	andeq	r0, r1, r2
 8001286:	20000000 	andcs	r0, r0, r0
 800128a:	080012bc 	stmdaeq	r0, {r2, r3, r4, r5, r7, r9, ip}
 800128e:	 	adcne	r0, lr, #536870918	; 0x20000006

08001290 <Dictionary_252>:
 8001290:	080012ae 	stmdaeq	r0, {r1, r2, r3, r5, r7, r9, ip}
 8001294:	72031861 	andvc	r1, r3, #6356992	; 0x610000
 8001298:	 	andscs	r6, pc, pc, ror #24

0800129a <Code_252>:
 800129a:	201f      	movs	r0, #31
 800129c:	41c6      	rors	r6, r0
 800129e:	4770      	bx	lr
 80012a0:	001f0002 	andseq	r0, pc, r2
 80012a4:	20000000 	andcs	r0, r0, r0
 80012a8:	080012bc 	stmdaeq	r0, {r2, r3, r4, r5, r7, r9, ip}
 80012ac:	 	sbcne	r0, lr, #536870918	; 0x20000006

080012ae <Dictionary_253>:
 80012ae:	080012ce 	stmdaeq	r0, {r1, r2, r3, r6, r7, r9, ip}
 80012b2:	72070262 	andvc	r0, r7, #536870918	; 0x20000006
 80012b6:	61746f72 	cmnvs	r4, r2, ror pc
 80012ba:	 	svcgt	0x00016574

080012bc <Code_253>:
 80012bc:	cf01      	ldmia	r7!, {r0}
 80012be:	41f0      	rors	r0, r6
 80012c0:	0006      	movs	r6, r0
 80012c2:	4770      	bx	lr
 80012c4:	f847 6d04 	str.w	r6, [r7, #-4]!
 80012c8:	f244 16c0 	movw	r6, #16832	; 0x41c0
 80012cc:	e06d      	b.n	80013aa <alloc_unkommutativ>

080012ce <Dictionary_256>:
 80012ce:	08001306 	stmdaeq	r0, {r1, r2, r8, r9, ip}
 80012d2:	61070262 	tstvs	r7, r2, ror #4
 80012d6:	69687372 	stmdbvs	r8!, {r1, r4, r5, r6, r8, r9, ip, sp, lr}^
 80012da:	 	svcgt	0x00017466

080012dc <Code_256>:
 80012dc:	cf01      	ldmia	r7!, {r0}
 80012de:	4130      	asrs	r0, r6
 80012e0:	0006      	movs	r6, r0
 80012e2:	4770      	bx	lr
 80012e4:	b500      	push	{lr}
 80012e6:	f847 6d04 	str.w	r6, [r7, #-4]!
 80012ea:	f244 1600 	movw	r6, #16640	; 0x4100
 80012ee:	f847 6d04 	str.w	r6, [r7, #-4]!
 80012f2:	f241 0600 	movw	r6, #4096	; 0x1000
 80012f6:	f7ff f8f9 	bl	80004ec <expect_two_elements>
 80012fa:	6841      	ldr	r1, [r0, #4]
 80012fc:	291f      	cmp	r1, #31
 80012fe:	d92a      	bls.n	8001356 <Code_266+0x18>
 8001300:	211f      	movs	r1, #31
 8001302:	6041      	str	r1, [r0, #4]
 8001304:	e027      	b.n	8001356 <Code_266+0x18>

08001306 <Dictionary_261>:
 8001306:	08001330 	stmdaeq	r0, {r4, r5, r8, r9, ip}
 800130a:	72060262 	andvc	r0, r6, #536870918	; 0x20000006
 800130e:	66696873 			; <UNDEFINED> instruction: 0x66696873
 8001312:	 	svcgt	0x00010074

08001314 <Code_261>:
 8001314:	cf01      	ldmia	r7!, {r0}
 8001316:	40f0      	lsrs	r0, r6
 8001318:	0006      	movs	r6, r0
 800131a:	4770      	bx	lr
 800131c:	b500      	push	{lr}
 800131e:	f847 6d04 	str.w	r6, [r7, #-4]!
 8001322:	f244 06c0 	movw	r6, #16576	; 0x40c0
 8001326:	f847 6d04 	str.w	r6, [r7, #-4]!
 800132a:	f640 0600 	movw	r6, #2048	; 0x800
 800132e:	e012      	b.n	8001356 <Code_266+0x18>

08001330 <Dictionary_266>:
 8001330:	08001468 	stmdaeq	r0, {r3, r5, r6, sl, ip}
 8001334:	6c060262 	sfmvs	f0, 4, [r6], {98}	; 0x62
 8001338:	66696873 			; <UNDEFINED> instruction: 0x66696873
 800133c:	 	svcgt	0x00010074

0800133e <Code_266>:
 800133e:	cf01      	ldmia	r7!, {r0}
 8001340:	40b0      	lsls	r0, r6
 8001342:	0006      	movs	r6, r0
 8001344:	4770      	bx	lr
 8001346:	b500      	push	{lr}
 8001348:	f847 6d04 	str.w	r6, [r7, #-4]!
 800134c:	f244 0680 	movw	r6, #16512	; 0x4080
 8001350:	f847 6d04 	str.w	r6, [r7, #-4]!
 8001354:	2600      	movs	r6, #0
 8001356:	f7ff f8c9 	bl	80004ec <expect_two_elements>
 800135a:	6801      	ldr	r1, [r0, #0]
 800135c:	2928      	cmp	r1, #40	; 0x28
 800135e:	d003      	beq.n	8001368 <Code_266+0x2a>
 8001360:	cf40      	ldmia	r7!, {r6}
 8001362:	f000 f822 	bl	80013aa <alloc_unkommutativ>
 8001366:	bd00      	pop	{pc}
 8001368:	3704      	adds	r7, #4
 800136a:	6841      	ldr	r1, [r0, #4]
 800136c:	f7fe ffb7 	bl	80002de <eliminiere_tos>
 8001370:	2900      	cmp	r1, #0
 8001372:	d101      	bne.n	8001378 <Code_266+0x3a>
 8001374:	cf40      	ldmia	r7!, {r6}
 8001376:	bd00      	pop	{pc}
 8001378:	291f      	cmp	r1, #31
 800137a:	d80a      	bhi.n	8001392 <Code_266+0x54>
 800137c:	0189      	lsls	r1, r1, #6
 800137e:	430e      	orrs	r6, r1
 8001380:	6802      	ldr	r2, [r0, #0]
 8001382:	00d2      	lsls	r2, r2, #3
 8001384:	4316      	orrs	r6, r2
 8001386:	f7ff f931 	bl	80005ec <tos_registerwechsel>
 800138a:	431e      	orrs	r6, r3
 800138c:	f002 fb00 	bl	8003990 <Code_879>
 8001390:	bd00      	pop	{pc}
 8001392:	cf40      	ldmia	r7!, {r6}
 8001394:	f7ff f92a 	bl	80005ec <tos_registerwechsel>
 8001398:	f847 6d04 	str.w	r6, [r7, #-4]!
 800139c:	f242 0600 	movw	r6, #8192	; 0x2000
 80013a0:	021b      	lsls	r3, r3, #8
 80013a2:	431e      	orrs	r6, r3
 80013a4:	f002 faf4 	bl	8003990 <Code_879>
 80013a8:	bd00      	pop	{pc}

080013aa <alloc_unkommutativ>:
 80013aa:	b50f      	push	{r0, r1, r2, r3, lr}

080013ac <alloc_unkommutativ_ohneregister>:
 80013ac:	f7ff f89e 	bl	80004ec <expect_two_elements>
 80013b0:	e00c      	b.n	80013cc <alloc_logic_gemeinsam>

080013b2 <alloc_kommutativ>:
 80013b2:	b50f      	push	{r0, r1, r2, r3, lr}

080013b4 <alloc_kommutativ_ohneregister>:
 80013b4:	f7ff f89a 	bl	80004ec <expect_two_elements>
 80013b8:	6801      	ldr	r1, [r0, #0]
 80013ba:	2906      	cmp	r1, #6
 80013bc:	d101      	bne.n	80013c2 <alloc_kommutativ_ohneregister+0xe>
 80013be:	f7ff fdd4 	bl	8000f6a <swap_allocator>
 80013c2:	6882      	ldr	r2, [r0, #8]
 80013c4:	2a28      	cmp	r2, #40	; 0x28
 80013c6:	d101      	bne.n	80013cc <alloc_logic_gemeinsam>
 80013c8:	f7ff fdcf 	bl	8000f6a <swap_allocator>

080013cc <alloc_logic_gemeinsam>:
 80013cc:	f7ff f8ca 	bl	8000564 <expect_nos_in_register>
 80013d0:	6801      	ldr	r1, [r0, #0]
 80013d2:	2928      	cmp	r1, #40	; 0x28
 80013d4:	d11e      	bne.n	8001414 <alloc_logic_gemeinsam+0x48>
 80013d6:	f847 6d04 	str.w	r6, [r7, #-4]!
 80013da:	6846      	ldr	r6, [r0, #4]
 80013dc:	f001 feaa 	bl	8003134 <Code_745>
 80013e0:	cf02      	ldmia	r7!, {r1}
 80013e2:	2e00      	cmp	r6, #0
 80013e4:	cf40      	ldmia	r7!, {r6}
 80013e6:	d015      	beq.n	8001414 <alloc_logic_gemeinsam+0x48>
 80013e8:	f5b6 4f80 	cmp.w	r6, #16384	; 0x4000
 80013ec:	d101      	bne.n	80013f2 <alloc_logic_gemeinsam+0x26>
 80013ee:	4e1a      	ldr	r6, [pc, #104]	; (8001458 <m3_opcodieren+0x28>)
 80013f0:	e01e      	b.n	8001430 <m3_opcodieren>
 80013f2:	f244 0240 	movw	r2, #16448	; 0x4040
 80013f6:	4296      	cmp	r6, r2
 80013f8:	d101      	bne.n	80013fe <alloc_logic_gemeinsam+0x32>
 80013fa:	4e18      	ldr	r6, [pc, #96]	; (800145c <m3_opcodieren+0x2c>)
 80013fc:	e018      	b.n	8001430 <m3_opcodieren>
 80013fe:	f5b6 4f86 	cmp.w	r6, #17152	; 0x4300
 8001402:	d101      	bne.n	8001408 <alloc_logic_gemeinsam+0x3c>
 8001404:	4e16      	ldr	r6, [pc, #88]	; (8001460 <m3_opcodieren+0x30>)
 8001406:	e013      	b.n	8001430 <m3_opcodieren>
 8001408:	f44f 4287 	mov.w	r2, #17280	; 0x4380
 800140c:	4296      	cmp	r6, r2
 800140e:	d101      	bne.n	8001414 <alloc_logic_gemeinsam+0x48>
 8001410:	4e14      	ldr	r6, [pc, #80]	; (8001464 <m3_opcodieren+0x34>)
 8001412:	e00d      	b.n	8001430 <m3_opcodieren>
 8001414:	f7ff f8ba 	bl	800058c <nos_change_tos_away_later>
 8001418:	f7ff f89a 	bl	8000550 <expect_tos_in_register>
 800141c:	00c9      	lsls	r1, r1, #3
 800141e:	6882      	ldr	r2, [r0, #8]
 8001420:	430e      	orrs	r6, r1
 8001422:	4316      	orrs	r6, r2
 8001424:	f002 fab4 	bl	8003990 <Code_879>
 8001428:	f7fe ff59 	bl	80002de <eliminiere_tos>
 800142c:	bd0f      	pop	{r0, r1, r2, r3, pc}

0800142e <m3_opcodieren_anderswo>:
 800142e:	b50f      	push	{r0, r1, r2, r3, lr}

08001430 <m3_opcodieren>:
 8001430:	430e      	orrs	r6, r1
 8001432:	6881      	ldr	r1, [r0, #8]
 8001434:	ea56 4601 	orrs.w	r6, r6, r1, lsl #16
 8001438:	f7fe ff51 	bl	80002de <eliminiere_tos>
 800143c:	f7fe ff4f 	bl	80002de <eliminiere_tos>
 8001440:	f7fe ff43 	bl	80002ca <befreie_tos>
 8001444:	f7ff f814 	bl	8000470 <get_free_register>
 8001448:	6003      	str	r3, [r0, #0]
 800144a:	ea56 2603 	orrs.w	r6, r6, r3, lsl #8
 800144e:	f002 facf 	bl	80039f0 <Code_888>
 8001452:	bd0f      	pop	{r0, r1, r2, r3, pc}
 8001454:	fab0f080 	blx	6c3d65c <stack_canary+0x2b1bcd7>
 8001458:	f0100000 			; <UNDEFINED> instruction: 0xf0100000
 800145c:	f0900000 			; <UNDEFINED> instruction: 0xf0900000
 8001460:	f0500000 			; <UNDEFINED> instruction: 0xf0500000
 8001464:	f0300000 			; <UNDEFINED> instruction: 0xf0300000

08001468 <Dictionary_279>:
 8001468:	0800148e 	stmdaeq	r0, {r1, r2, r3, r7, sl, ip}
 800146c:	30020261 	andcc	r0, r2, r1, ror #4
 8001470:	 	mcrcc	0, 0, r0, cr1, cr13, {1}

08001472 <Code_279>:
 8001472:	3e01      	subs	r6, #1
 8001474:	41b6      	sbcs	r6, r6
 8001476:	4770      	bx	lr

08001478 <allocator_equal_zero>:
 8001478:	b500      	push	{lr}
 800147a:	f000 f8fb 	bl	8001674 <prepare_single_compare>
 800147e:	f001 f860 	bl	8002542 <allocator_one_minus>
 8001482:	f7fe ff2c 	bl	80002de <eliminiere_tos>
 8001486:	f44f 4152 	mov.w	r1, #53760	; 0xd200
 800148a:	6281      	str	r1, [r0, #40]	; 0x28
 800148c:	bd00      	pop	{pc}

0800148e <Dictionary_280>:
 800148e:	080014b6 	stmdaeq	r0, {r1, r2, r4, r5, r7, sl, ip}
 8001492:	30030261 	andcc	r0, r3, r1, ror #4
 8001496:	 	mcrcc	14, 0, r3, cr1, cr12, {1}

08001498 <Code_280>:
 8001498:	3e01      	subs	r6, #1
 800149a:	41b6      	sbcs	r6, r6
 800149c:	43f6      	mvns	r6, r6
 800149e:	4770      	bx	lr

080014a0 <allocator_unequal_zero>:
 80014a0:	b500      	push	{lr}
 80014a2:	f000 f8e7 	bl	8001674 <prepare_single_compare>
 80014a6:	f001 f84c 	bl	8002542 <allocator_one_minus>
 80014aa:	f7fe ff18 	bl	80002de <eliminiere_tos>
 80014ae:	f44f 4153 	mov.w	r1, #54016	; 0xd300
 80014b2:	6281      	str	r1, [r0, #40]	; 0x28
 80014b4:	bd00      	pop	{pc}

080014b6 <Dictionary_281>:
 80014b6:	080014de 	stmdaeq	r0, {r1, r2, r3, r4, r6, r7, sl, ip}
 80014ba:	30020261 	andcc	r0, r2, r1, ror #4
 80014be:	 			; <UNDEFINED> instruction: 0x17f6003c

080014c0 <Code_281>:
 80014c0:	17f6      	asrs	r6, r6, #31
 80014c2:	4770      	bx	lr

080014c4 <alloc_nullkleiner>:
 80014c4:	b500      	push	{lr}
 80014c6:	f000 f8d5 	bl	8001674 <prepare_single_compare>
 80014ca:	f847 6d04 	str.w	r6, [r7, #-4]!
 80014ce:	f241 76c0 	movw	r6, #6080	; 0x17c0
 80014d2:	f001 f879 	bl	80025c8 <smalltworegisters>
 80014d6:	f44f 4155 	mov.w	r1, #54528	; 0xd500
 80014da:	6281      	str	r1, [r0, #40]	; 0x28
 80014dc:	bd00      	pop	{pc}

080014de <Dictionary_284>:
 80014de:	080014f4 	stmdaeq	r0, {r2, r4, r5, r6, r7, sl, ip}
 80014e2:	74040060 	strvc	r0, [r4], #-96	; 0xffffffa0
 80014e6:	00657572 	rsbeq	r7, r5, r2, ror r5

080014ea <Code_284>:
 80014ea:	f847 6d04 	str.w	r6, [r7, #-4]!

080014ee <generate_true>:
 80014ee:	2600      	movs	r6, #0
 80014f0:	43f6      	mvns	r6, r6
 80014f2:	4770      	bx	lr

080014f4 <Dictionary_286>:
 80014f4:	08001508 	stmdaeq	r0, {r3, r8, sl, ip}
 80014f8:	66050060 	strvs	r0, [r5], -r0, rrx
 80014fc:	65736c61 	ldrbvs	r6, [r3, #-3169]!	; 0xfffff39f

08001500 <Code_286>:
 8001500:	f847 6d04 	str.w	r6, [r7, #-4]!
 8001504:	2600      	movs	r6, #0
 8001506:	4770      	bx	lr

08001508 <Dictionary_288>:
 8001508:	0800152e 	stmdaeq	r0, {r1, r2, r3, r5, r8, sl, ip}
 800150c:	3e020242 	cdpcc	2, 0, cr0, cr2, cr2, {2}
 8001510:	 	svcgt	0x0001003d

08001512 <Code_288>:
 8001512:	cf01      	ldmia	r7!, {r0}
 8001514:	42b0      	cmp	r0, r6
 8001516:	daea      	bge.n	80014ee <generate_true>
 8001518:	2600      	movs	r6, #0
 800151a:	4770      	bx	lr
 800151c:	f847 6d04 	str.w	r6, [r7, #-4]!
 8001520:	f64d 3600 	movw	r6, #56064	; 0xdb00
 8001524:	f847 6d04 	str.w	r6, [r7, #-4]!
 8001528:	f64d 2600 	movw	r6, #55808	; 0xda00
 800152c:	e0ae      	b.n	800168c <prepare_compare>

0800152e <Dictionary_293>:
 800152e:	08001554 	stmdaeq	r0, {r2, r4, r6, r8, sl, ip}
 8001532:	3c020242 	sfmcc	f0, 4, [r2], {66}	; 0x42
 8001536:	 	svcgt	0x0001003d

08001538 <Code_293>:
 8001538:	cf01      	ldmia	r7!, {r0}
 800153a:	42b0      	cmp	r0, r6
 800153c:	ddd7      	ble.n	80014ee <generate_true>
 800153e:	2600      	movs	r6, #0
 8001540:	4770      	bx	lr
 8001542:	f847 6d04 	str.w	r6, [r7, #-4]!
 8001546:	f64d 4600 	movw	r6, #56320	; 0xdc00
 800154a:	f847 6d04 	str.w	r6, [r7, #-4]!
 800154e:	f64d 5600 	movw	r6, #56576	; 0xdd00
 8001552:	e09b      	b.n	800168c <prepare_compare>

08001554 <Dictionary_298>:
 8001554:	08001578 	stmdaeq	r0, {r3, r4, r5, r6, r8, sl, ip}
 8001558:	3c010242 	sfmcc	f0, 4, [r1], {66}	; 0x42

0800155c <Code_298>:
 800155c:	cf01      	ldmia	r7!, {r0}
 800155e:	42b0      	cmp	r0, r6
 8001560:	dbc5      	blt.n	80014ee <generate_true>
 8001562:	2600      	movs	r6, #0
 8001564:	4770      	bx	lr
 8001566:	f847 6d04 	str.w	r6, [r7, #-4]!
 800156a:	f64d 2600 	movw	r6, #55808	; 0xda00
 800156e:	f847 6d04 	str.w	r6, [r7, #-4]!
 8001572:	f64d 3600 	movw	r6, #56064	; 0xdb00
 8001576:	e089      	b.n	800168c <prepare_compare>

08001578 <Dictionary_303>:
 8001578:	0800159c 	stmdaeq	r0, {r2, r3, r4, r7, r8, sl, ip}
 800157c:	3e010242 	cdpcc	2, 0, cr0, cr1, cr2, {2}

08001580 <Code_303>:
 8001580:	cf01      	ldmia	r7!, {r0}
 8001582:	42b0      	cmp	r0, r6
 8001584:	dcb3      	bgt.n	80014ee <generate_true>
 8001586:	2600      	movs	r6, #0
 8001588:	4770      	bx	lr
 800158a:	f847 6d04 	str.w	r6, [r7, #-4]!
 800158e:	f64d 5600 	movw	r6, #56576	; 0xdd00
 8001592:	f847 6d04 	str.w	r6, [r7, #-4]!
 8001596:	f64d 4600 	movw	r6, #56320	; 0xdc00
 800159a:	e077      	b.n	800168c <prepare_compare>

0800159c <Dictionary_308>:
 800159c:	080015c2 	stmdaeq	r0, {r1, r6, r7, r8, sl, ip}
 80015a0:	75030262 	strvc	r0, [r3, #-610]	; 0xfffffd9e
 80015a4:	 	svcgt	0x00013d3e

080015a6 <Code_308>:
 80015a6:	cf01      	ldmia	r7!, {r0}
 80015a8:	1b86      	subs	r6, r0, r6
 80015aa:	41b6      	sbcs	r6, r6
 80015ac:	43f6      	mvns	r6, r6
 80015ae:	4770      	bx	lr
 80015b0:	f847 6d04 	str.w	r6, [r7, #-4]!
 80015b4:	f24d 3600 	movw	r6, #54016	; 0xd300
 80015b8:	f847 6d04 	str.w	r6, [r7, #-4]!
 80015bc:	f24d 2600 	movw	r6, #53760	; 0xd200
 80015c0:	e064      	b.n	800168c <prepare_compare>

080015c2 <Dictionary_313>:
 80015c2:	080015e8 	stmdaeq	r0, {r3, r5, r6, r7, r8, sl, ip}
 80015c6:	75030262 	strvc	r0, [r3, #-610]	; 0xfffffd9e
 80015ca:	 	svcgt	0x00013d3c

080015cc <Code_313>:
 80015cc:	cf01      	ldmia	r7!, {r0}
 80015ce:	1a36      	subs	r6, r6, r0
 80015d0:	41b6      	sbcs	r6, r6
 80015d2:	43f6      	mvns	r6, r6
 80015d4:	4770      	bx	lr
 80015d6:	f847 6d04 	str.w	r6, [r7, #-4]!
 80015da:	f64d 0600 	movw	r6, #55296	; 0xd800
 80015de:	f847 6d04 	str.w	r6, [r7, #-4]!
 80015e2:	f64d 1600 	movw	r6, #55552	; 0xd900
 80015e6:	e051      	b.n	800168c <prepare_compare>

080015e8 <Dictionary_318>:
 80015e8:	0800160c 	stmdaeq	r0, {r2, r3, r9, sl, ip}
 80015ec:	75020262 	strvc	r0, [r2, #-610]	; 0xfffffd9e
 80015f0:	 	svcgt	0x0001003c

080015f2 <Code_318>:
 80015f2:	cf01      	ldmia	r7!, {r0}
 80015f4:	1b86      	subs	r6, r0, r6
 80015f6:	41b6      	sbcs	r6, r6
 80015f8:	4770      	bx	lr
 80015fa:	f847 6d04 	str.w	r6, [r7, #-4]!
 80015fe:	f24d 2600 	movw	r6, #53760	; 0xd200
 8001602:	f847 6d04 	str.w	r6, [r7, #-4]!
 8001606:	f24d 3600 	movw	r6, #54016	; 0xd300
 800160a:	e03f      	b.n	800168c <prepare_compare>

0800160c <Dictionary_323>:
 800160c:	08001630 	stmdaeq	r0, {r4, r5, r9, sl, ip}
 8001610:	75020262 	strvc	r0, [r2, #-610]	; 0xfffffd9e
 8001614:	 	svcgt	0x0001003e

08001616 <Code_323>:
 8001616:	cf01      	ldmia	r7!, {r0}
 8001618:	1a36      	subs	r6, r6, r0
 800161a:	41b6      	sbcs	r6, r6
 800161c:	4770      	bx	lr
 800161e:	f847 6d04 	str.w	r6, [r7, #-4]!
 8001622:	f64d 1600 	movw	r6, #55552	; 0xd900
 8001626:	f847 6d04 	str.w	r6, [r7, #-4]!
 800162a:	f64d 0600 	movw	r6, #55296	; 0xd800
 800162e:	e02d      	b.n	800168c <prepare_compare>

08001630 <Dictionary_328>:
 8001630:	08001654 	stmdaeq	r0, {r2, r4, r6, r9, sl, ip}
 8001634:	3c020262 	sfmcc	f0, 4, [r2], {98}	; 0x62
 8001638:	 	svcgt	0x0001003e

0800163a <Code_328>:
 800163a:	cf01      	ldmia	r7!, {r0}
 800163c:	1a36      	subs	r6, r6, r0
 800163e:	3e01      	subs	r6, #1
 8001640:	41b6      	sbcs	r6, r6
 8001642:	43f6      	mvns	r6, r6
 8001644:	4770      	bx	lr
 8001646:	f847 6d04 	str.w	r6, [r7, #-4]!
 800164a:	f24d 0600 	movw	r6, #53248	; 0xd000
 800164e:	f847 6d04 	str.w	r6, [r7, #-4]!
 8001652:	e01b      	b.n	800168c <prepare_compare>

08001654 <Dictionary_333>:
 8001654:	080017b6 	stmdaeq	r0, {r1, r2, r4, r5, r7, r8, r9, sl, ip}
 8001658:	3d010262 	sfmcc	f0, 4, [r1, #-392]	; 0xfffffe78

0800165c <Code_333>:
 800165c:	cf01      	ldmia	r7!, {r0}
 800165e:	1a36      	subs	r6, r6, r0
 8001660:	3e01      	subs	r6, #1
 8001662:	41b6      	sbcs	r6, r6
 8001664:	4770      	bx	lr
 8001666:	f847 6d04 	str.w	r6, [r7, #-4]!
 800166a:	f24d 1600 	movw	r6, #53504	; 0xd100
 800166e:	f847 6d04 	str.w	r6, [r7, #-4]!
 8001672:	e00b      	b.n	800168c <prepare_compare>

08001674 <prepare_single_compare>:
 8001674:	b500      	push	{lr}
 8001676:	f7fe ff2f 	bl	80004d8 <expect_one_element>
 800167a:	f7fe fe67 	bl	800034c <tidyup_register_allocator_5os>
 800167e:	f7fe fe6a 	bl	8000356 <tidyup_register_allocator_4os>
 8001682:	f7fe fe6d 	bl	8000360 <tidyup_register_allocator_3os>
 8001686:	f7fe ff6d 	bl	8000564 <expect_nos_in_register>
 800168a:	bd00      	pop	{pc}

0800168c <prepare_compare>:
 800168c:	b500      	push	{lr}
 800168e:	f7fe ff2d 	bl	80004ec <expect_two_elements>
 8001692:	f7fe fe5b 	bl	800034c <tidyup_register_allocator_5os>
 8001696:	f7fe fe5e 	bl	8000356 <tidyup_register_allocator_4os>
 800169a:	f7fe ff6d 	bl	8000578 <expect_3os_in_register>
 800169e:	6882      	ldr	r2, [r0, #8]
 80016a0:	2a28      	cmp	r2, #40	; 0x28
 80016a2:	d105      	bne.n	80016b0 <prepare_compare+0x24>
 80016a4:	f7ff fc61 	bl	8000f6a <swap_allocator>
 80016a8:	6839      	ldr	r1, [r7, #0]
 80016aa:	603e      	str	r6, [r7, #0]
 80016ac:	460e      	mov	r6, r1
 80016ae:	6882      	ldr	r2, [r0, #8]
 80016b0:	cf40      	ldmia	r7!, {r6}
 80016b2:	6801      	ldr	r1, [r0, #0]
 80016b4:	2928      	cmp	r1, #40	; 0x28
 80016b6:	d11d      	bne.n	80016f4 <prepare_compare+0x68>
 80016b8:	6841      	ldr	r1, [r0, #4]
 80016ba:	29ff      	cmp	r1, #255	; 0xff
 80016bc:	d807      	bhi.n	80016ce <prepare_compare+0x42>
 80016be:	f847 6d04 	str.w	r6, [r7, #-4]!
 80016c2:	f642 0600 	movw	r6, #10240	; 0x2800
 80016c6:	430e      	orrs	r6, r1
 80016c8:	6881      	ldr	r1, [r0, #8]
 80016ca:	0209      	lsls	r1, r1, #8
 80016cc:	e01a      	b.n	8001704 <prepare_compare+0x78>
 80016ce:	f847 6d04 	str.w	r6, [r7, #-4]!
 80016d2:	6846      	ldr	r6, [r0, #4]
 80016d4:	f001 fd2e 	bl	8003134 <Code_745>
 80016d8:	cf02      	ldmia	r7!, {r1}
 80016da:	2e00      	cmp	r6, #0
 80016dc:	cf40      	ldmia	r7!, {r6}
 80016de:	d009      	beq.n	80016f4 <prepare_compare+0x68>
 80016e0:	f847 6d04 	str.w	r6, [r7, #-4]!
 80016e4:	4e6a      	ldr	r6, [pc, #424]	; (8001890 <alloc_minmax+0x60>)
 80016e6:	430e      	orrs	r6, r1
 80016e8:	6881      	ldr	r1, [r0, #8]
 80016ea:	ea56 4601 	orrs.w	r6, r6, r1, lsl #16
 80016ee:	f002 f97f 	bl	80039f0 <Code_888>
 80016f2:	e00a      	b.n	800170a <prepare_compare+0x7e>
 80016f4:	f7fe ff2c 	bl	8000550 <expect_tos_in_register>
 80016f8:	f847 6d04 	str.w	r6, [r7, #-4]!
 80016fc:	f244 2680 	movw	r6, #17024	; 0x4280
 8001700:	00c9      	lsls	r1, r1, #3
 8001702:	4316      	orrs	r6, r2
 8001704:	430e      	orrs	r6, r1
 8001706:	f002 f943 	bl	8003990 <Code_879>
 800170a:	f7fe fde8 	bl	80002de <eliminiere_tos>
 800170e:	f7fe fde6 	bl	80002de <eliminiere_tos>
 8001712:	6286      	str	r6, [r0, #40]	; 0x28
 8001714:	cf40      	ldmia	r7!, {r6}
 8001716:	bd00      	pop	{pc}

08001718 <sprungschreiber_flaggenerator>:
 8001718:	b50f      	push	{r0, r1, r2, r3, lr}
 800171a:	485e      	ldr	r0, [pc, #376]	; (8001894 <alloc_minmax+0x64>)
 800171c:	6a81      	ldr	r1, [r0, #40]	; 0x28
 800171e:	2900      	cmp	r1, #0
 8001720:	d035      	beq.n	800178e <sprungschreiber_flaggenerator+0x76>
 8001722:	f847 6d04 	str.w	r6, [r7, #-4]!
 8001726:	6a86      	ldr	r6, [r0, #40]	; 0x28
 8001728:	2100      	movs	r1, #0
 800172a:	6281      	str	r1, [r0, #40]	; 0x28
 800172c:	0a31      	lsrs	r1, r6, #8
 800172e:	29d5      	cmp	r1, #213	; 0xd5
 8001730:	d101      	bne.n	8001736 <sprungschreiber_flaggenerator+0x1e>
 8001732:	cf40      	ldmia	r7!, {r6}
 8001734:	bd0f      	pop	{r0, r1, r2, r3, pc}
 8001736:	f7fe fdc8 	bl	80002ca <befreie_tos>
 800173a:	f7fe fe99 	bl	8000470 <get_free_register>
 800173e:	6003      	str	r3, [r0, #0]
 8001740:	29d2      	cmp	r1, #210	; 0xd2
 8001742:	d104      	bne.n	800174e <sprungschreiber_flaggenerator+0x36>
 8001744:	f44f 4683 	mov.w	r6, #16768	; 0x4180
 8001748:	f000 ff3e 	bl	80025c8 <smalltworegisters>
 800174c:	bd0f      	pop	{r0, r1, r2, r3, pc}
 800174e:	29d3      	cmp	r1, #211	; 0xd3
 8001750:	d106      	bne.n	8001760 <sprungschreiber_flaggenerator+0x48>
 8001752:	f44f 4683 	mov.w	r6, #16768	; 0x4180
 8001756:	f000 ff37 	bl	80025c8 <smalltworegisters>
 800175a:	f000 ff48 	bl	80025ee <allocator_not>
 800175e:	bd0f      	pop	{r0, r1, r2, r3, pc}
 8001760:	3602      	adds	r6, #2
 8001762:	f002 f915 	bl	8003990 <Code_879>
 8001766:	f847 6d04 	str.w	r6, [r7, #-4]!
 800176a:	f242 0600 	movw	r6, #8192	; 0x2000
 800176e:	f000 f80f 	bl	8001790 <smallplusminus>
 8001772:	f000 ff3c 	bl	80025ee <allocator_not>
 8001776:	f847 6d04 	str.w	r6, [r7, #-4]!
 800177a:	f24e 0600 	movw	r6, #57344	; 0xe000
 800177e:	f002 f907 	bl	8003990 <Code_879>
 8001782:	f847 6d04 	str.w	r6, [r7, #-4]!
 8001786:	f242 0600 	movw	r6, #8192	; 0x2000
 800178a:	f000 f801 	bl	8001790 <smallplusminus>
 800178e:	bd0f      	pop	{r0, r1, r2, r3, pc}

08001790 <smallplusminus>:
 8001790:	b500      	push	{lr}
 8001792:	f7fe fea1 	bl	80004d8 <expect_one_element>
 8001796:	f7fe ff10 	bl	80005ba <make_tos_changeable>
 800179a:	6801      	ldr	r1, [r0, #0]
 800179c:	0209      	lsls	r1, r1, #8
 800179e:	430e      	orrs	r6, r1
 80017a0:	f002 f8f6 	bl	8003990 <Code_879>
 80017a4:	bd00      	pop	{pc}

080017a6 <eliminiere_tos_wenn_bmi>:
 80017a6:	b500      	push	{lr}
 80017a8:	6a81      	ldr	r1, [r0, #40]	; 0x28
 80017aa:	0a09      	lsrs	r1, r1, #8
 80017ac:	29d5      	cmp	r1, #213	; 0xd5
 80017ae:	d101      	bne.n	80017b4 <eliminiere_tos_wenn_bmi+0xe>
 80017b0:	f7fe fd95 	bl	80002de <eliminiere_tos>
 80017b4:	bd00      	pop	{pc}

080017b6 <Dictionary_356>:
 80017b6:	080017d4 	stmdaeq	r0, {r2, r4, r6, r7, r8, r9, sl, ip}
 80017ba:	6d030262 	sfmvs	f0, 4, [r3, #-392]	; 0xfffffe78
 80017be:	 	svcgt	0x00016e69

080017c0 <Code_356>:
 80017c0:	cf01      	ldmia	r7!, {r0}
 80017c2:	42b0      	cmp	r0, r6
 80017c4:	dc00      	bgt.n	80017c8 <Code_356+0x8>
 80017c6:	0006      	movs	r6, r0
 80017c8:	4770      	bx	lr
 80017ca:	f847 6d04 	str.w	r6, [r7, #-4]!
 80017ce:	f64d 3600 	movw	r6, #56064	; 0xdb00
 80017d2:	e02d      	b.n	8001830 <alloc_minmax>

080017d4 <Dictionary_359>:
 80017d4:	080017f2 	stmdaeq	r0, {r1, r4, r5, r6, r7, r8, r9, sl, ip}
 80017d8:	6d030262 	sfmvs	f0, 4, [r3, #-392]	; 0xfffffe78
 80017dc:	 	svcgt	0x00017861

080017de <Code_359>:
 80017de:	cf01      	ldmia	r7!, {r0}
 80017e0:	42b0      	cmp	r0, r6
 80017e2:	db00      	blt.n	80017e6 <Code_359+0x8>
 80017e4:	0006      	movs	r6, r0
 80017e6:	4770      	bx	lr
 80017e8:	f847 6d04 	str.w	r6, [r7, #-4]!
 80017ec:	f64d 4600 	movw	r6, #56320	; 0xdc00
 80017f0:	e01e      	b.n	8001830 <alloc_minmax>

080017f2 <Dictionary_362>:
 80017f2:	08001812 	stmdaeq	r0, {r1, r4, fp, ip}
 80017f6:	75040262 	strvc	r0, [r4, #-610]	; 0xfffffd9e
 80017fa:	0078616d 	rsbseq	r6, r8, sp, ror #2

080017fe <Code_362>:
 80017fe:	cf01      	ldmia	r7!, {r0}
 8001800:	42b0      	cmp	r0, r6
 8001802:	d300      	bcc.n	8001806 <Code_362+0x8>
 8001804:	0006      	movs	r6, r0
 8001806:	4770      	bx	lr
 8001808:	f847 6d04 	str.w	r6, [r7, #-4]!
 800180c:	f64d 0600 	movw	r6, #55296	; 0xd800
 8001810:	e00e      	b.n	8001830 <alloc_minmax>

08001812 <Dictionary_365>:
 8001812:	08001898 	stmdaeq	r0, {r3, r4, r7, fp, ip}
 8001816:	75040262 	strvc	r0, [r4, #-610]	; 0xfffffd9e
 800181a:	006e696d 	rsbeq	r6, lr, sp, ror #18

0800181e <Code_365>:
 800181e:	cf01      	ldmia	r7!, {r0}
 8001820:	42b0      	cmp	r0, r6
 8001822:	d800      	bhi.n	8001826 <Code_365+0x8>
 8001824:	0006      	movs	r6, r0
 8001826:	4770      	bx	lr
 8001828:	f847 6d04 	str.w	r6, [r7, #-4]!
 800182c:	f24d 3600 	movw	r6, #54016	; 0xd300

08001830 <alloc_minmax>:
 8001830:	b500      	push	{lr}
 8001832:	f7fe fe5b 	bl	80004ec <expect_two_elements>
 8001836:	6801      	ldr	r1, [r0, #0]
 8001838:	6882      	ldr	r2, [r0, #8]
 800183a:	4291      	cmp	r1, r2
 800183c:	d103      	bne.n	8001846 <alloc_minmax+0x16>
 800183e:	cf40      	ldmia	r7!, {r6}
 8001840:	f7fe fd53 	bl	80002ea <eliminiere_nos>
 8001844:	bd00      	pop	{pc}
 8001846:	2a06      	cmp	r2, #6
 8001848:	d101      	bne.n	800184e <alloc_minmax+0x1e>
 800184a:	f7ff fb8e 	bl	8000f6a <swap_allocator>
 800184e:	6801      	ldr	r1, [r0, #0]
 8001850:	2928      	cmp	r1, #40	; 0x28
 8001852:	d101      	bne.n	8001858 <alloc_minmax+0x28>
 8001854:	f7ff fb89 	bl	8000f6a <swap_allocator>
 8001858:	f7fe feaf 	bl	80005ba <make_tos_changeable>
 800185c:	f7fe fe82 	bl	8000564 <expect_nos_in_register>
 8001860:	00c9      	lsls	r1, r1, #3
 8001862:	6802      	ldr	r2, [r0, #0]
 8001864:	f847 6d04 	str.w	r6, [r7, #-4]!
 8001868:	f244 2680 	movw	r6, #17024	; 0x4280
 800186c:	430e      	orrs	r6, r1
 800186e:	4316      	orrs	r6, r2
 8001870:	f002 f88e 	bl	8003990 <Code_879>
 8001874:	f002 f88c 	bl	8003990 <Code_879>
 8001878:	f847 6d04 	str.w	r6, [r7, #-4]!
 800187c:	f244 6600 	movw	r6, #17920	; 0x4600
 8001880:	430e      	orrs	r6, r1
 8001882:	4316      	orrs	r6, r2
 8001884:	f002 f884 	bl	8003990 <Code_879>
 8001888:	f7fe fd2f 	bl	80002ea <eliminiere_nos>
 800188c:	bd00      	pop	{pc}
 800188e:	0f000000 	svceq	0x00000000
 8001892:	0020f1b0 	strhteq	pc, [r0], -r0	; <UNPREDICTABLE>
 8001896:	 	ldmne	r6, {sl, sp}^

08001898 <Dictionary_373>:
 8001898:	080018d6 	stmdaeq	r0, {r1, r2, r4, r6, r7, fp, ip}
 800189c:	6d040000 	stcvs	0, cr0, [r4, #-0]
 80018a0:	0065766f 	rsbeq	r7, r5, pc, ror #12

080018a4 <Code_373>:
 80018a4:	b507      	push	{r0, r1, r2, lr}
 80018a6:	0031      	movs	r1, r6
 80018a8:	cf40      	ldmia	r7!, {r6}
 80018aa:	0032      	movs	r2, r6
 80018ac:	cf40      	ldmia	r7!, {r6}
 80018ae:	2900      	cmp	r1, #0
 80018b0:	d00f      	beq.n	80018d2 <Code_373+0x2e>
 80018b2:	42b2      	cmp	r2, r6
 80018b4:	d00d      	beq.n	80018d2 <Code_373+0x2e>
 80018b6:	d306      	bcc.n	80018c6 <Code_373+0x22>
 80018b8:	3e01      	subs	r6, #1
 80018ba:	3a01      	subs	r2, #1
 80018bc:	5c70      	ldrb	r0, [r6, r1]
 80018be:	5450      	strb	r0, [r2, r1]
 80018c0:	3901      	subs	r1, #1
 80018c2:	d1fb      	bne.n	80018bc <Code_373+0x18>
 80018c4:	e005      	b.n	80018d2 <Code_373+0x2e>
 80018c6:	7830      	ldrb	r0, [r6, #0]
 80018c8:	7010      	strb	r0, [r2, #0]
 80018ca:	3601      	adds	r6, #1
 80018cc:	3201      	adds	r2, #1
 80018ce:	3901      	subs	r1, #1
 80018d0:	d1f9      	bne.n	80018c6 <Code_373+0x22>
 80018d2:	cf40      	ldmia	r7!, {r6}
 80018d4:	bd07      	pop	{r0, r1, r2, pc}

080018d6 <Dictionary_377>:
 80018d6:	080018f8 	stmdaeq	r0, {r3, r4, r5, r6, r7, fp, ip}
 80018da:	66040000 	strvs	r0, [r4], -r0
 80018de:	006c6c69 	rsbeq	r6, ip, r9, ror #24

080018e2 <Code_377>:
 80018e2:	0030      	movs	r0, r6
 80018e4:	cf40      	ldmia	r7!, {r6}
 80018e6:	0031      	movs	r1, r6
 80018e8:	cf40      	ldmia	r7!, {r6}
 80018ea:	2900      	cmp	r1, #0
 80018ec:	d002      	beq.n	80018f4 <Code_377+0x12>
 80018ee:	3901      	subs	r1, #1
 80018f0:	5470      	strb	r0, [r6, r1]
 80018f2:	d1fc      	bne.n	80018ee <Code_377+0xc>
 80018f4:	cf40      	ldmia	r7!, {r6}
 80018f6:	4770      	bx	lr

080018f8 <Dictionary_381>:
 80018f8:	0800193a 	stmdaeq	r0, {r1, r3, r4, r5, r8, fp, ip}
 80018fc:	40010220 	andmi	r0, r1, r0, lsr #4

08001900 <Code_381>:
 8001900:	6836      	ldr	r6, [r6, #0]
 8001902:	4770      	bx	lr

08001904 <allocator_4fetch>:
 8001904:	f847 6d04 	str.w	r6, [r7, #-4]!
 8001908:	f646 0600 	movw	r6, #26624	; 0x6800

0800190c <allocator_4fetch_anderer_opcode>:
 800190c:	b500      	push	{lr}
 800190e:	f7fe fde3 	bl	80004d8 <expect_one_element>
 8001912:	6803      	ldr	r3, [r0, #0]
 8001914:	2b28      	cmp	r3, #40	; 0x28
 8001916:	d108      	bne.n	800192a <allocator_4fetch_anderer_opcode+0x1e>
 8001918:	6843      	ldr	r3, [r0, #4]
 800191a:	217c      	movs	r1, #124	; 0x7c
 800191c:	4019      	ands	r1, r3
 800191e:	0109      	lsls	r1, r1, #4
 8001920:	430e      	orrs	r6, r1
 8001922:	217c      	movs	r1, #124	; 0x7c
 8001924:	438b      	bics	r3, r1
 8001926:	f7fe fd64 	bl	80003f2 <generiere_adresskonstante>
 800192a:	00db      	lsls	r3, r3, #3
 800192c:	431e      	orrs	r6, r3
 800192e:	f7fe fe5d 	bl	80005ec <tos_registerwechsel>
 8001932:	431e      	orrs	r6, r3
 8001934:	f002 f82c 	bl	8003990 <Code_879>
 8001938:	bd00      	pop	{pc}

0800193a <Dictionary_384>:
 800193a:	08001992 	stmdaeq	r0, {r1, r4, r7, r8, fp, ip}
 800193e:	21010220 	tstcs	r1, r0, lsr #4

08001942 <Code_384>:
 8001942:	cf03      	ldmia	r7!, {r0, r1}
 8001944:	6030      	str	r0, [r6, #0]
 8001946:	000e      	movs	r6, r1
 8001948:	4770      	bx	lr

0800194a <allocator_4store>:
 800194a:	f847 6d04 	str.w	r6, [r7, #-4]!
 800194e:	f246 0600 	movw	r6, #24576	; 0x6000

08001952 <allocator_4store_anderer_opcode>:
 8001952:	b500      	push	{lr}
 8001954:	f7fe fdca 	bl	80004ec <expect_two_elements>
 8001958:	6803      	ldr	r3, [r0, #0]
 800195a:	2b28      	cmp	r3, #40	; 0x28
 800195c:	d109      	bne.n	8001972 <allocator_4store_anderer_opcode+0x20>
 800195e:	6843      	ldr	r3, [r0, #4]
 8001960:	217c      	movs	r1, #124	; 0x7c
 8001962:	4019      	ands	r1, r3
 8001964:	0109      	lsls	r1, r1, #4
 8001966:	430e      	orrs	r6, r1
 8001968:	217c      	movs	r1, #124	; 0x7c
 800196a:	438b      	bics	r3, r1
 800196c:	f7fe fd41 	bl	80003f2 <generiere_adresskonstante>
 8001970:	6003      	str	r3, [r0, #0]
 8001972:	00db      	lsls	r3, r3, #3
 8001974:	431e      	orrs	r6, r3
 8001976:	6883      	ldr	r3, [r0, #8]
 8001978:	2b28      	cmp	r3, #40	; 0x28
 800197a:	d102      	bne.n	8001982 <allocator_4store_anderer_opcode+0x30>
 800197c:	68c3      	ldr	r3, [r0, #12]
 800197e:	f7fe fd2c 	bl	80003da <generiere_konstante>
 8001982:	431e      	orrs	r6, r3
 8001984:	f002 f804 	bl	8003990 <Code_879>
 8001988:	f7fe fca9 	bl	80002de <eliminiere_tos>
 800198c:	f7fe fca7 	bl	80002de <eliminiere_tos>
 8001990:	bd00      	pop	{pc}

08001992 <Dictionary_387>:
 8001992:	080019c8 	stmdaeq	r0, {r3, r6, r7, r8, fp, ip}
 8001996:	2b020220 	blcs	808221e <FlashDictionaryAnfang+0x6221e>
 800199a:	 	svcgt	0x00030021

0800199c <Code_387>:
 800199c:	cf03      	ldmia	r7!, {r0, r1}
 800199e:	6832      	ldr	r2, [r6, #0]
 80019a0:	1812      	adds	r2, r2, r0
 80019a2:	6032      	str	r2, [r6, #0]
 80019a4:	000e      	movs	r6, r1
 80019a6:	4770      	bx	lr
 80019a8:	b500      	push	{lr}
 80019aa:	f7fe fd9f 	bl	80004ec <expect_two_elements>
 80019ae:	f7ff faa7 	bl	8000f00 <dup_allocator>
 80019b2:	f7ff ffa7 	bl	8001904 <allocator_4fetch>
 80019b6:	f7ff fb2d 	bl	8001014 <rot_allocator>
 80019ba:	f000 fd54 	bl	8002466 <plus_allocator>
 80019be:	f7ff fad4 	bl	8000f6a <swap_allocator>
 80019c2:	f7ff ffc2 	bl	800194a <allocator_4store>
 80019c6:	bd00      	pop	{pc}

080019c8 <Dictionary_388>:
 80019c8:	08001a0c 	stmdaeq	r0, {r2, r3, r9, fp, ip}
 80019cc:	68020220 	stmdavs	r2, {r5, r9}
 80019d0:	 	ldmdahi	r6!, {r6}

080019d2 <Code_388>:
 80019d2:	8836      	ldrh	r6, [r6, #0]
 80019d4:	4770      	bx	lr

080019d6 <allocator_2fetch>:
 80019d6:	b500      	push	{lr}
 80019d8:	f7fe fd7e 	bl	80004d8 <expect_one_element>
 80019dc:	f847 6d04 	str.w	r6, [r7, #-4]!
 80019e0:	f648 0600 	movw	r6, #34816	; 0x8800
 80019e4:	6803      	ldr	r3, [r0, #0]
 80019e6:	2b28      	cmp	r3, #40	; 0x28
 80019e8:	d108      	bne.n	80019fc <allocator_2fetch+0x26>
 80019ea:	6843      	ldr	r3, [r0, #4]
 80019ec:	213e      	movs	r1, #62	; 0x3e
 80019ee:	4019      	ands	r1, r3
 80019f0:	0149      	lsls	r1, r1, #5
 80019f2:	430e      	orrs	r6, r1
 80019f4:	213e      	movs	r1, #62	; 0x3e
 80019f6:	438b      	bics	r3, r1
 80019f8:	f7fe fcfb 	bl	80003f2 <generiere_adresskonstante>
 80019fc:	00db      	lsls	r3, r3, #3
 80019fe:	431e      	orrs	r6, r3
 8001a00:	f7fe fdf4 	bl	80005ec <tos_registerwechsel>
 8001a04:	431e      	orrs	r6, r3
 8001a06:	f001 ffc3 	bl	8003990 <Code_879>
 8001a0a:	bd00      	pop	{pc}

08001a0c <Dictionary_391>:
 8001a0c:	08001a66 	stmdaeq	r0, {r1, r2, r5, r6, r9, fp, ip}
 8001a10:	68020220 	stmdavs	r2, {r5, r9}
 8001a14:	 	svcgt	0x00030021

08001a16 <Code_391>:
 8001a16:	cf03      	ldmia	r7!, {r0, r1}
 8001a18:	8030      	strh	r0, [r6, #0]
 8001a1a:	000e      	movs	r6, r1
 8001a1c:	4770      	bx	lr

08001a1e <allocator_2store>:
 8001a1e:	b500      	push	{lr}
 8001a20:	f7fe fd64 	bl	80004ec <expect_two_elements>
 8001a24:	f847 6d04 	str.w	r6, [r7, #-4]!
 8001a28:	f248 0600 	movw	r6, #32768	; 0x8000
 8001a2c:	6803      	ldr	r3, [r0, #0]
 8001a2e:	2b28      	cmp	r3, #40	; 0x28
 8001a30:	d109      	bne.n	8001a46 <allocator_2store+0x28>
 8001a32:	6843      	ldr	r3, [r0, #4]
 8001a34:	213e      	movs	r1, #62	; 0x3e
 8001a36:	4019      	ands	r1, r3
 8001a38:	0149      	lsls	r1, r1, #5
 8001a3a:	430e      	orrs	r6, r1
 8001a3c:	213e      	movs	r1, #62	; 0x3e
 8001a3e:	438b      	bics	r3, r1
 8001a40:	f7fe fcd7 	bl	80003f2 <generiere_adresskonstante>
 8001a44:	6003      	str	r3, [r0, #0]
 8001a46:	00db      	lsls	r3, r3, #3
 8001a48:	431e      	orrs	r6, r3
 8001a4a:	6883      	ldr	r3, [r0, #8]
 8001a4c:	2b28      	cmp	r3, #40	; 0x28
 8001a4e:	d102      	bne.n	8001a56 <allocator_2store+0x38>
 8001a50:	68c3      	ldr	r3, [r0, #12]
 8001a52:	f7fe fcc2 	bl	80003da <generiere_konstante>
 8001a56:	431e      	orrs	r6, r3
 8001a58:	f001 ff9a 	bl	8003990 <Code_879>
 8001a5c:	f7fe fc3f 	bl	80002de <eliminiere_tos>
 8001a60:	f7fe fc3d 	bl	80002de <eliminiere_tos>
 8001a64:	bd00      	pop	{pc}

08001a66 <Dictionary_394>:
 8001a66:	08001a9c 	stmdaeq	r0, {r2, r3, r4, r7, r9, fp, ip}
 8001a6a:	68030220 	stmdavs	r3, {r5, r9}
 8001a6e:	 	svcgt	0x0003212b

08001a70 <Code_394>:
 8001a70:	cf03      	ldmia	r7!, {r0, r1}
 8001a72:	8832      	ldrh	r2, [r6, #0]
 8001a74:	1812      	adds	r2, r2, r0
 8001a76:	8032      	strh	r2, [r6, #0]
 8001a78:	000e      	movs	r6, r1
 8001a7a:	4770      	bx	lr
 8001a7c:	b500      	push	{lr}
 8001a7e:	f7fe fd35 	bl	80004ec <expect_two_elements>
 8001a82:	f7ff fa3d 	bl	8000f00 <dup_allocator>
 8001a86:	f7ff ffa6 	bl	80019d6 <allocator_2fetch>
 8001a8a:	f7ff fac3 	bl	8001014 <rot_allocator>
 8001a8e:	f000 fcea 	bl	8002466 <plus_allocator>
 8001a92:	f7ff fa6a 	bl	8000f6a <swap_allocator>
 8001a96:	f7ff ffc2 	bl	8001a1e <allocator_2store>
 8001a9a:	bd00      	pop	{pc}

08001a9c <Dictionary_395>:
 8001a9c:	08001ae0 	stmdaeq	r0, {r5, r6, r7, r9, fp, ip}
 8001aa0:	63020220 	movwvs	r0, #8736	; 0x2220
 8001aa4:	 	ldmdavc	r6!, {r6}

08001aa6 <Code_395>:
 8001aa6:	7836      	ldrb	r6, [r6, #0]
 8001aa8:	4770      	bx	lr

08001aaa <allocator_1fetch>:
 8001aaa:	b500      	push	{lr}
 8001aac:	f7fe fd14 	bl	80004d8 <expect_one_element>
 8001ab0:	f847 6d04 	str.w	r6, [r7, #-4]!
 8001ab4:	f647 0600 	movw	r6, #30720	; 0x7800
 8001ab8:	6803      	ldr	r3, [r0, #0]
 8001aba:	2b28      	cmp	r3, #40	; 0x28
 8001abc:	d108      	bne.n	8001ad0 <allocator_1fetch+0x26>
 8001abe:	6843      	ldr	r3, [r0, #4]
 8001ac0:	211f      	movs	r1, #31
 8001ac2:	4019      	ands	r1, r3
 8001ac4:	0189      	lsls	r1, r1, #6
 8001ac6:	430e      	orrs	r6, r1
 8001ac8:	211f      	movs	r1, #31
 8001aca:	438b      	bics	r3, r1
 8001acc:	f7fe fc91 	bl	80003f2 <generiere_adresskonstante>
 8001ad0:	00db      	lsls	r3, r3, #3
 8001ad2:	431e      	orrs	r6, r3
 8001ad4:	f7fe fd8a 	bl	80005ec <tos_registerwechsel>
 8001ad8:	431e      	orrs	r6, r3
 8001ada:	f001 ff59 	bl	8003990 <Code_879>
 8001ade:	bd00      	pop	{pc}

08001ae0 <Dictionary_398>:
 8001ae0:	08001b3a 	stmdaeq	r0, {r1, r3, r4, r5, r8, r9, fp, ip}
 8001ae4:	63020220 	movwvs	r0, #8736	; 0x2220
 8001ae8:	 	svcgt	0x00030021

08001aea <Code_398>:
 8001aea:	cf03      	ldmia	r7!, {r0, r1}
 8001aec:	7030      	strb	r0, [r6, #0]
 8001aee:	000e      	movs	r6, r1
 8001af0:	4770      	bx	lr

08001af2 <allocator_1store>:
 8001af2:	b500      	push	{lr}
 8001af4:	f7fe fcfa 	bl	80004ec <expect_two_elements>
 8001af8:	f847 6d04 	str.w	r6, [r7, #-4]!
 8001afc:	f247 0600 	movw	r6, #28672	; 0x7000
 8001b00:	6803      	ldr	r3, [r0, #0]
 8001b02:	2b28      	cmp	r3, #40	; 0x28
 8001b04:	d109      	bne.n	8001b1a <allocator_1store+0x28>
 8001b06:	6843      	ldr	r3, [r0, #4]
 8001b08:	211f      	movs	r1, #31
 8001b0a:	4019      	ands	r1, r3
 8001b0c:	0189      	lsls	r1, r1, #6
 8001b0e:	430e      	orrs	r6, r1
 8001b10:	211f      	movs	r1, #31
 8001b12:	438b      	bics	r3, r1
 8001b14:	f7fe fc6d 	bl	80003f2 <generiere_adresskonstante>
 8001b18:	6003      	str	r3, [r0, #0]
 8001b1a:	00db      	lsls	r3, r3, #3
 8001b1c:	431e      	orrs	r6, r3
 8001b1e:	6883      	ldr	r3, [r0, #8]
 8001b20:	2b28      	cmp	r3, #40	; 0x28
 8001b22:	d102      	bne.n	8001b2a <allocator_1store+0x38>
 8001b24:	68c3      	ldr	r3, [r0, #12]
 8001b26:	f7fe fc58 	bl	80003da <generiere_konstante>
 8001b2a:	431e      	orrs	r6, r3
 8001b2c:	f001 ff30 	bl	8003990 <Code_879>
 8001b30:	f7fe fbd5 	bl	80002de <eliminiere_tos>
 8001b34:	f7fe fbd3 	bl	80002de <eliminiere_tos>
 8001b38:	bd00      	pop	{pc}

08001b3a <Dictionary_401>:
 8001b3a:	08001b70 	stmdaeq	r0, {r4, r5, r6, r8, r9, fp, ip}
 8001b3e:	63030220 	movwvs	r0, #12832	; 0x3220
 8001b42:	 	svcgt	0x0003212b

08001b44 <Code_401>:
 8001b44:	cf03      	ldmia	r7!, {r0, r1}
 8001b46:	7832      	ldrb	r2, [r6, #0]
 8001b48:	1812      	adds	r2, r2, r0
 8001b4a:	7032      	strb	r2, [r6, #0]
 8001b4c:	000e      	movs	r6, r1
 8001b4e:	4770      	bx	lr
 8001b50:	b500      	push	{lr}
 8001b52:	f7fe fccb 	bl	80004ec <expect_two_elements>
 8001b56:	f7ff f9d3 	bl	8000f00 <dup_allocator>
 8001b5a:	f7ff ffa6 	bl	8001aaa <allocator_1fetch>
 8001b5e:	f7ff fa59 	bl	8001014 <rot_allocator>
 8001b62:	f000 fc80 	bl	8002466 <plus_allocator>
 8001b66:	f7ff fa00 	bl	8000f6a <swap_allocator>
 8001b6a:	f7ff ffc2 	bl	8001af2 <allocator_1store>
 8001b6e:	bd00      	pop	{pc}

08001b70 <Dictionary_402>:
 8001b70:	08001b94 	stmdaeq	r0, {r2, r4, r7, r8, r9, fp, ip}
 8001b74:	62040220 	andvs	r0, r4, #32, 4
 8001b78:	00217369 	eoreq	r7, r1, r9, ror #6

08001b7c <Code_402>:
 8001b7c:	cf03      	ldmia	r7!, {r0, r1}
 8001b7e:	6832      	ldr	r2, [r6, #0]
 8001b80:	4302      	orrs	r2, r0
 8001b82:	6032      	str	r2, [r6, #0]
 8001b84:	000e      	movs	r6, r1
 8001b86:	4770      	bx	lr
 8001b88:	b500      	push	{lr}
 8001b8a:	f847 6d04 	str.w	r6, [r7, #-4]!
 8001b8e:	f244 3600 	movw	r6, #17152	; 0x4300
 8001b92:	e030      	b.n	8001bf6 <allocator_xorstore_intern>

08001b94 <Dictionary_405>:
 8001b94:	08001bd4 	stmdaeq	r0, {r2, r4, r6, r7, r8, r9, fp, ip}
 8001b98:	62040220 	andvs	r0, r4, #32, 4
 8001b9c:	00216369 	eoreq	r6, r1, r9, ror #6

08001ba0 <Code_405>:
 8001ba0:	cf03      	ldmia	r7!, {r0, r1}
 8001ba2:	6832      	ldr	r2, [r6, #0]
 8001ba4:	4382      	bics	r2, r0
 8001ba6:	6032      	str	r2, [r6, #0]
 8001ba8:	000e      	movs	r6, r1
 8001baa:	4770      	bx	lr
 8001bac:	b500      	push	{lr}
 8001bae:	f7fe fc9d 	bl	80004ec <expect_two_elements>
 8001bb2:	f7ff f9a5 	bl	8000f00 <dup_allocator>
 8001bb6:	f7ff fea5 	bl	8001904 <allocator_4fetch>
 8001bba:	f7ff fa2b 	bl	8001014 <rot_allocator>
 8001bbe:	f847 6d04 	str.w	r6, [r7, #-4]!
 8001bc2:	f244 3680 	movw	r6, #17280	; 0x4380
 8001bc6:	f7ff fbf0 	bl	80013aa <alloc_unkommutativ>
 8001bca:	f7ff f9ce 	bl	8000f6a <swap_allocator>
 8001bce:	f7ff febc 	bl	800194a <allocator_4store>
 8001bd2:	bd00      	pop	{pc}

08001bd4 <Dictionary_408>:
 8001bd4:	08001c14 	stmdaeq	r0, {r2, r4, sl, fp, ip}
 8001bd8:	78040220 	stmdavc	r4, {r5, r9}
 8001bdc:	0021726f 	eoreq	r7, r1, pc, ror #4

08001be0 <Code_408>:
 8001be0:	cf03      	ldmia	r7!, {r0, r1}
 8001be2:	6832      	ldr	r2, [r6, #0]
 8001be4:	4042      	eors	r2, r0
 8001be6:	6032      	str	r2, [r6, #0]
 8001be8:	000e      	movs	r6, r1
 8001bea:	4770      	bx	lr
 8001bec:	b500      	push	{lr}
 8001bee:	f847 6d04 	str.w	r6, [r7, #-4]!
 8001bf2:	f244 0640 	movw	r6, #16448	; 0x4040

08001bf6 <allocator_xorstore_intern>:
 8001bf6:	f7fe fc79 	bl	80004ec <expect_two_elements>
 8001bfa:	f7ff f981 	bl	8000f00 <dup_allocator>
 8001bfe:	f7ff fe81 	bl	8001904 <allocator_4fetch>
 8001c02:	f7ff fa07 	bl	8001014 <rot_allocator>
 8001c06:	f7ff fbd4 	bl	80013b2 <alloc_kommutativ>
 8001c0a:	f7ff f9ae 	bl	8000f6a <swap_allocator>
 8001c0e:	f7ff fe9c 	bl	800194a <allocator_4store>
 8001c12:	bd00      	pop	{pc}

08001c14 <Dictionary_411>:
 8001c14:	08001c4a 	stmdaeq	r0, {r1, r3, r6, sl, fp, ip}
 8001c18:	62040220 	andvs	r0, r4, #32, 4
 8001c1c:	00407469 	subeq	r7, r0, r9, ror #8

08001c20 <Code_411>:
 8001c20:	cf01      	ldmia	r7!, {r0}
 8001c22:	6836      	ldr	r6, [r6, #0]
 8001c24:	4006      	ands	r6, r0
 8001c26:	bf18      	it	ne
 8001c28:	f04f 36ff 	movne.w	r6, #4294967295	; 0xffffffff
 8001c2c:	4770      	bx	lr
 8001c2e:	b500      	push	{lr}
 8001c30:	f7fe fc5c 	bl	80004ec <expect_two_elements>
 8001c34:	f7ff fe66 	bl	8001904 <allocator_4fetch>

08001c38 <allocator_bitfetch_intern>:
 8001c38:	f847 6d04 	str.w	r6, [r7, #-4]!
 8001c3c:	f244 0600 	movw	r6, #16384	; 0x4000
 8001c40:	f7ff fbb7 	bl	80013b2 <alloc_kommutativ>
 8001c44:	f7ff fc2c 	bl	80014a0 <allocator_unequal_zero>
 8001c48:	bd00      	pop	{pc}

08001c4a <Dictionary_414>:
 8001c4a:	08001c6e 	stmdaeq	r0, {r1, r2, r3, r5, r6, sl, fp, ip}
 8001c4e:	68050220 	stmdavs	r5, {r5, r9}
 8001c52:	21736962 	cmncs	r3, r2, ror #18

08001c56 <Code_414>:
 8001c56:	cf03      	ldmia	r7!, {r0, r1}
 8001c58:	8832      	ldrh	r2, [r6, #0]
 8001c5a:	4302      	orrs	r2, r0
 8001c5c:	8032      	strh	r2, [r6, #0]
 8001c5e:	000e      	movs	r6, r1
 8001c60:	4770      	bx	lr
 8001c62:	b500      	push	{lr}
 8001c64:	f847 6d04 	str.w	r6, [r7, #-4]!
 8001c68:	f244 3600 	movw	r6, #17152	; 0x4300
 8001c6c:	e030      	b.n	8001cd0 <allocator_hxorstore_intern>

08001c6e <Dictionary_417>:
 8001c6e:	08001cae 	stmdaeq	r0, {r1, r2, r3, r5, r7, sl, fp, ip}
 8001c72:	68050220 	stmdavs	r5, {r5, r9}
 8001c76:	21636962 	cmncs	r3, r2, ror #18

08001c7a <Code_417>:
 8001c7a:	cf03      	ldmia	r7!, {r0, r1}
 8001c7c:	8832      	ldrh	r2, [r6, #0]
 8001c7e:	4382      	bics	r2, r0
 8001c80:	8032      	strh	r2, [r6, #0]
 8001c82:	000e      	movs	r6, r1
 8001c84:	4770      	bx	lr
 8001c86:	b500      	push	{lr}
 8001c88:	f7fe fc30 	bl	80004ec <expect_two_elements>
 8001c8c:	f7ff f938 	bl	8000f00 <dup_allocator>
 8001c90:	f7ff fea1 	bl	80019d6 <allocator_2fetch>
 8001c94:	f7ff f9be 	bl	8001014 <rot_allocator>
 8001c98:	f847 6d04 	str.w	r6, [r7, #-4]!
 8001c9c:	f244 3680 	movw	r6, #17280	; 0x4380
 8001ca0:	f7ff fb83 	bl	80013aa <alloc_unkommutativ>
 8001ca4:	f7ff f961 	bl	8000f6a <swap_allocator>
 8001ca8:	f7ff feb9 	bl	8001a1e <allocator_2store>
 8001cac:	bd00      	pop	{pc}

08001cae <Dictionary_420>:
 8001cae:	08001cee 	stmdaeq	r0, {r1, r2, r3, r5, r6, r7, sl, fp, ip}
 8001cb2:	68050220 	stmdavs	r5, {r5, r9}
 8001cb6:	21726f78 	cmncs	r2, r8, ror pc

08001cba <Code_420>:
 8001cba:	cf03      	ldmia	r7!, {r0, r1}
 8001cbc:	8832      	ldrh	r2, [r6, #0]
 8001cbe:	4042      	eors	r2, r0
 8001cc0:	8032      	strh	r2, [r6, #0]
 8001cc2:	000e      	movs	r6, r1
 8001cc4:	4770      	bx	lr
 8001cc6:	b500      	push	{lr}
 8001cc8:	f847 6d04 	str.w	r6, [r7, #-4]!
 8001ccc:	f244 0640 	movw	r6, #16448	; 0x4040

08001cd0 <allocator_hxorstore_intern>:
 8001cd0:	f7fe fc0c 	bl	80004ec <expect_two_elements>
 8001cd4:	f7ff f914 	bl	8000f00 <dup_allocator>
 8001cd8:	f7ff fe7d 	bl	80019d6 <allocator_2fetch>
 8001cdc:	f7ff f99a 	bl	8001014 <rot_allocator>
 8001ce0:	f7ff fb67 	bl	80013b2 <alloc_kommutativ>
 8001ce4:	f7ff f941 	bl	8000f6a <swap_allocator>
 8001ce8:	f7ff fe99 	bl	8001a1e <allocator_2store>
 8001cec:	bd00      	pop	{pc}

08001cee <Dictionary_423>:
 8001cee:	08001d14 	stmdaeq	r0, {r2, r4, r8, sl, fp, ip}
 8001cf2:	68050220 	stmdavs	r5, {r5, r9}
 8001cf6:	40746962 	rsbsmi	r6, r4, r2, ror #18

08001cfa <Code_423>:
 8001cfa:	cf01      	ldmia	r7!, {r0}
 8001cfc:	8836      	ldrh	r6, [r6, #0]
 8001cfe:	4006      	ands	r6, r0
 8001d00:	bf18      	it	ne
 8001d02:	f04f 36ff 	movne.w	r6, #4294967295	; 0xffffffff
 8001d06:	4770      	bx	lr
 8001d08:	b500      	push	{lr}
 8001d0a:	f7fe fbef 	bl	80004ec <expect_two_elements>
 8001d0e:	f7ff fe62 	bl	80019d6 <allocator_2fetch>
 8001d12:	e791      	b.n	8001c38 <allocator_bitfetch_intern>

08001d14 <Dictionary_424>:
 8001d14:	08001d38 	stmdaeq	r0, {r3, r4, r5, r8, sl, fp, ip}
 8001d18:	63050220 	movwvs	r0, #21024	; 0x5220
 8001d1c:	21736962 	cmncs	r3, r2, ror #18

08001d20 <Code_424>:
 8001d20:	cf03      	ldmia	r7!, {r0, r1}
 8001d22:	7832      	ldrb	r2, [r6, #0]
 8001d24:	4302      	orrs	r2, r0
 8001d26:	7032      	strb	r2, [r6, #0]
 8001d28:	000e      	movs	r6, r1
 8001d2a:	4770      	bx	lr
 8001d2c:	b500      	push	{lr}
 8001d2e:	f847 6d04 	str.w	r6, [r7, #-4]!
 8001d32:	f244 3600 	movw	r6, #17152	; 0x4300
 8001d36:	e030      	b.n	8001d9a <allocator_cxorstore_intern>

08001d38 <Dictionary_427>:
 8001d38:	08001d78 	stmdaeq	r0, {r3, r4, r5, r6, r8, sl, fp, ip}
 8001d3c:	63050220 	movwvs	r0, #21024	; 0x5220
 8001d40:	21636962 	cmncs	r3, r2, ror #18

08001d44 <Code_427>:
 8001d44:	cf03      	ldmia	r7!, {r0, r1}
 8001d46:	7832      	ldrb	r2, [r6, #0]
 8001d48:	4382      	bics	r2, r0
 8001d4a:	7032      	strb	r2, [r6, #0]
 8001d4c:	000e      	movs	r6, r1
 8001d4e:	4770      	bx	lr
 8001d50:	b500      	push	{lr}
 8001d52:	f7fe fbcb 	bl	80004ec <expect_two_elements>
 8001d56:	f7ff f8d3 	bl	8000f00 <dup_allocator>
 8001d5a:	f7ff fea6 	bl	8001aaa <allocator_1fetch>
 8001d5e:	f7ff f959 	bl	8001014 <rot_allocator>
 8001d62:	f847 6d04 	str.w	r6, [r7, #-4]!
 8001d66:	f244 3680 	movw	r6, #17280	; 0x4380
 8001d6a:	f7ff fb1e 	bl	80013aa <alloc_unkommutativ>
 8001d6e:	f7ff f8fc 	bl	8000f6a <swap_allocator>
 8001d72:	f7ff febe 	bl	8001af2 <allocator_1store>
 8001d76:	bd00      	pop	{pc}

08001d78 <Dictionary_430>:
 8001d78:	08001db8 	stmdaeq	r0, {r3, r4, r5, r7, r8, sl, fp, ip}
 8001d7c:	63050220 	movwvs	r0, #21024	; 0x5220
 8001d80:	21726f78 	cmncs	r2, r8, ror pc

08001d84 <Code_430>:
 8001d84:	cf03      	ldmia	r7!, {r0, r1}
 8001d86:	7832      	ldrb	r2, [r6, #0]
 8001d88:	4042      	eors	r2, r0
 8001d8a:	7032      	strb	r2, [r6, #0]
 8001d8c:	000e      	movs	r6, r1
 8001d8e:	4770      	bx	lr
 8001d90:	b500      	push	{lr}
 8001d92:	f847 6d04 	str.w	r6, [r7, #-4]!
 8001d96:	f244 0640 	movw	r6, #16448	; 0x4040

08001d9a <allocator_cxorstore_intern>:
 8001d9a:	f7fe fba7 	bl	80004ec <expect_two_elements>
 8001d9e:	f7ff f8af 	bl	8000f00 <dup_allocator>
 8001da2:	f7ff fe82 	bl	8001aaa <allocator_1fetch>
 8001da6:	f7ff f935 	bl	8001014 <rot_allocator>
 8001daa:	f7ff fb02 	bl	80013b2 <alloc_kommutativ>
 8001dae:	f7ff f8dc 	bl	8000f6a <swap_allocator>
 8001db2:	f7ff fe9e 	bl	8001af2 <allocator_1store>
 8001db6:	bd00      	pop	{pc}

08001db8 <Dictionary_433>:
 8001db8:	08001f1a 	stmdaeq	r0, {r1, r3, r4, r8, r9, sl, fp, ip}
 8001dbc:	63050220 	movwvs	r0, #21024	; 0x5220
 8001dc0:	40746962 	rsbsmi	r6, r4, r2, ror #18

08001dc4 <Code_433>:
 8001dc4:	cf01      	ldmia	r7!, {r0}
 8001dc6:	7836      	ldrb	r6, [r6, #0]
 8001dc8:	4006      	ands	r6, r0
 8001dca:	bf18      	it	ne
 8001dcc:	f04f 36ff 	movne.w	r6, #4294967295	; 0xffffffff
 8001dd0:	4770      	bx	lr
 8001dd2:	b500      	push	{lr}
 8001dd4:	f7fe fb8a 	bl	80004ec <expect_two_elements>
 8001dd8:	f7ff fe67 	bl	8001aaa <allocator_1fetch>
 8001ddc:	e72c      	b.n	8001c38 <allocator_bitfetch_intern>

08001dde <check_flash_error>:
 8001dde:	4af3      	ldr	r2, [pc, #972]	; (80021ac <Code_459+0xf8>)
 8001de0:	6813      	ldr	r3, [r2, #0]
 8001de2:	4af3      	ldr	r2, [pc, #972]	; (80021b0 <Code_459+0xfc>)
 8001de4:	4013      	ands	r3, r2
 8001de6:	d100      	bne.n	8001dea <check_flash_error+0xc>
 8001de8:	4770      	bx	lr
 8001dea:	4af2      	ldr	r2, [pc, #968]	; (80021b4 <Code_459+0x100>)
 8001dec:	4cf0      	ldr	r4, [pc, #960]	; (80021b0 <Code_459+0xfc>)
 8001dee:	6014      	str	r4, [r2, #0]
 8001df0:	001a      	movs	r2, r3
 8001df2:	4770      	bx	lr

08001df4 <wait_for_last_operation>:
 8001df4:	b500      	push	{lr}
 8001df6:	4aed      	ldr	r2, [pc, #948]	; (80021ac <Code_459+0xf8>)
 8001df8:	6813      	ldr	r3, [r2, #0]
 8001dfa:	f013 0304 	ands.w	r3, r3, #4
 8001dfe:	d1fb      	bne.n	8001df8 <wait_for_last_operation+0x4>
 8001e00:	f7ff ffed 	bl	8001dde <check_flash_error>
 8001e04:	d000      	beq.n	8001e08 <wait_for_last_operation+0x14>
 8001e06:	bd00      	pop	{pc}
 8001e08:	4ae8      	ldr	r2, [pc, #928]	; (80021ac <Code_459+0xf8>)
 8001e0a:	6813      	ldr	r3, [r2, #0]
 8001e0c:	f413 3380 	ands.w	r3, r3, #65536	; 0x10000
 8001e10:	d004      	beq.n	8001e1c <wait_for_last_operation+0x28>
 8001e12:	4ae8      	ldr	r2, [pc, #928]	; (80021b4 <Code_459+0x100>)
 8001e14:	6813      	ldr	r3, [r2, #0]
 8001e16:	f443 3380 	orr.w	r3, r3, #65536	; 0x10000
 8001e1a:	6013      	str	r3, [r2, #0]
 8001e1c:	2200      	movs	r2, #0
 8001e1e:	bd00      	pop	{pc}

08001e20 <flash_line>:
 8001e20:	b51f      	push	{r0, r1, r2, r3, r4, lr}
 8001e22:	4ae5      	ldr	r2, [pc, #916]	; (80021b8 <Code_459+0x104>)
 8001e24:	4be5      	ldr	r3, [pc, #916]	; (80021bc <Code_459+0x108>)
 8001e26:	6013      	str	r3, [r2, #0]
 8001e28:	4be5      	ldr	r3, [pc, #916]	; (80021c0 <Code_459+0x10c>)
 8001e2a:	6013      	str	r3, [r2, #0]
 8001e2c:	4ae5      	ldr	r2, [pc, #916]	; (80021c4 <Code_459+0x110>)
 8001e2e:	6813      	ldr	r3, [r2, #0]
 8001e30:	f013 0301 	ands.w	r3, r3, #1
 8001e34:	d12a      	bne.n	8001e8c <flash_line+0x6c>
 8001e36:	f7ff ffdd 	bl	8001df4 <wait_for_last_operation>
 8001e3a:	0014      	movs	r4, r2
 8001e3c:	2c00      	cmp	r4, #0
 8001e3e:	d13a      	bne.n	8001eb6 <flash_line+0x96>
 8001e40:	4ae0      	ldr	r2, [pc, #896]	; (80021c4 <Code_459+0x110>)
 8001e42:	6814      	ldr	r4, [r2, #0]
 8001e44:	f044 0402 	orr.w	r4, r4, #2
 8001e48:	6014      	str	r4, [r2, #0]
 8001e4a:	f3bf 8f6f 	isb	sy
 8001e4e:	f3bf 8f4f 	dsb	sy
 8001e52:	460a      	mov	r2, r1
 8001e54:	f04f 0308 	mov.w	r3, #8
 8001e58:	f852 1b04 	ldr.w	r1, [r2], #4
 8001e5c:	f840 1b04 	str.w	r1, [r0], #4
 8001e60:	3b01      	subs	r3, #1
 8001e62:	d1f9      	bne.n	8001e58 <flash_line+0x38>
 8001e64:	f3bf 8f6f 	isb	sy
 8001e68:	f3bf 8f4f 	dsb	sy
 8001e6c:	f7ff ffc2 	bl	8001df4 <wait_for_last_operation>
 8001e70:	4614      	mov	r4, r2
 8001e72:	49d4      	ldr	r1, [pc, #848]	; (80021c4 <Code_459+0x110>)
 8001e74:	6808      	ldr	r0, [r1, #0]
 8001e76:	f020 0002 	bic.w	r0, r0, #2
 8001e7a:	6008      	str	r0, [r1, #0]
 8001e7c:	4ad1      	ldr	r2, [pc, #836]	; (80021c4 <Code_459+0x110>)
 8001e7e:	6811      	ldr	r1, [r2, #0]
 8001e80:	f041 0101 	orr.w	r1, r1, #1
 8001e84:	6011      	str	r1, [r2, #0]
 8001e86:	2c00      	cmp	r4, #0
 8001e88:	d115      	bne.n	8001eb6 <flash_line+0x96>
 8001e8a:	bd1f      	pop	{r0, r1, r2, r3, r4, pc}
 8001e8c:	f000 ffee 	bl	8002e6c <dotgaensefuesschen>
 8001e90:	335b1b21 	cmpcc	fp, #33792	; 0x8400
 8001e94:	72456d31 	subvc	r6, r5, #3136	; 0xc40
 8001e98:	20726f72 	rsbscs	r6, r2, r2, ror pc
 8001e9c:	72772031 	rsbsvc	r2, r7, #49	; 0x31
 8001ea0:	6e697469 	cdpvs	4, 6, cr7, cr9, cr9, {3}
 8001ea4:	6c662067 	stclvs	0, cr2, [r6], #-412	; 0xfffffe64
 8001ea8:	20687361 	rsbcs	r7, r8, r1, ror #6
 8001eac:	305b1b21 	subscc	r1, fp, r1, lsr #22
 8001eb0:	f0030a6d 			; <UNDEFINED> instruction: 0xf0030a6d
 8001eb4:	b834      			; <UNDEFINED> instruction: 0xb834
 8001eb6:	f847 6d04 	str.w	r6, [r7, #-4]!
 8001eba:	4626      	mov	r6, r4
 8001ebc:	f001 f83e 	bl	8002f3c <Code_708>
 8001ec0:	f000 ffd4 	bl	8002e6c <dotgaensefuesschen>
 8001ec4:	335b1b21 	cmpcc	fp, #33792	; 0x8400
 8001ec8:	72456d31 	subvc	r6, r5, #3136	; 0xc40
 8001ecc:	20726f72 	rsbscs	r6, r2, r2, ror pc
 8001ed0:	72772032 	rsbsvc	r2, r7, #50	; 0x32
 8001ed4:	6e697469 	cdpvs	4, 6, cr7, cr9, cr9, {3}
 8001ed8:	6c662067 	stclvs	0, cr2, [r6], #-412	; 0xfffffe64
 8001edc:	20687361 	rsbcs	r7, r8, r1, ror #6
 8001ee0:	305b1b21 	subscc	r1, fp, r1, lsr #22
 8001ee4:	f0030a6d 			; <UNDEFINED> instruction: 0xf0030a6d
 8001ee8:	b81a      			; <UNDEFINED> instruction: 0xb81a

08001eea <hexflashstore_fehler>:
 8001eea:	f000 ffbf 	bl	8002e6c <dotgaensefuesschen>
 8001eee:	335b1b27 	cmpcc	fp, #39936	; 0x9c00
 8001ef2:	6c466d31 	mcrrvs	13, 3, r6, r6, cr1
 8001ef6:	20687361 	rsbcs	r7, r8, r1, ror #6
 8001efa:	6e6e6163 	powvsez	f6, f6, f3
 8001efe:	6220746f 	eorvs	r7, r0, #1862270976	; 0x6f000000
 8001f02:	72772065 	rsbsvc	r2, r7, #101	; 0x65
 8001f06:	65747469 	ldrbvs	r7, [r4, #-1129]!	; 0xfffffb97
 8001f0a:	7774206e 	ldrbvc	r2, [r4, -lr, rrx]!
 8001f0e:	1b656369 	blne	995acba <FlashDictionaryEnde+0x185acba>
 8001f12:	0a6d305b 	beq	9b4e086 <FlashDictionaryEnde+0x1a4e086>
 8001f16:	f003 b802 	b.w	8004f1e <Code_1262>

08001f1a <Dictionary_438>:
 8001f1a:	08001fa0 	stmdaeq	r0, {r5, r7, r8, r9, sl, fp, ip}
 8001f1e:	33080000 	movwcc	r0, #32768	; 0x8000
 8001f22:	616c6632 	cmnvs	ip, r2, lsr r6
 8001f26:	00216873 	eoreq	r6, r1, r3, ror r8

08001f2a <Code_438>:
 8001f2a:	b50f      	push	{r0, r1, r2, r3, lr}
 8001f2c:	201f      	movs	r0, #31
 8001f2e:	4030      	ands	r0, r6
 8001f30:	d019      	beq.n	8001f66 <Code_438+0x3c>
 8001f32:	f000 ff9b 	bl	8002e6c <dotgaensefuesschen>
 8001f36:	335b1b2b 	cmpcc	fp, #44032	; 0xac00
 8001f3a:	32336d31 	eorscc	r6, r3, #3136	; 0xc40
 8001f3e:	73616c66 	cmnvc	r1, #26112	; 0x6600
 8001f42:	6e202168 	sufvssz	f2, f0, #0.0
 8001f46:	73646565 	cmnvc	r4, #423624704	; 0x19400000
 8001f4a:	2d323320 	ldccs	3, cr3, [r2, #-128]!	; 0xffffff80
 8001f4e:	67696c61 	strbvs	r6, [r9, -r1, ror #24]!
 8001f52:	2064656e 	rsbcs	r6, r4, lr, ror #10
 8001f56:	72646461 	rsbvc	r6, r4, #1627389952	; 0x61000000
 8001f5a:	1b737365 	blne	9cdecf6 <FlashDictionaryEnde+0x1bdecf6>
 8001f5e:	0a6d305b 	beq	9b4e0d2 <FlashDictionaryEnde+0x1a4e0d2>
 8001f62:	f002 bfdc 	b.w	8004f1e <Code_1262>
 8001f66:	6830      	ldr	r0, [r6, #0]
 8001f68:	3001      	adds	r0, #1
 8001f6a:	d1be      	bne.n	8001eea <hexflashstore_fehler>
 8001f6c:	6870      	ldr	r0, [r6, #4]
 8001f6e:	3001      	adds	r0, #1
 8001f70:	d1bb      	bne.n	8001eea <hexflashstore_fehler>
 8001f72:	0030      	movs	r0, r6
 8001f74:	cf40      	ldmia	r7!, {r6}
 8001f76:	f04f 5100 	mov.w	r1, #536870912	; 0x20000000
 8001f7a:	61ce      	str	r6, [r1, #28]
 8001f7c:	cf40      	ldmia	r7!, {r6}
 8001f7e:	618e      	str	r6, [r1, #24]
 8001f80:	cf40      	ldmia	r7!, {r6}
 8001f82:	614e      	str	r6, [r1, #20]
 8001f84:	cf40      	ldmia	r7!, {r6}
 8001f86:	610e      	str	r6, [r1, #16]
 8001f88:	cf40      	ldmia	r7!, {r6}
 8001f8a:	60ce      	str	r6, [r1, #12]
 8001f8c:	cf40      	ldmia	r7!, {r6}
 8001f8e:	608e      	str	r6, [r1, #8]
 8001f90:	cf40      	ldmia	r7!, {r6}
 8001f92:	604e      	str	r6, [r1, #4]
 8001f94:	cf40      	ldmia	r7!, {r6}
 8001f96:	600e      	str	r6, [r1, #0]
 8001f98:	cf40      	ldmia	r7!, {r6}
 8001f9a:	f7ff ff41 	bl	8001e20 <flash_line>
 8001f9e:	bd0f      	pop	{r0, r1, r2, r3, pc}

08001fa0 <Dictionary_449>:
 8001fa0:	080020a2 	stmdaeq	r0, {r1, r5, r7, sp}
 8001fa4:	65100000 	ldrvs	r0, [r0, #-0]
 8001fa8:	65736172 	ldrbvs	r6, [r3, #-370]!	; 0xfffffe8e
 8001fac:	73616c66 	cmnvc	r1, #26112	; 0x6600
 8001fb0:	63657368 	cmnvs	r5, #104, 6	; 0xa0000001
 8001fb4:	00726f74 	rsbseq	r6, r2, r4, ror pc

08001fb8 <Code_449>:
 8001fb8:	b500      	push	{lr}
 8001fba:	2e01      	cmp	r6, #1
 8001fbc:	f0c0 8088 	bcc.w	80020d0 <Code_459+0x1c>
 8001fc0:	2e08      	cmp	r6, #8
 8001fc2:	f080 8085 	bcs.w	80020d0 <Code_459+0x1c>
 8001fc6:	4a7c      	ldr	r2, [pc, #496]	; (80021b8 <Code_459+0x104>)
 8001fc8:	4b7c      	ldr	r3, [pc, #496]	; (80021bc <Code_459+0x108>)
 8001fca:	6013      	str	r3, [r2, #0]
 8001fcc:	4b7c      	ldr	r3, [pc, #496]	; (80021c0 <Code_459+0x10c>)
 8001fce:	6013      	str	r3, [r2, #0]
 8001fd0:	f000 ff4c 	bl	8002e6c <dotgaensefuesschen>
 8001fd4:	6172450d 	cmnvs	r2, sp, lsl #10
 8001fd8:	73206573 			; <UNDEFINED> instruction: 0x73206573
 8001fdc:	6f746365 	svcvs	0x00746365
 8001fe0:	f8472072 			; <UNDEFINED> instruction: 0xf8472072
 8001fe4:	6d04      	ldr	r4, [r0, #80]	; 0x50
 8001fe6:	f002 fdda 	bl	8004b9e <Code_1196>
 8001fea:	f7ff ff03 	bl	8001df4 <wait_for_last_operation>
 8001fee:	2a00      	cmp	r2, #0
 8001ff0:	d01c      	beq.n	800202c <Code_449+0x74>
 8001ff2:	f847 6d04 	str.w	r6, [r7, #-4]!
 8001ff6:	4616      	mov	r6, r2
 8001ff8:	f000 ffa0 	bl	8002f3c <Code_708>
 8001ffc:	f000 ff36 	bl	8002e6c <dotgaensefuesschen>
 8002000:	335b1b27 	cmpcc	fp, #39936	; 0x9c00
 8002004:	49206d31 	stmdbmi	r0!, {r0, r4, r5, r8, sl, fp, sp, lr}
 8002008:	6974696e 	ldmdbvs	r4!, {r1, r2, r3, r5, r6, r8, fp, sp, lr}^
 800200c:	46206c61 	strtmi	r6, [r0], -r1, ror #24
 8002010:	6873616c 	ldmdavs	r3!, {r2, r3, r5, r6, r8, sp, lr}^
 8002014:	72726520 	rsbsvc	r6, r2, #32, 10	; 0x8000000
 8002018:	6420726f 	strtvs	r7, [r0], #-623	; 0xfffffd91
 800201c:	63657465 	cmnvs	r5, #1694498816	; 0x65000000
 8002020:	1b646574 	blne	991b5f8 <FlashDictionaryEnde+0x181b5f8>
 8002024:	0a6d305b 	beq	9b4e198 <FlashDictionaryEnde+0x1a4e198>
 8002028:	f002 bf79 	b.w	8004f1e <Code_1262>
 800202c:	4a65      	ldr	r2, [pc, #404]	; (80021c4 <Code_459+0x110>)
 800202e:	6813      	ldr	r3, [r2, #0]
 8002030:	f403 63e6 	and.w	r3, r3, #1840	; 0x730
 8002034:	f053 03b4 	orrs.w	r3, r3, #180	; 0xb4
 8002038:	0236      	lsls	r6, r6, #8
 800203a:	4333      	orrs	r3, r6
 800203c:	6013      	str	r3, [r2, #0]
 800203e:	f7ff fed9 	bl	8001df4 <wait_for_last_operation>
 8002042:	4614      	mov	r4, r2
 8002044:	4a5f      	ldr	r2, [pc, #380]	; (80021c4 <Code_459+0x110>)
 8002046:	6813      	ldr	r3, [r2, #0]
 8002048:	f240 7104 	movw	r1, #1796	; 0x704
 800204c:	ea03 0301 	and.w	r3, r3, r1
 8002050:	6013      	str	r3, [r2, #0]
 8002052:	f053 0301 	orrs.w	r3, r3, #1
 8002056:	6013      	str	r3, [r2, #0]
 8002058:	2c00      	cmp	r4, #0
 800205a:	d017      	beq.n	800208c <Code_449+0xd4>
 800205c:	f847 6d04 	str.w	r6, [r7, #-4]!
 8002060:	4626      	mov	r6, r4
 8002062:	f000 ff6b 	bl	8002f3c <Code_708>
 8002066:	f000 ff01 	bl	8002e6c <dotgaensefuesschen>
 800206a:	335b1b1c 	cmpcc	fp, #28, 22	; 0x7000
 800206e:	46206d31 			; <UNDEFINED> instruction: 0x46206d31
 8002072:	6873616c 	ldmdavs	r3!, {r2, r3, r5, r6, r8, sp, lr}^
 8002076:	61726520 	cmnvs	r2, r0, lsr #10
 800207a:	65206573 	strvs	r6, [r0, #-1395]!	; 0xfffffa8d
 800207e:	726f7272 	rsbvc	r7, pc, #536870919	; 0x20000007
 8002082:	6d305b1b 	fldmdbxvs	r0!, {d5-d17}	;@ Deprecated
 8002086:	f002000a 			; <UNDEFINED> instruction: 0xf002000a
 800208a:	bf49      	itett	mi
 800208c:	f000 feee 	blmi	8002e6c <dotgaensefuesschen>	; unpredictable branch in IT block

 8002090:	6f72660c 	svcvs	0x0072660c
 8002094:	6c46206d 	mcrrvs	0, 6, r2, r6, cr13
 8002098:	2e687361 	cdpcs	3, 6, cr7, cr8, cr1, {3}
 800209c:	cf40000a 	svcgt	0x0040000a
 80020a0:	bd00      	pop	{pc}

080020a2 <Dictionary_459>:
 80020a2:	08002200 	stmdaeq	r0, {r9, sp}
 80020a6:	650a0000 	strvs	r0, [sl, #-0]
 80020aa:	65736172 	ldrbvs	r6, [r3, #-370]!	; 0xfffffe8e
 80020ae:	73616c66 	cmnvc	r1, #26112	; 0x6600
 80020b2:	 	ldrbtlt	r0, [r2], -r8, rrx

080020b4 <Code_459>:
 80020b4:	b672      	cpsid	i
 80020b6:	b500      	pushpl	{lr}
 80020b8:	4843      	ldrmi	r0, [pc, #268]	; (80021c8 <Code_459+0x114>)
 80020ba:	4944      	ldrmi	r1, [pc, #272]	; (80021cc <Code_459+0x118>)
 80020bc:	6802      	ldr	r2, [r0, #0]
 80020be:	f1b2 3fff 	cmp.w	r2, #4294967295	; 0xffffffff
 80020c2:	d005      	beq.n	80020d0 <Code_459+0x1c>
 80020c4:	f847 6d04 	str.w	r6, [r7, #-4]!
 80020c8:	2601      	movs	r6, #1
 80020ca:	f7ff ff75 	bl	8001fb8 <Code_449>
 80020ce:	e002      	b.n	80020d6 <Code_459+0x22>
 80020d0:	3004      	adds	r0, #4
 80020d2:	4288      	cmp	r0, r1
 80020d4:	d3f2      	bcc.n	80020bc <Code_459+0x8>
 80020d6:	483e      	ldr	r0, [pc, #248]	; (80021d0 <Code_459+0x11c>)
 80020d8:	493e      	ldr	r1, [pc, #248]	; (80021d4 <Code_459+0x120>)
 80020da:	6802      	ldr	r2, [r0, #0]
 80020dc:	f1b2 3fff 	cmp.w	r2, #4294967295	; 0xffffffff
 80020e0:	d005      	beq.n	80020ee <Code_459+0x3a>
 80020e2:	f847 6d04 	str.w	r6, [r7, #-4]!
 80020e6:	2602      	movs	r6, #2
 80020e8:	f7ff ff66 	bl	8001fb8 <Code_449>
 80020ec:	e002      	b.n	80020f4 <Code_459+0x40>
 80020ee:	3004      	adds	r0, #4
 80020f0:	4288      	cmp	r0, r1
 80020f2:	d3f2      	bcc.n	80020da <Code_459+0x26>
 80020f4:	4838      	ldr	r0, [pc, #224]	; (80021d8 <Code_459+0x124>)
 80020f6:	4939      	ldr	r1, [pc, #228]	; (80021dc <Code_459+0x128>)
 80020f8:	6802      	ldr	r2, [r0, #0]
 80020fa:	f1b2 3fff 	cmp.w	r2, #4294967295	; 0xffffffff
 80020fe:	d005      	beq.n	800210c <Code_459+0x58>
 8002100:	f847 6d04 	str.w	r6, [r7, #-4]!
 8002104:	2603      	movs	r6, #3
 8002106:	f7ff ff57 	bl	8001fb8 <Code_449>
 800210a:	e002      	b.n	8002112 <Code_459+0x5e>
 800210c:	3004      	adds	r0, #4
 800210e:	4288      	cmp	r0, r1
 8002110:	d3f2      	bcc.n	80020f8 <Code_459+0x44>
 8002112:	4833      	ldr	r0, [pc, #204]	; (80021e0 <Code_459+0x12c>)
 8002114:	4933      	ldr	r1, [pc, #204]	; (80021e4 <Code_459+0x130>)
 8002116:	6802      	ldr	r2, [r0, #0]
 8002118:	f1b2 3fff 	cmp.w	r2, #4294967295	; 0xffffffff
 800211c:	d005      	beq.n	800212a <Code_459+0x76>
 800211e:	f847 6d04 	str.w	r6, [r7, #-4]!
 8002122:	2604      	movs	r6, #4
 8002124:	f7ff ff48 	bl	8001fb8 <Code_449>
 8002128:	e002      	b.n	8002130 <Code_459+0x7c>
 800212a:	3004      	adds	r0, #4
 800212c:	4288      	cmp	r0, r1
 800212e:	d3f2      	bcc.n	8002116 <Code_459+0x62>
 8002130:	482d      	ldr	r0, [pc, #180]	; (80021e8 <Code_459+0x134>)
 8002132:	492e      	ldr	r1, [pc, #184]	; (80021ec <Code_459+0x138>)
 8002134:	6802      	ldr	r2, [r0, #0]
 8002136:	f1b2 3fff 	cmp.w	r2, #4294967295	; 0xffffffff
 800213a:	d005      	beq.n	8002148 <Code_459+0x94>
 800213c:	f847 6d04 	str.w	r6, [r7, #-4]!
 8002140:	2605      	movs	r6, #5
 8002142:	f7ff ff39 	bl	8001fb8 <Code_449>
 8002146:	e002      	b.n	800214e <Code_459+0x9a>
 8002148:	3004      	adds	r0, #4
 800214a:	4288      	cmp	r0, r1
 800214c:	d3f2      	bcc.n	8002134 <Code_459+0x80>
 800214e:	4828      	ldr	r0, [pc, #160]	; (80021f0 <Code_459+0x13c>)
 8002150:	4928      	ldr	r1, [pc, #160]	; (80021f4 <Code_459+0x140>)
 8002152:	6802      	ldr	r2, [r0, #0]
 8002154:	f1b2 3fff 	cmp.w	r2, #4294967295	; 0xffffffff
 8002158:	d005      	beq.n	8002166 <Code_459+0xb2>
 800215a:	f847 6d04 	str.w	r6, [r7, #-4]!
 800215e:	2606      	movs	r6, #6
 8002160:	f7ff ff2a 	bl	8001fb8 <Code_449>
 8002164:	e002      	b.n	800216c <Code_459+0xb8>
 8002166:	3004      	adds	r0, #4
 8002168:	4288      	cmp	r0, r1
 800216a:	d3f2      	bcc.n	8002152 <Code_459+0x9e>
 800216c:	4822      	ldr	r0, [pc, #136]	; (80021f8 <Code_459+0x144>)
 800216e:	4923      	ldr	r1, [pc, #140]	; (80021fc <Code_459+0x148>)
 8002170:	6802      	ldr	r2, [r0, #0]
 8002172:	f1b2 3fff 	cmp.w	r2, #4294967295	; 0xffffffff
 8002176:	d005      	beq.n	8002184 <Code_459+0xd0>
 8002178:	f847 6d04 	str.w	r6, [r7, #-4]!
 800217c:	2607      	movs	r6, #7
 800217e:	f7ff ff1b 	bl	8001fb8 <Code_449>
 8002182:	e002      	b.n	800218a <Code_459+0xd6>
 8002184:	3004      	adds	r0, #4
 8002186:	4288      	cmp	r0, r1
 8002188:	d3f2      	bcc.n	8002170 <Code_459+0xbc>
 800218a:	f000 fe6f 	bl	8002e6c <dotgaensefuesschen>
 800218e:	6e694612 	mcrvs	6, 3, r4, cr9, cr2, {0}
 8002192:	65687369 	strbvs	r7, [r8, #-873]!	; 0xfffffc97
 8002196:	52202e64 	eorpl	r2, r0, #100, 28	; 0x640
 800219a:	74657365 	strbtvc	r7, [r5], #-869	; 0xfffffc9b
 800219e:	000a2120 	andeq	r2, sl, r0, lsr #2
 80021a2:	f85d eb04 	ldr.w	lr, [sp], #4
 80021a6:	f002 bf6e 	b.w	8005086 <Code_1278>
 80021aa:	20100000 	andscs	r0, r0, r0
 80021ae:	00005200 	andeq	r5, r0, r0, lsl #4
 80021b2:	201417ee 	andscs	r1, r4, lr, ror #15
 80021b6:	20045200 	andcs	r5, r4, r0, lsl #4
 80021ba:	01235200 			; <UNDEFINED> instruction: 0x01235200
 80021be:	89ab4567 	stmibhi	fp!, {r0, r1, r2, r5, r6, r8, sl, lr}
 80021c2:	200ccdef 	andcs	ip, ip, pc, ror #27
 80021c6:	00005200 	andeq	r5, r0, r0, lsl #4
 80021ca:	ffff0802 			; <UNDEFINED> instruction: 0xffff0802
 80021ce:	00000803 	andeq	r0, r0, r3, lsl #16
 80021d2:	ffff0804 			; <UNDEFINED> instruction: 0xffff0804
 80021d6:	00000805 	andeq	r0, r0, r5, lsl #16
 80021da:	ffff0806 			; <UNDEFINED> instruction: 0xffff0806
 80021de:	00000807 	andeq	r0, r0, r7, lsl #16
 80021e2:	ffff0808 			; <UNDEFINED> instruction: 0xffff0808
 80021e6:	00000809 	andeq	r0, r0, r9, lsl #16
 80021ea:	ffff080a 			; <UNDEFINED> instruction: 0xffff080a
 80021ee:	0000080b 	andeq	r0, r0, fp, lsl #16
 80021f2:	ffff080c 			; <UNDEFINED> instruction: 0xffff080c
 80021f6:	0000080d 	andeq	r0, r0, sp, lsl #16
 80021fa:	ffff080e 			; <UNDEFINED> instruction: 0xffff080e
 80021fe:	 	eorcs	r0, r2, #983040	; 0xf0000

08002200 <Dictionary_482>:
 8002200:	08002222 	stmdaeq	r0, {r1, r5, r9, sp}
 8002204:	69090000 	stmdbvs	r9, {}	; <UNPREDICTABLE>
 8002208:	6674696e 	ldrbtvs	r6, [r4], -lr, ror #18
 800220c:	6873616c 	ldmdavs	r3!, {r2, r3, r5, r6, r8, sp, lr}^

08002210 <Code_482>:
 8002210:	488f      	ldr	r0, [pc, #572]	; (8002450 <flushblock+0x44>)
 8002212:	f44f 6190 	mov.w	r1, #1152	; 0x480
 8002216:	2200      	movs	r2, #0
 8002218:	7002      	strb	r2, [r0, #0]
 800221a:	3001      	adds	r0, #1
 800221c:	3901      	subs	r1, #1
 800221e:	d1fb      	bne.n	8002218 <Code_482+0x8>
 8002220:	4770      	bx	lr

08002222 <Dictionary_483>:
 8002222:	080022d4 	stmdaeq	r0, {r2, r4, r6, r7, r9, sp}
 8002226:	73070000 	movwvc	r0, #28672	; 0x7000
 800222a:	6c616d74 	stclvs	13, cr6, [r1], #-464	; 0xfffffe30
 800222e:	 	strlt	r6, [r0, #-3685]	; 0xfffff19b

08002230 <Code_483>:
 8002230:	b500      	push	{lr}
 8002232:	4887      	ldr	r0, [pc, #540]	; (8002450 <flushblock+0x44>)
 8002234:	2120      	movs	r1, #32
 8002236:	b403      	push	{r0, r1}
 8002238:	f000 fe18 	bl	8002e6c <dotgaensefuesschen>
 800223c:	0a3e2003 	beq	8f8a250 <FlashDictionaryEnde+0xe8a250>
 8002240:	bc03      	pop	{r0, r1}
 8002242:	f847 6d04 	str.w	r6, [r7, #-4]!
 8002246:	6806      	ldr	r6, [r0, #0]
 8002248:	b403      	push	{r0, r1}
 800224a:	f000 fe0f 	bl	8002e6c <dotgaensefuesschen>
 800224e:	72644109 	rsbvc	r4, r4, #1073741826	; 0x40000002
 8002252:	65737365 	ldrbvs	r7, [r3, #-869]!	; 0xfffffc9b
 8002256:	bc03203a 	stclt	0, cr2, [r3], {58}	; 0x3a
 800225a:	f000 fe6f 	bl	8002f3c <Code_708>
 800225e:	b403      	push	{r0, r1}
 8002260:	f000 fe04 	bl	8002e6c <dotgaensefuesschen>
 8002264:	686e4908 	stmdavs	lr!, {r3, r8, fp, lr}^
 8002268:	3a746c61 	bcc	9d1d3f4 <FlashDictionaryEnde+0x1c1d3f4>
 800226c:	bc030020 	stclt	0, cr0, [r3], {32}
 8002270:	f847 6d04 	str.w	r6, [r7, #-4]!
 8002274:	6846      	ldr	r6, [r0, #4]
 8002276:	f000 fe61 	bl	8002f3c <Code_708>
 800227a:	f847 6d04 	str.w	r6, [r7, #-4]!
 800227e:	6886      	ldr	r6, [r0, #8]
 8002280:	f000 fe5c 	bl	8002f3c <Code_708>
 8002284:	f847 6d04 	str.w	r6, [r7, #-4]!
 8002288:	68c6      	ldr	r6, [r0, #12]
 800228a:	f000 fe57 	bl	8002f3c <Code_708>
 800228e:	f847 6d04 	str.w	r6, [r7, #-4]!
 8002292:	6906      	ldr	r6, [r0, #16]
 8002294:	f000 fe52 	bl	8002f3c <Code_708>
 8002298:	f847 6d04 	str.w	r6, [r7, #-4]!
 800229c:	6946      	ldr	r6, [r0, #20]
 800229e:	f000 fe4d 	bl	8002f3c <Code_708>
 80022a2:	f847 6d04 	str.w	r6, [r7, #-4]!
 80022a6:	6986      	ldr	r6, [r0, #24]
 80022a8:	f000 fe48 	bl	8002f3c <Code_708>
 80022ac:	f847 6d04 	str.w	r6, [r7, #-4]!
 80022b0:	69c6      	ldr	r6, [r0, #28]
 80022b2:	f000 fe43 	bl	8002f3c <Code_708>
 80022b6:	f847 6d04 	str.w	r6, [r7, #-4]!
 80022ba:	6a06      	ldr	r6, [r0, #32]
 80022bc:	f000 fe3e 	bl	8002f3c <Code_708>
 80022c0:	b403      	push	{r0, r1}
 80022c2:	f000 fdd3 	bl	8002e6c <dotgaensefuesschen>
 80022c6:	0a3e2003 	beq	8f8a2da <FlashDictionaryEnde+0xe8a2da>
 80022ca:	bc03      	pop	{r0, r1}
 80022cc:	3024      	adds	r0, #36	; 0x24
 80022ce:	3901      	subs	r1, #1
 80022d0:	d1b7      	bne.n	8002242 <Code_483+0x12>
 80022d2:	bd00      	pop	{pc}

080022d4 <Dictionary_497>:
 80022d4:	080023de 	stmdaeq	r0, {r1, r2, r3, r4, r6, r7, r8, r9, sp}
 80022d8:	68070000 	stmdavs	r7, {}	; <UNPREDICTABLE>
 80022dc:	73616c66 	cmnvc	r1, #26112	; 0x6600
 80022e0:	 	ldrlt	r2, [r0, #-360]!	; 0xfffffe98

080022e2 <Code_497>:
 80022e2:	b530      	push	{r4, r5, lr}
 80022e4:	0032      	movs	r2, r6
 80022e6:	cf40      	ldmia	r7!, {r6}
 80022e8:	0850      	lsrs	r0, r2, #1
 80022ea:	d317      	bcc.n	800231c <Code_497+0x3a>
 80022ec:	f000 fdbe 	bl	8002e6c <dotgaensefuesschen>
 80022f0:	335b1b27 	cmpcc	fp, #39936	; 0x9c00
 80022f4:	66686d31 			; <UNDEFINED> instruction: 0x66686d31
 80022f8:	6873616c 	ldmdavs	r3!, {r2, r3, r5, r6, r8, sp, lr}^
 80022fc:	656e2021 	strbvs	r2, [lr, #-33]!	; 0xffffffdf
 8002300:	20736465 	rsbscs	r6, r3, r5, ror #8
 8002304:	6e657665 	cdpvs	6, 6, cr7, cr5, cr5, {3}
 8002308:	64646120 	strbtvs	r6, [r4], #-288	; 0xfffffee0
 800230c:	73736572 	cmnvc	r3, #478150656	; 0x1c800000
 8002310:	1b2e7365 	blne	8b9f0ac <FlashDictionaryEnde+0xa9f0ac>
 8002314:	0a6d305b 	beq	9b4e488 <FlashDictionaryEnde+0x1a4e488>
 8002318:	f002 be01 	b.w	8004f1e <Code_1262>
 800231c:	4b4d      	ldr	r3, [pc, #308]	; (8002454 <flushblock+0x48>)
 800231e:	429a      	cmp	r2, r3
 8002320:	d215      	bcs.n	800234e <Code_497+0x6c>
 8002322:	f000 fda3 	bl	8002e6c <dotgaensefuesschen>
 8002326:	335b1b22 	cmpcc	fp, #34816	; 0x8800
 800232a:	61436d31 	cmpvs	r3, r1, lsr sp
 800232e:	746f6e6e 	strbtvc	r6, [pc], #-3694	; 8002336 <Code_497+0x54>
 8002332:	69727720 	ldmdbvs	r2!, {r5, r8, r9, sl, ip, sp, lr}^
 8002336:	69206574 	stmdbvs	r0!, {r2, r4, r5, r6, r8, sl, sp, lr}
 800233a:	206f746e 	rsbcs	r7, pc, lr, ror #8
 800233e:	65726f63 	ldrbvs	r6, [r2, #-3939]!	; 0xfffff09d
 8002342:	5b1b2120 	blpl	86ca7ca <FlashDictionaryEnde+0x5ca7ca>
 8002346:	000a6d30 	andeq	r6, sl, r0, lsr sp
 800234a:	f002 bde8 	b.w	8004f1e <Code_1262>
 800234e:	0953      	lsrs	r3, r2, #5
 8002350:	483f      	ldr	r0, [pc, #252]	; (8002450 <flushblock+0x44>)
 8002352:	2120      	movs	r1, #32
 8002354:	6804      	ldr	r4, [r0, #0]
 8002356:	0964      	lsrs	r4, r4, #5
 8002358:	429c      	cmp	r4, r3
 800235a:	d02f      	beq.n	80023bc <hflashstoreemulation_gefunden>
 800235c:	3024      	adds	r0, #36	; 0x24
 800235e:	3901      	subs	r1, #1
 8002360:	d1f8      	bne.n	8002354 <Code_497+0x72>
 8002362:	483b      	ldr	r0, [pc, #236]	; (8002450 <flushblock+0x44>)
 8002364:	2120      	movs	r1, #32
 8002366:	6804      	ldr	r4, [r0, #0]
 8002368:	2c00      	cmp	r4, #0
 800236a:	d01c      	beq.n	80023a6 <hflashstoreemulation_leerestelle>
 800236c:	3024      	adds	r0, #36	; 0x24
 800236e:	3901      	subs	r1, #1
 8002370:	d1f9      	bne.n	8002366 <Code_497+0x84>
 8002372:	f000 fd7b 	bl	8002e6c <dotgaensefuesschen>
 8002376:	335b1b2a 	cmpcc	fp, #43008	; 0xa800
 800237a:	6f546d31 	svcvs	0x00546d31
 800237e:	616d206f 	cmnvs	sp, pc, rrx
 8002382:	7320796e 			; <UNDEFINED> instruction: 0x7320796e
 8002386:	74746163 	ldrbtvc	r6, [r4], #-355	; 0xfffffe9d
 800238a:	64657265 	strbtvs	r7, [r5], #-613	; 0xfffffd9b
 800238e:	616c4620 	cmnvs	ip, r0, lsr #12
 8002392:	77206873 			; <UNDEFINED> instruction: 0x77206873
 8002396:	65746972 	ldrbvs	r6, [r4, #-2418]!	; 0xfffff68e
 800239a:	5b1b2e73 	blpl	86cdd6e <FlashDictionaryEnde+0x5cdd6e>
 800239e:	000a6d30 	andeq	r6, sl, r0, lsr sp
 80023a2:	f002 bdbc 	b.w	8004f1e <Code_1262>

080023a6 <hflashstoreemulation_leerestelle>:
 80023a6:	015b      	lsls	r3, r3, #5
 80023a8:	6003      	str	r3, [r0, #0]
 80023aa:	3901      	subs	r1, #1
 80023ac:	6041      	str	r1, [r0, #4]
 80023ae:	6081      	str	r1, [r0, #8]
 80023b0:	60c1      	str	r1, [r0, #12]
 80023b2:	6101      	str	r1, [r0, #16]
 80023b4:	6141      	str	r1, [r0, #20]
 80023b6:	6181      	str	r1, [r0, #24]
 80023b8:	61c1      	str	r1, [r0, #28]
 80023ba:	6201      	str	r1, [r0, #32]

080023bc <hflashstoreemulation_gefunden>:
 80023bc:	211f      	movs	r1, #31
 80023be:	4011      	ands	r1, r2
 80023c0:	3104      	adds	r1, #4
 80023c2:	5246      	strh	r6, [r0, r1]
 80023c4:	cf40      	ldmia	r7!, {r6}
 80023c6:	6801      	ldr	r1, [r0, #0]
 80023c8:	3101      	adds	r1, #1
 80023ca:	6001      	str	r1, [r0, #0]
 80023cc:	221f      	movs	r2, #31
 80023ce:	4011      	ands	r1, r2
 80023d0:	2910      	cmp	r1, #16
 80023d2:	d103      	bne.n	80023dc <hflashstoreemulation_fertig>
 80023d4:	f000 f81a 	bl	800240c <flushblock>
 80023d8:	f7ff fda7 	bl	8001f2a <Code_438>

080023dc <hflashstoreemulation_fertig>:
 80023dc:	bd30      	pop	{r4, r5, pc}

080023de <Dictionary_503>:
 80023de:	08002458 	stmdaeq	r0, {r3, r4, r6, sl, sp}
 80023e2:	660a0000 	strvs	r0, [sl], -r0
 80023e6:	6873756c 	ldmdavs	r3!, {r2, r3, r5, r6, r8, sl, ip, sp, lr}^
 80023ea:	73616c66 	cmnvc	r1, #26112	; 0x6600
 80023ee:	 	strlt	r0, [r0, #-104]	; 0xffffff98

080023f0 <Code_503>:
 80023f0:	b500      	push	{lr}
 80023f2:	4817      	ldr	r0, [pc, #92]	; (8002450 <flushblock+0x44>)
 80023f4:	2120      	movs	r1, #32
 80023f6:	6802      	ldr	r2, [r0, #0]
 80023f8:	2a00      	cmp	r2, #0
 80023fa:	d003      	beq.n	8002404 <Code_503+0x14>
 80023fc:	f000 f806 	bl	800240c <flushblock>
 8002400:	f7ff fd93 	bl	8001f2a <Code_438>
 8002404:	3024      	adds	r0, #36	; 0x24
 8002406:	3901      	subs	r1, #1
 8002408:	d1f5      	bne.n	80023f6 <Code_503+0x6>
 800240a:	bd00      	pop	{pc}

0800240c <flushblock>:
 800240c:	f847 6d04 	str.w	r6, [r7, #-4]!
 8002410:	6846      	ldr	r6, [r0, #4]
 8002412:	f847 6d04 	str.w	r6, [r7, #-4]!
 8002416:	6886      	ldr	r6, [r0, #8]
 8002418:	f847 6d04 	str.w	r6, [r7, #-4]!
 800241c:	68c6      	ldr	r6, [r0, #12]
 800241e:	f847 6d04 	str.w	r6, [r7, #-4]!
 8002422:	6906      	ldr	r6, [r0, #16]
 8002424:	f847 6d04 	str.w	r6, [r7, #-4]!
 8002428:	6946      	ldr	r6, [r0, #20]
 800242a:	f847 6d04 	str.w	r6, [r7, #-4]!
 800242e:	6986      	ldr	r6, [r0, #24]
 8002430:	f847 6d04 	str.w	r6, [r7, #-4]!
 8002434:	69c6      	ldr	r6, [r0, #28]
 8002436:	f847 6d04 	str.w	r6, [r7, #-4]!
 800243a:	6a06      	ldr	r6, [r0, #32]
 800243c:	f847 6d04 	str.w	r6, [r7, #-4]!
 8002440:	261f      	movs	r6, #31
 8002442:	43f6      	mvns	r6, r6
 8002444:	6802      	ldr	r2, [r0, #0]
 8002446:	4016      	ands	r6, r2
 8002448:	2200      	movs	r2, #0
 800244a:	6002      	str	r2, [r0, #0]
 800244c:	4770      	bx	lr
 800244e:	03880000 	orreq	r0, r8, #0
 8002452:	00002400 	andeq	r2, r0, r0, lsl #8
 8002456:	 	strcs	r0, [lr], #2050	; 0x802

08002458 <Dictionary_513>:
 8002458:	0800248e 	stmdaeq	r0, {r1, r2, r3, r7, sl, sp}
 800245c:	2b010262 	blcs	8042dec <FlashDictionaryAnfang+0x22dec>

08002460 <Code_513>:
 8002460:	cf01      	ldmia	r7!, {r0}
 8002462:	1836      	adds	r6, r6, r0
 8002464:	4770      	bx	lr

08002466 <plus_allocator>:
 8002466:	b500      	push	{lr}
 8002468:	f7fe f840 	bl	80004ec <expect_two_elements>
 800246c:	f847 6d04 	str.w	r6, [r7, #-4]!
 8002470:	f243 0600 	movw	r6, #12288	; 0x3000
 8002474:	f847 6d04 	str.w	r6, [r7, #-4]!
 8002478:	4ec9      	ldr	r6, [pc, #804]	; (80027a0 <Code_585+0x8>)
 800247a:	f847 6d04 	str.w	r6, [r7, #-4]!
 800247e:	f641 0600 	movw	r6, #6144	; 0x1800
 8002482:	6881      	ldr	r1, [r0, #8]
 8002484:	2928      	cmp	r1, #40	; 0x28
 8002486:	d117      	bne.n	80024b8 <minus_allocator+0x1c>
 8002488:	f7fe fd6f 	bl	8000f6a <swap_allocator>
 800248c:	e014      	b.n	80024b8 <minus_allocator+0x1c>

0800248e <Dictionary_519>:
 800248e:	08002534 	stmdaeq	r0, {r2, r4, r5, r8, sl, sp}
 8002492:	2d010262 	sfmcs	f0, 4, [r1, #-392]	; 0xfffffe78

08002496 <Code_519>:
 8002496:	cf01      	ldmia	r7!, {r0}
 8002498:	1b86      	subs	r6, r0, r6
 800249a:	4770      	bx	lr

0800249c <minus_allocator>:
 800249c:	b500      	push	{lr}
 800249e:	f7fe f825 	bl	80004ec <expect_two_elements>
 80024a2:	f847 6d04 	str.w	r6, [r7, #-4]!
 80024a6:	f643 0600 	movw	r6, #14336	; 0x3800
 80024aa:	f847 6d04 	str.w	r6, [r7, #-4]!
 80024ae:	4ebd      	ldr	r6, [pc, #756]	; (80027a4 <Code_585+0xc>)
 80024b0:	f847 6d04 	str.w	r6, [r7, #-4]!
 80024b4:	f641 2600 	movw	r6, #6656	; 0x1a00
 80024b8:	f7fe f854 	bl	8000564 <expect_nos_in_register>
 80024bc:	6801      	ldr	r1, [r0, #0]
 80024be:	2928      	cmp	r1, #40	; 0x28
 80024c0:	d127      	bne.n	8002512 <minus_allocator+0x76>
 80024c2:	6841      	ldr	r1, [r0, #4]
 80024c4:	29ff      	cmp	r1, #255	; 0xff
 80024c6:	d80c      	bhi.n	80024e2 <minus_allocator+0x46>
 80024c8:	cf40      	ldmia	r7!, {r6}
 80024ca:	cf40      	ldmia	r7!, {r6}
 80024cc:	f7fe f85e 	bl	800058c <nos_change_tos_away_later>
 80024d0:	430e      	orrs	r6, r1
 80024d2:	6881      	ldr	r1, [r0, #8]
 80024d4:	0209      	lsls	r1, r1, #8
 80024d6:	430e      	orrs	r6, r1
 80024d8:	f001 fa5a 	bl	8003990 <Code_879>
 80024dc:	f7fd feff 	bl	80002de <eliminiere_tos>
 80024e0:	bd00      	pop	{pc}
 80024e2:	f847 6d04 	str.w	r6, [r7, #-4]!
 80024e6:	000e      	movs	r6, r1
 80024e8:	f000 fe24 	bl	8003134 <Code_745>
 80024ec:	cf02      	ldmia	r7!, {r1}
 80024ee:	2e00      	cmp	r6, #0
 80024f0:	cf40      	ldmia	r7!, {r6}
 80024f2:	d00e      	beq.n	8002512 <minus_allocator+0x76>
 80024f4:	cf40      	ldmia	r7!, {r6}
 80024f6:	3704      	adds	r7, #4
 80024f8:	430e      	orrs	r6, r1
 80024fa:	6881      	ldr	r1, [r0, #8]
 80024fc:	ea56 4601 	orrs.w	r6, r6, r1, lsl #16
 8002500:	f7fd feed 	bl	80002de <eliminiere_tos>
 8002504:	f7fe f872 	bl	80005ec <tos_registerwechsel>
 8002508:	ea56 2603 	orrs.w	r6, r6, r3, lsl #8
 800250c:	f001 fa70 	bl	80039f0 <Code_888>
 8002510:	bd00      	pop	{pc}
 8002512:	3704      	adds	r7, #4
 8002514:	3704      	adds	r7, #4
 8002516:	f7fe f81b 	bl	8000550 <expect_tos_in_register>
 800251a:	0189      	lsls	r1, r1, #6
 800251c:	6882      	ldr	r2, [r0, #8]
 800251e:	00d2      	lsls	r2, r2, #3
 8002520:	430e      	orrs	r6, r1
 8002522:	4316      	orrs	r6, r2
 8002524:	f7fd fedb 	bl	80002de <eliminiere_tos>
 8002528:	f7fe f860 	bl	80005ec <tos_registerwechsel>
 800252c:	431e      	orrs	r6, r3
 800252e:	f001 fa2f 	bl	8003990 <Code_879>
 8002532:	bd00      	pop	{pc}

08002534 <Dictionary_534>:
 8002534:	0800254c 	stmdaeq	r0, {r2, r3, r6, r8, sl, sp}
 8002538:	31020261 	tstcc	r2, r1, ror #4
 800253c:	 	cdpcc	0, 0, cr0, cr1, cr13, {1}

0800253e <Code_534>:
 800253e:	3e01      	subs	r6, #1
 8002540:	4770      	bx	lr

08002542 <allocator_one_minus>:
 8002542:	f847 6d04 	str.w	r6, [r7, #-4]!
 8002546:	f641 6640 	movw	r6, #7744	; 0x1e40
 800254a:	e03d      	b.n	80025c8 <smalltworegisters>

0800254c <Dictionary_537>:
 800254c:	08002564 	stmdaeq	r0, {r2, r5, r6, r8, sl, sp}
 8002550:	31020261 	tstcc	r2, r1, ror #4
 8002554:	 	strcc	r0, [r1], -fp, lsr #32

08002556 <Code_537>:
 8002556:	3601      	adds	r6, #1
 8002558:	4770      	bx	lr
 800255a:	f847 6d04 	str.w	r6, [r7, #-4]!
 800255e:	f641 4640 	movw	r6, #7232	; 0x1c40
 8002562:	e031      	b.n	80025c8 <smalltworegisters>

08002564 <Dictionary_540>:
 8002564:	0800257c 	stmdaeq	r0, {r2, r3, r4, r5, r6, r8, sl, sp}
 8002568:	32020261 	andcc	r0, r2, #268435462	; 0x10000006
 800256c:	 	cdpcc	0, 0, cr0, cr2, cr13, {1}

0800256e <Code_540>:
 800256e:	3e02      	subs	r6, #2
 8002570:	4770      	bx	lr
 8002572:	f847 6d04 	str.w	r6, [r7, #-4]!
 8002576:	f641 6680 	movw	r6, #7808	; 0x1e80
 800257a:	e025      	b.n	80025c8 <smalltworegisters>

0800257c <Dictionary_543>:
 800257c:	08002594 	stmdaeq	r0, {r2, r4, r7, r8, sl, sp}
 8002580:	32020261 	andcc	r0, r2, #268435462	; 0x10000006
 8002584:	 	strcc	r0, [r2], -fp, lsr #32

08002586 <Code_543>:
 8002586:	3602      	adds	r6, #2
 8002588:	4770      	bx	lr
 800258a:	f847 6d04 	str.w	r6, [r7, #-4]!
 800258e:	f641 4680 	movw	r6, #7296	; 0x1c80
 8002592:	e019      	b.n	80025c8 <smalltworegisters>

08002594 <Dictionary_546>:
 8002594:	080025ae 	stmdaeq	r0, {r1, r2, r3, r5, r7, r8, sl, sp}
 8002598:	63050261 	movwvs	r0, #21089	; 0x5261
 800259c:	2b6c6c65 	blcs	9b1d738 <FlashDictionaryEnde+0x1a1d738>

080025a0 <Code_546>:
 80025a0:	3604      	adds	r6, #4
 80025a2:	4770      	bx	lr
 80025a4:	f847 6d04 	str.w	r6, [r7, #-4]!
 80025a8:	f641 5600 	movw	r6, #7424	; 0x1d00
 80025ac:	e00c      	b.n	80025c8 <smalltworegisters>

080025ae <Dictionary_549>:
 80025ae:	080025e0 	stmdaeq	r0, {r5, r6, r7, r8, sl, sp}
 80025b2:	6e060261 	cdpvs	2, 0, cr0, cr6, cr1, {3}
 80025b6:	74616765 	strbtvc	r6, [r1], #-1893	; 0xfffff89b
 80025ba:	 	rsbsmi	r0, r6, #101	; 0x65

080025bc <Code_549>:
 80025bc:	4276      	negs	r6, r6
 80025be:	4770      	bx	lr

080025c0 <allocator_negate>:
 80025c0:	f847 6d04 	str.w	r6, [r7, #-4]!
 80025c4:	f244 2640 	movw	r6, #16960	; 0x4240

080025c8 <smalltworegisters>:
 80025c8:	b500      	push	{lr}
 80025ca:	f7fd ff85 	bl	80004d8 <expect_one_element>
 80025ce:	6801      	ldr	r1, [r0, #0]
 80025d0:	00c9      	lsls	r1, r1, #3
 80025d2:	430e      	orrs	r6, r1
 80025d4:	f7fe f80a 	bl	80005ec <tos_registerwechsel>
 80025d8:	431e      	orrs	r6, r3
 80025da:	f001 f9d9 	bl	8003990 <Code_879>
 80025de:	bd00      	pop	{pc}

080025e0 <Dictionary_552>:
 80025e0:	080025f8 	stmdaeq	r0, {r3, r4, r5, r6, r7, r8, sl, sp}
 80025e4:	6e030261 	cdpvs	2, 0, cr0, cr3, cr1, {3}
 80025e8:	 	mvnsmi	r7, #1862270976	; 0x6f000000

080025ea <Code_552>:
 80025ea:	43f6      	mvns	r6, r6
 80025ec:	4770      	bx	lr

080025ee <allocator_not>:
 80025ee:	f847 6d04 	str.w	r6, [r7, #-4]!
 80025f2:	f244 36c0 	movw	r6, #17344	; 0x43c0
 80025f6:	e7e7      	b.n	80025c8 <smalltworegisters>

080025f8 <Dictionary_555>:
 80025f8:	08002610 	stmdaeq	r0, {r4, r9, sl, sp}
 80025fc:	73030261 	movwvc	r0, #12897	; 0x3261
 8002600:	 	ldmdaeq	r6!, {r3, r5, r6, r9, ip, sp, lr}^

08002602 <Code_555>:
 8002602:	0876      	lsrs	r6, r6, #1
 8002604:	4770      	bx	lr
 8002606:	f847 6d04 	str.w	r6, [r7, #-4]!
 800260a:	f640 0640 	movw	r6, #2112	; 0x840
 800260e:	e7db      	b.n	80025c8 <smalltworegisters>

08002610 <Dictionary_558>:
 8002610:	08002620 	stmdaeq	r0, {r5, r9, sl, sp}
 8002614:	73030261 	movwvc	r0, #12897	; 0x3261
 8002618:	 	rsbseq	r6, r6, r8, ror #24

0800261a <Code_558>:
 800261a:	0076      	lsls	r6, r6, #1
 800261c:	4770      	bx	lr
 800261e:	e006      	b.n	800262e <Code_559+0x4>

08002620 <Dictionary_559>:
 8002620:	08002636 	stmdaeq	r0, {r1, r2, r4, r5, r9, sl, sp}
 8002624:	32020261 	andcc	r0, r2, #268435462	; 0x10000006
 8002628:	 	rsbseq	r0, r6, sl, lsr #32

0800262a <Code_559>:
 800262a:	0076      	lsls	r6, r6, #1
 800262c:	4770      	bx	lr
 800262e:	f847 6d04 	str.w	r6, [r7, #-4]!
 8002632:	2640      	movs	r6, #64	; 0x40
 8002634:	e7c8      	b.n	80025c8 <smalltworegisters>

08002636 <Dictionary_562>:
 8002636:	0800264e 	stmdaeq	r0, {r1, r2, r3, r6, r9, sl, sp}
 800263a:	63050261 	movwvs	r0, #21089	; 0x5261
 800263e:	736c6c65 	cmnvc	ip, #25856	; 0x6500

08002642 <Code_562>:
 8002642:	00b6      	lsls	r6, r6, #2
 8002644:	4770      	bx	lr
 8002646:	f847 6d04 	str.w	r6, [r7, #-4]!
 800264a:	2680      	movs	r6, #128	; 0x80
 800264c:	e7bc      	b.n	80025c8 <smalltworegisters>

0800264e <Dictionary_565>:
 800264e:	08002666 	stmdaeq	r0, {r1, r2, r5, r6, r9, sl, sp}
 8002652:	32020261 	andcc	r0, r2, #268435462	; 0x10000006
 8002656:	 	rsbsne	r0, r6, pc, lsr #32

08002658 <Code_565>:
 8002658:	1076      	asrs	r6, r6, #1
 800265a:	4770      	bx	lr
 800265c:	f847 6d04 	str.w	r6, [r7, #-4]!
 8002660:	f241 0640 	movw	r6, #4160	; 0x1040
 8002664:	e7b0      	b.n	80025c8 <smalltworegisters>

08002666 <Dictionary_568>:
 8002666:	080026a6 	stmdaeq	r0, {r1, r2, r5, r7, r9, sl, sp}
 800266a:	61030261 	tstvs	r3, r1, ror #4
 800266e:	 	ldrbne	r7, [r0, r2, ror #6]!

08002670 <Code_568>:
 8002670:	17f0      	asrs	r0, r6, #31
 8002672:	1836      	adds	r6, r6, r0
 8002674:	4046      	eors	r6, r0
 8002676:	4770      	bx	lr
 8002678:	b500      	push	{lr}
 800267a:	f7fd ff2d 	bl	80004d8 <expect_one_element>
 800267e:	f847 6d04 	str.w	r6, [r7, #-4]!
 8002682:	2600      	movs	r6, #0
 8002684:	6801      	ldr	r1, [r0, #0]
 8002686:	00c9      	lsls	r1, r1, #3
 8002688:	430e      	orrs	r6, r1
 800268a:	f7fd ffaf 	bl	80005ec <tos_registerwechsel>
 800268e:	431e      	orrs	r6, r3
 8002690:	f001 f97e 	bl	8003990 <Code_879>
 8002694:	f847 6d04 	str.w	r6, [r7, #-4]!
 8002698:	f24d 5600 	movw	r6, #54528	; 0xd500
 800269c:	f001 f978 	bl	8003990 <Code_879>
 80026a0:	f7ff ff8e 	bl	80025c0 <allocator_negate>
 80026a4:	bd00      	pop	{pc}

080026a6 <Dictionary_573>:
 80026a6:	080026c4 	stmdaeq	r0, {r2, r6, r7, r9, sl, sp}
 80026aa:	75050042 	strvc	r0, [r5, #-66]	; 0xffffffbe
 80026ae:	646f6d2f 	strbtvs	r6, [pc], #-3375	; 80026b6 <Code_573+0x4>

080026b2 <Code_573>:
 80026b2:	cf01      	ldmia	r7!, {r0}
 80026b4:	0031      	movs	r1, r6
 80026b6:	fbb0 f6f6 	udiv	r6, r0, r6
 80026ba:	4371      	muls	r1, r6
 80026bc:	1a40      	subs	r0, r0, r1
 80026be:	3f04      	subs	r7, #4
 80026c0:	6038      	str	r0, [r7, #0]
 80026c2:	4770      	bx	lr

080026c4 <Dictionary_574>:
 80026c4:	080026e2 	stmdaeq	r0, {r1, r5, r6, r7, r9, sl, sp}
 80026c8:	2f040042 	svccs	0x00040042
 80026cc:	00646f6d 	rsbeq	r6, r4, sp, ror #30

080026d0 <Code_574>:
 80026d0:	cf01      	ldmia	r7!, {r0}
 80026d2:	0031      	movs	r1, r6
 80026d4:	fb90 f6f6 	sdiv	r6, r0, r6
 80026d8:	4371      	muls	r1, r6
 80026da:	1a40      	subs	r0, r0, r1
 80026dc:	3f04      	subs	r7, #4
 80026de:	6038      	str	r0, [r7, #0]
 80026e0:	4770      	bx	lr

080026e2 <Dictionary_575>:
 80026e2:	080026f6 	stmdaeq	r0, {r1, r2, r4, r5, r6, r7, r9, sl, sp}
 80026e6:	6d030042 	stcvs	0, cr0, [r3, #-264]	; 0xfffffef8
 80026ea:	 	strlt	r6, [r0, #-1135]	; 0xfffffb91

080026ec <Code_575>:
 80026ec:	b500      	push	{lr}
 80026ee:	f7ff ffef 	bl	80026d0 <Code_574>
 80026f2:	cf40      	ldmia	r7!, {r6}
 80026f4:	bd00      	pop	{pc}

080026f6 <Dictionary_577>:
 80026f6:	08002736 	stmdaeq	r0, {r1, r2, r4, r5, r8, r9, sl, sp}
 80026fa:	2f010262 	svccs	0x00010262

080026fe <Code_577>:
 80026fe:	cf01      	ldmia	r7!, {r0}
 8002700:	fb90 f6f6 	sdiv	r6, r0, r6
 8002704:	4770      	bx	lr
 8002706:	b500      	push	{lr}
 8002708:	f7fd fef0 	bl	80004ec <expect_two_elements>
 800270c:	f7fd ff20 	bl	8000550 <expect_tos_in_register>
 8002710:	f7fd ff28 	bl	8000564 <expect_nos_in_register>
 8002714:	f847 6d04 	str.w	r6, [r7, #-4]!
 8002718:	4e23      	ldr	r6, [pc, #140]	; (80027a8 <Code_585+0x10>)
 800271a:	6801      	ldr	r1, [r0, #0]
 800271c:	430e      	orrs	r6, r1
 800271e:	6881      	ldr	r1, [r0, #8]
 8002720:	ea56 4601 	orrs.w	r6, r6, r1, lsl #16
 8002724:	f7fd fddb 	bl	80002de <eliminiere_tos>
 8002728:	f7fd ff60 	bl	80005ec <tos_registerwechsel>
 800272c:	ea56 2603 	orrs.w	r6, r6, r3, lsl #8
 8002730:	f001 f95e 	bl	80039f0 <Code_888>
 8002734:	bd00      	pop	{pc}

08002736 <Dictionary_579>:
 8002736:	0800274a 	stmdaeq	r0, {r1, r3, r6, r8, r9, sl, sp}
 800273a:	65040061 	strvs	r0, [r4, #-97]	; 0xffffff9f
 800273e:	006e6576 	rsbeq	r6, lr, r6, ror r5

08002742 <Code_579>:
 8002742:	2001      	movs	r0, #1
 8002744:	4030      	ands	r0, r6
 8002746:	1836      	adds	r6, r6, r0
 8002748:	4770      	bx	lr

0800274a <Dictionary_580>:
 800274a:	08002762 	stmdaeq	r0, {r1, r5, r6, r8, r9, sl, sp}
 800274e:	62040081 	andvs	r0, r4, #129	; 0x81
 8002752:	00657361 	rsbeq	r7, r5, r1, ror #6

08002756 <Code_580>:
 8002756:	f847 6d04 	str.w	r6, [r7, #-4]!
 800275a:	4e14      	ldr	r6, [pc, #80]	; (80027ac <Code_585+0x14>)
 800275c:	4770      	bx	lr
 800275e:	0000000a 	andeq	r0, r0, sl

08002762 <Dictionary_583>:
 8002762:	08002778 	stmdaeq	r0, {r3, r4, r5, r6, r8, r9, sl, sp}
 8002766:	62060000 	andvs	r0, r6, #0
 800276a:	72616e69 	rsbvc	r6, r1, #1680	; 0x690
 800276e:	 	stmdami	lr, {r0, r3, r4, r5, r6}

08002770 <Code_583>:
 8002770:	480e      	ldr	r0, [pc, #56]	; (80027ac <Code_585+0x14>)
 8002772:	2102      	movs	r1, #2
 8002774:	6001      	str	r1, [r0, #0]
 8002776:	4770      	bx	lr

08002778 <Dictionary_584>:
 8002778:	0800278e 	stmdaeq	r0, {r1, r2, r3, r7, r8, r9, sl, sp}
 800277c:	64070000 	strvs	r0, [r7], #-0
 8002780:	6d696365 	stclvs	3, cr6, [r9, #-404]!	; 0xfffffe6c
 8002784:	 	stmdami	r9, {r0, r5, r6, sl, fp, sp, lr}

08002786 <Code_584>:
 8002786:	4809      	ldr	r0, [pc, #36]	; (80027ac <Code_585+0x14>)
 8002788:	210a      	movs	r1, #10
 800278a:	6001      	str	r1, [r0, #0]
 800278c:	4770      	bx	lr

0800278e <Dictionary_585>:
 800278e:	08002a38 	stmdaeq	r0, {r3, r4, r5, r9, fp, sp}
 8002792:	68030000 	stmdavs	r3, {}	; <UNPREDICTABLE>
 8002796:	 	stmdami	r4, {r0, r2, r5, r6, fp, ip, sp, lr}

08002798 <Code_585>:
 8002798:	4804      	ldr	r0, [pc, #16]	; (80027ac <Code_585+0x14>)
 800279a:	2110      	movs	r1, #16
 800279c:	6001      	str	r1, [r0, #0]
 800279e:	4770      	bx	lr
 80027a0:	f1100000 	setpan	#0
 80027a4:	f1b00000 			; <UNDEFINED> instruction: 0xf1b00000
 80027a8:	fb90f0f0 	blx	643eb72 <stack_canary+0x231d1ed>
 80027ac:	2407fffc 	strcs	pc, [r7], #-4092	; 0xfffff004

080027b0 <enable_i_cache>:
 80027b0:	f3bf 8f4f 	dsb	sy
 80027b4:	f3bf 8f6f 	isb	sy
 80027b8:	498a      	ldr	r1, [pc, #552]	; (80029e4 <uart_init+0x94>)
 80027ba:	f04f 0000 	mov.w	r0, #0
 80027be:	6008      	str	r0, [r1, #0]
 80027c0:	f3bf 8f4f 	dsb	sy
 80027c4:	f3bf 8f6f 	isb	sy
 80027c8:	4987      	ldr	r1, [pc, #540]	; (80029e8 <uart_init+0x98>)
 80027ca:	6808      	ldr	r0, [r1, #0]
 80027cc:	f440 3000 	orr.w	r0, r0, #131072	; 0x20000
 80027d0:	6008      	str	r0, [r1, #0]
 80027d2:	f3bf 8f4f 	dsb	sy
 80027d6:	f3bf 8f6f 	isb	sy
 80027da:	4770      	bx	lr

080027dc <enable_d_cache>:
 80027dc:	f3bf 8f4f 	dsb	sy
 80027e0:	f3bf 8f4f 	dsb	sy
 80027e4:	f3bf 8f4f 	dsb	sy
 80027e8:	f3bf 8f6f 	isb	sy
 80027ec:	4770      	bx	lr

080027ee <set_flash_latency>:
 80027ee:	497f      	ldr	r1, [pc, #508]	; (80029ec <uart_init+0x9c>)
 80027f0:	6808      	ldr	r0, [r1, #0]
 80027f2:	f020 000f 	bic.w	r0, r0, #15
 80027f6:	f040 0004 	orr.w	r0, r0, #4
 80027fa:	6008      	str	r0, [r1, #0]
 80027fc:	6808      	ldr	r0, [r1, #0]
 80027fe:	f000 000f 	and.w	r0, r0, #15
 8002802:	2804      	cmp	r0, #4
 8002804:	d1fa      	bne.n	80027fc <set_flash_latency+0xe>
 8002806:	4770      	bx	lr

08002808 <set_power_config>:
 8002808:	4979      	ldr	r1, [pc, #484]	; (80029f0 <uart_init+0xa0>)
 800280a:	6808      	ldr	r0, [r1, #0]
 800280c:	f020 003f 	bic.w	r0, r0, #63	; 0x3f
 8002810:	f040 0004 	orr.w	r0, r0, #4
 8002814:	6008      	str	r0, [r1, #0]
 8002816:	4770      	bx	lr

08002818 <set_voltage_scaling>:
 8002818:	4976      	ldr	r1, [pc, #472]	; (80029f4 <uart_init+0xa4>)
 800281a:	6808      	ldr	r0, [r1, #0]
 800281c:	f420 4040 	bic.w	r0, r0, #49152	; 0xc000
 8002820:	f440 4040 	orr.w	r0, r0, #49152	; 0xc000
 8002824:	6008      	str	r0, [r1, #0]
 8002826:	6808      	ldr	r0, [r1, #0]
 8002828:	f410 5000 	ands.w	r0, r0, #8192	; 0x2000
 800282c:	d0fb      	beq.n	8002826 <set_voltage_scaling+0xe>
 800282e:	4770      	bx	lr

08002830 <enable_bypass_hse>:
 8002830:	4971      	ldr	r1, [pc, #452]	; (80029f8 <uart_init+0xa8>)
 8002832:	6808      	ldr	r0, [r1, #0]
 8002834:	f440 2080 	orr.w	r0, r0, #262144	; 0x40000
 8002838:	6008      	str	r0, [r1, #0]
 800283a:	496f      	ldr	r1, [pc, #444]	; (80029f8 <uart_init+0xa8>)
 800283c:	6808      	ldr	r0, [r1, #0]
 800283e:	f440 3080 	orr.w	r0, r0, #65536	; 0x10000
 8002842:	6008      	str	r0, [r1, #0]
 8002844:	6808      	ldr	r0, [r1, #0]
 8002846:	f410 3000 	ands.w	r0, r0, #131072	; 0x20000
 800284a:	d0fb      	beq.n	8002844 <enable_bypass_hse+0x14>
 800284c:	4770      	bx	lr

0800284e <set_pll_400_mhz_sysclk>:
 800284e:	496b      	ldr	r1, [pc, #428]	; (80029fc <uart_init+0xac>)
 8002850:	6808      	ldr	r0, [r1, #0]
 8002852:	f020 0003 	bic.w	r0, r0, #3
 8002856:	f040 0002 	orr.w	r0, r0, #2
 800285a:	6008      	str	r0, [r1, #0]
 800285c:	4968      	ldr	r1, [pc, #416]	; (8002a00 <uart_init+0xb0>)
 800285e:	6808      	ldr	r0, [r1, #0]
 8002860:	f440 3080 	orr.w	r0, r0, #65536	; 0x10000
 8002864:	6008      	str	r0, [r1, #0]
 8002866:	4966      	ldr	r1, [pc, #408]	; (8002a00 <uart_init+0xb0>)
 8002868:	6808      	ldr	r0, [r1, #0]
 800286a:	f440 2080 	orr.w	r0, r0, #262144	; 0x40000
 800286e:	6008      	str	r0, [r1, #0]
 8002870:	4963      	ldr	r1, [pc, #396]	; (8002a00 <uart_init+0xb0>)
 8002872:	6808      	ldr	r0, [r1, #0]
 8002874:	f020 000c 	bic.w	r0, r0, #12
 8002878:	f040 0004 	orr.w	r0, r0, #4
 800287c:	6008      	str	r0, [r1, #0]
 800287e:	4960      	ldr	r1, [pc, #384]	; (8002a00 <uart_init+0xb0>)
 8002880:	6808      	ldr	r0, [r1, #0]
 8002882:	f020 0002 	bic.w	r0, r0, #2
 8002886:	f040 0000 	orr.w	r0, r0, #0
 800288a:	6008      	str	r0, [r1, #0]
 800288c:	495b      	ldr	r1, [pc, #364]	; (80029fc <uart_init+0xac>)
 800288e:	6808      	ldr	r0, [r1, #0]
 8002890:	f420 707c 	bic.w	r0, r0, #1008	; 0x3f0
 8002894:	f040 0040 	orr.w	r0, r0, #64	; 0x40
 8002898:	6008      	str	r0, [r1, #0]
 800289a:	f240 128f 	movw	r2, #399	; 0x18f
 800289e:	4959      	ldr	r1, [pc, #356]	; (8002a04 <uart_init+0xb4>)
 80028a0:	6808      	ldr	r0, [r1, #0]
 80028a2:	f420 70ff 	bic.w	r0, r0, #510	; 0x1fe
 80028a6:	ea40 0002 	orr.w	r0, r0, r2
 80028aa:	6008      	str	r0, [r1, #0]
 80028ac:	4955      	ldr	r1, [pc, #340]	; (8002a04 <uart_init+0xb4>)
 80028ae:	6808      	ldr	r0, [r1, #0]
 80028b0:	f420 407e 	bic.w	r0, r0, #65024	; 0xfe00
 80028b4:	f440 7000 	orr.w	r0, r0, #512	; 0x200
 80028b8:	6008      	str	r0, [r1, #0]
 80028ba:	4952      	ldr	r1, [pc, #328]	; (8002a04 <uart_init+0xb4>)
 80028bc:	6808      	ldr	r0, [r1, #0]
 80028be:	f420 00fe 	bic.w	r0, r0, #8323072	; 0x7f0000
 80028c2:	f440 3040 	orr.w	r0, r0, #196608	; 0x30000
 80028c6:	6008      	str	r0, [r1, #0]
 80028c8:	494e      	ldr	r1, [pc, #312]	; (8002a04 <uart_init+0xb4>)
 80028ca:	6808      	ldr	r0, [r1, #0]
 80028cc:	f020 40fe 	bic.w	r0, r0, #2130706432	; 0x7f000000
 80028d0:	f040 7080 	orr.w	r0, r0, #16777216	; 0x1000000
 80028d4:	6008      	str	r0, [r1, #0]
 80028d6:	4770      	bx	lr

080028d8 <enable_pll>:
 80028d8:	4947      	ldr	r1, [pc, #284]	; (80029f8 <uart_init+0xa8>)
 80028da:	6808      	ldr	r0, [r1, #0]
 80028dc:	f040 7080 	orr.w	r0, r0, #16777216	; 0x1000000
 80028e0:	6008      	str	r0, [r1, #0]
 80028e2:	6808      	ldr	r0, [r1, #0]
 80028e4:	f010 7000 	ands.w	r0, r0, #33554432	; 0x2000000
 80028e8:	d0fb      	beq.n	80028e2 <enable_pll+0xa>
 80028ea:	4770      	bx	lr

080028ec <set_prescalers>:
 80028ec:	4946      	ldr	r1, [pc, #280]	; (8002a08 <uart_init+0xb8>)
 80028ee:	6808      	ldr	r0, [r1, #0]
 80028f0:	f020 000f 	bic.w	r0, r0, #15
 80028f4:	f040 0008 	orr.w	r0, r0, #8
 80028f8:	6008      	str	r0, [r1, #0]
 80028fa:	4944      	ldr	r1, [pc, #272]	; (8002a0c <uart_init+0xbc>)
 80028fc:	6808      	ldr	r0, [r1, #0]
 80028fe:	f020 0007 	bic.w	r0, r0, #7
 8002902:	f040 0003 	orr.w	r0, r0, #3
 8002906:	6008      	str	r0, [r1, #0]
 8002908:	493f      	ldr	r1, [pc, #252]	; (8002a08 <uart_init+0xb8>)
 800290a:	6808      	ldr	r0, [r1, #0]
 800290c:	f020 000f 	bic.w	r0, r0, #15
 8002910:	f040 0008 	orr.w	r0, r0, #8
 8002914:	6008      	str	r0, [r1, #0]
 8002916:	493c      	ldr	r1, [pc, #240]	; (8002a08 <uart_init+0xb8>)
 8002918:	6808      	ldr	r0, [r1, #0]
 800291a:	f020 0070 	bic.w	r0, r0, #112	; 0x70
 800291e:	f040 0040 	orr.w	r0, r0, #64	; 0x40
 8002922:	6008      	str	r0, [r1, #0]
 8002924:	493a      	ldr	r1, [pc, #232]	; (8002a10 <uart_init+0xc0>)
 8002926:	6808      	ldr	r0, [r1, #0]
 8002928:	f020 0070 	bic.w	r0, r0, #112	; 0x70
 800292c:	f040 0040 	orr.w	r0, r0, #64	; 0x40
 8002930:	6008      	str	r0, [r1, #0]
 8002932:	4937      	ldr	r1, [pc, #220]	; (8002a10 <uart_init+0xc0>)
 8002934:	6808      	ldr	r0, [r1, #0]
 8002936:	f420 60e0 	bic.w	r0, r0, #1792	; 0x700
 800293a:	f440 6080 	orr.w	r0, r0, #1024	; 0x400
 800293e:	6008      	str	r0, [r1, #0]
 8002940:	4934      	ldr	r1, [pc, #208]	; (8002a14 <uart_init+0xc4>)
 8002942:	6808      	ldr	r0, [r1, #0]
 8002944:	f020 0070 	bic.w	r0, r0, #112	; 0x70
 8002948:	f040 0040 	orr.w	r0, r0, #64	; 0x40
 800294c:	6008      	str	r0, [r1, #0]
 800294e:	4770      	bx	lr

08002950 <uart_init>:
 8002950:	b500      	push	{lr}
 8002952:	f7ff ff59 	bl	8002808 <set_power_config>
 8002956:	f7ff ff5f 	bl	8002818 <set_voltage_scaling>
 800295a:	f7ff ff69 	bl	8002830 <enable_bypass_hse>
 800295e:	f7ff ff76 	bl	800284e <set_pll_400_mhz_sysclk>
 8002962:	f7ff ffb9 	bl	80028d8 <enable_pll>
 8002966:	f7ff ffc1 	bl	80028ec <set_prescalers>
 800296a:	f7ff ff40 	bl	80027ee <set_flash_latency>
 800296e:	492a      	ldr	r1, [pc, #168]	; (8002a18 <uart_init+0xc8>)
 8002970:	f04f 0003 	mov.w	r0, #3
 8002974:	6008      	str	r0, [r1, #0]
 8002976:	4929      	ldr	r1, [pc, #164]	; (8002a1c <uart_init+0xcc>)
 8002978:	6808      	ldr	r0, [r1, #0]
 800297a:	f050 000f 	orrs.w	r0, r0, #15
 800297e:	f450 60fe 	orrs.w	r0, r0, #2032	; 0x7f0
 8002982:	6008      	str	r0, [r1, #0]
 8002984:	4926      	ldr	r1, [pc, #152]	; (8002a20 <uart_init+0xd0>)
 8002986:	6808      	ldr	r0, [r1, #0]
 8002988:	f420 3040 	bic.w	r0, r0, #196608	; 0x30000
 800298c:	f450 3000 	orrs.w	r0, r0, #131072	; 0x20000
 8002990:	6008      	str	r0, [r1, #0]
 8002992:	4923      	ldr	r1, [pc, #140]	; (8002a20 <uart_init+0xd0>)
 8002994:	6808      	ldr	r0, [r1, #0]
 8002996:	f420 2040 	bic.w	r0, r0, #786432	; 0xc0000
 800299a:	f450 2000 	orrs.w	r0, r0, #524288	; 0x80000
 800299e:	6008      	str	r0, [r1, #0]
 80029a0:	4920      	ldr	r1, [pc, #128]	; (8002a24 <uart_init+0xd4>)
 80029a2:	6808      	ldr	r0, [r1, #0]
 80029a4:	f020 000f 	bic.w	r0, r0, #15
 80029a8:	f050 0007 	orrs.w	r0, r0, #7
 80029ac:	6008      	str	r0, [r1, #0]
 80029ae:	491d      	ldr	r1, [pc, #116]	; (8002a24 <uart_init+0xd4>)
 80029b0:	6808      	ldr	r0, [r1, #0]
 80029b2:	f020 00f0 	bic.w	r0, r0, #240	; 0xf0
 80029b6:	f050 0070 	orrs.w	r0, r0, #112	; 0x70
 80029ba:	6008      	str	r0, [r1, #0]
 80029bc:	491a      	ldr	r1, [pc, #104]	; (8002a28 <uart_init+0xd8>)
 80029be:	6808      	ldr	r0, [r1, #0]
 80029c0:	f450 2080 	orrs.w	r0, r0, #262144	; 0x40000
 80029c4:	6008      	str	r0, [r1, #0]
 80029c6:	4919      	ldr	r1, [pc, #100]	; (8002a2c <uart_init+0xdc>)
 80029c8:	f45f 700b 	movs.w	r0, #556	; 0x22c
 80029cc:	6008      	str	r0, [r1, #0]
 80029ce:	4918      	ldr	r1, [pc, #96]	; (8002a30 <uart_init+0xe0>)
 80029d0:	f44f 5080 	mov.w	r0, #4096	; 0x1000
 80029d4:	6008      	str	r0, [r1, #0]
 80029d6:	4917      	ldr	r1, [pc, #92]	; (8002a34 <uart_init+0xe4>)
 80029d8:	f04f 000d 	mov.w	r0, #13
 80029dc:	6008      	str	r0, [r1, #0]
 80029de:	f85d eb04 	ldr.w	lr, [sp], #4
 80029e2:	4770      	bx	lr
 80029e4:	e000ef50 	and	lr, r0, r0, asr pc
 80029e8:	e000ed14 	and	lr, r0, r4, lsl sp
 80029ec:	52002000 	andpl	r2, r0, #0
 80029f0:	5802480c 	stmdapl	r2, {r2, r3, fp, lr}
 80029f4:	58024818 	stmdapl	r2, {r3, r4, fp, lr}
 80029f8:	58024400 	stmdapl	r2, {sl, lr}
 80029fc:	58024428 	stmdapl	r2, {r3, r5, sl, lr}
 8002a00:	5802442c 	stmdapl	r2, {r2, r3, r5, sl, lr}
 8002a04:	58024430 	stmdapl	r2, {r4, r5, sl, lr}
 8002a08:	58024418 	stmdapl	r2, {r3, r4, sl, lr}
 8002a0c:	58024410 	stmdapl	r2, {r4, sl, lr}
 8002a10:	5802441c 	stmdapl	r2, {r2, r3, r4, sl, lr}
 8002a14:	58024420 	stmdapl	r2, {r5, sl, lr}
 8002a18:	58024454 	stmdapl	r2, {r2, r4, r6, sl, lr}
 8002a1c:	580244e0 	stmdapl	r2, {r5, r6, r7, sl, lr}
 8002a20:	58020c00 	stmdapl	r2, {sl, fp}
 8002a24:	58020c24 	stmdapl	r2, {r2, r5, sl, fp}
 8002a28:	580244e8 	stmdapl	r2, {r3, r5, r6, r7, sl, lr}
 8002a2c:	4000480c 	andmi	r4, r0, ip, lsl #16
 8002a30:	40004808 	andmi	r4, r0, r8, lsl #16
 8002a34:	40004800 	andmi	r4, r0, r0, lsl #16

08002a38 <Dictionary_609>:
 8002a38:	08002a54 	stmdaeq	r0, {r2, r4, r6, r9, fp, sp}
 8002a3c:	68090081 	stmdavs	r9, {r0, r7}
 8002a40:	2d6b6f6f 	stclcs	15, cr6, [fp, #-444]!	; 0xfffffe44
 8002a44:	74696d65 	strbtvc	r6, [r9], #-3429	; 0xfffff29b

08002a48 <Code_609>:
 8002a48:	f847 6d04 	str.w	r6, [r7, #-4]!
 8002a4c:	4e61      	ldr	r6, [pc, #388]	; (8002bd4 <Code_638+0x1a>)
 8002a4e:	4770      	bx	lr
 8002a50:	08002b3e 	stmdaeq	r0, {r1, r2, r3, r4, r5, r8, r9, fp, sp}

08002a54 <Dictionary_612>:
 8002a54:	08002a70 	stmdaeq	r0, {r4, r5, r6, r9, fp, sp}
 8002a58:	68080081 	stmdavs	r8, {r0, r7}
 8002a5c:	2d6b6f6f 	stclcs	15, cr6, [fp, #-444]!	; 0xfffffe44
 8002a60:	0079656b 	rsbseq	r6, r9, fp, ror #10

08002a64 <Code_612>:
 8002a64:	f847 6d04 	str.w	r6, [r7, #-4]!
 8002a68:	4e5b      	ldr	r6, [pc, #364]	; (8002bd8 <Code_638+0x1e>)
 8002a6a:	4770      	bx	lr
 8002a6c:	08002b64 	stmdaeq	r0, {r2, r5, r6, r8, r9, fp, sp}

08002a70 <Dictionary_615>:
 8002a70:	08002a8e 	stmdaeq	r0, {r1, r2, r3, r7, r9, fp, sp}
 8002a74:	680a0081 	stmdavs	sl, {r0, r7}
 8002a78:	2d6b6f6f 	stclcs	15, cr6, [fp, #-444]!	; 0xfffffe44
 8002a7c:	74696d65 	strbtvc	r6, [r9], #-3429	; 0xfffff29b
 8002a80:	 			; <UNDEFINED> instruction: 0xf847003f

08002a82 <Code_615>:
 8002a82:	f847 6d04 	str.w	r6, [r7, #-4]!
 8002a86:	4e55      	ldr	r6, [pc, #340]	; (8002bdc <Code_638+0x22>)
 8002a88:	4770      	bx	lr
 8002a8a:	08002b8e 	stmdaeq	r0, {r1, r2, r3, r7, r8, r9, fp, sp}

08002a8e <Dictionary_618>:
 8002a8e:	08002aaa 	stmdaeq	r0, {r1, r3, r5, r7, r9, fp, sp}
 8002a92:	68090081 	stmdavs	r9, {r0, r7}
 8002a96:	2d6b6f6f 	stclcs	15, cr6, [fp, #-444]!	; 0xfffffe44
 8002a9a:	3f79656b 	svccc	0x0079656b

08002a9e <Code_618>:
 8002a9e:	f847 6d04 	str.w	r6, [r7, #-4]!
 8002aa2:	4e4f      	ldr	r6, [pc, #316]	; (8002be0 <Code_638+0x26>)
 8002aa4:	4770      	bx	lr
 8002aa6:	08002bba 	stmdaeq	r0, {r1, r3, r4, r5, r7, r8, r9, fp, sp}

08002aaa <Dictionary_621>:
 8002aaa:	08002ac8 	stmdaeq	r0, {r3, r6, r7, r9, fp, sp}
 8002aae:	680a0081 	stmdavs	sl, {r0, r7}
 8002ab2:	2d6b6f6f 	stclcs	15, cr6, [fp, #-444]!	; 0xfffffe44
 8002ab6:	73756170 	cmnvc	r5, #112, 2
 8002aba:	 			; <UNDEFINED> instruction: 0xf8470065

08002abc <Code_621>:
 8002abc:	f847 6d04 	str.w	r6, [r7, #-4]!
 8002ac0:	4e48      	ldr	r6, [pc, #288]	; (8002be4 <Code_638+0x2a>)
 8002ac2:	4770      	bx	lr
 8002ac4:	08005036 	stmdaeq	r0, {r1, r2, r4, r5, ip, lr}

08002ac8 <Dictionary_624>:
 8002ac8:	08002ade 	stmdaeq	r0, {r1, r2, r3, r4, r6, r7, r9, fp, sp}
 8002acc:	65040000 	strvs	r0, [r4, #-0]
 8002ad0:	0074696d 	rsbseq	r6, r4, sp, ror #18

08002ad4 <Code_624>:
 8002ad4:	b50f      	push	{r0, r1, r2, r3, lr}
 8002ad6:	483f      	ldr	r0, [pc, #252]	; (8002bd4 <Code_638+0x1a>)
 8002ad8:	f000 f826 	bl	8002b28 <hook_intern>
 8002adc:	bd0f      	pop	{r0, r1, r2, r3, pc}

08002ade <Dictionary_625>:
 8002ade:	08002af2 	stmdaeq	r0, {r1, r4, r5, r6, r7, r9, fp, sp}
 8002ae2:	6b030000 	blvs	80c2aea <FlashDictionaryAnfang+0xa2aea>
 8002ae6:	 	strlt	r7, [pc, #-2405]	; 8002189 <Code_459+0xd5>

08002ae8 <Code_625>:
 8002ae8:	b50f      	push	{r0, r1, r2, r3, lr}
 8002aea:	483b      	ldr	r0, [pc, #236]	; (8002bd8 <Code_638+0x1e>)
 8002aec:	f000 f81c 	bl	8002b28 <hook_intern>
 8002af0:	bd0f      	pop	{r0, r1, r2, r3, pc}

08002af2 <Dictionary_626>:
 8002af2:	08002b04 	stmdaeq	r0, {r2, r8, r9, fp, sp}
 8002af6:	65050000 	strvs	r0, [r5, #-0]
 8002afa:	3f74696d 	svccc	0x0074696d

08002afe <Code_626>:
 8002afe:	4837      	ldr	r0, [pc, #220]	; (8002bdc <Code_638+0x22>)
 8002b00:	6800      	ldr	r0, [r0, #0]
 8002b02:	4687      	mov	pc, r0

08002b04 <Dictionary_627>:
 8002b04:	08002b16 	stmdaeq	r0, {r1, r2, r4, r8, r9, fp, sp}
 8002b08:	6b040000 	blvs	8102b10 <FlashDictionaryEnde+0x2b10>
 8002b0c:	003f7965 	eorseq	r7, pc, r5, ror #18

08002b10 <Code_627>:
 8002b10:	4833      	ldr	r0, [pc, #204]	; (8002be0 <Code_638+0x26>)
 8002b12:	6800      	ldr	r0, [r0, #0]
 8002b14:	4687      	mov	pc, r0

08002b16 <Dictionary_628>:
 8002b16:	08002b2c 	stmdaeq	r0, {r2, r3, r5, r8, r9, fp, sp}
 8002b1a:	70050000 	andvc	r0, r5, r0
 8002b1e:	65737561 	ldrbvs	r7, [r3, #-1377]!	; 0xfffffa9f

08002b22 <Code_628>:
 8002b22:	4830      	ldr	r0, [pc, #192]	; (8002be4 <Code_638+0x2a>)
 8002b24:	6800      	ldr	r0, [r0, #0]
 8002b26:	4687      	mov	pc, r0

08002b28 <hook_intern>:
 8002b28:	6800      	ldr	r0, [r0, #0]
 8002b2a:	4687      	mov	pc, r0

08002b2c <Dictionary_629>:
 8002b2c:	08002b52 	stmdaeq	r0, {r1, r4, r6, r8, r9, fp, sp}
 8002b30:	730b0000 	movwvc	r0, #45056	; 0xb000
 8002b34:	61697265 	cmnvs	r9, r5, ror #4
 8002b38:	6d652d6c 	stclvs	13, cr2, [r5, #-432]!	; 0xfffffe50
 8002b3c:	 	strlt	r7, [r0, #-1129]	; 0xfffffb97

08002b3e <Code_629>:
 8002b3e:	b500      	push	{lr}
 8002b40:	f000 f825 	bl	8002b8e <Code_635>
 8002b44:	2e00      	cmp	r6, #0
 8002b46:	cf40      	ldmia	r7!, {r6}
 8002b48:	d0fa      	beq.n	8002b40 <Code_629+0x2>
 8002b4a:	4a27      	ldr	r2, [pc, #156]	; (8002be8 <Code_638+0x2e>)
 8002b4c:	7016      	strb	r6, [r2, #0]
 8002b4e:	cf40      	ldmia	r7!, {r6}
 8002b50:	bd00      	pop	{pc}

08002b52 <Dictionary_632>:
 8002b52:	08002b7a 	stmdaeq	r0, {r1, r3, r4, r5, r6, r8, r9, fp, sp}
 8002b56:	730a0000 	movwvc	r0, #40960	; 0xa000
 8002b5a:	61697265 	cmnvs	r9, r5, ror #4
 8002b5e:	656b2d6c 	strbvs	r2, [fp, #-3436]!	; 0xfffff294
 8002b62:	 	strlt	r0, [r0, #-121]	; 0xffffff87

08002b64 <Code_632>:
 8002b64:	b500      	push	{lr}
 8002b66:	f000 f828 	bl	8002bba <Code_638>
 8002b6a:	2e00      	cmp	r6, #0
 8002b6c:	cf40      	ldmia	r7!, {r6}
 8002b6e:	d0fa      	beq.n	8002b66 <Code_632+0x2>
 8002b70:	f847 6d04 	str.w	r6, [r7, #-4]!
 8002b74:	4a1d      	ldr	r2, [pc, #116]	; (8002bec <Code_638+0x32>)
 8002b76:	7816      	ldrb	r6, [r2, #0]
 8002b78:	bd00      	pop	{pc}

08002b7a <Dictionary_635>:
 8002b7a:	08002ba8 	stmdaeq	r0, {r3, r5, r7, r8, r9, fp, sp}
 8002b7e:	730c0000 	movwvc	r0, #49152	; 0xc000
 8002b82:	61697265 	cmnvs	r9, r5, ror #4
 8002b86:	6d652d6c 	stclvs	13, cr2, [r5, #-432]!	; 0xfffffe50
 8002b8a:	003f7469 	eorseq	r7, pc, r9, ror #8

08002b8e <Code_635>:
 8002b8e:	b500      	push	{lr}
 8002b90:	f7ff ffc7 	bl	8002b22 <Code_628>
 8002b94:	f847 6d04 	str.w	r6, [r7, #-4]!
 8002b98:	2600      	movs	r6, #0
 8002b9a:	4815      	ldr	r0, [pc, #84]	; (8002bf0 <Code_638+0x36>)
 8002b9c:	6801      	ldr	r1, [r0, #0]
 8002b9e:	2080      	movs	r0, #128	; 0x80
 8002ba0:	4001      	ands	r1, r0
 8002ba2:	d000      	beq.n	8002ba6 <Code_635+0x18>
 8002ba4:	43f6      	mvns	r6, r6
 8002ba6:	bd00      	pop	{pc}

08002ba8 <Dictionary_638>:
 8002ba8:	08002bf4 	stmdaeq	r0, {r2, r4, r5, r6, r7, r8, r9, fp, sp}
 8002bac:	730b0000 	movwvc	r0, #45056	; 0xb000
 8002bb0:	61697265 	cmnvs	r9, r5, ror #4
 8002bb4:	656b2d6c 	strbvs	r2, [fp, #-3436]!	; 0xfffff294
 8002bb8:	 	strlt	r3, [r0, #-3961]	; 0xfffff087

08002bba <Code_638>:
 8002bba:	b500      	push	{lr}
 8002bbc:	f7ff ffb1 	bl	8002b22 <Code_628>
 8002bc0:	f847 6d04 	str.w	r6, [r7, #-4]!
 8002bc4:	2600      	movs	r6, #0
 8002bc6:	480a      	ldr	r0, [pc, #40]	; (8002bf0 <Code_638+0x36>)
 8002bc8:	6801      	ldr	r1, [r0, #0]
 8002bca:	2020      	movs	r0, #32
 8002bcc:	4001      	ands	r1, r0
 8002bce:	d000      	beq.n	8002bd2 <Code_638+0x18>
 8002bd0:	43f6      	mvns	r6, r6
 8002bd2:	bd00      	pop	{pc}
 8002bd4:	2407fff8 	strcs	pc, [r7], #-4088	; 0xfffff008
 8002bd8:	2407fff4 	strcs	pc, [r7], #-4084	; 0xfffff00c
 8002bdc:	2407fff0 	strcs	pc, [r7], #-4080	; 0xfffff010
 8002be0:	2407ffec 	strcs	pc, [r7], #-4076	; 0xfffff014
 8002be4:	2407ffe8 	strcs	pc, [r7], #-4072	; 0xfffff018
 8002be8:	40004828 	andmi	r4, r0, r8, lsr #16
 8002bec:	40004824 	andmi	r4, r0, r4, lsr #16
 8002bf0:	4000481c 	andmi	r4, r0, ip, lsl r8

08002bf4 <Dictionary_641>:
 8002bf4:	08002c18 	stmdaeq	r0, {r3, r4, sl, fp, sp}
 8002bf8:	63070000 	movwvs	r0, #28672	; 0x7000
 8002bfc:	65707865 	ldrbvs	r7, [r0, #-2149]!	; 0xfffff79b
 8002c00:	 	strlt	r7, [r0, #-1123]	; 0xfffffb9d

08002c02 <Code_641>:
 8002c02:	b500      	push	{lr}
 8002c04:	6838      	ldr	r0, [r7, #0]
 8002c06:	b401      	push	{r0}
 8002c08:	3001      	adds	r0, #1
 8002c0a:	6038      	str	r0, [r7, #0]
 8002c0c:	f000 f80b 	bl	8002c26 <Code_643>
 8002c10:	bc01      	pop	{r0}
 8002c12:	7006      	strb	r6, [r0, #0]
 8002c14:	cf40      	ldmia	r7!, {r6}
 8002c16:	bd00      	pop	{pc}

08002c18 <Dictionary_643>:
 8002c18:	08002c8e 	stmdaeq	r0, {r1, r2, r3, r7, sl, fp, sp}
 8002c1c:	61060000 	mrsvs	r0, (UNDEF: 6)
 8002c20:	70656363 	rsbvc	r6, r5, r3, ror #6
 8002c24:	 	strlt	r0, [r0, #-116]	; 0xffffff8c

08002c26 <Code_643>:
 8002c26:	b500      	push	{lr}
 8002c28:	cf02      	ldmia	r7!, {r1}
 8002c2a:	3901      	subs	r1, #1
 8002c2c:	2200      	movs	r2, #0
 8002c2e:	f7ff ff5b 	bl	8002ae8 <Code_625>
 8002c32:	0030      	movs	r0, r6
 8002c34:	cf40      	ldmia	r7!, {r6}
 8002c36:	287f      	cmp	r0, #127	; 0x7f
 8002c38:	d009      	beq.n	8002c4e <Code_643+0x28>
 8002c3a:	2820      	cmp	r0, #32
 8002c3c:	d219      	bcs.n	8002c72 <Code_643+0x4c>
 8002c3e:	2809      	cmp	r0, #9
 8002c40:	d016      	beq.n	8002c70 <Code_643+0x4a>
 8002c42:	280a      	cmp	r0, #10
 8002c44:	d01f      	beq.n	8002c86 <Code_643+0x60>
 8002c46:	280d      	cmp	r0, #13
 8002c48:	d01d      	beq.n	8002c86 <Code_643+0x60>
 8002c4a:	2808      	cmp	r0, #8
 8002c4c:	d1ef      	bne.n	8002c2e <Code_643+0x8>
 8002c4e:	2a00      	cmp	r2, #0
 8002c50:	d0ed      	beq.n	8002c2e <Code_643+0x8>
 8002c52:	f000 f90b 	bl	8002e6c <dotgaensefuesschen>
 8002c56:	08200803 	stmdaeq	r0!, {r0, r1, fp}
 8002c5a:	2a00      	cmp	r2, #0
 8002c5c:	d0e7      	beq.n	8002c2e <Code_643+0x8>
 8002c5e:	5c88      	ldrb	r0, [r1, r2]
 8002c60:	3a01      	subs	r2, #1
 8002c62:	2380      	movs	r3, #128	; 0x80
 8002c64:	4003      	ands	r3, r0
 8002c66:	d0e2      	beq.n	8002c2e <Code_643+0x8>
 8002c68:	2340      	movs	r3, #64	; 0x40
 8002c6a:	4003      	ands	r3, r0
 8002c6c:	d0f5      	beq.n	8002c5a <Code_643+0x34>
 8002c6e:	e7de      	b.n	8002c2e <Code_643+0x8>
 8002c70:	2020      	movs	r0, #32
 8002c72:	42b2      	cmp	r2, r6
 8002c74:	d2db      	bcs.n	8002c2e <Code_643+0x8>
 8002c76:	f847 6d04 	str.w	r6, [r7, #-4]!
 8002c7a:	0006      	movs	r6, r0
 8002c7c:	f7ff ff2a 	bl	8002ad4 <Code_624>
 8002c80:	3201      	adds	r2, #1
 8002c82:	5488      	strb	r0, [r1, r2]
 8002c84:	e7d3      	b.n	8002c2e <Code_643+0x8>
 8002c86:	0016      	movs	r6, r2
 8002c88:	f000 f89f 	bl	8002dca <Code_673>
 8002c8c:	bd00      	pop	{pc}

08002c8e <Dictionary_647>:
 8002c8e:	08002ca0 	stmdaeq	r0, {r5, r7, sl, fp, sp}
 8002c92:	74030040 	strvc	r0, [r3], #-64	; 0xffffffc0
 8002c96:	 			; <UNDEFINED> instruction: 0xf8476269

08002c98 <Code_647>:
 8002c98:	f847 6d04 	str.w	r6, [r7, #-4]!
 8002c9c:	4e29      	ldr	r6, [pc, #164]	; (8002d44 <Code_659+0x22>)
 8002c9e:	4770      	bx	lr

08002ca0 <Dictionary_649>:
 8002ca0:	08002cb6 	stmdaeq	r0, {r1, r2, r4, r5, r7, sl, fp, sp}
 8002ca4:	3e030081 	cdpcc	0, 0, cr0, cr3, cr1, {4}
 8002ca8:	 			; <UNDEFINED> instruction: 0xf8476e69

08002caa <Code_649>:
 8002caa:	f847 6d04 	str.w	r6, [r7, #-4]!
 8002cae:	4e26      	ldr	r6, [pc, #152]	; (8002d48 <Code_659+0x26>)
 8002cb0:	4770      	bx	lr
 8002cb2:	00000000 	andeq	r0, r0, r0

08002cb6 <Dictionary_652>:
 8002cb6:	08002cdc 	stmdaeq	r0, {r2, r3, r4, r6, r7, sl, fp, sp}
 8002cba:	630e0082 	movwvs	r0, #57474	; 0xe082
 8002cbe:	65727275 	ldrbvs	r7, [r2, #-629]!	; 0xfffffd8b
 8002cc2:	732d746e 			; <UNDEFINED> instruction: 0x732d746e
 8002cc6:	6372756f 	cmnvs	r2, #465567744	; 0x1bc00000
 8002cca:	 			; <UNDEFINED> instruction: 0xf8470065

08002ccc <Code_652>:
 8002ccc:	f847 6d04 	str.w	r6, [r7, #-4]!
 8002cd0:	4e1e      	ldr	r6, [pc, #120]	; (8002d4c <Code_659+0x2a>)
 8002cd2:	4770      	bx	lr
 8002cd4:	00000000 	andeq	r0, r0, r0
 8002cd8:	240000c0 	strcs	r0, [r0], #-192	; 0xffffff40

08002cdc <Dictionary_655>:
 8002cdc:	08002cf8 	stmdaeq	r0, {r3, r4, r5, r6, r7, sl, fp, sp}
 8002ce0:	73090000 	movwvc	r0, #36864	; 0x9000
 8002ce4:	6f737465 	svcvs	0x00737465
 8002ce8:	65637275 	strbvs	r7, [r3, #-629]!	; 0xfffffd8b

08002cec <Code_655>:
 8002cec:	4817      	ldr	r0, [pc, #92]	; (8002d4c <Code_659+0x2a>)
 8002cee:	cf02      	ldmia	r7!, {r1}
 8002cf0:	6006      	str	r6, [r0, #0]
 8002cf2:	6041      	str	r1, [r0, #4]
 8002cf4:	cf40      	ldmia	r7!, {r6}
 8002cf6:	4770      	bx	lr

08002cf8 <Dictionary_657>:
 8002cf8:	08002d16 	stmdaeq	r0, {r1, r2, r4, r8, sl, fp, sp}
 8002cfc:	73060000 	movwvc	r0, #24576	; 0x6000
 8002d00:	6372756f 	cmnvs	r2, #465567744	; 0x1bc00000
 8002d04:	 			; <UNDEFINED> instruction: 0xf8470065

08002d06 <Code_657>:
 8002d06:	f847 6d04 	str.w	r6, [r7, #-4]!
 8002d0a:	4e10      	ldr	r6, [pc, #64]	; (8002d4c <Code_659+0x2a>)
 8002d0c:	3f04      	subs	r7, #4
 8002d0e:	6870      	ldr	r0, [r6, #4]
 8002d10:	6038      	str	r0, [r7, #0]
 8002d12:	6836      	ldr	r6, [r6, #0]
 8002d14:	4770      	bx	lr

08002d16 <Dictionary_659>:
 8002d16:	08002d50 	stmdaeq	r0, {r4, r6, r8, sl, fp, sp}
 8002d1a:	71050000 	mrsvc	r0, (UNDEF: 5)
 8002d1e:	79726575 	ldmdbvc	r2!, {r0, r2, r4, r5, r6, r8, sl, sp, lr}^

08002d22 <Code_659>:
 8002d22:	b50f      	push	{r0, r1, r2, r3, lr}
 8002d24:	4808      	ldr	r0, [pc, #32]	; (8002d48 <Code_659+0x26>)
 8002d26:	2100      	movs	r1, #0
 8002d28:	6001      	str	r1, [r0, #0]
 8002d2a:	f7ff ffb5 	bl	8002c98 <Code_647>
 8002d2e:	f847 6d04 	str.w	r6, [r7, #-4]!
 8002d32:	f847 6d04 	str.w	r6, [r7, #-4]!
 8002d36:	26c8      	movs	r6, #200	; 0xc8
 8002d38:	f7ff ff75 	bl	8002c26 <Code_643>
 8002d3c:	f7ff ffd6 	bl	8002cec <Code_655>
 8002d40:	bd0f      	pop	{r0, r1, r2, r3, pc}
 8002d42:	00c00000 	sbceq	r0, r0, r0
 8002d46:	ffe42400 			; <UNDEFINED> instruction: 0xffe42400
 8002d4a:	ffdc2407 			; <UNDEFINED> instruction: 0xffdc2407
 8002d4e:	 	cfldrscs	mvf2, [r8, #28]

08002d50 <Dictionary_664>:
 8002d50:	08002d98 	stmdaeq	r0, {r3, r4, r7, r8, sl, fp, sp}
 8002d54:	63070000 	movwvs	r0, #28672	; 0x7000
 8002d58:	61706d6f 	cmnvs	r0, pc, ror #26
 8002d5c:	 	strlt	r6, [pc, #-1394]	; 80027f2 <set_flash_latency+0x4>

08002d5e <Code_664>:
 8002d5e:	b50f      	push	{r0, r1, r2, r3, lr}
 8002d60:	0031      	movs	r1, r6
 8002d62:	cf40      	ldmia	r7!, {r6}
 8002d64:	cf01      	ldmia	r7!, {r0}
 8002d66:	4288      	cmp	r0, r1
 8002d68:	cf02      	ldmia	r7!, {r1}
 8002d6a:	d110      	bne.n	8002d8e <Code_664+0x30>
 8002d6c:	2800      	cmp	r0, #0
 8002d6e:	d010      	beq.n	8002d92 <Code_664+0x34>
 8002d70:	3801      	subs	r0, #1
 8002d72:	5c0a      	ldrb	r2, [r1, r0]
 8002d74:	5c33      	ldrb	r3, [r6, r0]
 8002d76:	2a41      	cmp	r2, #65	; 0x41
 8002d78:	d302      	bcc.n	8002d80 <Code_664+0x22>
 8002d7a:	2a5b      	cmp	r2, #91	; 0x5b
 8002d7c:	bf38      	it	cc
 8002d7e:	3220      	addcc	r2, #32
 8002d80:	2b41      	cmp	r3, #65	; 0x41
 8002d82:	d302      	bcc.n	8002d8a <Code_664+0x2c>
 8002d84:	2b5b      	cmp	r3, #91	; 0x5b
 8002d86:	bf38      	it	cc
 8002d88:	3320      	addcc	r3, #32
 8002d8a:	429a      	cmp	r2, r3
 8002d8c:	d0ee      	beq.n	8002d6c <Code_664+0xe>
 8002d8e:	2600      	movs	r6, #0
 8002d90:	bd0f      	pop	{r0, r1, r2, r3, pc}
 8002d92:	2600      	movs	r6, #0
 8002d94:	43f6      	mvns	r6, r6
 8002d96:	bd0f      	pop	{r0, r1, r2, r3, pc}

08002d98 <Dictionary_668>:
 8002d98:	08002dac 	stmdaeq	r0, {r2, r3, r5, r7, r8, sl, fp, sp}
 8002d9c:	63020000 	movwvs	r0, #8192	; 0x2000
 8002da0:	 	strlt	r0, [r0, #-114]	; 0xffffff8e

08002da2 <Code_668>:
 8002da2:	b500      	push	{lr}
 8002da4:	f000 f862 	bl	8002e6c <dotgaensefuesschen>
 8002da8:	bd000a01 	vstrlt	s0, [r0, #-4]

08002dac <Dictionary_670>:
 8002dac:	08002dbe 	stmdaeq	r0, {r1, r2, r3, r4, r5, r7, r8, sl, fp, sp}
 8002db0:	62020000 	andvs	r0, r2, #0
 8002db4:	 			; <UNDEFINED> instruction: 0xf847006c

08002db6 <Code_670>:
 8002db6:	f847 6d04 	str.w	r6, [r7, #-4]!
 8002dba:	2620      	movs	r6, #32
 8002dbc:	4770      	bx	lr

08002dbe <Dictionary_673>:
 8002dbe:	08002dd2 	stmdaeq	r0, {r1, r4, r6, r7, r8, sl, fp, sp}
 8002dc2:	73050000 	movwvc	r0, #20480	; 0x5000
 8002dc6:	65636170 	strbvs	r6, [r3, #-368]!	; 0xfffffe90

08002dca <Code_673>:
 8002dca:	f847 6d04 	str.w	r6, [r7, #-4]!
 8002dce:	2620      	movs	r6, #32
 8002dd0:	e680      	b.n	8002ad4 <Code_624>

08002dd2 <Dictionary_676>:
 8002dd2:	08002df2 	stmdaeq	r0, {r1, r4, r5, r6, r7, r8, sl, fp, sp}
 8002dd6:	73060000 	movwvc	r0, #24576	; 0x6000
 8002dda:	65636170 	strbvs	r6, [r3, #-368]!	; 0xfffffe90
 8002dde:	 	strlt	r0, [r0, #-115]	; 0xffffff8d

08002de0 <Code_676>:
 8002de0:	b500      	push	{lr}
 8002de2:	2e00      	cmp	r6, #0
 8002de4:	dd03      	ble.n	8002dee <Code_676+0xe>
 8002de6:	f7ff fff0 	bl	8002dca <Code_673>
 8002dea:	3e01      	subs	r6, #1
 8002dec:	d1fb      	bne.n	8002de6 <Code_676+0x6>
 8002dee:	cf40      	ldmia	r7!, {r6}
 8002df0:	bd00      	pop	{pc}

08002df2 <Dictionary_678>:
 8002df2:	08002e02 	stmdaeq	r0, {r1, r9, sl, fp, sp}
 8002df6:	5b060050 	blpl	8182f3e <FlashDictionaryEnde+0x82f3e>
 8002dfa:	72616863 	rsbvc	r6, r1, #6488064	; 0x630000
 8002dfe:	 	and	r0, r5, sp, asr r0

08002e00 <Code_678>:
 8002e00:	e005      	b.n	8002e0e <Code_679>

08002e02 <Dictionary_679>:
 8002e02:	08002e1a 	stmdaeq	r0, {r1, r3, r4, r9, sl, fp, sp}
 8002e06:	63040000 	movwvs	r0, #16384	; 0x4000
 8002e0a:	00726168 	rsbseq	r6, r2, r8, ror #2

08002e0e <Code_679>:
 8002e0e:	b500      	push	{lr}
 8002e10:	f001 fcf6 	bl	8004800 <Code_1133>
 8002e14:	cf40      	ldmia	r7!, {r6}
 8002e16:	7836      	ldrb	r6, [r6, #0]
 8002e18:	bd00      	pop	{pc}

08002e1a <Dictionary_681>:
 8002e1a:	08002e2a 	stmdaeq	r0, {r1, r3, r5, r9, sl, fp, sp}
 8002e1e:	28010450 	stmdacs	r1, {r4, r6, sl}

08002e22 <Code_681>:
 8002e22:	f847 6d04 	str.w	r6, [r7, #-4]!
 8002e26:	2629      	movs	r6, #41	; 0x29
 8002e28:	e006      	b.n	8002e38 <Code_684+0x6>

08002e2a <Dictionary_684>:
 8002e2a:	08002e44 	stmdaeq	r0, {r2, r6, r9, sl, fp, sp}
 8002e2e:	5c010450 	cfstrspl	mvf0, [r1], {80}	; 0x50

08002e32 <Code_684>:
 8002e32:	f847 6d04 	str.w	r6, [r7, #-4]!
 8002e36:	2600      	movs	r6, #0
 8002e38:	b500      	push	{lr}
 8002e3a:	f001 fceb 	bl	8004814 <Code_1135>
 8002e3e:	3704      	adds	r7, #4
 8002e40:	cf40      	ldmia	r7!, {r6}
 8002e42:	bd00      	pop	{pc}

08002e44 <Dictionary_689>:
 8002e44:	08002e88 	stmdaeq	r0, {r3, r7, r9, sl, fp, sp}
 8002e48:	2e020030 	mcrcs	0, 0, r0, cr2, cr0, {1}
 8002e4c:	 	stmiami	sl!, {r1, r5}

08002e4e <Code_689>:
 8002e4e:	48aa      	ldr	r0, [pc, #680]	; (80030f8 <unused_ram+0x6>)
 8002e50:	b500      	push	{lr}
 8002e52:	f847 6d04 	str.w	r6, [r7, #-4]!
 8002e56:	0006      	movs	r6, r0
 8002e58:	f000 fa7d 	bl	8003356 <Code_766>
 8002e5c:	f847 6d04 	str.w	r6, [r7, #-4]!
 8002e60:	2622      	movs	r6, #34	; 0x22
 8002e62:	f001 fcd7 	bl	8004814 <Code_1135>
 8002e66:	f000 fdce 	bl	8003a06 <Code_889>
 8002e6a:	bd00      	pop	{pc}

08002e6c <dotgaensefuesschen>:
 8002e6c:	b40a      	push	{r1, r3}
 8002e6e:	f847 6d04 	str.w	r6, [r7, #-4]!
 8002e72:	4676      	mov	r6, lr
 8002e74:	3e01      	subs	r6, #1
 8002e76:	7833      	ldrb	r3, [r6, #0]
 8002e78:	2101      	movs	r1, #1
 8002e7a:	3301      	adds	r3, #1
 8002e7c:	4019      	ands	r1, r3
 8002e7e:	185b      	adds	r3, r3, r1
 8002e80:	eb1e 0e03 	adds.w	lr, lr, r3
 8002e84:	bc0a      	pop	{r1, r3}
 8002e86:	e039      	b.n	8002efc <Code_704>

08002e88 <Dictionary_695>:
 8002e88:	08002eae 	stmdaeq	r0, {r1, r2, r3, r5, r7, r9, sl, fp, sp}
 8002e8c:	63020030 	movwvs	r0, #8240	; 0x2030
 8002e90:	 	ldmmi	sl, {r1, r5}

08002e92 <Code_695>:
 8002e92:	489a      	ldr	r0, [pc, #616]	; (80030fc <unused_ram+0xa>)
 8002e94:	e7dc      	b.n	8002e50 <Code_689+0x2>

08002e96 <dotcfuesschen>:
 8002e96:	f847 6d04 	str.w	r6, [r7, #-4]!
 8002e9a:	4676      	mov	r6, lr
 8002e9c:	3e01      	subs	r6, #1
 8002e9e:	7833      	ldrb	r3, [r6, #0]
 8002ea0:	2101      	movs	r1, #1
 8002ea2:	3301      	adds	r3, #1
 8002ea4:	4019      	ands	r1, r3
 8002ea6:	185b      	adds	r3, r3, r1
 8002ea8:	eb1e 0e03 	adds.w	lr, lr, r3
 8002eac:	4770      	bx	lr

08002eae <Dictionary_697>:
 8002eae:	08002ed8 	stmdaeq	r0, {r3, r4, r6, r7, r9, sl, fp, sp}
 8002eb2:	73020030 	movwvc	r0, #8240	; 0x2030
 8002eb6:	 	ldmmi	r1, {r1, r5}

08002eb8 <Code_697>:
 8002eb8:	4891      	ldr	r0, [pc, #580]	; (8003100 <unused_ram+0xe>)
 8002eba:	e7c9      	b.n	8002e50 <Code_689+0x2>

08002ebc <dotsfuesschen>:
 8002ebc:	f847 6d04 	str.w	r6, [r7, #-4]!
 8002ec0:	4676      	mov	r6, lr
 8002ec2:	f847 6d04 	str.w	r6, [r7, #-4]!
 8002ec6:	3e01      	subs	r6, #1
 8002ec8:	7836      	ldrb	r6, [r6, #0]
 8002eca:	2101      	movs	r1, #1
 8002ecc:	1c73      	adds	r3, r6, #1
 8002ece:	4019      	ands	r1, r3
 8002ed0:	185b      	adds	r3, r3, r1
 8002ed2:	eb1e 0e03 	adds.w	lr, lr, r3
 8002ed6:	4770      	bx	lr

08002ed8 <Dictionary_701>:
 8002ed8:	08002ef0 	stmdaeq	r0, {r4, r5, r6, r7, r9, sl, fp, sp}
 8002edc:	63050000 	movwvs	r0, #20480	; 0x5000
 8002ee0:	746e756f 	strbtvc	r7, [lr], #-1391	; 0xfffffa91

08002ee4 <Code_701>:
 8002ee4:	3601      	adds	r6, #1
 8002ee6:	f847 6d04 	str.w	r6, [r7, #-4]!
 8002eea:	3e01      	subs	r6, #1
 8002eec:	7836      	ldrb	r6, [r6, #0]
 8002eee:	4770      	bx	lr

08002ef0 <Dictionary_704>:
 8002ef0:	08002f08 	stmdaeq	r0, {r3, r8, r9, sl, fp, sp}
 8002ef4:	63050000 	movwvs	r0, #20480	; 0x5000
 8002ef8:	65707974 	ldrbvs	r7, [r0, #-2420]!	; 0xfffff68c

08002efc <Code_704>:
 8002efc:	b500      	push	{lr}
 8002efe:	f7ff fff1 	bl	8002ee4 <Code_701>
 8002f02:	f000 f807 	bl	8002f14 <Code_705>
 8002f06:	bd00      	pop	{pc}

08002f08 <Dictionary_705>:
 8002f08:	08002f30 	stmdaeq	r0, {r4, r5, r8, r9, sl, fp, sp}
 8002f0c:	74040000 	strvc	r0, [r4], #-0
 8002f10:	00657079 	rsbeq	r7, r5, r9, ror r0

08002f14 <Code_705>:
 8002f14:	b501      	push	{r0, lr}
 8002f16:	cf01      	ldmia	r7!, {r0}
 8002f18:	2e00      	cmp	r6, #0
 8002f1a:	d007      	beq.n	8002f2c <Code_705+0x18>
 8002f1c:	f847 6d04 	str.w	r6, [r7, #-4]!
 8002f20:	7806      	ldrb	r6, [r0, #0]
 8002f22:	f7ff fdd7 	bl	8002ad4 <Code_624>
 8002f26:	3001      	adds	r0, #1
 8002f28:	3e01      	subs	r6, #1
 8002f2a:	d1f7      	bne.n	8002f1c <Code_705+0x8>
 8002f2c:	cf40      	ldmia	r7!, {r6}
 8002f2e:	bd01      	pop	{r0, pc}

08002f30 <Dictionary_708>:
 8002f30:	08002f6a 	stmdaeq	r0, {r1, r3, r5, r6, r8, r9, sl, fp, sp}
 8002f34:	68040000 	stmdavs	r4, {}	; <UNPREDICTABLE>
 8002f38:	002e7865 	eoreq	r7, lr, r5, ror #16

08002f3c <Code_708>:
 8002f3c:	b507      	push	{r0, r1, r2, lr}
 8002f3e:	0031      	movs	r1, r6
 8002f40:	cf40      	ldmia	r7!, {r6}
 8002f42:	2020      	movs	r0, #32
 8002f44:	220f      	movs	r2, #15
 8002f46:	3804      	subs	r0, #4
 8002f48:	f847 6d04 	str.w	r6, [r7, #-4]!
 8002f4c:	000e      	movs	r6, r1
 8002f4e:	40c6      	lsrs	r6, r0
 8002f50:	4016      	ands	r6, r2
 8002f52:	2e09      	cmp	r6, #9
 8002f54:	d901      	bls.n	8002f5a <Code_708+0x1e>
 8002f56:	3637      	adds	r6, #55	; 0x37
 8002f58:	e000      	b.n	8002f5c <Code_708+0x20>
 8002f5a:	3630      	adds	r6, #48	; 0x30
 8002f5c:	f7ff fdba 	bl	8002ad4 <Code_624>
 8002f60:	2800      	cmp	r0, #0
 8002f62:	d1f0      	bne.n	8002f46 <Code_708+0xa>
 8002f64:	f7ff ff31 	bl	8002dca <Code_673>
 8002f68:	bd07      	pop	{r0, r1, r2, pc}

08002f6a <Dictionary_711>:
 8002f6a:	08002f7a 	stmdaeq	r0, {r1, r3, r4, r5, r6, r8, r9, sl, fp, sp}
 8002f6e:	68030000 	stmdavs	r3, {}	; <UNPREDICTABLE>
 8002f72:	 	ldrlt	r7, [pc, #-814]	; 8002c4c <Code_643+0x26>

08002f74 <Code_711>:
 8002f74:	b51f      	push	{r0, r1, r2, r3, r4, lr}
 8002f76:	4c63      	ldr	r4, [pc, #396]	; (8003104 <unused_ram+0x12>)
 8002f78:	e00e      	b.n	8002f98 <Code_713+0x4>

08002f7a <Dictionary_712>:
 8002f7a:	08002f8a 	stmdaeq	r0, {r1, r3, r7, r8, r9, sl, fp, sp}
 8002f7e:	75030000 	strvc	r0, [r3, #-0]
 8002f82:	 	ldrlt	r7, [pc, #-814]	; 8002c5c <Code_643+0x36>

08002f84 <Code_712>:
 8002f84:	b51f      	push	{r0, r1, r2, r3, r4, lr}
 8002f86:	4c60      	ldr	r4, [pc, #384]	; (8003108 <unused_ram+0x16>)
 8002f88:	e006      	b.n	8002f98 <Code_713+0x4>

08002f8a <Dictionary_713>:
 8002f8a:	0800302e 	stmdaeq	r0, {r1, r2, r3, r5, ip, sp}
 8002f8e:	2e020000 	cdpcs	0, 0, cr0, cr2, cr0, {0}
 8002f92:	 	ldrlt	r0, [pc, #-115]	; 8002f27 <Code_705+0x13>

08002f94 <Code_713>:
 8002f94:	b51f      	push	{r0, r1, r2, r3, r4, lr}
 8002f96:	4c5d      	ldr	r4, [pc, #372]	; (800310c <unused_ram+0x1a>)
 8002f98:	495d      	ldr	r1, [pc, #372]	; (8003110 <unused_ram+0x1e>)
 8002f9a:	1bc9      	subs	r1, r1, r7
 8002f9c:	0889      	lsrs	r1, r1, #2
 8002f9e:	0a22      	lsrs	r2, r4, #8
 8002fa0:	2020      	movs	r0, #32
 8002fa2:	2f29      	cmp	r7, #41	; 0x29
 8002fa4:	0a20      	lsrs	r0, r4, #8
 8002fa6:	2820      	cmp	r0, #32
 8002fa8:	3e27      	subs	r6, #39	; 0x27
 8002faa:	0a20      	lsrs	r0, r4, #8
 8002fac:	2f20      	cmp	r7, #32
 8002fae:	4343      	muls	r3, r0
 8002fb0:	2020      	movs	r0, #32
 8002fb2:	3320      	adds	r3, #32
 8002fb4:	2035      	movs	r0, #53	; 0x35
 8002fb6:	4343      	muls	r3, r0
 8002fb8:	0a43      	lsrs	r3, r0, #9
 8002fba:	5c38      	ldrb	r0, [r7, r0]
 8002fbc:	2929      	cmp	r1, #41	; 0x29
 8002fbe:	205f      	movs	r0, #95	; 0x5f
 8002fc0:	0a0a      	lsrs	r2, r1, #8
 8002fc2:	4a54      	ldr	r2, [pc, #336]	; (8003114 <unused_ram+0x22>)
 8002fc4:	6810      	ldr	r0, [r2, #0]
 8002fc6:	b403      	push	{r0, r1}
 8002fc8:	200a      	movs	r0, #10
 8002fca:	6010      	str	r0, [r2, #0]
 8002fcc:	f7ff ff4e 	bl	8002e6c <dotgaensefuesschen>
 8002fd0:	61745308 	cmnvs	r4, r8, lsl #6
 8002fd4:	203a6b63 	eorscs	r6, sl, r3, ror #22
 8002fd8:	f847005b 			; <UNDEFINED> instruction: 0xf847005b
 8002fdc:	6d04      	ldr	r4, [r0, #80]	; 0x50
 8002fde:	000e      	movs	r6, r1
 8002fe0:	f001 fde5 	bl	8004bae <Code_1199>
 8002fe4:	f7ff ff42 	bl	8002e6c <dotgaensefuesschen>
 8002fe8:	00205d02 	eoreq	r5, r0, r2, lsl #26
 8002fec:	bc03      	pop	{r0, r1}
 8002fee:	3627      	adds	r6, #39	; 0x27
 8002ff0:	4a48      	ldr	r2, [pc, #288]	; (8003114 <unused_ram+0x22>)
 8002ff2:	6010      	str	r0, [r2, #0]
 8002ff4:	2900      	cmp	r1, #0
 8002ff6:	d00a      	beq.n	800300e <Code_713+0x7a>
 8002ff8:	4a47      	ldr	r2, [pc, #284]	; (8003118 <unused_ram+0x26>)
 8002ffa:	6810      	ldr	r0, [r2, #0]
 8002ffc:	b406      	push	{r1, r2}
 8002ffe:	f847 6d04 	str.w	r6, [r7, #-4]!
 8003002:	0006      	movs	r6, r0
 8003004:	47a0      	blx	r4
 8003006:	bc06      	pop	{r1, r2}
 8003008:	3a04      	subs	r2, #4
 800300a:	3901      	subs	r1, #1
 800300c:	d1f5      	bne.n	8002ffa <Code_713+0x66>
 800300e:	f7ff ff2d 	bl	8002e6c <dotgaensefuesschen>
 8003012:	4f542006 	svcmi	0x00542006
 8003016:	00203a53 	eoreq	r3, r0, r3, asr sl
 800301a:	f847 6d04 	str.w	r6, [r7, #-4]!
 800301e:	0036      	movs	r6, r6
 8003020:	47a0      	blx	r4
 8003022:	f7ff ff23 	bl	8002e6c <dotgaensefuesschen>
 8003026:	3e2a2004 	cdpcc	0, 2, cr2, cr10, cr4, {0}
 800302a:	bd1f000a 	ldclt	0, cr0, [pc, #-40]	; 8003008 <Code_713+0x74>

0800302e <Dictionary_724>:
 800302e:	080030ce 	stmdaeq	r0, {r1, r2, r3, r6, r7, ip, sp}
 8003032:	77050000 	strvc	r0, [r5, -r0]
 8003036:	7364726f 	cmnvc	r4, #-268435450	; 0xf0000006

0800303a <Code_724>:
 800303a:	b500      	push	{lr}
 800303c:	f7ff ff16 	bl	8002e6c <dotgaensefuesschen>
 8003040:	f0000a01 			; <UNDEFINED> instruction: 0xf0000a01
 8003044:	ff53 f7ff 	vaba.u16	<illegal reg q15.5>, <illegal reg q9.5>, <illegal reg q15.5>
 8003048:	ff11 4109 	vrhadd.u16	d4, d1, d9
 800304c:	65726464 	ldrbvs	r6, [r2, #-1124]!	; 0xfffffb9c
 8003050:	203a7373 	eorscs	r7, sl, r3, ror r3
 8003054:	f847 6d04 	str.w	r6, [r7, #-4]!
 8003058:	f7ff ff70 	bl	8002f3c <Code_708>
 800305c:	f7ff ff06 	bl	8002e6c <dotgaensefuesschen>
 8003060:	6e694c06 	cdpvs	12, 6, cr4, cr9, cr6, {0}
 8003064:	00203a6b 	eoreq	r3, r0, fp, ror #20
 8003068:	f847 6d04 	str.w	r6, [r7, #-4]!
 800306c:	6836      	ldr	r6, [r6, #0]
 800306e:	f7ff ff65 	bl	8002f3c <Code_708>
 8003072:	f7ff fefb 	bl	8002e6c <dotgaensefuesschen>
 8003076:	616c4607 	cmnvs	ip, r7, lsl #12
 800307a:	203a7367 	eorscs	r7, sl, r7, ror #6
 800307e:	f847 6d04 	str.w	r6, [r7, #-4]!
 8003082:	88b6      	ldrh	r6, [r6, #4]
 8003084:	f7ff ff5a 	bl	8002f3c <Code_708>
 8003088:	f7ff fef0 	bl	8002e6c <dotgaensefuesschen>
 800308c:	646f4306 	strbtvs	r4, [pc], #-774	; 8003094 <Code_724+0x5a>
 8003090:	00203a65 	eoreq	r3, r0, r5, ror #20
 8003094:	1db0      	adds	r0, r6, #6
 8003096:	f000 ff77 	bl	8003f88 <skipstring>
 800309a:	f847 6d04 	str.w	r6, [r7, #-4]!
 800309e:	0006      	movs	r6, r0
 80030a0:	f7ff ff4c 	bl	8002f3c <Code_708>
 80030a4:	f7ff fee2 	bl	8002e6c <dotgaensefuesschen>
 80030a8:	6d614e06 	stclvs	14, cr4, [r1, #-24]!	; 0xffffffe8
 80030ac:	00203a65 	eoreq	r3, r0, r5, ror #20
 80030b0:	f847 6d04 	str.w	r6, [r7, #-4]!
 80030b4:	3606      	adds	r6, #6
 80030b6:	f7ff ff21 	bl	8002efc <Code_704>
 80030ba:	f7ff fed7 	bl	8002e6c <dotgaensefuesschen>
 80030be:	f0000a01 			; <UNDEFINED> instruction: 0xf0000a01
 80030c2:	ff2c 0030 	vqadd.u32	d0, d12, d16
 80030c6:	cf40      	ldmia	r7!, {r6}
 80030c8:	d0bd      	beq.n	8003046 <Code_724+0xc>
 80030ca:	cf40      	ldmia	r7!, {r6}
 80030cc:	bd00      	pop	{pc}

080030ce <Dictionary_744>:
 80030ce:	08003120 	stmdaeq	r0, {r5, r8, ip, sp}
 80030d2:	75060000 	strvc	r0, [r6, #-0]
 80030d6:	6573756e 	ldrbvs	r7, [r3, #-1390]!	; 0xfffffa92
 80030da:	 	strlt	r0, [r0, #-100]	; 0xffffff9c

080030dc <Code_744>:
 80030dc:	b500      	push	{lr}
 80030de:	f001 f82d 	bl	800413c <Code_987>
 80030e2:	480e      	ldr	r0, [pc, #56]	; (800311c <unused_ram+0x2a>)
 80030e4:	6801      	ldr	r1, [r0, #0]
 80030e6:	f04f 5210 	mov.w	r2, #603979776	; 0x24000000
 80030ea:	4291      	cmp	r1, r2
 80030ec:	d201      	bcs.n	80030f2 <unused_ram>
 80030ee:	f04f 6601 	mov.w	r6, #135266304	; 0x8100000

080030f2 <unused_ram>:
 80030f2:	1a76      	subs	r6, r6, r1
 80030f4:	bd00      	pop	{pc}
 80030f6:	2e6c0000 	cdpcs	0, 6, cr0, cr12, cr0, {0}
 80030fa:	2e960800 	cdpcs	8, 9, cr0, cr6, cr0, {0}
 80030fe:	2ebc0800 	cdpcs	8, 11, cr0, cr12, cr0, {0}
 8003102:	2f3d0800 	svccs	0x003d0800
 8003106:	4b9f0800 	blmi	67c510e <stack_canary+0x26a3789>
 800310a:	4baf0800 	blmi	6bc5112 <stack_canary+0x2aa378d>
 800310e:	02880800 	addeq	r0, r8, #0, 16
 8003112:	fffc2400 			; <UNDEFINED> instruction: 0xfffc2400
 8003116:	02842407 	addeq	r2, r4, #117440512	; 0x7000000
 800311a:	ffd02400 			; <UNDEFINED> instruction: 0xffd02400
 800311e:	 	addcc	r2, r4, #117440512	; 0x7000000

08003120 <Dictionary_745>:
 8003120:	08003284 	stmdaeq	r0, {r2, r7, r9, ip, sp}
 8003124:	310d0000 	mrscc	r0, (UNDEF: 13)
 8003128:	74696232 	strbtvc	r6, [r9], #-562	; 0xfffffdce
 800312c:	6f636e65 	svcvs	0x00636e65
 8003130:	676e6964 	strbvs	r6, [lr, -r4, ror #18]!

08003134 <Code_745>:
 8003134:	b50f      	push	{r0, r1, r2, r3, lr}
 8003136:	2eff      	cmp	r6, #255	; 0xff
 8003138:	d804      	bhi.n	8003144 <Code_745+0x10>
 800313a:	f847 6d04 	str.w	r6, [r7, #-4]!
 800313e:	f05f 36ff 	movs.w	r6, #4294967295	; 0xffffffff
 8003142:	bd0f      	pop	{r0, r1, r2, r3, pc}
 8003144:	f016 10ff 	ands.w	r0, r6, #16711935	; 0xff00ff
 8003148:	42b0      	cmp	r0, r6
 800314a:	d10e      	bne.n	800316a <Code_745+0x36>
 800314c:	f64f 71ff 	movw	r1, #65535	; 0xffff
 8003150:	4008      	ands	r0, r1
 8003152:	0c31      	lsrs	r1, r6, #16
 8003154:	4281      	cmp	r1, r0
 8003156:	d108      	bne.n	800316a <Code_745+0x36>
 8003158:	f016 06ff 	ands.w	r6, r6, #255	; 0xff
 800315c:	f456 5680 	orrs.w	r6, r6, #4096	; 0x1000
 8003160:	f847 6d04 	str.w	r6, [r7, #-4]!
 8003164:	f05f 36ff 	movs.w	r6, #4294967295	; 0xffffffff
 8003168:	bd0f      	pop	{r0, r1, r2, r3, pc}
 800316a:	f016 20ff 	ands.w	r0, r6, #4278255360	; 0xff00ff00
 800316e:	42b0      	cmp	r0, r6
 8003170:	d10f      	bne.n	8003192 <Code_745+0x5e>
 8003172:	f64f 71ff 	movw	r1, #65535	; 0xffff
 8003176:	4008      	ands	r0, r1
 8003178:	0c31      	lsrs	r1, r6, #16
 800317a:	4281      	cmp	r1, r0
 800317c:	d109      	bne.n	8003192 <Code_745+0x5e>
 800317e:	0a36      	lsrs	r6, r6, #8
 8003180:	f016 06ff 	ands.w	r6, r6, #255	; 0xff
 8003184:	f456 5600 	orrs.w	r6, r6, #8192	; 0x2000
 8003188:	f847 6d04 	str.w	r6, [r7, #-4]!
 800318c:	f05f 36ff 	movs.w	r6, #4294967295	; 0xffffffff
 8003190:	bd0f      	pop	{r0, r1, r2, r3, pc}
 8003192:	22ff      	movs	r2, #255	; 0xff
 8003194:	0031      	movs	r1, r6
 8003196:	4011      	ands	r1, r2
 8003198:	0a30      	lsrs	r0, r6, #8
 800319a:	4010      	ands	r0, r2
 800319c:	4288      	cmp	r0, r1
 800319e:	d110      	bne.n	80031c2 <Code_745+0x8e>
 80031a0:	0c30      	lsrs	r0, r6, #16
 80031a2:	4010      	ands	r0, r2
 80031a4:	4288      	cmp	r0, r1
 80031a6:	d10c      	bne.n	80031c2 <Code_745+0x8e>
 80031a8:	0e30      	lsrs	r0, r6, #24
 80031aa:	4010      	ands	r0, r2
 80031ac:	4288      	cmp	r0, r1
 80031ae:	d108      	bne.n	80031c2 <Code_745+0x8e>
 80031b0:	f016 06ff 	ands.w	r6, r6, #255	; 0xff
 80031b4:	f456 5640 	orrs.w	r6, r6, #12288	; 0x3000
 80031b8:	f847 6d04 	str.w	r6, [r7, #-4]!
 80031bc:	f05f 36ff 	movs.w	r6, #4294967295	; 0xffffffff
 80031c0:	bd0f      	pop	{r0, r1, r2, r3, pc}
 80031c2:	0030      	movs	r0, r6
 80031c4:	2100      	movs	r1, #0
 80031c6:	3101      	adds	r1, #1
 80031c8:	1800      	adds	r0, r0, r0
 80031ca:	f150 0000 	adcs.w	r0, r0, #0
 80031ce:	f07f 027f 	mvns.w	r2, #127	; 0x7f
 80031d2:	4002      	ands	r2, r0
 80031d4:	2a80      	cmp	r2, #128	; 0x80
 80031d6:	d005      	beq.n	80031e4 <Code_745+0xb0>
 80031d8:	291f      	cmp	r1, #31
 80031da:	d3f4      	bcc.n	80031c6 <Code_745+0x92>
 80031dc:	f847 6d04 	str.w	r6, [r7, #-4]!
 80031e0:	2600      	movs	r6, #0
 80031e2:	bd0f      	pop	{r0, r1, r2, r3, pc}
 80031e4:	2908      	cmp	r1, #8
 80031e6:	d3f9      	bcc.n	80031dc <Code_745+0xa8>
 80031e8:	0006      	movs	r6, r0
 80031ea:	f036 0680 	bics.w	r6, r6, #128	; 0x80
 80031ee:	f011 0001 	ands.w	r0, r1, #1
 80031f2:	01c0      	lsls	r0, r0, #7
 80031f4:	4306      	orrs	r6, r0
 80031f6:	f011 000e 	ands.w	r0, r1, #14
 80031fa:	02c0      	lsls	r0, r0, #11
 80031fc:	4306      	orrs	r6, r0
 80031fe:	f011 0010 	ands.w	r0, r1, #16
 8003202:	0580      	lsls	r0, r0, #22
 8003204:	4306      	orrs	r6, r0
 8003206:	f847 6d04 	str.w	r6, [r7, #-4]!
 800320a:	f05f 36ff 	movs.w	r6, #4294967295	; 0xffffffff
 800320e:	bd0f      	pop	{r0, r1, r2, r3, pc}

08003210 <movwkomma>:
 8003210:	f847 6d04 	str.w	r6, [r7, #-4]!
 8003214:	f8df 6604 	ldr.w	r6, [pc, #1540]	; 800381c <Code_860+0x14>
 8003218:	f45f 4170 	movs.w	r1, #61440	; 0xf000
 800321c:	ea10 0201 	ands.w	r2, r0, r1
 8003220:	0112      	lsls	r2, r2, #4
 8003222:	4316      	orrs	r6, r2
 8003224:	f45f 6100 	movs.w	r1, #2048	; 0x800
 8003228:	ea10 0201 	ands.w	r2, r0, r1
 800322c:	03d2      	lsls	r2, r2, #15
 800322e:	4316      	orrs	r6, r2
 8003230:	f45f 61e0 	movs.w	r1, #1792	; 0x700
 8003234:	ea10 0201 	ands.w	r2, r0, r1
 8003238:	0112      	lsls	r2, r2, #4
 800323a:	4316      	orrs	r6, r2
 800323c:	21ff      	movs	r1, #255	; 0xff
 800323e:	ea10 0201 	ands.w	r2, r0, r1
 8003242:	4316      	orrs	r6, r2
 8003244:	431e      	orrs	r6, r3
 8003246:	e3d3      	b.n	80039f0 <Code_888>

08003248 <movtkomma>:
 8003248:	f847 6d04 	str.w	r6, [r7, #-4]!
 800324c:	f8df 65d0 	ldr.w	r6, [pc, #1488]	; 8003820 <Code_860+0x18>
 8003250:	f05f 4170 	movs.w	r1, #4026531840	; 0xf0000000
 8003254:	ea10 0201 	ands.w	r2, r0, r1
 8003258:	0b12      	lsrs	r2, r2, #12
 800325a:	4316      	orrs	r6, r2
 800325c:	f05f 6100 	movs.w	r1, #134217728	; 0x8000000
 8003260:	ea10 0201 	ands.w	r2, r0, r1
 8003264:	0852      	lsrs	r2, r2, #1
 8003266:	4316      	orrs	r6, r2
 8003268:	f05f 61e0 	movs.w	r1, #117440512	; 0x7000000
 800326c:	ea10 0201 	ands.w	r2, r0, r1
 8003270:	0b12      	lsrs	r2, r2, #12
 8003272:	4316      	orrs	r6, r2
 8003274:	f45f 017f 	movs.w	r1, #16711680	; 0xff0000
 8003278:	ea10 0201 	ands.w	r2, r0, r1
 800327c:	0c12      	lsrs	r2, r2, #16
 800327e:	4316      	orrs	r6, r2
 8003280:	431e      	orrs	r6, r3
 8003282:	e3b5      	b.n	80039f0 <Code_888>

08003284 <Dictionary_754>:
 8003284:	080032ea 	stmdaeq	r0, {r1, r3, r5, r6, r7, r9, ip, sp}
 8003288:	72100000 	andsvc	r0, r0, #0
 800328c:	73696765 	cmnvc	r9, #26476544	; 0x1940000
 8003290:	6c726574 	cfldr64vs	mvdx6, [r2], #-464	; 0xfffffe30
 8003294:	72657469 	rsbvc	r7, r5, #1761607680	; 0x69000000
 8003298:	002c6c61 	eoreq	r6, ip, r1, ror #24

0800329c <Code_754>:
 800329c:	b50f      	push	{r0, r1, r2, r3, lr}
 800329e:	0033      	movs	r3, r6
 80032a0:	cf40      	ldmia	r7!, {r6}
 80032a2:	021b      	lsls	r3, r3, #8
 80032a4:	2eff      	cmp	r6, #255	; 0xff
 80032a6:	d805      	bhi.n	80032b4 <Code_754+0x18>
 80032a8:	f456 5600 	orrs.w	r6, r6, #8192	; 0x2000
 80032ac:	431e      	orrs	r6, r3
 80032ae:	f000 fb6f 	bl	8003990 <Code_879>
 80032b2:	bd0f      	pop	{r0, r1, r2, r3, pc}
 80032b4:	f7ff ff3e 	bl	8003134 <Code_745>
 80032b8:	2e00      	cmp	r6, #0
 80032ba:	cf40      	ldmia	r7!, {r6}
 80032bc:	d006      	beq.n	80032cc <Code_754+0x30>
 80032be:	f8df 0564 	ldr.w	r0, [pc, #1380]	; 8003824 <Code_860+0x1c>
 80032c2:	4306      	orrs	r6, r0
 80032c4:	431e      	orrs	r6, r3
 80032c6:	f000 fb93 	bl	80039f0 <Code_888>
 80032ca:	bd0f      	pop	{r0, r1, r2, r3, pc}
 80032cc:	43f6      	mvns	r6, r6
 80032ce:	f7ff ff31 	bl	8003134 <Code_745>
 80032d2:	2e00      	cmp	r6, #0
 80032d4:	cf40      	ldmia	r7!, {r6}
 80032d6:	d006      	beq.n	80032e6 <Code_754+0x4a>
 80032d8:	f8df 054c 	ldr.w	r0, [pc, #1356]	; 8003828 <Code_860+0x20>
 80032dc:	4306      	orrs	r6, r0
 80032de:	431e      	orrs	r6, r3
 80032e0:	f000 fb86 	bl	80039f0 <Code_888>
 80032e4:	bd0f      	pop	{r0, r1, r2, r3, pc}
 80032e6:	43f6      	mvns	r6, r6
 80032e8:	e00b      	b.n	8003302 <movwmovt_register_r3>

080032ea <Dictionary_758>:
 80032ea:	0800334a 	stmdaeq	r0, {r1, r3, r6, r8, r9, ip, sp}
 80032ee:	6d090000 	stcvs	0, cr0, [r9, #-0]
 80032f2:	6d77766f 	ldclvs	6, cr7, [r7, #-444]!	; 0xfffffe44
 80032f6:	2c74766f 	ldclcs	6, cr7, [r4], #-444	; 0xfffffe44

080032fa <Code_758>:
 80032fa:	b50f      	push	{r0, r1, r2, r3, lr}
 80032fc:	0033      	movs	r3, r6
 80032fe:	cf40      	ldmia	r7!, {r6}
 8003300:	021b      	lsls	r3, r3, #8

08003302 <movwmovt_register_r3>:
 8003302:	0030      	movs	r0, r6
 8003304:	cf40      	ldmia	r7!, {r6}
 8003306:	f7ff ff83 	bl	8003210 <movwkomma>
 800330a:	f64f 71ff 	movw	r1, #65535	; 0xffff
 800330e:	ea10 4001 	ands.w	r0, r0, r1, lsl #16
 8003312:	d001      	beq.n	8003318 <movwmovt_register_r3+0x16>
 8003314:	f7ff ff98 	bl	8003248 <movtkomma>
 8003318:	bd0f      	pop	{r0, r1, r2, r3, pc}

0800331a <callkommalang>:
 800331a:	b50f      	push	{r0, r1, r2, r3, lr}
 800331c:	3601      	adds	r6, #1
 800331e:	0030      	movs	r0, r6
 8003320:	cf40      	ldmia	r7!, {r6}
 8003322:	2300      	movs	r3, #0
 8003324:	f7ff ff74 	bl	8003210 <movwkomma>
 8003328:	f7ff ff8e 	bl	8003248 <movtkomma>
 800332c:	e006      	b.n	800333c <callkommakurz_intern>

0800332e <callkommakurz>:
 800332e:	b50f      	push	{r0, r1, r2, r3, lr}
 8003330:	3601      	adds	r6, #1
 8003332:	f847 6d04 	str.w	r6, [r7, #-4]!
 8003336:	2600      	movs	r6, #0
 8003338:	f7ff ffb0 	bl	800329c <Code_754>

0800333c <callkommakurz_intern>:
 800333c:	f847 6d04 	str.w	r6, [r7, #-4]!
 8003340:	f244 7680 	movw	r6, #18304	; 0x4780
 8003344:	f000 fb24 	bl	8003990 <Code_879>
 8003348:	bd0f      	pop	{r0, r1, r2, r3, pc}

0800334a <Dictionary_766>:
 800334a:	080033b0 	stmdaeq	r0, {r4, r5, r7, r8, r9, ip, sp}
 800334e:	63050000 	movwvs	r0, #20480	; 0x5000
 8003352:	2c6c6c61 	stclcs	12, cr6, [ip], #-388	; 0xfffffe7c

08003356 <Code_766>:
 8003356:	b50f      	push	{r0, r1, r2, r3, lr}
 8003358:	0033      	movs	r3, r6
 800335a:	f000 fee0 	bl	800411e <Code_985>
 800335e:	0030      	movs	r0, r6
 8003360:	cf40      	ldmia	r7!, {r6}
 8003362:	1a1b      	subs	r3, r3, r0
 8003364:	3b04      	subs	r3, #4
 8003366:	f8df 14c4 	ldr.w	r1, [pc, #1220]	; 800382c <Code_860+0x24>
 800336a:	4019      	ands	r1, r3
 800336c:	2900      	cmp	r1, #0
 800336e:	d006      	beq.n	800337e <Code_766+0x28>
 8003370:	f8df 24bc 	ldr.w	r2, [pc, #1212]	; 8003830 <Code_860+0x28>
 8003374:	4291      	cmp	r1, r2
 8003376:	d002      	beq.n	800337e <Code_766+0x28>
 8003378:	e8bd 400f 	ldmia.w	sp!, {r0, r1, r2, r3, lr}
 800337c:	e7d7      	b.n	800332e <callkommakurz>
 800337e:	cf40      	ldmia	r7!, {r6}
 8003380:	085b      	lsrs	r3, r3, #1
 8003382:	f8df 04b0 	ldr.w	r0, [pc, #1200]	; 8003834 <Code_860+0x2c>
 8003386:	f240 71ff 	movw	r1, #2047	; 0x7ff
 800338a:	4019      	ands	r1, r3
 800338c:	4308      	orrs	r0, r1
 800338e:	0adb      	lsrs	r3, r3, #11
 8003390:	f240 31ff 	movw	r1, #1023	; 0x3ff
 8003394:	4019      	ands	r1, r3
 8003396:	0409      	lsls	r1, r1, #16
 8003398:	4308      	orrs	r0, r1
 800339a:	0a9b      	lsrs	r3, r3, #10
 800339c:	f013 0101 	ands.w	r1, r3, #1
 80033a0:	0689      	lsls	r1, r1, #26
 80033a2:	4308      	orrs	r0, r1
 80033a4:	f847 6d04 	str.w	r6, [r7, #-4]!
 80033a8:	0006      	movs	r6, r0
 80033aa:	f000 fb21 	bl	80039f0 <Code_888>
 80033ae:	bd0f      	pop	{r0, r1, r2, r3, pc}

080033b0 <Dictionary_771>:
 80033b0:	080033e6 	stmdaeq	r0, {r1, r2, r5, r6, r7, r8, r9, ip, sp}
 80033b4:	6c080000 	stcvs	0, cr0, [r8], {-0}
 80033b8:	72657469 	rsbvc	r7, r5, #1761607680	; 0x69000000
 80033bc:	002c6c61 	eoreq	r6, ip, r1, ror #24

080033c0 <Code_771>:
 80033c0:	b508      	push	{r3, lr}
 80033c2:	f847 6d04 	str.w	r6, [r7, #-4]!
 80033c6:	f64f 0647 	movw	r6, #63559	; 0xf847
 80033ca:	f000 fae1 	bl	8003990 <Code_879>
 80033ce:	f847 6d04 	str.w	r6, [r7, #-4]!
 80033d2:	f646 5604 	movw	r6, #27908	; 0x6d04
 80033d6:	f000 fadb 	bl	8003990 <Code_879>
 80033da:	f847 6d04 	str.w	r6, [r7, #-4]!
 80033de:	2606      	movs	r6, #6
 80033e0:	f7ff ff5c 	bl	800329c <Code_754>
 80033e4:	bd08      	pop	{r3, pc}

080033e6 <Dictionary_778>:
 80033e6:	08003418 	stmdaeq	r0, {r3, r4, sl, ip, sp}
 80033ea:	63060000 	movwvs	r0, #24576	; 0x6000
 80033ee:	74616572 	strbtvc	r6, [r1], #-1394	; 0xfffffa8e
 80033f2:	 	strlt	r0, [r0, #-101]	; 0xffffff9b

080033f4 <Code_778>:
 80033f4:	b500      	push	{lr}
 80033f6:	f000 f844 	bl	8003482 <Code_783>
 80033fa:	f243 4039 	movw	r0, #13369	; 0x3439
 80033fe:	f6c0 0000 	movt	r0, #2048	; 0x800
 8003402:	4780      	blx	r0
 8003404:	f847 6d04 	str.w	r6, [r7, #-4]!
 8003408:	f1be 0601 	subs.w	r6, lr, #1
 800340c:	f04f 5010 	mov.w	r0, #603979776	; 0x24000000
 8003410:	4586      	cmp	lr, r0
 8003412:	d200      	bcs.n	8003416 <Code_778+0x22>
 8003414:	3610      	adds	r6, #16
 8003416:	bd00      	pop	{pc}

08003418 <Dictionary_780>:
 8003418:	08003474 	stmdaeq	r0, {r2, r4, r5, r6, sl, ip, sp}
 800341c:	64050020 	strvs	r0, [r5], #-32	; 0xffffffe0
 8003420:	3e73656f 	cdpcc	5, 7, cr6, cr3, cr15, {3}

08003424 <Code_780>:
 8003424:	f243 4039 	movw	r0, #13369	; 0x3439
 8003428:	f6c0 0000 	movt	r0, #2048	; 0x800
 800342c:	4780      	blx	r0
 800342e:	f847 6d04 	str.w	r6, [r7, #-4]!
 8003432:	f1be 0601 	subs.w	r6, lr, #1
 8003436:	4770      	bx	lr

08003438 <dodoes>:
 8003438:	f847 6d04 	str.w	r6, [r7, #-4]!
 800343c:	f1be 0601 	subs.w	r6, lr, #1
 8003440:	4afd      	ldr	r2, [pc, #1012]	; (8003838 <Code_860+0x30>)
 8003442:	6813      	ldr	r3, [r2, #0]
 8003444:	49fd      	ldr	r1, [pc, #1012]	; (800383c <Code_860+0x34>)
 8003446:	6809      	ldr	r1, [r1, #0]
 8003448:	f04f 5010 	mov.w	r0, #603979776	; 0x24000000
 800344c:	4283      	cmp	r3, r0
 800344e:	d205      	bcs.n	800345c <dodoes_ram>
 8003450:	201f      	movs	r0, #31
 8003452:	4008      	ands	r0, r1
 8003454:	2804      	cmp	r0, #4
 8003456:	d005      	beq.n	8003464 <dodoes_ram+0x8>
 8003458:	3102      	adds	r1, #2
 800345a:	e7f9      	b.n	8003450 <dodoes+0x18>

0800345c <dodoes_ram>:
 800345c:	2002      	movs	r0, #2
 800345e:	4008      	ands	r0, r1
 8003460:	d000      	beq.n	8003464 <dodoes_ram+0x8>
 8003462:	3102      	adds	r1, #2
 8003464:	3102      	adds	r1, #2
 8003466:	6011      	str	r1, [r2, #0]
 8003468:	f7ff ff57 	bl	800331a <callkommalang>
 800346c:	6013      	str	r3, [r2, #0]
 800346e:	f000 f9fa 	bl	8003866 <Code_862>
 8003472:	bd00      	pop	{pc}

08003474 <Dictionary_783>:
 8003474:	080034d0 	stmdaeq	r0, {r4, r6, r7, sl, ip, sp}
 8003478:	3c070000 	stccc	0, cr0, [r7], {-0}
 800347c:	6c697562 	cfstr64vs	mvdx7, [r9], #-392	; 0xfffffe78
 8003480:	 	strlt	r7, [r0, #-868]	; 0xfffffc9c

08003482 <Code_783>:
 8003482:	b500      	push	{lr}
 8003484:	f000 fbf0 	bl	8003c68 <Code_916>
 8003488:	48eb      	ldr	r0, [pc, #940]	; (8003838 <Code_860+0x30>)
 800348a:	6801      	ldr	r1, [r0, #0]
 800348c:	f04f 5210 	mov.w	r2, #603979776	; 0x24000000
 8003490:	4291      	cmp	r1, r2
 8003492:	d209      	bcs.n	80034a8 <builds_ram>
 8003494:	f000 fe43 	bl	800411e <Code_985>
 8003498:	201f      	movs	r0, #31
 800349a:	4006      	ands	r6, r0
 800349c:	2e04      	cmp	r6, #4
 800349e:	cf40      	ldmia	r7!, {r6}
 80034a0:	d00a      	beq.n	80034b8 <builds_ram+0x10>
 80034a2:	f000 fa67 	bl	8003974 <nop_hkomma>
 80034a6:	e7f5      	b.n	8003494 <Code_783+0x12>

080034a8 <builds_ram>:
 80034a8:	f000 fe39 	bl	800411e <Code_985>
 80034ac:	2002      	movs	r0, #2
 80034ae:	4006      	ands	r6, r0
 80034b0:	cf40      	ldmia	r7!, {r6}
 80034b2:	d001      	beq.n	80034b8 <builds_ram+0x10>
 80034b4:	f000 fa5e 	bl	8003974 <nop_hkomma>
 80034b8:	f847 6d04 	str.w	r6, [r7, #-4]!
 80034bc:	f24b 5600 	movw	r6, #46336	; 0xb500
 80034c0:	f000 fa66 	bl	8003990 <Code_879>
 80034c4:	f847 6d04 	str.w	r6, [r7, #-4]!
 80034c8:	260a      	movs	r6, #10
 80034ca:	f000 facf 	bl	8003a6c <Code_897>
 80034ce:	bd00      	pop	{pc}

080034d0 <Dictionary_790>:
 80034d0:	080034dc 	stmdaeq	r0, {r2, r3, r4, r6, r7, sl, ip, sp}
 80034d4:	5b030050 	blpl	80c361c <FlashDictionaryAnfang+0xa361c>
 80034d8:	 	and	r5, r3, r7, lsr #26

080034da <Code_790>:
 80034da:	e003      	b.n	80034e4 <Code_791>

080034dc <Dictionary_791>:
 80034dc:	080034f4 	stmdaeq	r0, {r2, r4, r5, r6, r7, sl, ip, sp}
 80034e0:	27010000 	strcs	r0, [r1, -r0]

080034e4 <Code_791>:
 80034e4:	b500      	push	{lr}
 80034e6:	f001 f98b 	bl	8004800 <Code_1133>
 80034ea:	f000 fdb0 	bl	800404e <find_not_found>
 80034ee:	0030      	movs	r0, r6
 80034f0:	cf40      	ldmia	r7!, {r6}
 80034f2:	bd00      	pop	{pc}

080034f4 <Dictionary_793>:
 80034f4:	0800352a 	stmdaeq	r0, {r1, r3, r5, r8, sl, ip, sp}
 80034f8:	70080030 	andvc	r0, r8, r0, lsr r0
 80034fc:	7074736f 	rsbsvc	r7, r4, pc, ror #6
 8003500:	00656e6f 	rsbeq	r6, r5, pc, ror #28

08003504 <Code_793>:
 8003504:	b500      	push	{lr}
 8003506:	f7ff ffed 	bl	80034e4 <Code_791>
 800350a:	f847 6d04 	str.w	r6, [r7, #-4]!
 800350e:	0006      	movs	r6, r0
 8003510:	6839      	ldr	r1, [r7, #0]
 8003512:	603e      	str	r6, [r7, #0]
 8003514:	460e      	mov	r6, r1
 8003516:	f7ff ff53 	bl	80033c0 <Code_771>
 800351a:	f7ff ff51 	bl	80033c0 <Code_771>
 800351e:	f847 6d04 	str.w	r6, [r7, #-4]!
 8003522:	4ec7      	ldr	r6, [pc, #796]	; (8003840 <Code_860+0x38>)
 8003524:	f7ff ff17 	bl	8003356 <Code_766>
 8003528:	bd00      	pop	{pc}

0800352a <Dictionary_798>:
 800352a:	08003580 	stmdaeq	r0, {r7, r8, sl, ip, sp}
 800352e:	69070000 	stmdbvs	r7, {}	; <UNPREDICTABLE>
 8003532:	6e696c6e 	cdpvs	12, 6, cr6, cr9, cr14, {3}
 8003536:	 	strlt	r2, [r0, #-3173]	; 0xfffff39b

08003538 <Code_798>:
 8003538:	b500      	push	{lr}
 800353a:	f24b 5100 	movw	r1, #46336	; 0xb500
 800353e:	f64b 5200 	movw	r2, #48384	; 0xbd00
 8003542:	f244 7370 	movw	r3, #18288	; 0x4770
 8003546:	8830      	ldrh	r0, [r6, #0]
 8003548:	4288      	cmp	r0, r1
 800354a:	d008      	beq.n	800355e <Code_798+0x26>
 800354c:	4290      	cmp	r0, r2
 800354e:	d008      	beq.n	8003562 <Code_798+0x2a>
 8003550:	4298      	cmp	r0, r3
 8003552:	d006      	beq.n	8003562 <Code_798+0x2a>
 8003554:	f847 6d04 	str.w	r6, [r7, #-4]!
 8003558:	0006      	movs	r6, r0
 800355a:	f000 fa19 	bl	8003990 <Code_879>
 800355e:	3602      	adds	r6, #2
 8003560:	e7f1      	b.n	8003546 <Code_798+0xe>
 8003562:	cf40      	ldmia	r7!, {r6}
 8003564:	bd00      	pop	{pc}

08003566 <suchedefinitionsende>:
 8003566:	b40e      	push	{r1, r2, r3}
 8003568:	f64b 5200 	movw	r2, #48384	; 0xbd00
 800356c:	f244 7370 	movw	r3, #18288	; 0x4770
 8003570:	8801      	ldrh	r1, [r0, #0]
 8003572:	3002      	adds	r0, #2
 8003574:	4291      	cmp	r1, r2
 8003576:	d001      	beq.n	800357c <suchedefinitionsende+0x16>
 8003578:	4299      	cmp	r1, r3
 800357a:	d1f9      	bne.n	8003570 <suchedefinitionsende+0xa>
 800357c:	bc0e      	pop	{r1, r2, r3}
 800357e:	4770      	bx	lr

08003580 <Dictionary_802>:
 8003580:	08003596 	stmdaeq	r0, {r1, r2, r4, r7, r8, sl, ip, sp}
 8003584:	72040000 	andvc	r0, r4, #0
 8003588:	002c7465 	eoreq	r7, ip, r5, ror #8

0800358c <Code_802>:
 800358c:	f847 6d04 	str.w	r6, [r7, #-4]!
 8003590:	f64b 5600 	movw	r6, #48384	; 0xbd00
 8003594:	e1fc      	b.n	8003990 <Code_879>

08003596 <Dictionary_805>:
 8003596:	080035a4 	stmdaeq	r0, {r2, r5, r7, r8, sl, ip, sp}
 800359a:	65040030 	strvs	r0, [r4, #-48]	; 0xffffffd0
 800359e:	00746978 	rsbseq	r6, r4, r8, ror r9

080035a2 <Code_805>:
 80035a2:	e7f3      	b.n	800358c <Code_802>

080035a4 <Dictionary_806>:
 80035a4:	080035bc 	stmdaeq	r0, {r2, r3, r4, r5, r7, r8, sl, ip, sp}
 80035a8:	72070030 	andvc	r0, r7, #48	; 0x30
 80035ac:	72756365 	rsbsvc	r6, r5, #-1811939327	; 0x94000001
 80035b0:	 			; <UNDEFINED> instruction: 0xf8476573

080035b2 <Code_806>:
 80035b2:	f847 6d04 	str.w	r6, [r7, #-4]!
 80035b6:	4ea1      	ldr	r6, [pc, #644]	; (800383c <Code_860+0x34>)
 80035b8:	6836      	ldr	r6, [r6, #0]
 80035ba:	e6cc      	b.n	8003356 <Code_766>

080035bc <Dictionary_808>:
 80035bc:	080035d4 	stmdaeq	r0, {r2, r4, r6, r7, r8, sl, ip, sp}
 80035c0:	73050081 	movwvc	r0, #20609	; 0x5081
 80035c4:	65746174 	ldrbvs	r6, [r4, #-372]!	; 0xfffffe8c

080035c8 <Code_808>:
 80035c8:	f847 6d04 	str.w	r6, [r7, #-4]!
 80035cc:	4e9d      	ldr	r6, [pc, #628]	; (8003844 <Code_860+0x3c>)
 80035ce:	4770      	bx	lr
 80035d0:	00000000 	andeq	r0, r0, r0

080035d4 <Dictionary_811>:
 80035d4:	080035e6 	stmdaeq	r0, {r1, r2, r5, r6, r7, r8, sl, ip, sp}
 80035d8:	5d010000 	stcpl	0, cr0, [r1, #-0]

080035dc <Code_811>:
 80035dc:	4899      	ldr	r0, [pc, #612]	; (8003844 <Code_860+0x3c>)
 80035de:	2100      	movs	r1, #0
 80035e0:	43c9      	mvns	r1, r1
 80035e2:	6001      	str	r1, [r0, #0]
 80035e4:	4770      	bx	lr

080035e6 <Dictionary_812>:
 80035e6:	080035f6 	stmdaeq	r0, {r1, r2, r4, r5, r6, r7, r8, sl, ip, sp}
 80035ea:	5b010010 	blpl	8043632 <FlashDictionaryAnfang+0x23632>

080035ee <Code_812>:
 80035ee:	4895      	ldr	r0, [pc, #596]	; (8003844 <Code_860+0x3c>)
 80035f0:	2100      	movs	r1, #0
 80035f2:	6001      	str	r1, [r0, #0]
 80035f4:	4770      	bx	lr

080035f6 <Dictionary_813>:
 80035f6:	08003616 	stmdaeq	r0, {r1, r2, r4, r9, sl, ip, sp}
 80035fa:	3a010000 	bcc	8043602 <FlashDictionaryAnfang+0x23602>

080035fe <Code_813>:
 80035fe:	b500      	push	{lr}
 8003600:	4891      	ldr	r0, [pc, #580]	; (8003848 <Code_860+0x40>)
 8003602:	6007      	str	r7, [r0, #0]
 8003604:	f000 fb30 	bl	8003c68 <Code_916>
 8003608:	488e      	ldr	r0, [pc, #568]	; (8003844 <Code_860+0x3c>)
 800360a:	2101      	movs	r1, #1
 800360c:	6001      	str	r1, [r0, #0]
 800360e:	488f      	ldr	r0, [pc, #572]	; (800384c <Code_860+0x44>)
 8003610:	2100      	movs	r1, #0
 8003612:	6001      	str	r1, [r0, #0]
 8003614:	bd00      	pop	{pc}

08003616 <Dictionary_814>:
 8003616:	0800369c 	stmdaeq	r0, {r2, r3, r4, r7, r9, sl, ip, sp}
 800361a:	3b010830 	blcc	80456e2 <FlashDictionaryAnfang+0x256e2>

0800361e <Code_814>:
 800361e:	b500      	push	{lr}
 8003620:	4889      	ldr	r0, [pc, #548]	; (8003848 <Code_860+0x40>)
 8003622:	6801      	ldr	r1, [r0, #0]
 8003624:	42b9      	cmp	r1, r7
 8003626:	d019      	beq.n	800365c <Code_814+0x3e>
 8003628:	4989      	ldr	r1, [pc, #548]	; (8003850 <Code_860+0x48>)
 800362a:	428e      	cmp	r6, r1
 800362c:	d102      	bne.n	8003634 <Code_814+0x16>
 800362e:	4e89      	ldr	r6, [pc, #548]	; (8003854 <Code_860+0x4c>)
 8003630:	f7ff fc64 	bl	8002efc <Code_704>
 8003634:	f7ff fc1a 	bl	8002e6c <dotgaensefuesschen>
 8003638:	335b1b1e 	cmpcc	fp, #30720	; 0x7800
 800363c:	53206d31 			; <UNDEFINED> instruction: 0x53206d31
 8003640:	6b636174 	blvs	98dbc18 <FlashDictionaryEnde+0x17dbc18>
 8003644:	746f6e20 	strbtvc	r6, [pc], #-3616	; 800364c <Code_814+0x2e>
 8003648:	6c616220 	sfmvs	f6, 2, [r1], #-128	; 0xffffff80
 800364c:	65636e61 	strbvs	r6, [r3, #-3681]!	; 0xfffff19f
 8003650:	5b1b2e64 	blpl	86cefe8 <FlashDictionaryEnde+0x5cefe8>
 8003654:	000a6d30 	andeq	r6, sl, r0, lsr sp
 8003658:	f001 bc61 	b.w	8004f1e <Code_1262>
 800365c:	4879      	ldr	r0, [pc, #484]	; (8003844 <Code_860+0x3c>)
 800365e:	6800      	ldr	r0, [r0, #0]
 8003660:	1c41      	adds	r1, r0, #1
 8003662:	d010      	beq.n	8003686 <Code_814+0x68>
 8003664:	280b      	cmp	r0, #11
 8003666:	d805      	bhi.n	8003674 <Code_814+0x56>
 8003668:	f847 6d04 	str.w	r6, [r7, #-4]!
 800366c:	f640 0620 	movw	r6, #2080	; 0x820
 8003670:	f000 f930 	bl	80038d4 <Code_867>
 8003674:	f847 6d04 	str.w	r6, [r7, #-4]!
 8003678:	f244 7670 	movw	r6, #18288	; 0x4770
 800367c:	f000 f988 	bl	8003990 <Code_879>
 8003680:	f001 fb3c 	bl	8004cfc <inline_cache_schreiben>
 8003684:	e005      	b.n	8003692 <Code_814+0x74>
 8003686:	f847 6d04 	str.w	r6, [r7, #-4]!
 800368a:	f64b 5600 	movw	r6, #48384	; 0xbd00
 800368e:	f000 f97f 	bl	8003990 <Code_879>
 8003692:	f000 f8e8 	bl	8003866 <Code_862>
 8003696:	f7ff ffaa 	bl	80035ee <Code_812>
 800369a:	bd00      	pop	{pc}

0800369c <Dictionary_822>:
 800369c:	080036b0 	stmdaeq	r0, {r4, r5, r7, r9, sl, ip, sp}
 80036a0:	65070000 	strvs	r0, [r7, #-0]
 80036a4:	75636578 	strbvc	r6, [r3, #-1400]!	; 0xfffffa88
 80036a8:	 	eorseq	r6, r0, r4, ror r5

080036aa <Code_822>:
 80036aa:	0030      	movs	r0, r6
 80036ac:	cf40      	ldmia	r7!, {r6}
 80036ae:	4687      	mov	pc, r0

080036b0 <Dictionary_824>:
 80036b0:	080036c8 	stmdaeq	r0, {r3, r6, r7, r9, sl, ip, sp}
 80036b4:	69090010 	stmdbvs	r9, {r4}
 80036b8:	64656d6d 	strbtvs	r6, [r5], #-3437	; 0xfffff293
 80036bc:	65746169 	ldrbvs	r6, [r4, #-361]!	; 0xfffffe97

080036c0 <Code_824>:
 80036c0:	f847 6d04 	str.w	r6, [r7, #-4]!
 80036c4:	2610      	movs	r6, #16
 80036c6:	e105      	b.n	80038d4 <Code_867>

080036c8 <Dictionary_827>:
 80036c8:	080036de 	stmdaeq	r0, {r1, r2, r3, r4, r6, r7, r9, sl, ip, sp}
 80036cc:	69060050 	stmdbvs	r6, {r4, r6}
 80036d0:	6e696c6e 	cdpvs	12, 6, cr6, cr9, cr14, {3}
 80036d4:	 			; <UNDEFINED> instruction: 0xf8470065

080036d6 <Code_827>:
 80036d6:	f847 6d04 	str.w	r6, [r7, #-4]!
 80036da:	2620      	movs	r6, #32
 80036dc:	e0fa      	b.n	80038d4 <Code_867>

080036de <Dictionary_830>:
 80036de:	080036f8 	stmdaeq	r0, {r3, r4, r5, r6, r7, r9, sl, ip, sp}
 80036e2:	630b0010 	movwvs	r0, #45072	; 0xb010
 80036e6:	69706d6f 	ldmdbvs	r0!, {r0, r1, r2, r3, r5, r6, r8, sl, fp, sp, lr}^
 80036ea:	6e6f656c 	cdpvs	5, 6, cr6, cr15, cr12, {3}
 80036ee:	 			; <UNDEFINED> instruction: 0xf847796c

080036f0 <Code_830>:
 80036f0:	f847 6d04 	str.w	r6, [r7, #-4]!
 80036f4:	2630      	movs	r6, #48	; 0x30
 80036f6:	e0ed      	b.n	80038d4 <Code_867>

080036f8 <Dictionary_833>:
 80036f8:	08003712 	stmdaeq	r0, {r1, r4, r8, r9, sl, ip, sp}
 80036fc:	300a0050 	andcc	r0, sl, r0, asr r0
 8003700:	6c6f662d 	stclvs	6, cr6, [pc], #-180	; 8003654 <Code_814+0x36>
 8003704:	6c626164 	stfvse	f6, [r2], #-400	; 0xfffffe70
 8003708:	 			; <UNDEFINED> instruction: 0xf8470065

0800370a <Code_833>:
 800370a:	f847 6d04 	str.w	r6, [r7, #-4]!
 800370e:	2640      	movs	r6, #64	; 0x40
 8003710:	e0e0      	b.n	80038d4 <Code_867>

08003712 <Dictionary_836>:
 8003712:	0800372c 	stmdaeq	r0, {r2, r3, r5, r8, r9, sl, ip, sp}
 8003716:	310a0050 	qaddcc	r0, r0, sl
 800371a:	6c6f662d 	stclvs	6, cr6, [pc], #-180	; 800366c <Code_814+0x4e>
 800371e:	6c626164 	stfvse	f6, [r2], #-400	; 0xfffffe70
 8003722:	 			; <UNDEFINED> instruction: 0xf8470065

08003724 <Code_836>:
 8003724:	f847 6d04 	str.w	r6, [r7, #-4]!
 8003728:	2641      	movs	r6, #65	; 0x41
 800372a:	e0d3      	b.n	80038d4 <Code_867>

0800372c <Dictionary_839>:
 800372c:	08003746 	stmdaeq	r0, {r1, r2, r6, r8, r9, sl, ip, sp}
 8003730:	320a0050 	andcc	r0, sl, #80	; 0x50
 8003734:	6c6f662d 	stclvs	6, cr6, [pc], #-180	; 8003688 <Code_814+0x6a>
 8003738:	6c626164 	stfvse	f6, [r2], #-400	; 0xfffffe70
 800373c:	 			; <UNDEFINED> instruction: 0xf8470065

0800373e <Code_839>:
 800373e:	f847 6d04 	str.w	r6, [r7, #-4]!
 8003742:	2642      	movs	r6, #66	; 0x42
 8003744:	e0c6      	b.n	80038d4 <Code_867>

08003746 <Dictionary_842>:
 8003746:	08003760 	stmdaeq	r0, {r5, r6, r8, r9, sl, ip, sp}
 800374a:	330a0050 	movwcc	r0, #41040	; 0xa050
 800374e:	6c6f662d 	stclvs	6, cr6, [pc], #-180	; 80036a0 <Dictionary_822+0x4>
 8003752:	6c626164 	stfvse	f6, [r2], #-400	; 0xfffffe70
 8003756:	 			; <UNDEFINED> instruction: 0xf8470065

08003758 <Code_842>:
 8003758:	f847 6d04 	str.w	r6, [r7, #-4]!
 800375c:	2643      	movs	r6, #67	; 0x43
 800375e:	e0b9      	b.n	80038d4 <Code_867>

08003760 <Dictionary_845>:
 8003760:	0800377a 	stmdaeq	r0, {r1, r3, r4, r5, r6, r8, r9, sl, ip, sp}
 8003764:	340a0050 	strcc	r0, [sl], #-80	; 0xffffffb0
 8003768:	6c6f662d 	stclvs	6, cr6, [pc], #-180	; 80036bc <Dictionary_824+0xc>
 800376c:	6c626164 	stfvse	f6, [r2], #-400	; 0xfffffe70
 8003770:	 			; <UNDEFINED> instruction: 0xf8470065

08003772 <Code_845>:
 8003772:	f847 6d04 	str.w	r6, [r7, #-4]!
 8003776:	2644      	movs	r6, #68	; 0x44
 8003778:	e0ac      	b.n	80038d4 <Code_867>

0800377a <Dictionary_848>:
 800377a:	08003794 	stmdaeq	r0, {r2, r4, r7, r8, r9, sl, ip, sp}
 800377e:	350a0050 	strcc	r0, [sl, #-80]	; 0xffffffb0
 8003782:	6c6f662d 	stclvs	6, cr6, [pc], #-180	; 80036d4 <Dictionary_827+0xc>
 8003786:	6c626164 	stfvse	f6, [r2], #-400	; 0xfffffe70
 800378a:	 			; <UNDEFINED> instruction: 0xf8470065

0800378c <Code_848>:
 800378c:	f847 6d04 	str.w	r6, [r7, #-4]!
 8003790:	2645      	movs	r6, #69	; 0x45
 8003792:	e09f      	b.n	80038d4 <Code_867>

08003794 <Dictionary_851>:
 8003794:	080037ae 	stmdaeq	r0, {r1, r2, r3, r5, r7, r8, r9, sl, ip, sp}
 8003798:	360a0050 			; <UNDEFINED> instruction: 0x360a0050
 800379c:	6c6f662d 	stclvs	6, cr6, [pc], #-180	; 80036f0 <Code_830>
 80037a0:	6c626164 	stfvse	f6, [r2], #-400	; 0xfffffe70
 80037a4:	 			; <UNDEFINED> instruction: 0xf8470065

080037a6 <Code_851>:
 80037a6:	f847 6d04 	str.w	r6, [r7, #-4]!
 80037aa:	2646      	movs	r6, #70	; 0x46
 80037ac:	e092      	b.n	80038d4 <Code_867>

080037ae <Dictionary_854>:
 80037ae:	080037c8 	stmdaeq	r0, {r3, r6, r7, r8, r9, sl, ip, sp}
 80037b2:	370a0050 	smlsdcc	sl, r0, r0, r0
 80037b6:	6c6f662d 	stclvs	6, cr6, [pc], #-180	; 8003708 <Dictionary_833+0x10>
 80037ba:	6c626164 	stfvse	f6, [r2], #-400	; 0xfffffe70
 80037be:	 			; <UNDEFINED> instruction: 0xf8470065

080037c0 <Code_854>:
 80037c0:	f847 6d04 	str.w	r6, [r7, #-4]!
 80037c4:	2647      	movs	r6, #71	; 0x47
 80037c6:	e085      	b.n	80038d4 <Code_867>

080037c8 <Dictionary_857>:
 80037c8:	080037f8 	stmdaeq	r0, {r3, r4, r5, r6, r7, r8, r9, sl, ip, sp}
 80037cc:	63080000 	movwvs	r0, #32768	; 0x8000
 80037d0:	74736e6f 	ldrbtvc	r6, [r3], #-3695	; 0xfffff191
 80037d4:	00746e61 	rsbseq	r6, r4, r1, ror #28

080037d8 <Code_857>:
 80037d8:	b500      	push	{lr}
 80037da:	f000 fa45 	bl	8003c68 <Code_916>
 80037de:	f7ff fdef 	bl	80033c0 <Code_771>
 80037e2:	f847 6d04 	str.w	r6, [r7, #-4]!
 80037e6:	f244 7670 	movw	r6, #18288	; 0x4770
 80037ea:	f000 f8d1 	bl	8003990 <Code_879>
 80037ee:	f7ff ff8c 	bl	800370a <Code_833>
 80037f2:	f000 f838 	bl	8003866 <Code_862>
 80037f6:	bd00      	pop	{pc}

080037f8 <Dictionary_860>:
 80037f8:	08003858 	stmdaeq	r0, {r3, r4, r6, fp, ip, sp}
 80037fc:	32090000 	andcc	r0, r9, #0
 8003800:	736e6f63 	cmnvc	lr, #396	; 0x18c
 8003804:	746e6174 	strbtvc	r6, [lr], #-372	; 0xfffffe8c

08003808 <Code_860>:
 8003808:	b500      	push	{lr}
 800380a:	f000 fa2d 	bl	8003c68 <Code_916>
 800380e:	6839      	ldr	r1, [r7, #0]
 8003810:	603e      	str	r6, [r7, #0]
 8003812:	460e      	mov	r6, r1
 8003814:	f7ff fdd4 	bl	80033c0 <Code_771>
 8003818:	e7e1      	b.n	80037de <Code_857+0x6>
 800381a:	00000000 	andeq	r0, r0, r0
 800381e:	0000f240 	andeq	pc, r0, r0, asr #4
 8003822:	0000f2c0 	andeq	pc, r0, r0, asr #5
 8003826:	0000f05f 	andeq	pc, r0, pc, asr r0	; <UNPREDICTABLE>
 800382a:	0001f07f 	andeq	pc, r1, pc, ror r0	; <UNPREDICTABLE>
 800382e:	0000ffc0 	andeq	pc, r0, r0, asr #31
 8003832:	f800ffc0 			; <UNDEFINED> instruction: 0xf800ffc0
 8003836:	ffd0f000 			; <UNDEFINED> instruction: 0xffd0f000
 800383a:	000c2407 	andeq	r2, ip, r7, lsl #8
 800383e:	4bf62400 	blmi	7d8c846 <stack_canary+0x3c6aec1>
 8003842:	ffd80800 			; <UNDEFINED> instruction: 0xffd80800
 8003846:	00082407 	andeq	r2, r8, r7, lsl #8
 800384a:	00542400 	subseq	r2, r4, r0, lsl #8
 800384e:	19852400 	stmibne	r5, {sl, sp}
 8003852:	2f9e0412 	svccs	0x009e0412
 8003856:	 	stmiacc	r4, {fp}^

08003858 <Dictionary_862>:
 8003858:	080038c4 	stmdaeq	r0, {r2, r6, r7, fp, ip, sp}
 800385c:	73060000 	movwvc	r0, #24576	; 0x6000
 8003860:	6764756d 	strbvs	r7, [r4, -sp, ror #10]!
 8003864:	 	strlt	r0, [r0, #-101]	; 0xffffff9b

08003866 <Code_862>:
 8003866:	b500      	push	{lr}
 8003868:	48ef      	ldr	r0, [pc, #956]	; (8003c28 <Code_915+0x14>)
 800386a:	6801      	ldr	r1, [r0, #0]
 800386c:	f04f 5210 	mov.w	r2, #603979776	; 0x24000000
 8003870:	4291      	cmp	r1, r2
 8003872:	d220      	bcs.n	80038b6 <smudge_ram>
 8003874:	3902      	subs	r1, #2
 8003876:	880a      	ldrh	r2, [r1, #0]
 8003878:	f64f 73ff 	movw	r3, #65535	; 0xffff
 800387c:	429a      	cmp	r2, r3
 800387e:	d105      	bne.n	800388c <Code_862+0x26>
 8003880:	f847 6d04 	str.w	r6, [r7, #-4]!
 8003884:	f04f 0600 	mov.w	r6, #0
 8003888:	f000 f882 	bl	8003990 <Code_879>
 800388c:	f000 f84f 	bl	800392e <Code_871>
 8003890:	f000 f862 	bl	8003958 <Code_873>
 8003894:	48e5      	ldr	r0, [pc, #916]	; (8003c2c <Code_915+0x18>)
 8003896:	6800      	ldr	r0, [r0, #0]
 8003898:	f847 6d04 	str.w	r6, [r7, #-4]!
 800389c:	0006      	movs	r6, r0
 800389e:	49e4      	ldr	r1, [pc, #912]	; (8003c30 <Code_915+0x1c>)
 80038a0:	6809      	ldr	r1, [r1, #0]
 80038a2:	3104      	adds	r1, #4
 80038a4:	4ae0      	ldr	r2, [pc, #896]	; (8003c28 <Code_915+0x14>)
 80038a6:	6813      	ldr	r3, [r2, #0]
 80038a8:	6011      	str	r1, [r2, #0]
 80038aa:	f000 f871 	bl	8003990 <Code_879>
 80038ae:	6013      	str	r3, [r2, #0]
 80038b0:	f7fe fd9e 	bl	80023f0 <Code_503>
 80038b4:	bd00      	pop	{pc}

080038b6 <smudge_ram>:
 80038b6:	f000 f83a 	bl	800392e <Code_871>
 80038ba:	f847 6d04 	str.w	r6, [r7, #-4]!
 80038be:	f04f 0600 	mov.w	r6, #0
 80038c2:	e008      	b.n	80038d6 <setflags_intern>

080038c4 <Dictionary_867>:
 80038c4:	0800390c 	stmdaeq	r0, {r2, r3, r8, fp, ip, sp}
 80038c8:	73080000 	movwvc	r0, #32768	; 0x8000
 80038cc:	6c667465 	cfstrdvs	mvd7, [r6], #-404	; 0xfffffe6c
 80038d0:	00736761 	rsbseq	r6, r3, r1, ror #14

080038d4 <Code_867>:
 80038d4:	b500      	push	{lr}

080038d6 <setflags_intern>:
 80038d6:	48d4      	ldr	r0, [pc, #848]	; (8003c28 <Code_915+0x14>)
 80038d8:	6801      	ldr	r1, [r0, #0]
 80038da:	f04f 5210 	mov.w	r2, #603979776	; 0x24000000
 80038de:	4291      	cmp	r1, r2
 80038e0:	d205      	bcs.n	80038ee <setflags_ram>
 80038e2:	48d2      	ldr	r0, [pc, #840]	; (8003c2c <Code_915+0x18>)
 80038e4:	6801      	ldr	r1, [r0, #0]
 80038e6:	4331      	orrs	r1, r6
 80038e8:	6001      	str	r1, [r0, #0]
 80038ea:	cf40      	ldmia	r7!, {r6}
 80038ec:	bd00      	pop	{pc}

080038ee <setflags_ram>:
 80038ee:	0032      	movs	r2, r6
 80038f0:	cf40      	ldmia	r7!, {r6}
 80038f2:	48cf      	ldr	r0, [pc, #828]	; (8003c30 <Code_915+0x1c>)
 80038f4:	6800      	ldr	r0, [r0, #0]
 80038f6:	3004      	adds	r0, #4
 80038f8:	8801      	ldrh	r1, [r0, #0]
 80038fa:	f64f 73ff 	movw	r3, #65535	; 0xffff
 80038fe:	4299      	cmp	r1, r3
 8003900:	d101      	bne.n	8003906 <setflags_ram+0x18>
 8003902:	0011      	movs	r1, r2
 8003904:	e000      	b.n	8003908 <setflags_ram+0x1a>
 8003906:	4311      	orrs	r1, r2
 8003908:	8001      	strh	r1, [r0, #0]
 800390a:	bd00      	pop	{pc}

0800390c <Dictionary_870>:
 800390c:	08003922 	stmdaeq	r0, {r1, r5, r8, fp, ip, sp}
 8003910:	61070041 	tstvs	r7, r1, asr #32
 8003914:	6e67696c 	vnmulvs.f16	s13, s14, s25	; <UNPREDICTABLE>
 8003918:	 	strcc	r6, [r3], -r5, ror #8

0800391a <Code_870>:
 800391a:	3603      	adds	r6, #3
 800391c:	2003      	movs	r0, #3
 800391e:	4386      	bics	r6, r0
 8003920:	4770      	bx	lr

08003922 <Dictionary_871>:
 8003922:	08003948 	stmdaeq	r0, {r3, r6, r8, fp, ip, sp}
 8003926:	61050000 	mrsvs	r0, (UNDEF: 5)
 800392a:	6e67696c 	vnmulvs.f16	s13, s14, s25	; <UNPREDICTABLE>

0800392e <Code_871>:
 800392e:	b500      	push	{lr}
 8003930:	48bd      	ldr	r0, [pc, #756]	; (8003c28 <Code_915+0x14>)
 8003932:	6801      	ldr	r1, [r0, #0]
 8003934:	2002      	movs	r0, #2
 8003936:	4001      	ands	r1, r0
 8003938:	d005      	beq.n	8003946 <Code_871+0x18>
 800393a:	f847 6d04 	str.w	r6, [r7, #-4]!
 800393e:	f04f 0600 	mov.w	r6, #0
 8003942:	f000 f825 	bl	8003990 <Code_879>
 8003946:	bd00      	pop	{pc}

08003948 <Dictionary_873>:
 8003948:	08003986 	stmdaeq	r0, {r1, r2, r7, r8, fp, ip, sp}
 800394c:	61080000 	mrsvs	r0, (UNDEF: 8)
 8003950:	6e67696c 	vnmulvs.f16	s13, s14, s25	; <UNPREDICTABLE>
 8003954:	002c3233 	eoreq	r3, ip, r3, lsr r2

08003958 <Code_873>:
 8003958:	b500      	push	{lr}
 800395a:	48b3      	ldr	r0, [pc, #716]	; (8003c28 <Code_915+0x14>)
 800395c:	6801      	ldr	r1, [r0, #0]
 800395e:	201f      	movs	r0, #31
 8003960:	4001      	ands	r1, r0
 8003962:	d006      	beq.n	8003972 <Code_873+0x1a>
 8003964:	f847 6d04 	str.w	r6, [r7, #-4]!
 8003968:	f04f 0600 	mov.w	r6, #0
 800396c:	f000 f810 	bl	8003990 <Code_879>
 8003970:	e7f3      	b.n	800395a <Code_873+0x2>
 8003972:	bd00      	pop	{pc}

08003974 <nop_hkomma>:
 8003974:	f847 6d04 	str.w	r6, [r7, #-4]!
 8003978:	2636      	movs	r6, #54	; 0x36
 800397a:	e009      	b.n	8003990 <Code_879>

0800397c <drop_hkomma>:
 800397c:	f847 6d04 	str.w	r6, [r7, #-4]!
 8003980:	f64c 7640 	movw	r6, #53056	; 0xcf40
 8003984:	e004      	b.n	8003990 <Code_879>

08003986 <Dictionary_879>:
 8003986:	080039cc 	stmdaeq	r0, {r2, r3, r6, r7, r8, fp, ip, sp}
 800398a:	68020000 	stmdavs	r2, {}	; <UNPREDICTABLE>
 800398e:	 	strlt	r0, [pc, #-44]	; 800396a <Code_873+0x12>

08003990 <Code_879>:
 8003990:	b50f      	push	{r0, r1, r2, r3, lr}
 8003992:	b2b6      	uxth	r6, r6
 8003994:	48a7      	ldr	r0, [pc, #668]	; (8003c34 <Code_915+0x20>)
 8003996:	6801      	ldr	r1, [r0, #0]
 8003998:	2900      	cmp	r1, #0
 800399a:	d002      	beq.n	80039a2 <Code_879+0x12>
 800399c:	3101      	adds	r1, #1
 800399e:	d000      	beq.n	80039a2 <Code_879+0x12>
 80039a0:	6001      	str	r1, [r0, #0]
 80039a2:	48a1      	ldr	r0, [pc, #644]	; (8003c28 <Code_915+0x14>)
 80039a4:	6801      	ldr	r1, [r0, #0]
 80039a6:	f04f 5210 	mov.w	r2, #603979776	; 0x24000000
 80039aa:	4291      	cmp	r1, r2
 80039ac:	d205      	bcs.n	80039ba <hkomma_ram>
 80039ae:	f847 6d04 	str.w	r6, [r7, #-4]!
 80039b2:	000e      	movs	r6, r1
 80039b4:	f7fe fc95 	bl	80022e2 <Code_497>
 80039b8:	e002      	b.n	80039c0 <hkomma_fertig>

080039ba <hkomma_ram>:
 80039ba:	0032      	movs	r2, r6
 80039bc:	cf40      	ldmia	r7!, {r6}
 80039be:	800a      	strh	r2, [r1, #0]

080039c0 <hkomma_fertig>:
 80039c0:	f847 6d04 	str.w	r6, [r7, #-4]!
 80039c4:	2602      	movs	r6, #2
 80039c6:	f000 f851 	bl	8003a6c <Code_897>
 80039ca:	bd0f      	pop	{r0, r1, r2, r3, pc}

080039cc <Dictionary_885>:
 80039cc:	080039e6 	stmdaeq	r0, {r1, r2, r5, r6, r7, r8, fp, ip, sp}
 80039d0:	2c010000 	stccs	0, cr0, [r1], {-0}

080039d4 <Code_885>:
 80039d4:	b501      	push	{r0, lr}
 80039d6:	f847 6d04 	str.w	r6, [r7, #-4]!
 80039da:	f7ff ffd9 	bl	8003990 <Code_879>
 80039de:	0c36      	lsrs	r6, r6, #16
 80039e0:	f7ff ffd6 	bl	8003990 <Code_879>
 80039e4:	bd01      	pop	{r0, pc}

080039e6 <Dictionary_888>:
 80039e6:	080039f8 	stmdaeq	r0, {r3, r4, r5, r6, r7, r8, fp, ip, sp}
 80039ea:	3e030000 	cdpcc	0, 0, cr0, cr3, cr0, {0}
 80039ee:	 	strlt	r2, [r1, #-3132]	; 0xfffff3c4

080039f0 <Code_888>:
 80039f0:	b501      	push	{r0, lr}
 80039f2:	2010      	movs	r0, #16
 80039f4:	41c6      	rors	r6, r0
 80039f6:	e7ee      	b.n	80039d6 <Code_885+0x2>

080039f8 <Dictionary_889>:
 80039f8:	08003a60 	stmdaeq	r0, {r5, r6, r9, fp, ip, sp}
 80039fc:	73070000 	movwvc	r0, #28672	; 0x7000
 8003a00:	6e697274 	mcrvs	2, 3, r7, cr9, cr4, {3}
 8003a04:	 	strlt	r2, [r7, #-3175]	; 0xfffff399

08003a06 <Code_889>:
 8003a06:	b507      	push	{r0, r1, r2, lr}
 8003a08:	21ff      	movs	r1, #255	; 0xff
 8003a0a:	4031      	ands	r1, r6
 8003a0c:	cf40      	ldmia	r7!, {r6}
 8003a0e:	0030      	movs	r0, r6
 8003a10:	cf40      	ldmia	r7!, {r6}
 8003a12:	2900      	cmp	r1, #0
 8003a14:	d105      	bne.n	8003a22 <Code_889+0x1c>
 8003a16:	f847 6d04 	str.w	r6, [r7, #-4]!
 8003a1a:	2600      	movs	r6, #0
 8003a1c:	f7ff ffb8 	bl	8003990 <Code_879>
 8003a20:	bd07      	pop	{r0, r1, r2, pc}
 8003a22:	f847 6d04 	str.w	r6, [r7, #-4]!
 8003a26:	7806      	ldrb	r6, [r0, #0]
 8003a28:	0236      	lsls	r6, r6, #8
 8003a2a:	430e      	orrs	r6, r1
 8003a2c:	f7ff ffb0 	bl	8003990 <Code_879>
 8003a30:	3001      	adds	r0, #1
 8003a32:	3901      	subs	r1, #1
 8003a34:	2902      	cmp	r1, #2
 8003a36:	d30a      	bcc.n	8003a4e <Code_889+0x48>
 8003a38:	f847 6d04 	str.w	r6, [r7, #-4]!
 8003a3c:	7846      	ldrb	r6, [r0, #1]
 8003a3e:	0236      	lsls	r6, r6, #8
 8003a40:	7802      	ldrb	r2, [r0, #0]
 8003a42:	4316      	orrs	r6, r2
 8003a44:	f7ff ffa4 	bl	8003990 <Code_879>
 8003a48:	3002      	adds	r0, #2
 8003a4a:	3902      	subs	r1, #2
 8003a4c:	e7f2      	b.n	8003a34 <Code_889+0x2e>
 8003a4e:	2900      	cmp	r1, #0
 8003a50:	d100      	bne.n	8003a54 <Code_889+0x4e>
 8003a52:	bd07      	pop	{r0, r1, r2, pc}
 8003a54:	f847 6d04 	str.w	r6, [r7, #-4]!
 8003a58:	7806      	ldrb	r6, [r0, #0]
 8003a5a:	f7ff ff99 	bl	8003990 <Code_879>
 8003a5e:	bd07      	pop	{r0, r1, r2, pc}

08003a60 <Dictionary_897>:
 8003a60:	08003ad2 	stmdaeq	r0, {r1, r4, r6, r7, r9, fp, ip, sp}
 8003a64:	61050000 	mrsvs	r0, (UNDEF: 5)
 8003a68:	746f6c6c 	strbtvc	r6, [pc], #-3180	; 8003a70 <Code_897+0x4>

08003a6c <Code_897>:
 8003a6c:	486e      	ldr	r0, [pc, #440]	; (8003c28 <Code_915+0x14>)
 8003a6e:	6801      	ldr	r1, [r0, #0]
 8003a70:	f04f 5210 	mov.w	r2, #603979776	; 0x24000000
 8003a74:	4291      	cmp	r1, r2
 8003a76:	d215      	bcs.n	8003aa4 <allot_ram>
 8003a78:	0032      	movs	r2, r6
 8003a7a:	cf40      	ldmia	r7!, {r6}
 8003a7c:	1889      	adds	r1, r1, r2
 8003a7e:	f04f 6201 	mov.w	r2, #135266304	; 0x8100000
 8003a82:	4291      	cmp	r1, r2
 8003a84:	d323      	bcc.n	8003ace <allot_ok>
 8003a86:	f7ff f9f1 	bl	8002e6c <dotgaensefuesschen>
 8003a8a:	335b1b14 	cmpcc	fp, #20, 22	; 0x5000
 8003a8e:	6c466d31 	mcrrvs	13, 3, r6, r6, cr1
 8003a92:	20687361 	rsbcs	r7, r8, r1, ror #6
 8003a96:	6c6c7566 	cfstr64vs	mvdx7, [ip], #-408	; 0xfffffe68
 8003a9a:	6d305b1b 	fldmdbxvs	r0!, {d5-d17}	;@ Deprecated
 8003a9e:	f001000a 			; <UNDEFINED> instruction: 0xf001000a
 8003aa2:	ba3d      	rev	r5, r7

08003aa4 <allot_ram>:
 8003aa4:	0032      	movs	r2, r6
 8003aa6:	cf40      	ldmia	r7!, {r6}
 8003aa8:	1889      	adds	r1, r1, r2
 8003aaa:	4a63      	ldr	r2, [pc, #396]	; (8003c38 <Code_915+0x24>)
 8003aac:	6812      	ldr	r2, [r2, #0]
 8003aae:	4291      	cmp	r1, r2
 8003ab0:	d30d      	bcc.n	8003ace <allot_ok>
 8003ab2:	f7ff f9db 	bl	8002e6c <dotgaensefuesschen>
 8003ab6:	335b1b12 	cmpcc	fp, #18432	; 0x4800
 8003aba:	61526d31 	cmpvs	r2, r1, lsr sp
 8003abe:	7566206d 	strbvc	r2, [r6, #-109]!	; 0xffffff93
 8003ac2:	5b1b6c6c 	blpl	86dec7a <FlashDictionaryEnde+0x5dec7a>
 8003ac6:	000a6d30 	andeq	r6, sl, r0, lsr sp
 8003aca:	f001 ba28 	b.w	8004f1e <Code_1262>

08003ace <allot_ok>:
 8003ace:	6001      	str	r1, [r0, #0]
 8003ad0:	4770      	bx	lr

08003ad2 <Dictionary_902>:
 8003ad2:	08003aee 	stmdaeq	r0, {r1, r2, r3, r5, r6, r7, r9, fp, ip, sp}
 8003ad6:	28080081 	stmdacs	r8, {r0, r7}
 8003ada:	6574616c 	ldrbvs	r6, [r4, #-364]!	; 0xfffffe94
 8003ade:	00297473 	eoreq	r7, r9, r3, ror r4

08003ae2 <Code_902>:
 8003ae2:	f847 6d04 	str.w	r6, [r7, #-4]!
 8003ae6:	4e55      	ldr	r6, [pc, #340]	; (8003c3c <Code_915+0x28>)
 8003ae8:	4770      	bx	lr
 8003aea:	080001e4 	stmdaeq	r0, {r2, r5, r6, r7, r8}

08003aee <Dictionary_905>:
 8003aee:	08003b06 	stmdaeq	r0, {r1, r2, r8, r9, fp, ip, sp}
 8003af2:	28040081 	stmdacs	r4, {r0, r7}
 8003af6:	00297064 	eoreq	r7, r9, r4, rrx

08003afa <Code_905>:
 8003afa:	f847 6d04 	str.w	r6, [r7, #-4]!
 8003afe:	4e50      	ldr	r6, [pc, #320]	; (8003c40 <Code_915+0x2c>)
 8003b00:	4770      	bx	lr
 8003b02:	24000808 	strcs	r0, [r0], #-2056	; 0xfffff7f8

08003b06 <Dictionary_908>:
 8003b06:	08003b2a 	stmdaeq	r0, {r1, r3, r5, r8, r9, fp, ip, sp}
 8003b0a:	66090000 	strvs	r0, [r9], -r0
 8003b0e:	6567726f 	strbvs	r7, [r7, #-623]!	; 0xfffffd91
 8003b12:	6d617274 	sfmvs	f7, 2, [r1, #-464]!	; 0xfffffe30

08003b16 <Code_908>:
 8003b16:	b500      	push	{lr}
 8003b18:	f000 f825 	bl	8003b66 <Code_911>
 8003b1c:	4848      	ldr	r0, [pc, #288]	; (8003c40 <Code_915+0x2c>)
 8003b1e:	4949      	ldr	r1, [pc, #292]	; (8003c44 <Code_915+0x30>)
 8003b20:	6001      	str	r1, [r0, #0]
 8003b22:	4846      	ldr	r0, [pc, #280]	; (8003c3c <Code_915+0x28>)
 8003b24:	4948      	ldr	r1, [pc, #288]	; (8003c48 <Code_915+0x34>)
 8003b26:	6001      	str	r1, [r0, #0]
 8003b28:	bd00      	pop	{pc}

08003b2a <Dictionary_909>:
 8003b2a:	08003b52 	stmdaeq	r0, {r1, r4, r6, r8, r9, fp, ip, sp}
 8003b2e:	630d0000 	movwvs	r0, #53248	; 0xd000
 8003b32:	69706d6f 	ldmdbvs	r0!, {r0, r1, r2, r3, r5, r6, r8, sl, fp, sp, lr}^
 8003b36:	6f74656c 	svcvs	0x0074656c
 8003b3a:	3f6d6172 	svccc	0x006d6172

08003b3e <Code_909>:
 8003b3e:	f847 6d04 	str.w	r6, [r7, #-4]!
 8003b42:	483f      	ldr	r0, [pc, #252]	; (8003c40 <Code_915+0x2c>)
 8003b44:	6800      	ldr	r0, [r0, #0]
 8003b46:	f04f 5110 	mov.w	r1, #603979776	; 0x24000000
 8003b4a:	4288      	cmp	r0, r1
 8003b4c:	41b6      	sbcs	r6, r6
 8003b4e:	43f6      	mvns	r6, r6
 8003b50:	4770      	bx	lr

08003b52 <Dictionary_911>:
 8003b52:	08003b74 	stmdaeq	r0, {r2, r4, r5, r6, r8, r9, fp, ip, sp}
 8003b56:	630c0000 	movwvs	r0, #49152	; 0xc000
 8003b5a:	69706d6f 	ldmdbvs	r0!, {r0, r1, r2, r3, r5, r6, r8, sl, fp, sp, lr}^
 8003b5e:	6f74656c 	svcvs	0x0074656c
 8003b62:	006d6172 	rsbeq	r6, sp, r2, ror r1

08003b66 <Code_911>:
 8003b66:	4836      	ldr	r0, [pc, #216]	; (8003c40 <Code_915+0x2c>)
 8003b68:	6800      	ldr	r0, [r0, #0]
 8003b6a:	f04f 5110 	mov.w	r1, #603979776	; 0x24000000
 8003b6e:	4288      	cmp	r0, r1
 8003b70:	d312      	bcc.n	8003b98 <Zweitpointertausch>
 8003b72:	4770      	bx	lr

08003b74 <Dictionary_912>:
 8003b74:	08003be6 	stmdaeq	r0, {r1, r2, r5, r6, r7, r8, r9, fp, ip, sp}
 8003b78:	630e0000 	movwvs	r0, #57344	; 0xe000
 8003b7c:	69706d6f 	ldmdbvs	r0!, {r0, r1, r2, r3, r5, r6, r8, sl, fp, sp, lr}^
 8003b80:	6f74656c 	svcvs	0x0074656c
 8003b84:	73616c66 	cmnvc	r1, #26112	; 0x6600
 8003b88:	 	stmdami	sp!, {r3, r5, r6}

08003b8a <Code_912>:
 8003b8a:	482d      	ldr	r0, [pc, #180]	; (8003c40 <Code_915+0x2c>)
 8003b8c:	6800      	ldr	r0, [r0, #0]
 8003b8e:	f04f 5110 	mov.w	r1, #603979776	; 0x24000000
 8003b92:	4288      	cmp	r0, r1
 8003b94:	d200      	bcs.n	8003b98 <Zweitpointertausch>
 8003b96:	4770      	bx	lr

08003b98 <Zweitpointertausch>:
 8003b98:	4828      	ldr	r0, [pc, #160]	; (8003c3c <Code_915+0x28>)
 8003b9a:	492c      	ldr	r1, [pc, #176]	; (8003c4c <Code_915+0x38>)
 8003b9c:	6802      	ldr	r2, [r0, #0]
 8003b9e:	680b      	ldr	r3, [r1, #0]
 8003ba0:	600a      	str	r2, [r1, #0]
 8003ba2:	6003      	str	r3, [r0, #0]
 8003ba4:	4826      	ldr	r0, [pc, #152]	; (8003c40 <Code_915+0x2c>)
 8003ba6:	492a      	ldr	r1, [pc, #168]	; (8003c50 <Code_915+0x3c>)
 8003ba8:	6802      	ldr	r2, [r0, #0]
 8003baa:	680b      	ldr	r3, [r1, #0]
 8003bac:	600a      	str	r2, [r1, #0]
 8003bae:	6003      	str	r3, [r0, #0]
 8003bb0:	4821      	ldr	r0, [pc, #132]	; (8003c38 <Code_915+0x24>)
 8003bb2:	6800      	ldr	r0, [r0, #0]
 8003bb4:	4283      	cmp	r3, r0
 8003bb6:	d315      	bcc.n	8003be4 <Zweitpointertausch+0x4c>
 8003bb8:	b500      	push	{lr}
 8003bba:	f7ff f957 	bl	8002e6c <dotgaensefuesschen>
 8003bbe:	61562023 	cmpvs	r6, r3, lsr #32
 8003bc2:	62616972 	rsbvs	r6, r1, #1867776	; 0x1c8000
 8003bc6:	2073656c 	rsbscs	r6, r3, ip, ror #10
 8003bca:	6c6c6f63 	stclvs	15, cr6, [ip], #-396	; 0xfffffe74
 8003bce:	20656469 	rsbcs	r6, r5, r9, ror #8
 8003bd2:	68746977 	ldmdavs	r4!, {r0, r1, r2, r4, r5, r6, r8, fp, sp, lr}^
 8003bd6:	63696420 	cmnvs	r9, #32, 8	; 0x20000000
 8003bda:	6e6f6974 			; <UNDEFINED> instruction: 0x6e6f6974
 8003bde:	0a797261 	beq	9e6056a <FlashDictionaryEnde+0x1d6056a>
 8003be2:	bd00      	pop	{pc}
 8003be4:	4770      	bx	lr

08003be6 <Dictionary_914>:
 8003be6:	08003c02 	stmdaeq	r0, {r1, sl, fp, ip, sp}
 8003bea:	610c0000 	mrsvs	r0, (UNDEF: 12)
 8003bee:	69726464 	ldmdbvs	r2!, {r2, r5, r6, sl, sp, lr}^
 8003bf2:	616c666e 	cmnvs	ip, lr, ror #12
 8003bf6:	003f6873 	eorseq	r6, pc, r3, ror r8	; <UNPREDICTABLE>

08003bfa <Code_914>:
 8003bfa:	4813      	ldr	r0, [pc, #76]	; (8003c48 <Code_915+0x34>)
 8003bfc:	f04f 6101 	mov.w	r1, #135266304	; 0x8100000
 8003c00:	e00b      	b.n	8003c1a <Code_915+0x6>

08003c02 <Dictionary_915>:
 8003c02:	08003c58 	stmdaeq	r0, {r3, r4, r6, sl, fp, ip, sp}
 8003c06:	610a0000 	mrsvs	r0, (UNDEF: 10)
 8003c0a:	69726464 	ldmdbvs	r2!, {r2, r5, r6, sl, sp, lr}^
 8003c0e:	6d61726e 	sfmvs	f7, 2, [r1, #-440]!	; 0xfffffe48
 8003c12:	 			; <UNDEFINED> instruction: 0xf04f003f

08003c14 <Code_915>:
 8003c14:	f04f 5010 	mov.w	r0, #603979776	; 0x24000000
 8003c18:	490e      	ldr	r1, [pc, #56]	; (8003c54 <Code_915+0x40>)
 8003c1a:	4286      	cmp	r6, r0
 8003c1c:	d302      	bcc.n	8003c24 <Code_915+0x10>
 8003c1e:	428e      	cmp	r6, r1
 8003c20:	41b6      	sbcs	r6, r6
 8003c22:	4770      	bx	lr
 8003c24:	2600      	movs	r6, #0
 8003c26:	4770      	bx	lr
 8003c28:	2407ffd0 	strcs	pc, [r7], #-4048	; 0xfffff030
 8003c2c:	24000018 	strcs	r0, [r0], #-24	; 0xffffffe8
 8003c30:	2407ffd4 	strcs	pc, [r7], #-4052	; 0xfffff02c
 8003c34:	2407ffd8 	strcs	pc, [r7], #-4056	; 0xfffff028
 8003c38:	2400001c 	strcs	r0, [r0], #-28	; 0xffffffe4
 8003c3c:	2407ffd4 	strcs	pc, [r7], #-4052	; 0xfffff02c
 8003c40:	2407ffd0 	strcs	pc, [r7], #-4048	; 0xfffff030
 8003c44:	24000808 	strcs	r0, [r0], #-2056	; 0xfffff7f8
 8003c48:	080001e4 	stmdaeq	r0, {r2, r5, r6, r7, r8}
 8003c4c:	24000014 	strcs	r0, [r0], #-20	; 0xffffffec
 8003c50:	24000010 	strcs	r0, [r0], #-16
 8003c54:	24080000 	strcs	r0, [r8], #-0

08003c58 <Dictionary_916>:
 8003c58:	08003d70 	stmdaeq	r0, {r4, r5, r6, r8, sl, fp, ip, sp}
 8003c5c:	28080000 	stmdacs	r8, {}	; <UNPREDICTABLE>
 8003c60:	61657263 	cmnvs	r5, r3, ror #4
 8003c64:	00296574 	eoreq	r6, r9, r4, ror r5

08003c68 <Code_916>:
 8003c68:	b500      	push	{lr}
 8003c6a:	f000 fdc9 	bl	8004800 <Code_1133>
 8003c6e:	2e00      	cmp	r6, #0
 8003c70:	d113      	bne.n	8003c9a <Code_916+0x32>
 8003c72:	f7ff f8fb 	bl	8002e6c <dotgaensefuesschen>
 8003c76:	335b1b1e 	cmpcc	fp, #30720	; 0x7800
 8003c7a:	43206d31 			; <UNDEFINED> instruction: 0x43206d31
 8003c7e:	74616572 	strbtvc	r6, [r1], #-1394	; 0xfffffa8e
 8003c82:	656e2065 	strbvs	r2, [lr, #-101]!	; 0xffffff9b
 8003c86:	20736465 	rsbscs	r6, r3, r5, ror #8
 8003c8a:	656d616e 	strbvs	r6, [sp, #-366]!	; 0xfffffe92
 8003c8e:	5b1b2120 	blpl	86cc116 <FlashDictionaryEnde+0x5cc116>
 8003c92:	000a6d30 	andeq	r6, sl, r0, lsr sp
 8003c96:	f001 b942 	b.w	8004f1e <Code_1262>
 8003c9a:	6838      	ldr	r0, [r7, #0]
 8003c9c:	f847 6d04 	str.w	r6, [r7, #-4]!
 8003ca0:	3f04      	subs	r7, #4
 8003ca2:	6038      	str	r0, [r7, #0]
 8003ca4:	f000 f97f 	bl	8003fa6 <Code_965>
 8003ca8:	cf40      	ldmia	r7!, {r6}
 8003caa:	2e00      	cmp	r6, #0
 8003cac:	cf40      	ldmia	r7!, {r6}
 8003cae:	d016      	beq.n	8003cde <Code_916+0x76>
 8003cb0:	6838      	ldr	r0, [r7, #0]
 8003cb2:	f847 6d04 	str.w	r6, [r7, #-4]!
 8003cb6:	3f04      	subs	r7, #4
 8003cb8:	6038      	str	r0, [r7, #0]
 8003cba:	f7ff f8d7 	bl	8002e6c <dotgaensefuesschen>
 8003cbe:	335b1b0f 	cmpcc	fp, #15360	; 0x3c00
 8003cc2:	52206d33 	eorpl	r6, r0, #3264	; 0xcc0
 8003cc6:	66656465 	strbtvs	r6, [r5], -r5, ror #8
 8003cca:	20656e69 	rsbcs	r6, r5, r9, ror #28
 8003cce:	f7ff f921 	bl	8002f14 <Code_705>
 8003cd2:	f7ff f8cb 	bl	8002e6c <dotgaensefuesschen>
 8003cd6:	5b1b2e06 	blpl	86cf4f6 <FlashDictionaryEnde+0x5cf4f6>
 8003cda:	00206d30 	eoreq	r6, r0, r0, lsr sp
 8003cde:	f7ff fe26 	bl	800392e <Code_871>
 8003ce2:	4898      	ldr	r0, [pc, #608]	; (8003f44 <Code_960+0x28>)
 8003ce4:	6800      	ldr	r0, [r0, #0]
 8003ce6:	f04f 5110 	mov.w	r1, #603979776	; 0x24000000
 8003cea:	4288      	cmp	r0, r1
 8003cec:	d227      	bcs.n	8003d3e <create_ram>
 8003cee:	4896      	ldr	r0, [pc, #600]	; (8003f48 <Code_960+0x2c>)
 8003cf0:	f04f 0100 	mov.w	r1, #0
 8003cf4:	6001      	str	r1, [r0, #0]
 8003cf6:	f7ff fe2f 	bl	8003958 <Code_873>
 8003cfa:	f847 6d04 	str.w	r6, [r7, #-4]!
 8003cfe:	261c      	movs	r6, #28
 8003d00:	f7ff feb4 	bl	8003a6c <Code_897>
 8003d04:	f000 fa0b 	bl	800411e <Code_985>
 8003d08:	f847 6d04 	str.w	r6, [r7, #-4]!
 8003d0c:	2606      	movs	r6, #6
 8003d0e:	f7ff fead 	bl	8003a6c <Code_897>
 8003d12:	f7fd f995 	bl	8001040 <Code_210>
 8003d16:	f7ff fe76 	bl	8003a06 <Code_889>
 8003d1a:	488c      	ldr	r0, [pc, #560]	; (8003f4c <Code_960+0x30>)
 8003d1c:	6801      	ldr	r1, [r0, #0]
 8003d1e:	680a      	ldr	r2, [r1, #0]
 8003d20:	f04f 33ff 	mov.w	r3, #4294967295	; 0xffffffff
 8003d24:	429a      	cmp	r2, r3
 8003d26:	d107      	bne.n	8003d38 <Code_916+0xd0>
 8003d28:	4a86      	ldr	r2, [pc, #536]	; (8003f44 <Code_960+0x28>)
 8003d2a:	6813      	ldr	r3, [r2, #0]
 8003d2c:	6011      	str	r1, [r2, #0]
 8003d2e:	f847 6d04 	str.w	r6, [r7, #-4]!
 8003d32:	f7ff fe4f 	bl	80039d4 <Code_885>
 8003d36:	6013      	str	r3, [r2, #0]
 8003d38:	6006      	str	r6, [r0, #0]
 8003d3a:	cf40      	ldmia	r7!, {r6}
 8003d3c:	e013      	b.n	8003d66 <create_ende>

08003d3e <create_ram>:
 8003d3e:	f000 f9ee 	bl	800411e <Code_985>
 8003d42:	4882      	ldr	r0, [pc, #520]	; (8003f4c <Code_960+0x30>)
 8003d44:	f847 6d04 	str.w	r6, [r7, #-4]!
 8003d48:	6806      	ldr	r6, [r0, #0]
 8003d4a:	f7ff fe43 	bl	80039d4 <Code_885>
 8003d4e:	f847 6d04 	str.w	r6, [r7, #-4]!
 8003d52:	f64f 76ff 	movw	r6, #65535	; 0xffff
 8003d56:	f7ff fe1b 	bl	8003990 <Code_879>
 8003d5a:	487c      	ldr	r0, [pc, #496]	; (8003f4c <Code_960+0x30>)
 8003d5c:	0031      	movs	r1, r6
 8003d5e:	cf40      	ldmia	r7!, {r6}
 8003d60:	6001      	str	r1, [r0, #0]
 8003d62:	f7ff fe50 	bl	8003a06 <Code_889>

08003d66 <create_ende>:
 8003d66:	4877      	ldr	r0, [pc, #476]	; (8003f44 <Code_960+0x28>)
 8003d68:	6801      	ldr	r1, [r0, #0]
 8003d6a:	4879      	ldr	r0, [pc, #484]	; (8003f50 <Code_960+0x34>)
 8003d6c:	6001      	str	r1, [r0, #0]
 8003d6e:	bd00      	pop	{pc}

08003d70 <Dictionary_936>:
 8003d70:	08003d88 	stmdaeq	r0, {r3, r7, r8, sl, fp, ip, sp}
 8003d74:	76080000 	strvc	r0, [r8], -r0
 8003d78:	61697261 	cmnvs	r9, r1, ror #4
 8003d7c:	00656c62 	rsbeq	r6, r5, r2, ror #24

08003d80 <Code_936>:
 8003d80:	f847 6d04 	str.w	r6, [r7, #-4]!
 8003d84:	2601      	movs	r6, #1
 8003d86:	e013      	b.n	8003db0 <Code_942>

08003d88 <Dictionary_939>:
 8003d88:	08003da0 	stmdaeq	r0, {r5, r7, r8, sl, fp, ip, sp}
 8003d8c:	32090000 	andcc	r0, r9, #0
 8003d90:	69726176 	ldmdbvs	r2!, {r1, r2, r4, r5, r6, r8, sp, lr}^
 8003d94:	656c6261 	strbvs	r6, [ip, #-609]!	; 0xfffffd9f

08003d98 <Code_939>:
 8003d98:	f847 6d04 	str.w	r6, [r7, #-4]!
 8003d9c:	2602      	movs	r6, #2
 8003d9e:	e007      	b.n	8003db0 <Code_942>

08003da0 <Dictionary_942>:
 8003da0:	08003e12 	stmdaeq	r0, {r1, r4, r9, sl, fp, ip, sp}
 8003da4:	6e090000 	cdpvs	0, 0, cr0, cr9, cr0, {0}
 8003da8:	69726176 	ldmdbvs	r2!, {r1, r2, r4, r5, r6, r8, sp, lr}^
 8003dac:	656c6261 	strbvs	r6, [ip, #-609]!	; 0xfffffd9f

08003db0 <Code_942>:
 8003db0:	b500      	push	{lr}
 8003db2:	f7ff ff59 	bl	8003c68 <Code_916>
 8003db6:	4863      	ldr	r0, [pc, #396]	; (8003f44 <Code_960+0x28>)
 8003db8:	6801      	ldr	r1, [r0, #0]
 8003dba:	f04f 5210 	mov.w	r2, #603979776	; 0x24000000
 8003dbe:	4291      	cmp	r1, r2
 8003dc0:	d218      	bcs.n	8003df4 <variable_ram>
 8003dc2:	200f      	movs	r0, #15
 8003dc4:	4006      	ands	r6, r0
 8003dc6:	00b2      	lsls	r2, r6, #2
 8003dc8:	f000 f84c 	bl	8003e64 <prepare_var_buf_flash>
 8003dcc:	0030      	movs	r0, r6
 8003dce:	cf40      	ldmia	r7!, {r6}
 8003dd0:	0002      	movs	r2, r0
 8003dd2:	2800      	cmp	r0, #0
 8003dd4:	d005      	beq.n	8003de2 <Code_942+0x32>
 8003dd6:	600e      	str	r6, [r1, #0]
 8003dd8:	3104      	adds	r1, #4
 8003dda:	f7ff fdfb 	bl	80039d4 <Code_885>
 8003dde:	3801      	subs	r0, #1
 8003de0:	d1f9      	bne.n	8003dd6 <Code_942+0x26>
 8003de2:	f847 6d04 	str.w	r6, [r7, #-4]!
 8003de6:	2680      	movs	r6, #128	; 0x80
 8003de8:	4316      	orrs	r6, r2
 8003dea:	f7ff fd73 	bl	80038d4 <Code_867>
 8003dee:	f7ff fd3a 	bl	8003866 <Code_862>
 8003df2:	bd00      	pop	{pc}

08003df4 <variable_ram>:
 8003df4:	f000 f855 	bl	8003ea2 <prepare_var_buf_ram>
 8003df8:	0030      	movs	r0, r6
 8003dfa:	cf40      	ldmia	r7!, {r6}
 8003dfc:	2800      	cmp	r0, #0
 8003dfe:	d003      	beq.n	8003e08 <finish_var_buf_ram>
 8003e00:	f7ff fde8 	bl	80039d4 <Code_885>
 8003e04:	3801      	subs	r0, #1
 8003e06:	d1fb      	bne.n	8003e00 <variable_ram+0xc>

08003e08 <finish_var_buf_ram>:
 8003e08:	f7ff fc7f 	bl	800370a <Code_833>
 8003e0c:	f7ff fd2b 	bl	8003866 <Code_862>
 8003e10:	bd00      	pop	{pc}

08003e12 <Dictionary_947>:
 8003e12:	08003ed6 	stmdaeq	r0, {r1, r2, r4, r6, r7, r9, sl, fp, ip, sp}
 8003e16:	62070000 	andvs	r0, r7, #0
 8003e1a:	65666675 	strbvs	r6, [r6, #-1653]!	; 0xfffff98b
 8003e1e:	 	strlt	r3, [r0, #-2674]	; 0xfffff58e

08003e20 <Code_947>:
 8003e20:	b500      	push	{lr}
 8003e22:	f7ff ff21 	bl	8003c68 <Code_916>
 8003e26:	2001      	movs	r0, #1
 8003e28:	4030      	ands	r0, r6
 8003e2a:	1836      	adds	r6, r6, r0
 8003e2c:	2002      	movs	r0, #2
 8003e2e:	4030      	ands	r0, r6
 8003e30:	1836      	adds	r6, r6, r0
 8003e32:	4844      	ldr	r0, [pc, #272]	; (8003f44 <Code_960+0x28>)
 8003e34:	6801      	ldr	r1, [r0, #0]
 8003e36:	f04f 5210 	mov.w	r2, #603979776	; 0x24000000
 8003e3a:	4291      	cmp	r1, r2
 8003e3c:	d20d      	bcs.n	8003e5a <rambuffer_ram>
 8003e3e:	0032      	movs	r2, r6
 8003e40:	f000 f810 	bl	8003e64 <prepare_var_buf_flash>
 8003e44:	f7ff fdc6 	bl	80039d4 <Code_885>
 8003e48:	f847 6d04 	str.w	r6, [r7, #-4]!
 8003e4c:	f240 1640 	movw	r6, #320	; 0x140
 8003e50:	f7ff fd40 	bl	80038d4 <Code_867>
 8003e54:	f7ff fd07 	bl	8003866 <Code_862>
 8003e58:	bd00      	pop	{pc}

08003e5a <rambuffer_ram>:
 8003e5a:	f000 f822 	bl	8003ea2 <prepare_var_buf_ram>
 8003e5e:	f7ff fe05 	bl	8003a6c <Code_897>
 8003e62:	e7d1      	b.n	8003e08 <finish_var_buf_ram>

08003e64 <prepare_var_buf_flash>:
 8003e64:	b500      	push	{lr}
 8003e66:	483b      	ldr	r0, [pc, #236]	; (8003f54 <Code_960+0x38>)
 8003e68:	6801      	ldr	r1, [r0, #0]
 8003e6a:	1a89      	subs	r1, r1, r2
 8003e6c:	4a3a      	ldr	r2, [pc, #232]	; (8003f58 <Code_960+0x3c>)
 8003e6e:	4291      	cmp	r1, r2
 8003e70:	d210      	bcs.n	8003e94 <prepare_var_buf_flash+0x30>
 8003e72:	f7fe fffb 	bl	8002e6c <dotgaensefuesschen>
 8003e76:	335b1b18 	cmpcc	fp, #24, 22	; 0x6000
 8003e7a:	6f4e6d31 	svcvs	0x004e6d31
 8003e7e:	6e652074 	mcrvs	0, 3, r2, cr5, cr4, {3}
 8003e82:	6867756f 	stmdavs	r7!, {r0, r1, r2, r3, r5, r6, r8, sl, ip, sp, lr}^
 8003e86:	4d415220 	sfmmi	f5, 2, [r1, #-128]	; 0xffffff80
 8003e8a:	6d305b1b 	fldmdbxvs	r0!, {d5-d17}	;@ Deprecated
 8003e8e:	f001000a 			; <UNDEFINED> instruction: 0xf001000a
 8003e92:	b845      			; <UNDEFINED> instruction: 0xb845
 8003e94:	6001      	str	r1, [r0, #0]
 8003e96:	f847 6d04 	str.w	r6, [r7, #-4]!
 8003e9a:	000e      	movs	r6, r1
 8003e9c:	f7ff fa90 	bl	80033c0 <Code_771>
 8003ea0:	e012      	b.n	8003ec8 <bx_lr_komma>

08003ea2 <prepare_var_buf_ram>:
 8003ea2:	b500      	push	{lr}
 8003ea4:	f000 f93b 	bl	800411e <Code_985>
 8003ea8:	2002      	movs	r0, #2
 8003eaa:	4006      	ands	r6, r0
 8003eac:	cf40      	ldmia	r7!, {r6}
 8003eae:	d101      	bne.n	8003eb4 <prepare_var_buf_ram+0x12>
 8003eb0:	f7ff fd60 	bl	8003974 <nop_hkomma>
 8003eb4:	f847 6d04 	str.w	r6, [r7, #-4]!
 8003eb8:	4e28      	ldr	r6, [pc, #160]	; (8003f5c <Code_960+0x40>)
 8003eba:	f7ff fd99 	bl	80039f0 <Code_888>
 8003ebe:	f847 6d04 	str.w	r6, [r7, #-4]!
 8003ec2:	4e27      	ldr	r6, [pc, #156]	; (8003f60 <Code_960+0x44>)
 8003ec4:	f7ff fd94 	bl	80039f0 <Code_888>

08003ec8 <bx_lr_komma>:
 8003ec8:	f847 6d04 	str.w	r6, [r7, #-4]!
 8003ecc:	f244 7670 	movw	r6, #18288	; 0x4770
 8003ed0:	f7ff fd5e 	bl	8003990 <Code_879>
 8003ed4:	bd00      	pop	{pc}

08003ed6 <Dictionary_958>:
 8003ed6:	08003f06 	stmdaeq	r0, {r1, r2, r8, r9, sl, fp, ip, sp}
 8003eda:	640f0000 	strvs	r0, [pc], #-0	; 8003ee2 <Dictionary_958+0xc>
 8003ede:	69746369 	ldmdbvs	r4!, {r0, r3, r5, r6, r8, r9, sp, lr}^
 8003ee2:	72616e6f 	rsbvc	r6, r1, #1776	; 0x6f0
 8003ee6:	61747379 	cmnvs	r4, r9, ror r3
 8003eea:	 	ldmdami	r5, {r1, r4, r5, r6, sl, ip, sp, lr}

08003eec <Code_958>:
 8003eec:	4815      	ldr	r0, [pc, #84]	; (8003f44 <Code_960+0x28>)
 8003eee:	6800      	ldr	r0, [r0, #0]
 8003ef0:	f04f 5110 	mov.w	r1, #603979776	; 0x24000000
 8003ef4:	f847 6d04 	str.w	r6, [r7, #-4]!
 8003ef8:	4288      	cmp	r0, r1
 8003efa:	d201      	bcs.n	8003f00 <Code_958+0x14>
 8003efc:	4e19      	ldr	r6, [pc, #100]	; (8003f64 <Code_960+0x48>)
 8003efe:	4770      	bx	lr
 8003f00:	4e12      	ldr	r6, [pc, #72]	; (8003f4c <Code_960+0x30>)
 8003f02:	6836      	ldr	r6, [r6, #0]
 8003f04:	4770      	bx	lr

08003f06 <Dictionary_960>:
 8003f06:	08003f68 	stmdaeq	r0, {r3, r5, r6, r8, r9, sl, fp, ip, sp}
 8003f0a:	640e0000 	strvs	r0, [lr], #-0
 8003f0e:	69746369 	ldmdbvs	r4!, {r0, r3, r5, r6, r8, r9, sp, lr}^
 8003f12:	72616e6f 	rsbvc	r6, r1, #1776	; 0x6f0
 8003f16:	78656e79 	stmdavc	r5!, {r0, r3, r4, r5, r6, r9, sl, fp, sp, lr}^
 8003f1a:	 	strlt	r0, [r3, #-116]	; 0xffffff8c

08003f1c <Code_960>:
 8003f1c:	b503      	push	{r0, r1, lr}
 8003f1e:	6831      	ldr	r1, [r6, #0]
 8003f20:	f04f 30ff 	mov.w	r0, #4294967295	; 0xffffffff
 8003f24:	4281      	cmp	r1, r0
 8003f26:	d007      	beq.n	8003f38 <Code_960+0x1c>
 8003f28:	7988      	ldrb	r0, [r1, #6]
 8003f2a:	28ff      	cmp	r0, #255	; 0xff
 8003f2c:	d004      	beq.n	8003f38 <Code_960+0x1c>
 8003f2e:	000e      	movs	r6, r1
 8003f30:	f847 6d04 	str.w	r6, [r7, #-4]!
 8003f34:	2600      	movs	r6, #0
 8003f36:	bd03      	pop	{r0, r1, pc}
 8003f38:	f847 6d04 	str.w	r6, [r7, #-4]!
 8003f3c:	2600      	movs	r6, #0
 8003f3e:	43f6      	mvns	r6, r6
 8003f40:	bd03      	pop	{r0, r1, pc}
 8003f42:	ffd00000 			; <UNDEFINED> instruction: 0xffd00000
 8003f46:	00182407 	andseq	r2, r8, r7, lsl #8
 8003f4a:	ffd42400 			; <UNDEFINED> instruction: 0xffd42400
 8003f4e:	000c2407 	andeq	r2, ip, r7, lsl #8
 8003f52:	001c2400 	andseq	r2, ip, r0, lsl #8
 8003f56:	08082400 	stmdaeq	r8, {sl, sp}
 8003f5a:	603e2400 	eorsvs	r2, lr, r0, lsl #8
 8003f5e:	36023f04 	strcc	r3, [r2], -r4, lsl #30
 8003f62:	01e4467e 	mvneq	r4, lr, ror r6
 8003f66:	 	svccc	0x009a0800

08003f68 <Dictionary_964>:
 8003f68:	08003f9a 	stmdaeq	r0, {r1, r3, r4, r7, r8, r9, sl, fp, ip, sp}
 8003f6c:	730a0000 	movwvc	r0, #40960	; 0xa000
 8003f70:	7370696b 	cmnvc	r0, #1753088	; 0x1ac000
 8003f74:	6e697274 	mcrvs	2, 3, r7, cr9, cr4, {3}
 8003f78:	 	ldmdavc	r1!, {r0, r1, r2, r5, r6}

08003f7a <Code_964>:
 8003f7a:	7831      	ldrb	r1, [r6, #0]
 8003f7c:	3101      	adds	r1, #1
 8003f7e:	2201      	movs	r2, #1
 8003f80:	400a      	ands	r2, r1
 8003f82:	1889      	adds	r1, r1, r2
 8003f84:	1876      	adds	r6, r6, r1
 8003f86:	4770      	bx	lr

08003f88 <skipstring>:
 8003f88:	b406      	push	{r1, r2}
 8003f8a:	7801      	ldrb	r1, [r0, #0]
 8003f8c:	3101      	adds	r1, #1
 8003f8e:	2201      	movs	r2, #1
 8003f90:	400a      	ands	r2, r1
 8003f92:	1889      	adds	r1, r1, r2
 8003f94:	1840      	adds	r0, r0, r1
 8003f96:	bc06      	pop	{r1, r2}
 8003f98:	4770      	bx	lr

08003f9a <Dictionary_965>:
 8003f9a:	08003fac 	stmdaeq	r0, {r2, r3, r5, r7, r8, r9, sl, fp, ip, sp}
 8003f9e:	66040000 	strvs	r0, [r4], -r0
 8003fa2:	00646e69 	rsbeq	r6, r4, r9, ror #28

08003fa6 <Code_965>:
 8003fa6:	4830      	ldr	r0, [pc, #192]	; (8004068 <find_not_found+0x1a>)
 8003fa8:	6800      	ldr	r0, [r0, #0]
 8003faa:	4687      	mov	pc, r0

08003fac <Dictionary_966>:
 8003fac:	08003fc8 	stmdaeq	r0, {r3, r6, r7, r8, r9, sl, fp, ip, sp}
 8003fb0:	68090081 	stmdavs	r9, {r0, r7}
 8003fb4:	2d6b6f6f 	stclcs	15, cr6, [fp, #-444]!	; 0xfffffe44
 8003fb8:	646e6966 	strbtvs	r6, [lr], #-2406	; 0xfffff69a

08003fbc <Code_966>:
 8003fbc:	f847 6d04 	str.w	r6, [r7, #-4]!
 8003fc0:	4e2a      	ldr	r6, [pc, #168]	; (800406c <find_not_found+0x1e>)
 8003fc2:	4770      	bx	lr
 8003fc4:	08003fd6 	stmdaeq	r0, {r1, r2, r4, r6, r7, r8, r9, sl, fp, ip, sp}

08003fc8 <Dictionary_969>:
 8003fc8:	08004070 	stmdaeq	r0, {r4, r5, r6, lr}
 8003fcc:	28060000 	stmdacs	r6, {}	; <UNPREDICTABLE>
 8003fd0:	646e6966 	strbtvs	r6, [lr], #-2406	; 0xfffff69a
 8003fd4:	 	ldrlt	r0, [r0, #-41]!	; 0xffffffd7

08003fd6 <Code_969>:
 8003fd6:	b530      	push	{r4, r5, lr}
 8003fd8:	2000      	movs	r0, #0
 8003fda:	2100      	movs	r1, #0
 8003fdc:	b403      	push	{r0, r1}
 8003fde:	0035      	movs	r5, r6
 8003fe0:	cf40      	ldmia	r7!, {r6}
 8003fe2:	0034      	movs	r4, r6
 8003fe4:	cf40      	ldmia	r7!, {r6}
 8003fe6:	f7ff ff81 	bl	8003eec <Code_958>
 8003fea:	f64f 70ff 	movw	r0, #65535	; 0xffff
 8003fee:	88b1      	ldrh	r1, [r6, #4]
 8003ff0:	4288      	cmp	r0, r1
 8003ff2:	d01e      	beq.n	8004032 <Code_969+0x5c>
 8003ff4:	79b1      	ldrb	r1, [r6, #6]
 8003ff6:	42a9      	cmp	r1, r5
 8003ff8:	d11b      	bne.n	8004032 <Code_969+0x5c>
 8003ffa:	1df0      	adds	r0, r6, #7
 8003ffc:	3901      	subs	r1, #1
 8003ffe:	5c42      	ldrb	r2, [r0, r1]
 8004000:	5c63      	ldrb	r3, [r4, r1]
 8004002:	2a41      	cmp	r2, #65	; 0x41
 8004004:	d302      	bcc.n	800400c <Code_969+0x36>
 8004006:	2a5b      	cmp	r2, #91	; 0x5b
 8004008:	bf38      	it	cc
 800400a:	3220      	addcc	r2, #32
 800400c:	2b41      	cmp	r3, #65	; 0x41
 800400e:	d302      	bcc.n	8004016 <Code_969+0x40>
 8004010:	2b5b      	cmp	r3, #91	; 0x5b
 8004012:	bf38      	it	cc
 8004014:	3320      	addcc	r3, #32
 8004016:	429a      	cmp	r2, r3
 8004018:	d10b      	bne.n	8004032 <Code_969+0x5c>
 800401a:	2900      	cmp	r1, #0
 800401c:	d1ee      	bne.n	8003ffc <Code_969+0x26>
 800401e:	b002      	add	sp, #8
 8004020:	1db0      	adds	r0, r6, #6
 8004022:	f7ff ffb1 	bl	8003f88 <skipstring>
 8004026:	88b1      	ldrh	r1, [r6, #4]
 8004028:	b403      	push	{r0, r1}
 800402a:	f04f 5010 	mov.w	r0, #603979776	; 0x24000000
 800402e:	4286      	cmp	r6, r0
 8004030:	d207      	bcs.n	8004042 <Code_969+0x6c>
 8004032:	6836      	ldr	r6, [r6, #0]
 8004034:	f04f 30ff 	mov.w	r0, #4294967295	; 0xffffffff
 8004038:	4286      	cmp	r6, r0
 800403a:	d002      	beq.n	8004042 <Code_969+0x6c>
 800403c:	79b0      	ldrb	r0, [r6, #6]
 800403e:	28ff      	cmp	r0, #255	; 0xff
 8004040:	d1d3      	bne.n	8003fea <Code_969+0x14>
 8004042:	bc03      	pop	{r0, r1}
 8004044:	0006      	movs	r6, r0
 8004046:	f847 6d04 	str.w	r6, [r7, #-4]!
 800404a:	000e      	movs	r6, r1
 800404c:	bd30      	pop	{r4, r5, pc}

0800404e <find_not_found>:
 800404e:	b500      	push	{lr}
 8004050:	0031      	movs	r1, r6
 8004052:	6838      	ldr	r0, [r7, #0]
 8004054:	b403      	push	{r0, r1}
 8004056:	f7ff ffa6 	bl	8003fa6 <Code_965>
 800405a:	bc03      	pop	{r0, r1}
 800405c:	683a      	ldr	r2, [r7, #0]
 800405e:	2a00      	cmp	r2, #0
 8004060:	d101      	bne.n	8004066 <find_not_found+0x18>
 8004062:	f000 ff02 	bl	8004e6a <not_found_addr_r0_len_r1>
 8004066:	bd00      	pop	{pc}
 8004068:	2407ffcc 	strcs	pc, [r7], #-4044	; 0xfffff034
 800406c:	2407ffcc 	strcs	pc, [r7], #-4044	; 0xfffff034

08004070 <Dictionary_976>:
 8004070:	080040d8 	stmdaeq	r0, {r3, r4, r6, r7, lr}
 8004074:	63060000 	movwvs	r0, #24576	; 0x6000
 8004078:	706d756a 	rsbvc	r7, sp, sl, ror #10
 800407c:	 	eorseq	r0, r2, ip, lsr #32

0800407e <Code_976>:
 800407e:	0032      	movs	r2, r6
 8004080:	cf40      	ldmia	r7!, {r6}
 8004082:	0031      	movs	r1, r6
 8004084:	cf40      	ldmia	r7!, {r6}
 8004086:	1b8b      	subs	r3, r1, r6
 8004088:	3b04      	subs	r3, #4
 800408a:	f06f 01fe 	mvn.w	r1, #254	; 0xfe
 800408e:	4019      	ands	r1, r3
 8004090:	2900      	cmp	r1, #0
 8004092:	d013      	beq.n	80040bc <jump_too_far+0x20>
 8004094:	f06f 00ff 	mvn.w	r0, #255	; 0xff
 8004098:	4281      	cmp	r1, r0
 800409a:	d00f      	beq.n	80040bc <jump_too_far+0x20>

0800409c <jump_too_far>:
 800409c:	f7fe fee6 	bl	8002e6c <dotgaensefuesschen>
 80040a0:	335b1b16 	cmpcc	fp, #22528	; 0x5800
 80040a4:	754a6d31 	strbvc	r6, [sl, #-3377]	; 0xfffff2cf
 80040a8:	7420706d 	strtvc	r7, [r0], #-109	; 0xffffff93
 80040ac:	66206f6f 	strtvs	r6, [r0], -pc, ror #30
 80040b0:	5b1b7261 	blpl	86e0a3c <FlashDictionaryEnde+0x5e0a3c>
 80040b4:	000a6d30 	andeq	r6, sl, r0, lsr sp
 80040b8:	f000 bf31 	b.w	8004f1e <Code_1262>
 80040bc:	105b      	asrs	r3, r3, #1
 80040be:	21ff      	movs	r1, #255	; 0xff
 80040c0:	400b      	ands	r3, r1
 80040c2:	4313      	orrs	r3, r2
 80040c4:	0030      	movs	r0, r6
 80040c6:	001e      	movs	r6, r3

080040c8 <sprungbefehl_einfuegen>:
 80040c8:	b500      	push	{lr}
 80040ca:	4ace      	ldr	r2, [pc, #824]	; (8004404 <Code_1039+0xe>)
 80040cc:	6813      	ldr	r3, [r2, #0]
 80040ce:	6010      	str	r0, [r2, #0]
 80040d0:	f7ff fc5e 	bl	8003990 <Code_879>
 80040d4:	6013      	str	r3, [r2, #0]
 80040d6:	bd00      	pop	{pc}

080040d8 <Dictionary_980>:
 80040d8:	08004112 	stmdaeq	r0, {r1, r4, r8, lr}
 80040dc:	6a050000 	bvs	81440e4 <FlashDictionaryEnde+0x440e4>
 80040e0:	2c706d75 	ldclcs	13, cr6, [r0], #-468	; 0xfffffe2c

080040e4 <Code_980>:
 80040e4:	0031      	movs	r1, r6
 80040e6:	cf40      	ldmia	r7!, {r6}
 80040e8:	0030      	movs	r0, r6
 80040ea:	cf40      	ldmia	r7!, {r6}
 80040ec:	1a0b      	subs	r3, r1, r0
 80040ee:	3b04      	subs	r3, #4
 80040f0:	49c5      	ldr	r1, [pc, #788]	; (8004408 <Code_1039+0x12>)
 80040f2:	4019      	ands	r1, r3
 80040f4:	2900      	cmp	r1, #0
 80040f6:	d002      	beq.n	80040fe <Code_980+0x1a>
 80040f8:	4ac4      	ldr	r2, [pc, #784]	; (800440c <Code_1039+0x16>)
 80040fa:	4291      	cmp	r1, r2
 80040fc:	d1ce      	bne.n	800409c <jump_too_far>
 80040fe:	105b      	asrs	r3, r3, #1
 8004100:	f240 72ff 	movw	r2, #2047	; 0x7ff
 8004104:	4013      	ands	r3, r2
 8004106:	f453 4360 	orrs.w	r3, r3, #57344	; 0xe000
 800410a:	f847 6d04 	str.w	r6, [r7, #-4]!
 800410e:	001e      	movs	r6, r3
 8004110:	e7da      	b.n	80040c8 <sprungbefehl_einfuegen>

08004112 <Dictionary_985>:
 8004112:	08004128 	stmdaeq	r0, {r3, r5, r8, lr}
 8004116:	68040000 	stmdavs	r4, {}	; <UNPREDICTABLE>
 800411a:	00657265 	rsbeq	r7, r5, r5, ror #4

0800411e <Code_985>:
 800411e:	f847 6d04 	str.w	r6, [r7, #-4]!
 8004122:	4eb8      	ldr	r6, [pc, #736]	; (8004404 <Code_1039+0xe>)
 8004124:	6836      	ldr	r6, [r6, #0]
 8004126:	4770      	bx	lr

08004128 <Dictionary_987>:
 8004128:	08004256 	stmdaeq	r0, {r1, r2, r4, r6, r9, lr}
 800412c:	660d0000 	strvs	r0, [sp], -r0
 8004130:	6873616c 	ldmdavs	r3!, {r2, r3, r5, r6, r8, sp, lr}^
 8004134:	2d726176 	ldfcse	f6, [r2, #-472]!	; 0xfffffe28
 8004138:	65726568 	ldrbvs	r6, [r2, #-1384]!	; 0xfffffa98

0800413c <Code_987>:
 800413c:	f847 6d04 	str.w	r6, [r7, #-4]!
 8004140:	4eb3      	ldr	r6, [pc, #716]	; (8004410 <Code_1039+0x1a>)
 8004142:	6836      	ldr	r6, [r6, #0]
 8004144:	4770      	bx	lr

08004146 <nullprobekomma>:
 8004146:	b500      	push	{lr}
 8004148:	f847 6d04 	str.w	r6, [r7, #-4]!
 800414c:	f642 6600 	movw	r6, #11776	; 0x2e00
 8004150:	f7ff fc1e 	bl	8003990 <Code_879>
 8004154:	f7ff fc12 	bl	800397c <drop_hkomma>
 8004158:	bd00      	pop	{pc}

0800415a <branch_r>:
 800415a:	e7e0      	b.n	800411e <Code_985>

0800415c <r_branch_jne>:
 800415c:	b500      	push	{lr}
 800415e:	f000 f83a 	bl	80041d6 <branch_v>
 8004162:	6839      	ldr	r1, [r7, #0]
 8004164:	603e      	str	r6, [r7, #0]
 8004166:	460e      	mov	r6, r1
 8004168:	f847 6d04 	str.w	r6, [r7, #-4]!
 800416c:	f24d 1600 	movw	r6, #53504	; 0xd100
 8004170:	f7ff ff85 	bl	800407e <Code_976>
 8004174:	bd00      	pop	{pc}

08004176 <r_branch_jvc>:
 8004176:	b500      	push	{lr}
 8004178:	f000 f82d 	bl	80041d6 <branch_v>
 800417c:	6839      	ldr	r1, [r7, #0]
 800417e:	603e      	str	r6, [r7, #0]
 8004180:	460e      	mov	r6, r1
 8004182:	f847 6d04 	str.w	r6, [r7, #-4]!
 8004186:	f24d 7600 	movw	r6, #55040	; 0xd700
 800418a:	f7ff ff78 	bl	800407e <Code_976>
 800418e:	bd00      	pop	{pc}

08004190 <r_nullbranch>:
 8004190:	b500      	push	{lr}
 8004192:	f7ff ffd8 	bl	8004146 <nullprobekomma>
 8004196:	f000 f81e 	bl	80041d6 <branch_v>
 800419a:	6839      	ldr	r1, [r7, #0]
 800419c:	603e      	str	r6, [r7, #0]
 800419e:	460e      	mov	r6, r1
 80041a0:	f847 6d04 	str.w	r6, [r7, #-4]!
 80041a4:	f24d 0600 	movw	r6, #53248	; 0xd000
 80041a8:	f7ff ff69 	bl	800407e <Code_976>
 80041ac:	bd00      	pop	{pc}

080041ae <r_branch>:
 80041ae:	b500      	push	{lr}
 80041b0:	f000 f811 	bl	80041d6 <branch_v>
 80041b4:	6839      	ldr	r1, [r7, #0]
 80041b6:	603e      	str	r6, [r7, #0]
 80041b8:	460e      	mov	r6, r1
 80041ba:	f7ff ff93 	bl	80040e4 <Code_980>
 80041be:	bd00      	pop	{pc}

080041c0 <nullbranch_v>:
 80041c0:	b500      	push	{lr}
 80041c2:	f7ff ffc0 	bl	8004146 <nullprobekomma>
 80041c6:	f7ff ffaa 	bl	800411e <Code_985>
 80041ca:	f847 6d04 	str.w	r6, [r7, #-4]!
 80041ce:	2602      	movs	r6, #2
 80041d0:	f7ff fc4c 	bl	8003a6c <Code_897>
 80041d4:	bd00      	pop	{pc}

080041d6 <branch_v>:
 80041d6:	b500      	push	{lr}
 80041d8:	f7ff ffa1 	bl	800411e <Code_985>
 80041dc:	f847 6d04 	str.w	r6, [r7, #-4]!
 80041e0:	2602      	movs	r6, #2
 80041e2:	f7ff fc43 	bl	8003a6c <Code_897>
 80041e6:	bd00      	pop	{pc}

080041e8 <v_branch>:
 80041e8:	b500      	push	{lr}
 80041ea:	f7ff ff98 	bl	800411e <Code_985>
 80041ee:	f7ff ff79 	bl	80040e4 <Code_980>
 80041f2:	bd00      	pop	{pc}

080041f4 <v_nullbranch>:
 80041f4:	b500      	push	{lr}
 80041f6:	f7ff ff92 	bl	800411e <Code_985>
 80041fa:	f847 6d04 	str.w	r6, [r7, #-4]!
 80041fe:	f24d 0600 	movw	r6, #53248	; 0xd000
 8004202:	f7ff ff3c 	bl	800407e <Code_976>
 8004206:	bd00      	pop	{pc}

08004208 <v_casebranch>:
 8004208:	b500      	push	{lr}
 800420a:	f7ff ff88 	bl	800411e <Code_985>
 800420e:	f847 6d04 	str.w	r6, [r7, #-4]!
 8004212:	f24d 1600 	movw	r6, #53504	; 0xd100
 8004216:	f7ff ff32 	bl	800407e <Code_976>
 800421a:	bd00      	pop	{pc}

0800421c <allocator_nullsprungprobe>:
 800421c:	b500      	push	{lr}
 800421e:	f7fc f95b 	bl	80004d8 <expect_one_element>
 8004222:	f7fc f893 	bl	800034c <tidyup_register_allocator_5os>
 8004226:	f7fc f896 	bl	8000356 <tidyup_register_allocator_4os>
 800422a:	f7fc f899 	bl	8000360 <tidyup_register_allocator_3os>
 800422e:	6881      	ldr	r1, [r0, #8]
 8004230:	2928      	cmp	r1, #40	; 0x28
 8004232:	d101      	bne.n	8004238 <allocator_nullsprungprobe+0x1c>
 8004234:	f7fc f996 	bl	8000564 <expect_nos_in_register>
 8004238:	f7fc f98a 	bl	8000550 <expect_tos_in_register>
 800423c:	f847 6d04 	str.w	r6, [r7, #-4]!
 8004240:	f642 0600 	movw	r6, #10240	; 0x2800
 8004244:	0209      	lsls	r1, r1, #8
 8004246:	430e      	orrs	r6, r1
 8004248:	f7ff fba2 	bl	8003990 <Code_879>
 800424c:	f7fc f847 	bl	80002de <eliminiere_tos>
 8004250:	f7fc f870 	bl	8000334 <tidyup_register_allocator>
 8004254:	bd00      	pop	{pc}

08004256 <Dictionary_1011>:
 8004256:	08004282 	stmdaeq	r0, {r1, r7, r9, lr}
 800425a:	74040030 	strvc	r0, [r4], #-48	; 0xffffffd0
 800425e:	006e6568 	rsbeq	r6, lr, r8, ror #10

08004262 <Code_1011>:
 8004262:	2e05      	cmp	r6, #5
 8004264:	d101      	bne.n	800426a <Code_1011+0x8>
 8004266:	cf40      	ldmia	r7!, {r6}
 8004268:	e7be      	b.n	80041e8 <v_branch>
 800426a:	b2f1      	uxtb	r1, r6
 800426c:	2900      	cmp	r1, #0
 800426e:	d16d      	bne.n	800434c <strukturen_passen_nicht>
 8004270:	b500      	push	{lr}
 8004272:	f7ff ff54 	bl	800411e <Code_985>
 8004276:	6839      	ldr	r1, [r7, #0]
 8004278:	603e      	str	r6, [r7, #0]
 800427a:	460e      	mov	r6, r1
 800427c:	f7ff feff 	bl	800407e <Code_976>
 8004280:	bd00      	pop	{pc}

08004282 <Dictionary_1014>:
 8004282:	0800429e 	stmdaeq	r0, {r1, r2, r3, r4, r7, r9, lr}
 8004286:	65040030 	strvs	r0, [r4, #-48]	; 0xffffffd0
 800428a:	0065736c 	rsbeq	r7, r5, ip, ror #6

0800428e <Code_1014>:
 800428e:	b500      	push	{lr}
 8004290:	f000 f836 	bl	8004300 <Code_1023>
 8004294:	f7fc f9eb 	bl	800066e <Code_72>
 8004298:	f7ff ffe3 	bl	8004262 <Code_1011>
 800429c:	bd00      	pop	{pc}

0800429e <Dictionary_1015>:
 800429e:	080042f4 	stmdaeq	r0, {r2, r4, r5, r6, r7, r9, lr}
 80042a2:	69020630 	stmdbvs	r2, {r4, r5, r9, sl}
 80042a6:	 	strlt	r0, [r0, #-102]	; 0xffffff9a

080042a8 <Code_1015>:
 80042a8:	b500      	push	{lr}
 80042aa:	f7ff ff89 	bl	80041c0 <nullbranch_v>
 80042ae:	f847 6d04 	str.w	r6, [r7, #-4]!
 80042b2:	f24d 0600 	movw	r6, #53248	; 0xd000
 80042b6:	bd00      	pop	{pc}

080042b8 <struktur_if_allokator>:
 80042b8:	b500      	push	{lr}
 80042ba:	f7fc f9a0 	bl	80005fe <push_lr_nachholen>
 80042be:	f7fd fa72 	bl	80017a6 <eliminiere_tos_wenn_bmi>
 80042c2:	6a81      	ldr	r1, [r0, #40]	; 0x28
 80042c4:	2900      	cmp	r1, #0
 80042c6:	d007      	beq.n	80042d8 <struktur_if_allokator+0x20>
 80042c8:	b402      	push	{r1}
 80042ca:	f7fc f833 	bl	8000334 <tidyup_register_allocator>
 80042ce:	f7ff ff82 	bl	80041d6 <branch_v>
 80042d2:	f847 6d04 	str.w	r6, [r7, #-4]!
 80042d6:	bd40      	pop	{r6, pc}
 80042d8:	f7ff ffa0 	bl	800421c <allocator_nullsprungprobe>
 80042dc:	f7ff ff1f 	bl	800411e <Code_985>
 80042e0:	f847 6d04 	str.w	r6, [r7, #-4]!
 80042e4:	2602      	movs	r6, #2
 80042e6:	f7ff fbc1 	bl	8003a6c <Code_897>
 80042ea:	f847 6d04 	str.w	r6, [r7, #-4]!
 80042ee:	f24d 0600 	movw	r6, #53248	; 0xd000
 80042f2:	bd00      	pop	{pc}

080042f4 <Dictionary_1023>:
 80042f4:	0800430e 	stmdaeq	r0, {r1, r2, r3, r8, r9, lr}
 80042f8:	61050030 	tstvs	r5, r0, lsr r0
 80042fc:	64616568 	strbtvs	r6, [r1], #-1384	; 0xfffffa98

08004300 <Code_1023>:
 8004300:	b500      	push	{lr}
 8004302:	f7ff ff68 	bl	80041d6 <branch_v>
 8004306:	f847 6d04 	str.w	r6, [r7, #-4]!
 800430a:	2605      	movs	r6, #5
 800430c:	bd00      	pop	{pc}

0800430e <Dictionary_1026>:
 800430e:	08004328 	stmdaeq	r0, {r3, r5, r8, r9, lr}
 8004312:	72060030 	andvc	r0, r6, #48	; 0x30
 8004316:	61657065 	cmnvs	r5, r5, rrx
 800431a:	 	strlt	r0, [r0, #-116]	; 0xffffff8c

0800431c <Code_1026>:
 800431c:	b500      	push	{lr}
 800431e:	f000 f860 	bl	80043e2 <Code_1037>
 8004322:	f7ff ff9e 	bl	8004262 <Code_1011>
 8004326:	bd00      	pop	{pc}

08004328 <Dictionary_1027>:
 8004328:	08004376 	stmdaeq	r0, {r1, r2, r4, r5, r6, r8, r9, lr}
 800432c:	77050630 	smladxvc	r5, r0, r6, r0
 8004330:	656c6968 	strbvs	r6, [ip, #-2408]!	; 0xfffff698

08004334 <Code_1027>:
 8004334:	b500      	push	{lr}
 8004336:	f7ff ffb7 	bl	80042a8 <Code_1015>
 800433a:	f7fc f998 	bl	800066e <Code_72>
 800433e:	bd00      	pop	{pc}
 8004340:	b500      	push	{lr}
 8004342:	f7ff ffb9 	bl	80042b8 <struktur_if_allokator>
 8004346:	f7fc f992 	bl	800066e <Code_72>
 800434a:	bd00      	pop	{pc}

0800434c <strukturen_passen_nicht>:
 800434c:	f7fe fd8e 	bl	8002e6c <dotgaensefuesschen>
 8004350:	335b1b20 	cmpcc	fp, #32, 22	; 0x8000
 8004354:	74536d31 	ldrbvc	r6, [r3], #-3377	; 0xfffff2cf
 8004358:	74637572 	strbtvc	r7, [r3], #-1394	; 0xfffffa8e
 800435c:	73657275 	cmnvc	r5, #1342177287	; 0x50000007
 8004360:	6e6f6420 	cdpvs	4, 6, cr6, cr15, cr0, {1}
 8004364:	6d207427 	cfstrsvs	mvf7, [r0, #-156]!	; 0xffffff64
 8004368:	68637461 	stmdavs	r3!, {r0, r5, r6, sl, ip, sp, lr}^
 800436c:	6d305b1b 	fldmdbxvs	r0!, {d5-d17}	;@ Deprecated
 8004370:	f000000a 			; <UNDEFINED> instruction: 0xf000000a
 8004374:	bdd4      	pop	{r2, r4, r6, r7, pc}

08004376 <Dictionary_1029>:
 8004376:	080043d6 	stmdaeq	r0, {r1, r2, r4, r6, r7, r8, r9, lr}
 800437a:	75050630 	strvc	r0, [r5, #-1584]	; 0xfffff9d0
 800437e:	6c69746e 	cfstrdvs	mvd7, [r9], #-440	; 0xfffffe48

08004382 <Code_1029>:
 8004382:	2e01      	cmp	r6, #1
 8004384:	d1e2      	bne.n	800434c <strukturen_passen_nicht>
 8004386:	cf40      	ldmia	r7!, {r6}
 8004388:	e702      	b.n	8004190 <r_nullbranch>
 800438a:	4770      	bx	lr
 800438c:	2e01      	cmp	r6, #1
 800438e:	d1dd      	bne.n	800434c <strukturen_passen_nicht>
 8004390:	cf40      	ldmia	r7!, {r6}
 8004392:	b500      	push	{lr}
 8004394:	f7fd fa07 	bl	80017a6 <eliminiere_tos_wenn_bmi>
 8004398:	6a81      	ldr	r1, [r0, #40]	; 0x28
 800439a:	2900      	cmp	r1, #0
 800439c:	d00d      	beq.n	80043ba <Code_1029+0x38>
 800439e:	b402      	push	{r1}
 80043a0:	f7fb ffc8 	bl	8000334 <tidyup_register_allocator>
 80043a4:	f7ff ff17 	bl	80041d6 <branch_v>
 80043a8:	6839      	ldr	r1, [r7, #0]
 80043aa:	603e      	str	r6, [r7, #0]
 80043ac:	460e      	mov	r6, r1
 80043ae:	f847 6d04 	str.w	r6, [r7, #-4]!
 80043b2:	bc40      	pop	{r6}
 80043b4:	f7ff fe63 	bl	800407e <Code_976>
 80043b8:	bd00      	pop	{pc}
 80043ba:	f7ff ff2f 	bl	800421c <allocator_nullsprungprobe>
 80043be:	f7ff ff0a 	bl	80041d6 <branch_v>
 80043c2:	6839      	ldr	r1, [r7, #0]
 80043c4:	603e      	str	r6, [r7, #0]
 80043c6:	460e      	mov	r6, r1
 80043c8:	f847 6d04 	str.w	r6, [r7, #-4]!
 80043cc:	f24d 0600 	movw	r6, #53248	; 0xd000
 80043d0:	f7ff fe55 	bl	800407e <Code_976>
 80043d4:	bd00      	pop	{pc}

080043d6 <Dictionary_1037>:
 80043d6:	080043ea 	stmdaeq	r0, {r1, r3, r5, r6, r7, r8, r9, lr}
 80043da:	61050030 	tstvs	r5, r0, lsr r0
 80043de:	6e696167 	powvsez	f6, f1, f7

080043e2 <Code_1037>:
 80043e2:	2e01      	cmp	r6, #1
 80043e4:	d1b2      	bne.n	800434c <strukturen_passen_nicht>
 80043e6:	cf40      	ldmia	r7!, {r6}
 80043e8:	e6e1      	b.n	80041ae <r_branch>

080043ea <Dictionary_1039>:
 80043ea:	08004414 	stmdaeq	r0, {r2, r4, sl, lr}
 80043ee:	62050030 	andvs	r0, r5, #48	; 0x30
 80043f2:	6e696765 	cdpvs	7, 6, cr6, cr9, cr5, {3}

080043f6 <Code_1039>:
 80043f6:	b500      	push	{lr}
 80043f8:	f7ff feaf 	bl	800415a <branch_r>
 80043fc:	f847 6d04 	str.w	r6, [r7, #-4]!
 8004400:	2601      	movs	r6, #1
 8004402:	bd00      	pop	{pc}
 8004404:	2407ffd0 	strcs	pc, [r7], #-4048	; 0xfffff030
 8004408:	fffff801 			; <UNDEFINED> instruction: 0xfffff801
 800440c:	fffff800 			; <UNDEFINED> instruction: 0xfffff800
 8004410:	2400001c 	strcs	r0, [r0], #-28	; 0xffffffe4

08004414 <Dictionary_1042>:
 8004414:	0800442e 	stmdaeq	r0, {r1, r2, r3, r5, sl, lr}
 8004418:	6b010220 	blvs	8044ca0 <FlashDictionaryAnfang+0x24ca0>

0800441c <Code_1042>:
 800441c:	f847 6d04 	str.w	r6, [r7, #-4]!
 8004420:	9e02      	ldr	r6, [sp, #8]
 8004422:	4770      	bx	lr
 8004424:	f847 6d04 	str.w	r6, [r7, #-4]!
 8004428:	f649 0602 	movw	r6, #38914	; 0x9802
 800442c:	e00b      	b.n	8004446 <loop_j_allocator>

0800442e <Dictionary_1046>:
 800442e:	0800445c 	stmdaeq	r0, {r2, r3, r4, r6, sl, lr}
 8004432:	6a010220 	bvs	8044cba <FlashDictionaryAnfang+0x24cba>

08004436 <Code_1046>:
 8004436:	f847 6d04 	str.w	r6, [r7, #-4]!
 800443a:	9e00      	ldr	r6, [sp, #0]
 800443c:	4770      	bx	lr

0800443e <rfetch_allocator>:
 800443e:	f847 6d04 	str.w	r6, [r7, #-4]!
 8004442:	f649 0600 	movw	r6, #38912	; 0x9800

08004446 <loop_j_allocator>:
 8004446:	b500      	push	{lr}
 8004448:	f7fb ff3f 	bl	80002ca <befreie_tos>
 800444c:	f7fc f810 	bl	8000470 <get_free_register>
 8004450:	6003      	str	r3, [r0, #0]
 8004452:	021b      	lsls	r3, r3, #8
 8004454:	431e      	orrs	r6, r3
 8004456:	f7ff fa9b 	bl	8003990 <Code_879>
 800445a:	bd00      	pop	{pc}

0800445c <Dictionary_1050>:
 800445c:	08004488 	stmdaeq	r0, {r3, r7, sl, lr}
 8004460:	69010220 	stmdbvs	r1, {r5, r9}

08004464 <Code_1050>:
 8004464:	f847 6d04 	str.w	r6, [r7, #-4]!
 8004468:	0026      	movs	r6, r4
 800446a:	4770      	bx	lr
 800446c:	b500      	push	{lr}
 800446e:	f847 6d04 	str.w	r6, [r7, #-4]!
 8004472:	f240 0620 	movw	r6, #32
 8004476:	f7fb ff28 	bl	80002ca <befreie_tos>
 800447a:	f7fb fff9 	bl	8000470 <get_free_register>
 800447e:	6003      	str	r3, [r0, #0]
 8004480:	431e      	orrs	r6, r3
 8004482:	f7ff fa85 	bl	8003990 <Code_879>
 8004486:	bd00      	pop	{pc}

08004488 <Dictionary_1055>:
 8004488:	080044c6 	stmdaeq	r0, {r1, r2, r6, r7, sl, lr}
 800448c:	6c050030 	stcvs	0, cr0, [r5], {48}	; 0x30
 8004490:	65766165 	ldrbvs	r6, [r6, #-357]!	; 0xfffffe9b

08004494 <Code_1055>:
 8004494:	b500      	push	{lr}
 8004496:	4875      	ldr	r0, [pc, #468]	; (800466c <gemeinsame_schleifenoptimierung+0x82>)
 8004498:	6801      	ldr	r1, [r0, #0]
 800449a:	003b      	movs	r3, r7
 800449c:	3f04      	subs	r7, #4
 800449e:	681a      	ldr	r2, [r3, #0]
 80044a0:	3b04      	subs	r3, #4
 80044a2:	601a      	str	r2, [r3, #0]
 80044a4:	3308      	adds	r3, #8
 80044a6:	428b      	cmp	r3, r1
 80044a8:	d1f9      	bne.n	800449e <Code_1055+0xa>
 80044aa:	b403      	push	{r0, r1}
 80044ac:	f7ff fe93 	bl	80041d6 <branch_v>
 80044b0:	bc03      	pop	{r0, r1}
 80044b2:	0033      	movs	r3, r6
 80044b4:	cf40      	ldmia	r7!, {r6}
 80044b6:	3904      	subs	r1, #4
 80044b8:	600b      	str	r3, [r1, #0]
 80044ba:	6001      	str	r1, [r0, #0]
 80044bc:	3904      	subs	r1, #4
 80044be:	680a      	ldr	r2, [r1, #0]
 80044c0:	3201      	adds	r2, #1
 80044c2:	600a      	str	r2, [r1, #0]
 80044c4:	bd00      	pop	{pc}

080044c6 <Dictionary_1057>:
 80044c6:	080044d8 	stmdaeq	r0, {r3, r4, r6, r7, sl, lr}
 80044ca:	75060020 	strvc	r0, [r6, #-32]	; 0xffffffe0
 80044ce:	6f6f6c6e 	svcvs	0x006f6c6e
 80044d2:	 	ldclt	0, cr0, [r0], #-448	; 0xfffffe40

080044d4 <Code_1057>:
 80044d4:	bc30      	pop	{r4, r5}
 80044d6:	4770      	bx	lr

080044d8 <Dictionary_1058>:
 80044d8:	08004510 	stmdaeq	r0, {r4, r8, sl, lr}
 80044dc:	2b050030 	blcs	81445a4 <FlashDictionaryEnde+0x445a4>
 80044e0:	706f6f6c 	rsbvc	r6, pc, ip, ror #30

080044e4 <Code_1058>:
 80044e4:	2e03      	cmp	r6, #3
 80044e6:	d000      	beq.n	80044ea <Code_1058+0x6>
 80044e8:	e730      	b.n	800434c <strukturen_passen_nicht>
 80044ea:	cf40      	ldmia	r7!, {r6}
 80044ec:	b500      	push	{lr}
 80044ee:	f847 6d04 	str.w	r6, [r7, #-4]!
 80044f2:	4e5f      	ldr	r6, [pc, #380]	; (8004670 <gemeinsame_schleifenoptimierung+0x86>)
 80044f4:	f7ff f820 	bl	8003538 <Code_798>
 80044f8:	f7ff fe3d 	bl	8004176 <r_branch_jvc>
 80044fc:	e01a      	b.n	8004534 <loop_intern>

080044fe <struktur_plusloop>:
 80044fe:	f114 4400 	adds.w	r4, r4, #2147483648	; 0x80000000
 8004502:	1b64      	subs	r4, r4, r5
 8004504:	19a4      	adds	r4, r4, r6
 8004506:	cf40      	ldmia	r7!, {r6}
 8004508:	442c      	add	r4, r5
 800450a:	f1a4 4400 	sub.w	r4, r4, #2147483648	; 0x80000000
 800450e:	4770      	bx	lr

08004510 <Dictionary_1062>:
 8004510:	08004552 	stmdaeq	r0, {r1, r4, r6, r8, sl, lr}
 8004514:	6c040030 	stcvs	0, cr0, [r4], {48}	; 0x30
 8004518:	00706f6f 	rsbseq	r6, r0, pc, ror #30

0800451c <Code_1062>:
 800451c:	2e03      	cmp	r6, #3
 800451e:	d000      	beq.n	8004522 <Code_1062+0x6>
 8004520:	e714      	b.n	800434c <strukturen_passen_nicht>
 8004522:	cf40      	ldmia	r7!, {r6}
 8004524:	b500      	push	{lr}
 8004526:	f847 6d04 	str.w	r6, [r7, #-4]!
 800452a:	4e52      	ldr	r6, [pc, #328]	; (8004674 <gemeinsame_schleifenoptimierung+0x8a>)
 800452c:	f7ff f804 	bl	8003538 <Code_798>
 8004530:	f7ff fe14 	bl	800415c <r_branch_jne>

08004534 <loop_intern>:
 8004534:	f000 f94a 	bl	80047cc <spruenge_einpflegen>
 8004538:	484c      	ldr	r0, [pc, #304]	; (800466c <gemeinsame_schleifenoptimierung+0x82>)
 800453a:	0031      	movs	r1, r6
 800453c:	cf40      	ldmia	r7!, {r6}
 800453e:	6001      	str	r1, [r0, #0]
 8004540:	f847 6d04 	str.w	r6, [r7, #-4]!
 8004544:	4e4c      	ldr	r6, [pc, #304]	; (8004678 <gemeinsame_schleifenoptimierung+0x8e>)
 8004546:	f7fe fff7 	bl	8003538 <Code_798>
 800454a:	bd00      	pop	{pc}

0800454c <struktur_loop>:
 800454c:	3401      	adds	r4, #1
 800454e:	42ac      	cmp	r4, r5
 8004550:	4770      	bx	lr

08004552 <Dictionary_1067>:
 8004552:	0800459a 	stmdaeq	r0, {r1, r3, r4, r7, r8, sl, lr}
 8004556:	64020230 	strvs	r0, [r2], #-560	; 0xfffffdd0
 800455a:	 	strlt	r0, [r0, #-111]	; 0xffffff91

0800455c <Code_1067>:
 800455c:	b500      	push	{lr}
 800455e:	f847 6d04 	str.w	r6, [r7, #-4]!
 8004562:	4e46      	ldr	r6, [pc, #280]	; (800467c <gemeinsame_schleifenoptimierung+0x92>)
 8004564:	f7fe ffe8 	bl	8003538 <Code_798>

08004568 <do_rest_der_schleifenstruktur>:
 8004568:	4840      	ldr	r0, [pc, #256]	; (800466c <gemeinsame_schleifenoptimierung+0x82>)
 800456a:	6801      	ldr	r1, [r0, #0]
 800456c:	f847 6d04 	str.w	r6, [r7, #-4]!
 8004570:	000e      	movs	r6, r1
 8004572:	f847 6d04 	str.w	r6, [r7, #-4]!
 8004576:	2600      	movs	r6, #0
 8004578:	6007      	str	r7, [r0, #0]
 800457a:	f7ff fdee 	bl	800415a <branch_r>
 800457e:	f847 6d04 	str.w	r6, [r7, #-4]!
 8004582:	2603      	movs	r6, #3
 8004584:	bd00      	pop	{pc}
 8004586:	b500      	push	{lr}
 8004588:	f000 f82f 	bl	80045ea <gemeinsame_schleifenoptimierung>
 800458c:	e7ec      	b.n	8004568 <do_rest_der_schleifenstruktur>

0800458e <struktur_do>:
 800458e:	b430      	push	{r4, r5}
 8004590:	0034      	movs	r4, r6
 8004592:	cf40      	ldmia	r7!, {r6}
 8004594:	0035      	movs	r5, r6
 8004596:	cf40      	ldmia	r7!, {r6}
 8004598:	4770      	bx	lr

0800459a <Dictionary_1077>:
 800459a:	08004680 	stmdaeq	r0, {r7, r9, sl, lr}
 800459e:	3f030230 	svccc	0x00030230
 80045a2:	 	strlt	r6, [r0, #-3940]	; 0xfffff09c

080045a4 <Code_1077>:
 80045a4:	b500      	push	{lr}
 80045a6:	f847 6d04 	str.w	r6, [r7, #-4]!
 80045aa:	4e34      	ldr	r6, [pc, #208]	; (800467c <gemeinsame_schleifenoptimierung+0x92>)
 80045ac:	f7fe ffc4 	bl	8003538 <Code_798>

080045b0 <qdo_rest_der_schleifenstruktur>:
 80045b0:	f847 6d04 	str.w	r6, [r7, #-4]!
 80045b4:	f244 26ac 	movw	r6, #17068	; 0x42ac
 80045b8:	f7ff f9ea 	bl	8003990 <Code_879>
 80045bc:	482b      	ldr	r0, [pc, #172]	; (800466c <gemeinsame_schleifenoptimierung+0x82>)
 80045be:	6801      	ldr	r1, [r0, #0]
 80045c0:	f847 6d04 	str.w	r6, [r7, #-4]!
 80045c4:	000e      	movs	r6, r1
 80045c6:	f7ff fe06 	bl	80041d6 <branch_v>
 80045ca:	3601      	adds	r6, #1
 80045cc:	f847 6d04 	str.w	r6, [r7, #-4]!
 80045d0:	2601      	movs	r6, #1
 80045d2:	4826      	ldr	r0, [pc, #152]	; (800466c <gemeinsame_schleifenoptimierung+0x82>)
 80045d4:	6007      	str	r7, [r0, #0]
 80045d6:	f7ff fdc0 	bl	800415a <branch_r>
 80045da:	f847 6d04 	str.w	r6, [r7, #-4]!
 80045de:	2603      	movs	r6, #3
 80045e0:	bd00      	pop	{pc}
 80045e2:	b500      	push	{lr}
 80045e4:	f000 f801 	bl	80045ea <gemeinsame_schleifenoptimierung>
 80045e8:	e7e2      	b.n	80045b0 <qdo_rest_der_schleifenstruktur>

080045ea <gemeinsame_schleifenoptimierung>:
 80045ea:	b500      	push	{lr}
 80045ec:	f7fc f807 	bl	80005fe <push_lr_nachholen>
 80045f0:	f7fb ff7c 	bl	80004ec <expect_two_elements>
 80045f4:	f7fb feaa 	bl	800034c <tidyup_register_allocator_5os>
 80045f8:	f7fb fead 	bl	8000356 <tidyup_register_allocator_4os>
 80045fc:	f7fb feb0 	bl	8000360 <tidyup_register_allocator_3os>
 8004600:	f847 6d04 	str.w	r6, [r7, #-4]!
 8004604:	f24b 4630 	movw	r6, #46128	; 0xb430
 8004608:	f7ff f9c2 	bl	8003990 <Code_879>
 800460c:	6801      	ldr	r1, [r0, #0]
 800460e:	2928      	cmp	r1, #40	; 0x28
 8004610:	d008      	beq.n	8004624 <gemeinsame_schleifenoptimierung+0x3a>
 8004612:	f847 6d04 	str.w	r6, [r7, #-4]!
 8004616:	f240 0604 	movw	r6, #4
 800461a:	00c9      	lsls	r1, r1, #3
 800461c:	430e      	orrs	r6, r1
 800461e:	f7ff f9b7 	bl	8003990 <Code_879>
 8004622:	e007      	b.n	8004634 <gemeinsame_schleifenoptimierung+0x4a>
 8004624:	f847 6d04 	str.w	r6, [r7, #-4]!
 8004628:	6846      	ldr	r6, [r0, #4]
 800462a:	f847 6d04 	str.w	r6, [r7, #-4]!
 800462e:	2604      	movs	r6, #4
 8004630:	f7fe fe34 	bl	800329c <Code_754>
 8004634:	6881      	ldr	r1, [r0, #8]
 8004636:	2928      	cmp	r1, #40	; 0x28
 8004638:	d008      	beq.n	800464c <gemeinsame_schleifenoptimierung+0x62>
 800463a:	f847 6d04 	str.w	r6, [r7, #-4]!
 800463e:	f240 0605 	movw	r6, #5
 8004642:	00c9      	lsls	r1, r1, #3
 8004644:	430e      	orrs	r6, r1
 8004646:	f7ff f9a3 	bl	8003990 <Code_879>
 800464a:	e007      	b.n	800465c <gemeinsame_schleifenoptimierung+0x72>
 800464c:	f847 6d04 	str.w	r6, [r7, #-4]!
 8004650:	68c6      	ldr	r6, [r0, #12]
 8004652:	f847 6d04 	str.w	r6, [r7, #-4]!
 8004656:	2605      	movs	r6, #5
 8004658:	f7fe fe20 	bl	800329c <Code_754>
 800465c:	f7fb fe3f 	bl	80002de <eliminiere_tos>
 8004660:	f7fb fe3d 	bl	80002de <eliminiere_tos>
 8004664:	f7fb fe86 	bl	8000374 <tidyup_register_allocator_tos>
 8004668:	bd00      	pop	{pc}
 800466a:	00040000 	andeq	r0, r4, r0
 800466e:	44fe2400 	ldrbtmi	r2, [lr], #1024	; 0x400
 8004672:	454c0800 	strbmi	r0, [ip, #-2048]	; 0xfffff800
 8004676:	44d40800 	ldrbmi	r0, [r4], #2048	; 0x800
 800467a:	458e0800 	strmi	r0, [lr, #2048]	; 0x800
 800467e:	 	strtmi	r0, [r0], r0, lsl #16

08004680 <Dictionary_1099>:
 8004680:	080046a0 	stmdaeq	r0, {r5, r7, r9, sl, lr}
 8004684:	63040030 	movwvs	r0, #16432	; 0x4030
 8004688:	00657361 	rsbeq	r7, r5, r1, ror #6

0800468c <Code_1099>:
 800468c:	b500      	push	{lr}
 800468e:	f7fb ffb6 	bl	80005fe <push_lr_nachholen>
 8004692:	f847 6d04 	str.w	r6, [r7, #-4]!
 8004696:	2600      	movs	r6, #0
 8004698:	f847 6d04 	str.w	r6, [r7, #-4]!
 800469c:	2608      	movs	r6, #8
 800469e:	bd00      	pop	{pc}

080046a0 <Dictionary_1104>:
 80046a0:	080046b6 	stmdaeq	r0, {r1, r2, r4, r5, r7, r9, sl, lr}
 80046a4:	3f030030 	svccc	0x00030030
 80046a8:	 	stmdami	fp!, {r0, r1, r2, r3, r5, r6, r9, sl, sp, lr}^

080046aa <Code_1104>:
 80046aa:	486b      	ldr	r0, [pc, #428]	; (8004858 <Code_1135+0x44>)
 80046ac:	e009      	b.n	80046c2 <of_inneneinsprung>

080046ae <struktur_qof>:
 80046ae:	3e01      	subs	r6, #1
 80046b0:	41b6      	sbcs	r6, r6
 80046b2:	cf40      	ldmia	r7!, {r6}
 80046b4:	4770      	bx	lr

080046b6 <Dictionary_1106>:
 80046b6:	08004774 	stmdaeq	r0, {r2, r4, r5, r6, r8, r9, sl, lr}
 80046ba:	6f020230 	svcvs	0x00020230
 80046be:	 	stmdami	r6!, {r1, r2, r5, r6}^

080046c0 <Code_1106>:
 80046c0:	4866      	ldr	r0, [pc, #408]	; (800485c <Code_1135+0x48>)

080046c2 <of_inneneinsprung>:
 80046c2:	2e08      	cmp	r6, #8
 80046c4:	d000      	beq.n	80046c8 <of_inneneinsprung+0x6>
 80046c6:	e641      	b.n	800434c <strukturen_passen_nicht>
 80046c8:	cf40      	ldmia	r7!, {r6}
 80046ca:	b500      	push	{lr}
 80046cc:	f847 6d04 	str.w	r6, [r7, #-4]!
 80046d0:	0006      	movs	r6, r0
 80046d2:	f7fe ff31 	bl	8003538 <Code_798>

080046d6 <of_opcodiereinsprung>:
 80046d6:	f7ff fd7e 	bl	80041d6 <branch_v>
 80046da:	6839      	ldr	r1, [r7, #0]
 80046dc:	603e      	str	r6, [r7, #0]
 80046de:	460e      	mov	r6, r1
 80046e0:	3601      	adds	r6, #1
 80046e2:	f847 6d04 	str.w	r6, [r7, #-4]!
 80046e6:	2609      	movs	r6, #9
 80046e8:	f7ff f948 	bl	800397c <drop_hkomma>
 80046ec:	bd00      	pop	{pc}
 80046ee:	2e08      	cmp	r6, #8
 80046f0:	d000      	beq.n	80046f4 <of_opcodiereinsprung+0x1e>
 80046f2:	e62b      	b.n	800434c <strukturen_passen_nicht>
 80046f4:	cf40      	ldmia	r7!, {r6}
 80046f6:	b500      	push	{lr}
 80046f8:	f7fb fef8 	bl	80004ec <expect_two_elements>
 80046fc:	f7fb fe26 	bl	800034c <tidyup_register_allocator_5os>
 8004700:	f7fb fe29 	bl	8000356 <tidyup_register_allocator_4os>
 8004704:	f7fb fe2c 	bl	8000360 <tidyup_register_allocator_3os>
 8004708:	f847 6d04 	str.w	r6, [r7, #-4]!
 800470c:	f244 2680 	movw	r6, #17024	; 0x4280
 8004710:	f7fb ff28 	bl	8000564 <expect_nos_in_register>
 8004714:	430e      	orrs	r6, r1
 8004716:	6802      	ldr	r2, [r0, #0]
 8004718:	2a28      	cmp	r2, #40	; 0x28
 800471a:	d11e      	bne.n	800475a <of_opcodiereinsprung+0x84>
 800471c:	6842      	ldr	r2, [r0, #4]
 800471e:	2aff      	cmp	r2, #255	; 0xff
 8004720:	d808      	bhi.n	8004734 <of_opcodiereinsprung+0x5e>
 8004722:	cf40      	ldmia	r7!, {r6}
 8004724:	f847 6d04 	str.w	r6, [r7, #-4]!
 8004728:	f642 0600 	movw	r6, #10240	; 0x2800
 800472c:	4316      	orrs	r6, r2
 800472e:	0209      	lsls	r1, r1, #8
 8004730:	430e      	orrs	r6, r1
 8004732:	e014      	b.n	800475e <of_opcodiereinsprung+0x88>
 8004734:	f847 6d04 	str.w	r6, [r7, #-4]!
 8004738:	6846      	ldr	r6, [r0, #4]
 800473a:	f7fe fcfb 	bl	8003134 <Code_745>
 800473e:	cf04      	ldmia	r7!, {r2}
 8004740:	2e00      	cmp	r6, #0
 8004742:	cf40      	ldmia	r7!, {r6}
 8004744:	d006      	beq.n	8004754 <of_opcodiereinsprung+0x7e>
 8004746:	4e46      	ldr	r6, [pc, #280]	; (8004860 <Code_1135+0x4c>)
 8004748:	4316      	orrs	r6, r2
 800474a:	ea56 4601 	orrs.w	r6, r6, r1, lsl #16
 800474e:	f7ff f94f 	bl	80039f0 <Code_888>
 8004752:	e006      	b.n	8004762 <of_opcodiereinsprung+0x8c>
 8004754:	f7fb fefc 	bl	8000550 <expect_tos_in_register>
 8004758:	000a      	movs	r2, r1
 800475a:	00d2      	lsls	r2, r2, #3
 800475c:	4316      	orrs	r6, r2
 800475e:	f7ff f917 	bl	8003990 <Code_879>
 8004762:	f7fb fdbc 	bl	80002de <eliminiere_tos>
 8004766:	f7fb fe05 	bl	8000374 <tidyup_register_allocator_tos>
 800476a:	e7b4      	b.n	80046d6 <of_opcodiereinsprung>

0800476c <struktur_of>:
 800476c:	0030      	movs	r0, r6
 800476e:	cf40      	ldmia	r7!, {r6}
 8004770:	42b0      	cmp	r0, r6
 8004772:	4770      	bx	lr

08004774 <Dictionary_1122>:
 8004774:	080047aa 	stmdaeq	r0, {r1, r3, r5, r7, r8, r9, sl, lr}
 8004778:	65050030 	strvs	r0, [r5, #-48]	; 0xffffffd0
 800477c:	666f646e 	strbtvs	r6, [pc], -lr, ror #8

08004780 <Code_1122>:
 8004780:	2e09      	cmp	r6, #9
 8004782:	d000      	beq.n	8004786 <Code_1122+0x6>
 8004784:	e5e2      	b.n	800434c <strukturen_passen_nicht>
 8004786:	cf40      	ldmia	r7!, {r6}
 8004788:	b500      	push	{lr}
 800478a:	b440      	push	{r6}
 800478c:	cf40      	ldmia	r7!, {r6}
 800478e:	f7ff fd22 	bl	80041d6 <branch_v>
 8004792:	6839      	ldr	r1, [r7, #0]
 8004794:	603e      	str	r6, [r7, #0]
 8004796:	460e      	mov	r6, r1
 8004798:	f7ff fd36 	bl	8004208 <v_casebranch>
 800479c:	f847 6d04 	str.w	r6, [r7, #-4]!
 80047a0:	bc40      	pop	{r6}
 80047a2:	f847 6d04 	str.w	r6, [r7, #-4]!
 80047a6:	2608      	movs	r6, #8
 80047a8:	bd00      	pop	{pc}

080047aa <Dictionary_1130>:
 80047aa:	080047f4 	stmdaeq	r0, {r2, r4, r5, r6, r7, r8, r9, sl, lr}
 80047ae:	65070030 	strvs	r0, [r7, #-48]	; 0xffffffd0
 80047b2:	6163646e 	cmnvs	r3, lr, ror #8
 80047b6:	 	cfrshl64cs	mvdx8, mvdx3, r6

080047b8 <Code_1130>:
 80047b8:	2e08      	cmp	r6, #8
 80047ba:	d000      	beq.n	80047be <Code_1130+0x6>
 80047bc:	e5c6      	b.n	800434c <strukturen_passen_nicht>
 80047be:	cf40      	ldmia	r7!, {r6}
 80047c0:	b500      	push	{lr}
 80047c2:	f7ff f8db 	bl	800397c <drop_hkomma>
 80047c6:	f000 f801 	bl	80047cc <spruenge_einpflegen>
 80047ca:	bd00      	pop	{pc}

080047cc <spruenge_einpflegen>:
 80047cc:	b500      	push	{lr}
 80047ce:	0030      	movs	r0, r6
 80047d0:	cf40      	ldmia	r7!, {r6}
 80047d2:	2800      	cmp	r0, #0
 80047d4:	d00d      	beq.n	80047f2 <spruenge_einpflegen+0x26>
 80047d6:	b403      	push	{r0, r1}
 80047d8:	2101      	movs	r1, #1
 80047da:	4031      	ands	r1, r6
 80047dc:	2900      	cmp	r1, #0
 80047de:	d003      	beq.n	80047e8 <spruenge_einpflegen+0x1c>
 80047e0:	3e01      	subs	r6, #1
 80047e2:	f7ff fd07 	bl	80041f4 <v_nullbranch>
 80047e6:	e001      	b.n	80047ec <spruenge_einpflegen+0x20>
 80047e8:	f7ff fcfe 	bl	80041e8 <v_branch>
 80047ec:	bc03      	pop	{r0, r1}
 80047ee:	3801      	subs	r0, #1
 80047f0:	e7ef      	b.n	80047d2 <spruenge_einpflegen+0x6>
 80047f2:	bd00      	pop	{pc}

080047f4 <Dictionary_1133>:
 80047f4:	08004808 	stmdaeq	r0, {r3, fp, lr}
 80047f8:	74050000 	strvc	r0, [r5], #-0
 80047fc:	6e656b6f 	vnmulvs.f64	d22, d5, d31

08004800 <Code_1133>:
 8004800:	f847 6d04 	str.w	r6, [r7, #-4]!
 8004804:	2620      	movs	r6, #32
 8004806:	e005      	b.n	8004814 <Code_1135>

08004808 <Dictionary_1135>:
 8004808:	0800486c 	stmdaeq	r0, {r2, r3, r5, r6, fp, lr}
 800480c:	70050000 	andvc	r0, r5, r0
 8004810:	65737261 	ldrbvs	r7, [r3, #-609]!	; 0xfffffd9f

08004814 <Code_1135>:
 8004814:	b510      	push	{r4, lr}
 8004816:	4813      	ldr	r0, [pc, #76]	; (8004864 <Code_1135+0x50>)
 8004818:	6801      	ldr	r1, [r0, #0]
 800481a:	6840      	ldr	r0, [r0, #4]
 800481c:	4a12      	ldr	r2, [pc, #72]	; (8004868 <Code_1135+0x54>)
 800481e:	6812      	ldr	r2, [r2, #0]
 8004820:	1884      	adds	r4, r0, r2
 8004822:	2e20      	cmp	r6, #32
 8004824:	d107      	bne.n	8004836 <Code_1135+0x22>
 8004826:	4291      	cmp	r1, r2
 8004828:	d00f      	beq.n	800484a <Code_1135+0x36>
 800482a:	5c83      	ldrb	r3, [r0, r2]
 800482c:	42b3      	cmp	r3, r6
 800482e:	d102      	bne.n	8004836 <Code_1135+0x22>
 8004830:	3201      	adds	r2, #1
 8004832:	1884      	adds	r4, r0, r2
 8004834:	e7f7      	b.n	8004826 <Code_1135+0x12>
 8004836:	4291      	cmp	r1, r2
 8004838:	d007      	beq.n	800484a <Code_1135+0x36>
 800483a:	5c83      	ldrb	r3, [r0, r2]
 800483c:	3201      	adds	r2, #1
 800483e:	42b3      	cmp	r3, r6
 8004840:	d1f9      	bne.n	8004836 <Code_1135+0x22>
 8004842:	1886      	adds	r6, r0, r2
 8004844:	1b36      	subs	r6, r6, r4
 8004846:	3e01      	subs	r6, #1
 8004848:	e001      	b.n	800484e <Code_1135+0x3a>
 800484a:	1886      	adds	r6, r0, r2
 800484c:	1b36      	subs	r6, r6, r4
 800484e:	3f04      	subs	r7, #4
 8004850:	603c      	str	r4, [r7, #0]
 8004852:	4805      	ldr	r0, [pc, #20]	; (8004868 <Code_1135+0x54>)
 8004854:	6002      	str	r2, [r0, #0]
 8004856:	bd10      	pop	{r4, pc}
 8004858:	080046ae 	stmdaeq	r0, {r1, r2, r3, r5, r7, r9, sl, lr}
 800485c:	0800476c 	stmdaeq	r0, {r2, r3, r5, r6, r8, r9, sl, lr}
 8004860:	f1b00f00 			; <UNDEFINED> instruction: 0xf1b00f00
 8004864:	2407ffdc 	strcs	pc, [r7], #-4060	; 0xfffff024
 8004868:	2407ffe4 	strcs	pc, [r7], #-4068	; 0xfffff01c

0800486c <Dictionary_1136>:
 800486c:	080048aa 	stmdaeq	r0, {r1, r3, r5, r7, fp, lr}
 8004870:	64050000 	strvs	r0, [r5], #-0
 8004874:	74696769 	strbtvc	r6, [r9], #-1897	; 0xfffff897

08004878 <Code_1136>:
 8004878:	4bcf      	ldr	r3, [pc, #828]	; (8004bb8 <Code_1199+0xa>)
 800487a:	681b      	ldr	r3, [r3, #0]

0800487c <digit_base_r3>:
 800487c:	3e30      	subs	r6, #48	; 0x30
 800487e:	d30b      	bcc.n	8004898 <digit_base_r3+0x1c>
 8004880:	2e0a      	cmp	r6, #10
 8004882:	d30b      	bcc.n	800489c <digit_base_r3+0x20>
 8004884:	3e07      	subs	r6, #7
 8004886:	2e0a      	cmp	r6, #10
 8004888:	d306      	bcc.n	8004898 <digit_base_r3+0x1c>
 800488a:	2e24      	cmp	r6, #36	; 0x24
 800488c:	d306      	bcc.n	800489c <digit_base_r3+0x20>
 800488e:	3e20      	subs	r6, #32
 8004890:	2e0a      	cmp	r6, #10
 8004892:	d301      	bcc.n	8004898 <digit_base_r3+0x1c>
 8004894:	2e24      	cmp	r6, #36	; 0x24
 8004896:	d301      	bcc.n	800489c <digit_base_r3+0x20>
 8004898:	2600      	movs	r6, #0
 800489a:	4770      	bx	lr
 800489c:	429e      	cmp	r6, r3
 800489e:	d2fb      	bcs.n	8004898 <digit_base_r3+0x1c>
 80048a0:	f847 6d04 	str.w	r6, [r7, #-4]!
 80048a4:	2600      	movs	r6, #0
 80048a6:	43f6      	mvns	r6, r6
 80048a8:	4770      	bx	lr

080048aa <Dictionary_1138>:
 80048aa:	080049b4 	stmdaeq	r0, {r2, r4, r5, r7, r8, fp, lr}
 80048ae:	6e060000 	cdpvs	0, 0, cr0, cr6, cr0, {0}
 80048b2:	65626d75 	strbvs	r6, [r2, #-3445]!	; 0xfffff28b
 80048b6:	 	ldrlt	r0, [pc, #-114]!	; 800484c <Code_1135+0x38>

080048b8 <Code_1138>:
 80048b8:	b53f      	push	{r0, r1, r2, r3, r4, r5, lr}
 80048ba:	0031      	movs	r1, r6
 80048bc:	cf40      	ldmia	r7!, {r6}
 80048be:	1e70      	subs	r0, r6, #1
 80048c0:	2601      	movs	r6, #1
 80048c2:	2201      	movs	r2, #1
 80048c4:	b404      	push	{r2}
 80048c6:	4bbc      	ldr	r3, [pc, #752]	; (8004bb8 <Code_1199+0xa>)
 80048c8:	681b      	ldr	r3, [r3, #0]
 80048ca:	2400      	movs	r4, #0
 80048cc:	2500      	movs	r5, #0
 80048ce:	2900      	cmp	r1, #0
 80048d0:	d03c      	beq.n	800494c <Code_1138+0x94>
 80048d2:	3001      	adds	r0, #1
 80048d4:	3901      	subs	r1, #1
 80048d6:	7802      	ldrb	r2, [r0, #0]
 80048d8:	2a2d      	cmp	r2, #45	; 0x2d
 80048da:	d104      	bne.n	80048e6 <Code_1138+0x2e>
 80048dc:	b001      	add	sp, #4
 80048de:	2200      	movs	r2, #0
 80048e0:	43d2      	mvns	r2, r2
 80048e2:	b404      	push	{r2}
 80048e4:	e7f3      	b.n	80048ce <Code_1138+0x16>
 80048e6:	2a23      	cmp	r2, #35	; 0x23
 80048e8:	d101      	bne.n	80048ee <Code_1138+0x36>
 80048ea:	230a      	movs	r3, #10
 80048ec:	e7ef      	b.n	80048ce <Code_1138+0x16>
 80048ee:	2a24      	cmp	r2, #36	; 0x24
 80048f0:	d101      	bne.n	80048f6 <Code_1138+0x3e>
 80048f2:	2310      	movs	r3, #16
 80048f4:	e7eb      	b.n	80048ce <Code_1138+0x16>
 80048f6:	2a25      	cmp	r2, #37	; 0x25
 80048f8:	d101      	bne.n	80048fe <Code_1138+0x46>
 80048fa:	2302      	movs	r3, #2
 80048fc:	e7e7      	b.n	80048ce <Code_1138+0x16>
 80048fe:	2a2e      	cmp	r2, #46	; 0x2e
 8004900:	d101      	bne.n	8004906 <Code_1138+0x4e>
 8004902:	2602      	movs	r6, #2
 8004904:	e7e3      	b.n	80048ce <Code_1138+0x16>
 8004906:	2a2c      	cmp	r2, #44	; 0x2c
 8004908:	d036      	beq.n	8004978 <number_nachkommastellen>
 800490a:	f847 6d04 	str.w	r6, [r7, #-4]!
 800490e:	0016      	movs	r6, r2
 8004910:	f7ff ffb4 	bl	800487c <digit_base_r3>
 8004914:	2e00      	cmp	r6, #0
 8004916:	cf40      	ldmia	r7!, {r6}
 8004918:	d02b      	beq.n	8004972 <Code_1138+0xba>
 800491a:	f847 6d04 	str.w	r6, [r7, #-4]!
 800491e:	0026      	movs	r6, r4
 8004920:	f847 6d04 	str.w	r6, [r7, #-4]!
 8004924:	002e      	movs	r6, r5
 8004926:	f847 6d04 	str.w	r6, [r7, #-4]!
 800492a:	001e      	movs	r6, r3
 800492c:	f847 6d04 	str.w	r6, [r7, #-4]!
 8004930:	2600      	movs	r6, #0
 8004932:	b40f      	push	{r0, r1, r2, r3}
 8004934:	f7fc f86b 	bl	8000a0e <Code_116>
 8004938:	bc0f      	pop	{r0, r1, r2, r3}
 800493a:	0035      	movs	r5, r6
 800493c:	cf40      	ldmia	r7!, {r6}
 800493e:	0034      	movs	r4, r6
 8004940:	cf40      	ldmia	r7!, {r6}
 8004942:	2200      	movs	r2, #0
 8004944:	19a4      	adds	r4, r4, r6
 8004946:	4155      	adcs	r5, r2
 8004948:	cf40      	ldmia	r7!, {r6}
 800494a:	e7c0      	b.n	80048ce <Code_1138+0x16>
 800494c:	bc04      	pop	{r2}
 800494e:	2a00      	cmp	r2, #0
 8004950:	d504      	bpl.n	800495c <Code_1138+0xa4>
 8004952:	2200      	movs	r2, #0
 8004954:	43e4      	mvns	r4, r4
 8004956:	43ed      	mvns	r5, r5
 8004958:	3401      	adds	r4, #1
 800495a:	4155      	adcs	r5, r2
 800495c:	0033      	movs	r3, r6
 800495e:	0026      	movs	r6, r4
 8004960:	2b01      	cmp	r3, #1
 8004962:	d002      	beq.n	800496a <Code_1138+0xb2>
 8004964:	f847 6d04 	str.w	r6, [r7, #-4]!
 8004968:	002e      	movs	r6, r5
 800496a:	f847 6d04 	str.w	r6, [r7, #-4]!
 800496e:	001e      	movs	r6, r3
 8004970:	bd3f      	pop	{r0, r1, r2, r3, r4, r5, pc}
 8004972:	b001      	add	sp, #4
 8004974:	2600      	movs	r6, #0
 8004976:	bd3f      	pop	{r0, r1, r2, r3, r4, r5, pc}

08004978 <number_nachkommastellen>:
 8004978:	0025      	movs	r5, r4
 800497a:	2400      	movs	r4, #0
 800497c:	2602      	movs	r6, #2
 800497e:	2900      	cmp	r1, #0
 8004980:	d0e4      	beq.n	800494c <Code_1138+0x94>
 8004982:	5c42      	ldrb	r2, [r0, r1]
 8004984:	3901      	subs	r1, #1
 8004986:	2a2e      	cmp	r2, #46	; 0x2e
 8004988:	d0f9      	beq.n	800497e <number_nachkommastellen+0x6>
 800498a:	f847 6d04 	str.w	r6, [r7, #-4]!
 800498e:	0016      	movs	r6, r2
 8004990:	f7ff ff74 	bl	800487c <digit_base_r3>
 8004994:	2e00      	cmp	r6, #0
 8004996:	cf40      	ldmia	r7!, {r6}
 8004998:	d0eb      	beq.n	8004972 <Code_1138+0xba>
 800499a:	3f04      	subs	r7, #4
 800499c:	603c      	str	r4, [r7, #0]
 800499e:	f847 6d04 	str.w	r6, [r7, #-4]!
 80049a2:	001e      	movs	r6, r3
 80049a4:	b40f      	push	{r0, r1, r2, r3}
 80049a6:	f7fc f8e1 	bl	8000b6c <Code_152>
 80049aa:	bc0f      	pop	{r0, r1, r2, r3}
 80049ac:	0034      	movs	r4, r6
 80049ae:	cf40      	ldmia	r7!, {r6}
 80049b0:	cf40      	ldmia	r7!, {r6}
 80049b2:	e7e4      	b.n	800497e <number_nachkommastellen+0x6>

080049b4 <Dictionary_1165>:
 80049b4:	080049d6 	stmdaeq	r0, {r1, r2, r4, r6, r7, r8, fp, lr}
 80049b8:	2e060000 	cdpcs	0, 0, cr0, cr6, cr0, {0}
 80049bc:	69676964 	stmdbvs	r7!, {r2, r5, r6, r8, fp, sp, lr}^
 80049c0:	 	mcrcs	0, 0, r0, cr10, cr4, {3}

080049c2 <Code_1165>:
 80049c2:	2e0a      	cmp	r6, #10
 80049c4:	d201      	bcs.n	80049ca <Code_1165+0x8>
 80049c6:	3630      	adds	r6, #48	; 0x30
 80049c8:	4770      	bx	lr
 80049ca:	2e24      	cmp	r6, #36	; 0x24
 80049cc:	d201      	bcs.n	80049d2 <Code_1165+0x10>
 80049ce:	3637      	adds	r6, #55	; 0x37
 80049d0:	4770      	bx	lr
 80049d2:	2623      	movs	r6, #35	; 0x23
 80049d4:	4770      	bx	lr

080049d6 <Dictionary_1166>:
 80049d6:	08004a0c 	stmdaeq	r0, {r2, r3, r9, fp, lr}
 80049da:	68040000 	stmdavs	r4, {}	; <UNPREDICTABLE>
 80049de:	00646c6f 	rsbeq	r6, r4, pc, ror #24

080049e2 <Code_1166>:
 80049e2:	0033      	movs	r3, r6
 80049e4:	cf40      	ldmia	r7!, {r6}
 80049e6:	4875      	ldr	r0, [pc, #468]	; (8004bbc <Code_1199+0xe>)
 80049e8:	7801      	ldrb	r1, [r0, #0]
 80049ea:	2943      	cmp	r1, #67	; 0x43
 80049ec:	d20d      	bcs.n	8004a0a <Code_1166+0x28>
 80049ee:	3101      	adds	r1, #1
 80049f0:	7001      	strb	r1, [r0, #0]
 80049f2:	1840      	adds	r0, r0, r1
 80049f4:	2901      	cmp	r1, #1
 80049f6:	d007      	beq.n	8004a08 <Code_1166+0x26>
 80049f8:	3801      	subs	r0, #1
 80049fa:	7802      	ldrb	r2, [r0, #0]
 80049fc:	3001      	adds	r0, #1
 80049fe:	7002      	strb	r2, [r0, #0]
 8004a00:	3801      	subs	r0, #1
 8004a02:	3901      	subs	r1, #1
 8004a04:	2901      	cmp	r1, #1
 8004a06:	d1f7      	bne.n	80049f8 <Code_1166+0x16>
 8004a08:	7003      	strb	r3, [r0, #0]
 8004a0a:	4770      	bx	lr

08004a0c <Dictionary_1168>:
 8004a0c:	08004a2c 	stmdaeq	r0, {r2, r3, r5, r9, fp, lr}
 8004a10:	68050000 	stmdavs	r5, {}	; <UNPREDICTABLE>
 8004a14:	3c646c6f 	stclcc	12, cr6, [r4], #-444	; 0xfffffe44

08004a18 <Code_1168>:
 8004a18:	0033      	movs	r3, r6
 8004a1a:	cf40      	ldmia	r7!, {r6}
 8004a1c:	4867      	ldr	r0, [pc, #412]	; (8004bbc <Code_1199+0xe>)
 8004a1e:	7801      	ldrb	r1, [r0, #0]
 8004a20:	2943      	cmp	r1, #67	; 0x43
 8004a22:	d202      	bcs.n	8004a2a <Code_1168+0x12>
 8004a24:	3101      	adds	r1, #1
 8004a26:	7001      	strb	r1, [r0, #0]
 8004a28:	5443      	strb	r3, [r0, r1]
 8004a2a:	4770      	bx	lr

08004a2c <Dictionary_1170>:
 8004a2c:	08004a44 	stmdaeq	r0, {r2, r6, r9, fp, lr}
 8004a30:	73040000 	movwvc	r0, #16384	; 0x4000
 8004a34:	006e6769 	rsbeq	r6, lr, r9, ror #14

08004a38 <Code_1170>:
 8004a38:	2e00      	cmp	r6, #0
 8004a3a:	d401      	bmi.n	8004a40 <Code_1170+0x8>
 8004a3c:	cf40      	ldmia	r7!, {r6}
 8004a3e:	4770      	bx	lr
 8004a40:	262d      	movs	r6, #45	; 0x2d
 8004a42:	e7ce      	b.n	80049e2 <Code_1166>

08004a44 <Dictionary_1172>:
 8004a44:	08004a58 	stmdaeq	r0, {r3, r4, r6, r9, fp, lr}
 8004a48:	23020000 	movwcs	r0, #8192	; 0x2000
 8004a4c:	 	ldmdami	fp, {r1, r2, r3, r4, r5}^

08004a4e <Code_1172>:
 8004a4e:	485b      	ldr	r0, [pc, #364]	; (8004bbc <Code_1199+0xe>)
 8004a50:	7806      	ldrb	r6, [r0, #0]
 8004a52:	3001      	adds	r0, #1
 8004a54:	6038      	str	r0, [r7, #0]
 8004a56:	4770      	bx	lr

08004a58 <Dictionary_1173>:
 8004a58:	08004a70 	stmdaeq	r0, {r4, r5, r6, r9, fp, lr}
 8004a5c:	66030000 	strvs	r0, [r3], -r0
 8004a60:	 	ldrlt	r5, [r0, #-803]	; 0xfffffcdd

08004a62 <Code_1173>:
 8004a62:	b510      	push	{r4, lr}
 8004a64:	2420      	movs	r4, #32
 8004a66:	f000 f808 	bl	8004a7a <Code_1174>
 8004a6a:	3c01      	subs	r4, #1
 8004a6c:	d1fb      	bne.n	8004a66 <Code_1173+0x4>
 8004a6e:	bd10      	pop	{r4, pc}

08004a70 <Dictionary_1174>:
 8004a70:	08004a92 	stmdaeq	r0, {r1, r4, r7, r9, fp, lr}
 8004a74:	66020000 	strvs	r0, [r2], -r0
 8004a78:	 	strlt	r0, [r0, #-35]	; 0xffffffdd

08004a7a <Code_1174>:
 8004a7a:	b500      	push	{lr}
 8004a7c:	f847 6d04 	str.w	r6, [r7, #-4]!
 8004a80:	4e4d      	ldr	r6, [pc, #308]	; (8004bb8 <Code_1199+0xa>)
 8004a82:	6836      	ldr	r6, [r6, #0]
 8004a84:	f7fb ff85 	bl	8000992 <Code_112>
 8004a88:	f7ff ff9b 	bl	80049c2 <Code_1165>
 8004a8c:	f7ff ffc4 	bl	8004a18 <Code_1168>
 8004a90:	bd00      	pop	{pc}

08004a92 <Dictionary_1176>:
 8004a92:	08004aae 	stmdaeq	r0, {r1, r2, r3, r5, r7, r9, fp, lr}
 8004a96:	23020000 	movwcs	r0, #8192	; 0x2000
 8004a9a:	 	strlt	r0, [r0, #-83]	; 0xffffffad

08004a9c <Code_1176>:
 8004a9c:	b500      	push	{lr}
 8004a9e:	f000 f80a 	bl	8004ab6 <Code_1177>
 8004aa2:	2e00      	cmp	r6, #0
 8004aa4:	d1fb      	bne.n	8004a9e <Code_1176+0x2>
 8004aa6:	6838      	ldr	r0, [r7, #0]
 8004aa8:	2800      	cmp	r0, #0
 8004aaa:	d1f8      	bne.n	8004a9e <Code_1176+0x2>
 8004aac:	bd00      	pop	{pc}

08004aae <Dictionary_1177>:
 8004aae:	08004ada 	stmdaeq	r0, {r1, r3, r4, r6, r7, r9, fp, lr}
 8004ab2:	23010000 	movwcs	r0, #4096	; 0x1000

08004ab6 <Code_1177>:
 8004ab6:	b500      	push	{lr}
 8004ab8:	f847 6d04 	str.w	r6, [r7, #-4]!
 8004abc:	4e3e      	ldr	r6, [pc, #248]	; (8004bb8 <Code_1199+0xa>)
 8004abe:	6836      	ldr	r6, [r6, #0]
 8004ac0:	f847 6d04 	str.w	r6, [r7, #-4]!
 8004ac4:	2600      	movs	r6, #0
 8004ac6:	f7fc f870 	bl	8000baa <Code_161>
 8004aca:	f7fb fdd0 	bl	800066e <Code_72>
 8004ace:	cf40      	ldmia	r7!, {r6}
 8004ad0:	f7ff ff77 	bl	80049c2 <Code_1165>
 8004ad4:	f7ff ff85 	bl	80049e2 <Code_1166>
 8004ad8:	bd00      	pop	{pc}

08004ada <Dictionary_1182>:
 8004ada:	08004aec 	stmdaeq	r0, {r2, r3, r5, r6, r7, r9, fp, lr}
 8004ade:	3c020000 	stccc	0, cr0, [r2], {-0}
 8004ae2:	 	ldmdami	r5!, {r0, r1, r5}

08004ae4 <Code_1182>:
 8004ae4:	4835      	ldr	r0, [pc, #212]	; (8004bbc <Code_1199+0xe>)
 8004ae6:	2100      	movs	r1, #0
 8004ae8:	7001      	strb	r1, [r0, #0]
 8004aea:	4770      	bx	lr

08004aec <Dictionary_1183>:
 8004aec:	08004afe 	stmdaeq	r0, {r1, r2, r3, r4, r5, r6, r7, r9, fp, lr}
 8004af0:	66020000 	strvs	r0, [r2], -r0
 8004af4:	 			; <UNDEFINED> instruction: 0xf847002e

08004af6 <Code_1183>:
 8004af6:	f847 6d04 	str.w	r6, [r7, #-4]!
 8004afa:	2620      	movs	r6, #32
 8004afc:	e004      	b.n	8004b08 <Code_1186>

08004afe <Dictionary_1186>:
 8004afe:	08004b4c 	stmdaeq	r0, {r2, r3, r6, r8, r9, fp, lr}
 8004b02:	66030000 	strvs	r0, [r3], -r0
 8004b06:	 	strlt	r6, [r0, #-3630]	; 0xfffff1d2

08004b08 <Code_1186>:
 8004b08:	b500      	push	{lr}
 8004b0a:	b410      	push	{r4}
 8004b0c:	0034      	movs	r4, r6
 8004b0e:	cf40      	ldmia	r7!, {r6}
 8004b10:	f7fc fa68 	bl	8000fe4 <Code_208>
 8004b14:	f7fb fec2 	bl	800089c <Code_100>
 8004b18:	f847 6d04 	str.w	r6, [r7, #-4]!
 8004b1c:	2600      	movs	r6, #0
 8004b1e:	f7ff ffe1 	bl	8004ae4 <Code_1182>
 8004b22:	f7ff ffbb 	bl	8004a9c <Code_1176>
 8004b26:	cf40      	ldmia	r7!, {r6}
 8004b28:	262c      	movs	r6, #44	; 0x2c
 8004b2a:	f7ff ff75 	bl	8004a18 <Code_1168>
 8004b2e:	2c00      	cmp	r4, #0
 8004b30:	d003      	beq.n	8004b3a <Code_1186+0x32>
 8004b32:	f7ff ffa2 	bl	8004a7a <Code_1174>
 8004b36:	3c01      	subs	r4, #1
 8004b38:	d1fb      	bne.n	8004b32 <Code_1186+0x2a>
 8004b3a:	bc10      	pop	{r4}
 8004b3c:	cf40      	ldmia	r7!, {r6}
 8004b3e:	f7ff ff7b 	bl	8004a38 <Code_1170>
 8004b42:	f847 6d04 	str.w	r6, [r7, #-4]!
 8004b46:	f847 6d04 	str.w	r6, [r7, #-4]!
 8004b4a:	e01c      	b.n	8004b86 <abschluss_zahlenausgabe>

08004b4c <Dictionary_1194>:
 8004b4c:	08004b62 	stmdaeq	r0, {r1, r5, r6, r8, r9, fp, lr}
 8004b50:	75030000 	strvc	r0, [r3, #-0]
 8004b54:	 	strlt	r2, [r0, #-3684]	; 0xfffff19c

08004b56 <Code_1194>:
 8004b56:	b500      	push	{lr}
 8004b58:	f7ff ffc4 	bl	8004ae4 <Code_1182>
 8004b5c:	f7ff ff9e 	bl	8004a9c <Code_1176>
 8004b60:	e011      	b.n	8004b86 <abschluss_zahlenausgabe>

08004b62 <Dictionary_1195>:
 8004b62:	08004b94 	stmdaeq	r0, {r2, r4, r7, r8, r9, fp, lr}
 8004b66:	64020000 	strvs	r0, [r2], #-0
 8004b6a:	 	strlt	r0, [r0, #-46]	; 0xffffffd2

08004b6c <Code_1195>:
 8004b6c:	b500      	push	{lr}
 8004b6e:	f7fc fa39 	bl	8000fe4 <Code_208>
 8004b72:	f7fb fe93 	bl	800089c <Code_100>
 8004b76:	f7ff ffb5 	bl	8004ae4 <Code_1182>
 8004b7a:	f7ff ff8f 	bl	8004a9c <Code_1176>
 8004b7e:	f7fc fa43 	bl	8001008 <Code_209>
 8004b82:	f7ff ff59 	bl	8004a38 <Code_1170>

08004b86 <abschluss_zahlenausgabe>:
 8004b86:	f7ff ff62 	bl	8004a4e <Code_1172>
 8004b8a:	f7fe f9c3 	bl	8002f14 <Code_705>
 8004b8e:	f7fe f91c 	bl	8002dca <Code_673>
 8004b92:	bd00      	pop	{pc}

08004b94 <Dictionary_1196>:
 8004b94:	08004ba6 	stmdaeq	r0, {r1, r2, r5, r7, r8, r9, fp, lr}
 8004b98:	75020000 	strvc	r0, [r2, #-0]
 8004b9c:	 			; <UNDEFINED> instruction: 0xf847002e

08004b9e <Code_1196>:
 8004b9e:	f847 6d04 	str.w	r6, [r7, #-4]!
 8004ba2:	2600      	movs	r6, #0
 8004ba4:	e7d7      	b.n	8004b56 <Code_1194>

08004ba6 <Dictionary_1199>:
 8004ba6:	08004d84 	stmdaeq	r0, {r2, r7, r8, sl, fp, lr}
 8004baa:	2e010000 	cdpcs	0, 0, cr0, cr1, cr0, {0}

08004bae <Code_1199>:
 8004bae:	f847 6d04 	str.w	r6, [r7, #-4]!
 8004bb2:	17f6      	asrs	r6, r6, #31
 8004bb4:	e7da      	b.n	8004b6c <Code_1195>
 8004bb6:	fffc0000 			; <UNDEFINED> instruction: 0xfffc0000
 8004bba:	007c2407 	rsbseq	r2, ip, r7, lsl #8
 8004bbe:	 	ldrlt	r2, [r0, #-1024]!	; 0xfffffc00

08004bc0 <konstantenfaltungszeiger_setzen>:
 8004bc0:	b530      	push	{r4, r5, lr}
 8004bc2:	f04f 5410 	mov.w	r4, #603979776	; 0x24000000
 8004bc6:	6825      	ldr	r5, [r4, #0]
 8004bc8:	2d00      	cmp	r5, #0
 8004bca:	d101      	bne.n	8004bd0 <konstantenfaltungszeiger_setzen+0x10>
 8004bcc:	003d      	movs	r5, r7
 8004bce:	6025      	str	r5, [r4, #0]
 8004bd0:	bd30      	pop	{r4, r5, pc}

08004bd2 <konstantenfaltungszeiger_neusetzen>:
 8004bd2:	b530      	push	{r4, r5, lr}
 8004bd4:	f04f 5410 	mov.w	r4, #603979776	; 0x24000000
 8004bd8:	003d      	movs	r5, r7
 8004bda:	6025      	str	r5, [r4, #0]
 8004bdc:	bd30      	pop	{r4, r5, pc}

08004bde <konstantenfaltungszeiger_loeschen>:
 8004bde:	b530      	push	{r4, r5, lr}
 8004be0:	f04f 5410 	mov.w	r4, #603979776	; 0x24000000
 8004be4:	2500      	movs	r5, #0
 8004be6:	6025      	str	r5, [r4, #0]
 8004be8:	bd30      	pop	{r4, r5, pc}

08004bea <wievielefaltkonstanten>:
 8004bea:	f04f 5310 	mov.w	r3, #603979776	; 0x24000000
 8004bee:	681b      	ldr	r3, [r3, #0]
 8004bf0:	1bdb      	subs	r3, r3, r7
 8004bf2:	089b      	lsrs	r3, r3, #2
 8004bf4:	4770      	bx	lr

08004bf6 <kompilator>:
 8004bf6:	b500      	push	{lr}
 8004bf8:	0031      	movs	r1, r6
 8004bfa:	cf40      	ldmia	r7!, {r6}
 8004bfc:	f44f 5080 	mov.w	r0, #4096	; 0x1000
 8004c00:	4008      	ands	r0, r1
 8004c02:	d002      	beq.n	8004c0a <kompilator+0x14>
 8004c04:	f000 f8a6 	bl	8004d54 <inline_cache_parser>
 8004c08:	bd00      	pop	{pc}
 8004c0a:	f44f 6080 	mov.w	r0, #1024	; 0x400
 8004c0e:	4008      	ands	r0, r1
 8004c10:	d101      	bne.n	8004c16 <kompilator+0x20>
 8004c12:	f7fc fd81 	bl	8001718 <sprungschreiber_flaggenerator>
 8004c16:	0032      	movs	r2, r6
 8004c18:	cf40      	ldmia	r7!, {r6}
 8004c1a:	f7ff ffd1 	bl	8004bc0 <konstantenfaltungszeiger_setzen>
 8004c1e:	f44f 5000 	mov.w	r0, #8192	; 0x2000
 8004c22:	4008      	ands	r0, r1
 8004c24:	d003      	beq.n	8004c2e <kompilator+0x38>
 8004c26:	f847 6d04 	str.w	r6, [r7, #-4]!
 8004c2a:	0016      	movs	r6, r2
 8004c2c:	bd00      	pop	{pc}
 8004c2e:	f7ff ffdc 	bl	8004bea <wievielefaltkonstanten>
 8004c32:	2080      	movs	r0, #128	; 0x80
 8004c34:	4008      	ands	r0, r1
 8004c36:	d106      	bne.n	8004c46 <.interpret_faltoptimierung>
 8004c38:	2040      	movs	r0, #64	; 0x40
 8004c3a:	4008      	ands	r0, r1
 8004c3c:	d009      	beq.n	8004c52 <.interpret_allocator>

08004c3e <.interpret_genugkonstanten>:
 8004c3e:	200f      	movs	r0, #15
 8004c40:	4008      	ands	r0, r1
 8004c42:	4283      	cmp	r3, r0
 8004c44:	d305      	bcc.n	8004c52 <.interpret_allocator>

08004c46 <.interpret_faltoptimierung>:
 8004c46:	f847 6d04 	str.w	r6, [r7, #-4]!
 8004c4a:	0016      	movs	r6, r2
 8004c4c:	f7fe fd2d 	bl	80036aa <Code_822>
 8004c50:	bd00      	pop	{pc}

08004c52 <.interpret_allocator>:
 8004c52:	f44f 7000 	mov.w	r0, #512	; 0x200
 8004c56:	4008      	ands	r0, r1
 8004c58:	d014      	beq.n	8004c84 <.interpret_allocator_finished>
 8004c5a:	f7fb fad8 	bl	800020e <Code_31>
 8004c5e:	f847 6d04 	str.w	r6, [r7, #-4]!
 8004c62:	0016      	movs	r6, r2
 8004c64:	f847 6d04 	str.w	r6, [r7, #-4]!
 8004c68:	000e      	movs	r6, r1
 8004c6a:	f000 f831 	bl	8004cd0 <add_to_inline_cache>
 8004c6e:	0010      	movs	r0, r2
 8004c70:	f7fe fc79 	bl	8003566 <suchedefinitionsende>
 8004c74:	1c42      	adds	r2, r0, #1
 8004c76:	48cc      	ldr	r0, [pc, #816]	; (8004fa8 <quit_innenschleife+0x58>)
 8004c78:	4790      	blx	r2
 8004c7a:	f7ff ffaa 	bl	8004bd2 <konstantenfaltungszeiger_neusetzen>
 8004c7e:	f7fb fad5 	bl	800022c <nfaltkonstanten_aufschwimmen>
 8004c82:	bd00      	pop	{pc}

08004c84 <.interpret_allocator_finished>:
 8004c84:	f7fb fac3 	bl	800020e <Code_31>
 8004c88:	f847 6d04 	str.w	r6, [r7, #-4]!
 8004c8c:	0016      	movs	r6, r2
 8004c8e:	f847 6d04 	str.w	r6, [r7, #-4]!
 8004c92:	000e      	movs	r6, r1
 8004c94:	f000 f81c 	bl	8004cd0 <add_to_inline_cache>
 8004c98:	f7fb fb4c 	bl	8000334 <tidyup_register_allocator>
 8004c9c:	f7ff ff9f 	bl	8004bde <konstantenfaltungszeiger_loeschen>
 8004ca0:	f44f 6000 	mov.w	r0, #2048	; 0x800
 8004ca4:	4008      	ands	r0, r1
 8004ca6:	d101      	bne.n	8004cac <.prepared_for_classic>
 8004ca8:	f7fb fca9 	bl	80005fe <push_lr_nachholen>

08004cac <.prepared_for_classic>:
 8004cac:	f847 6d04 	str.w	r6, [r7, #-4]!
 8004cb0:	0016      	movs	r6, r2
 8004cb2:	2210      	movs	r2, #16
 8004cb4:	400a      	ands	r2, r1
 8004cb6:	d002      	beq.n	8004cbe <.prepared_for_classic+0x12>
 8004cb8:	f7fe fcf7 	bl	80036aa <Code_822>
 8004cbc:	bd00      	pop	{pc}
 8004cbe:	2220      	movs	r2, #32
 8004cc0:	400a      	ands	r2, r1
 8004cc2:	d002      	beq.n	8004cca <.prepared_for_classic+0x1e>
 8004cc4:	f7fe fc38 	bl	8003538 <Code_798>
 8004cc8:	bd00      	pop	{pc}
 8004cca:	f7fe fb44 	bl	8003356 <Code_766>
 8004cce:	bd00      	pop	{pc}

08004cd0 <add_to_inline_cache>:
 8004cd0:	b50f      	push	{r0, r1, r2, r3, lr}
 8004cd2:	0032      	movs	r2, r6
 8004cd4:	cf40      	ldmia	r7!, {r6}
 8004cd6:	0033      	movs	r3, r6
 8004cd8:	cf40      	ldmia	r7!, {r6}
 8004cda:	48b4      	ldr	r0, [pc, #720]	; (8004fac <quit_innenschleife+0x5c>)
 8004cdc:	6801      	ldr	r1, [r0, #0]
 8004cde:	2906      	cmp	r1, #6
 8004ce0:	d207      	bcs.n	8004cf2 <add_to_inline_cache+0x22>
 8004ce2:	2006      	movs	r0, #6
 8004ce4:	4341      	muls	r1, r0
 8004ce6:	48b2      	ldr	r0, [pc, #712]	; (8004fb0 <quit_innenschleife+0x60>)
 8004ce8:	1840      	adds	r0, r0, r1
 8004cea:	8003      	strh	r3, [r0, #0]
 8004cec:	0c1b      	lsrs	r3, r3, #16
 8004cee:	8043      	strh	r3, [r0, #2]
 8004cf0:	8082      	strh	r2, [r0, #4]
 8004cf2:	48ae      	ldr	r0, [pc, #696]	; (8004fac <quit_innenschleife+0x5c>)
 8004cf4:	6801      	ldr	r1, [r0, #0]
 8004cf6:	3101      	adds	r1, #1
 8004cf8:	6001      	str	r1, [r0, #0]
 8004cfa:	bd0f      	pop	{r0, r1, r2, r3, pc}

08004cfc <inline_cache_schreiben>:
 8004cfc:	b50f      	push	{r0, r1, r2, r3, lr}
 8004cfe:	48ab      	ldr	r0, [pc, #684]	; (8004fac <quit_innenschleife+0x5c>)
 8004d00:	6801      	ldr	r1, [r0, #0]
 8004d02:	2906      	cmp	r1, #6
 8004d04:	d81f      	bhi.n	8004d46 <inline_cache_schreiben+0x4a>
 8004d06:	48aa      	ldr	r0, [pc, #680]	; (8004fb0 <quit_innenschleife+0x60>)
 8004d08:	3901      	subs	r1, #1
 8004d0a:	d01d      	beq.n	8004d48 <inline_cache_schreiben+0x4c>
 8004d0c:	f847 6d04 	str.w	r6, [r7, #-4]!
 8004d10:	000e      	movs	r6, r1
 8004d12:	f7fe fe3d 	bl	8003990 <Code_879>
 8004d16:	f847 6d04 	str.w	r6, [r7, #-4]!
 8004d1a:	8806      	ldrh	r6, [r0, #0]
 8004d1c:	f7fe fe38 	bl	8003990 <Code_879>
 8004d20:	f847 6d04 	str.w	r6, [r7, #-4]!
 8004d24:	8846      	ldrh	r6, [r0, #2]
 8004d26:	f7fe fe33 	bl	8003990 <Code_879>
 8004d2a:	f847 6d04 	str.w	r6, [r7, #-4]!
 8004d2e:	8886      	ldrh	r6, [r0, #4]
 8004d30:	f7fe fe2e 	bl	8003990 <Code_879>
 8004d34:	3006      	adds	r0, #6
 8004d36:	3901      	subs	r1, #1
 8004d38:	d1ed      	bne.n	8004d16 <inline_cache_schreiben+0x1a>
 8004d3a:	f847 6d04 	str.w	r6, [r7, #-4]!
 8004d3e:	f241 0600 	movw	r6, #4096	; 0x1000
 8004d42:	f7fe fdc7 	bl	80038d4 <Code_867>
 8004d46:	bd0f      	pop	{r0, r1, r2, r3, pc}
 8004d48:	f847 6d04 	str.w	r6, [r7, #-4]!
 8004d4c:	2640      	movs	r6, #64	; 0x40
 8004d4e:	f7fe fdc1 	bl	80038d4 <Code_867>
 8004d52:	bd0f      	pop	{r0, r1, r2, r3, pc}

08004d54 <inline_cache_parser>:
 8004d54:	b500      	push	{lr}
 8004d56:	0030      	movs	r0, r6
 8004d58:	cf40      	ldmia	r7!, {r6}
 8004d5a:	f7fe fc04 	bl	8003566 <suchedefinitionsende>
 8004d5e:	8801      	ldrh	r1, [r0, #0]
 8004d60:	3002      	adds	r0, #2
 8004d62:	f847 6d04 	str.w	r6, [r7, #-4]!
 8004d66:	8806      	ldrh	r6, [r0, #0]
 8004d68:	8842      	ldrh	r2, [r0, #2]
 8004d6a:	0412      	lsls	r2, r2, #16
 8004d6c:	4316      	orrs	r6, r2
 8004d6e:	f847 6d04 	str.w	r6, [r7, #-4]!
 8004d72:	8886      	ldrh	r6, [r0, #4]
 8004d74:	b403      	push	{r0, r1}
 8004d76:	f7ff ff3e 	bl	8004bf6 <kompilator>
 8004d7a:	bc03      	pop	{r0, r1}
 8004d7c:	3006      	adds	r0, #6
 8004d7e:	3901      	subs	r1, #1
 8004d80:	d1ef      	bne.n	8004d62 <inline_cache_parser+0xe>
 8004d82:	bd00      	pop	{pc}

08004d84 <Dictionary_1231>:
 8004d84:	08004dcc 	stmdaeq	r0, {r2, r3, r6, r7, r8, sl, fp, lr}
 8004d88:	65080000 	strvs	r0, [r8, #-0]
 8004d8c:	756c6176 	strbvc	r6, [ip, #-374]!	; 0xfffffe8a
 8004d90:	00657461 	rsbeq	r7, r5, r1, ror #8

08004d94 <Code_1231>:
 8004d94:	b500      	push	{lr}
 8004d96:	f7fd ffb6 	bl	8002d06 <Code_657>
 8004d9a:	cf01      	ldmia	r7!, {r0}
 8004d9c:	b401      	push	{r0}
 8004d9e:	b440      	push	{r6}
 8004da0:	cf40      	ldmia	r7!, {r6}
 8004da2:	4884      	ldr	r0, [pc, #528]	; (8004fb4 <quit_innenschleife+0x64>)
 8004da4:	6801      	ldr	r1, [r0, #0]
 8004da6:	b402      	push	{r1}
 8004da8:	2100      	movs	r1, #0
 8004daa:	6001      	str	r1, [r0, #0]
 8004dac:	f7fd ff9e 	bl	8002cec <Code_655>
 8004db0:	f000 f814 	bl	8004ddc <Code_1233>
 8004db4:	487f      	ldr	r0, [pc, #508]	; (8004fb4 <quit_innenschleife+0x64>)
 8004db6:	bc02      	pop	{r1}
 8004db8:	6001      	str	r1, [r0, #0]
 8004dba:	f847 6d04 	str.w	r6, [r7, #-4]!
 8004dbe:	bc40      	pop	{r6}
 8004dc0:	bc01      	pop	{r0}
 8004dc2:	3f04      	subs	r7, #4
 8004dc4:	6038      	str	r0, [r7, #0]
 8004dc6:	f7fd ff91 	bl	8002cec <Code_655>
 8004dca:	bd00      	pop	{pc}

08004dcc <Dictionary_1233>:
 8004dcc:	08004ef6 	stmdaeq	r0, {r1, r2, r4, r5, r6, r7, r9, sl, fp, lr}
 8004dd0:	69090000 	stmdbvs	r9, {}	; <UNPREDICTABLE>
 8004dd4:	7265746e 	rsbvc	r7, r5, #1845493760	; 0x6e000000
 8004dd8:	74657270 	strbtvc	r7, [r5], #-624	; 0xfffffd90

08004ddc <Code_1233>:
 8004ddc:	b500      	push	{lr}
 8004dde:	4876      	ldr	r0, [pc, #472]	; (8004fb8 <quit_innenschleife+0x68>)
 8004de0:	4287      	cmp	r7, r0
 8004de2:	d90f      	bls.n	8004e04 <Code_1233+0x28>
 8004de4:	f7fe f842 	bl	8002e6c <dotgaensefuesschen>
 8004de8:	335b1b19 	cmpcc	fp, #25600	; 0x6400
 8004dec:	74536d31 	ldrbvc	r6, [r3], #-3377	; 0xfffff2cf
 8004df0:	206b6361 	rsbcs	r6, fp, r1, ror #6
 8004df4:	65646e75 	strbvs	r6, [r4, #-3701]!	; 0xfffff18b
 8004df8:	6f6c6672 	svcvs	0x006c6672
 8004dfc:	305b1b77 	subscc	r1, fp, r7, ror fp
 8004e00:	e08c0a6d 	add	r0, ip, sp, ror #20
 8004e04:	486d      	ldr	r0, [pc, #436]	; (8004fbc <quit_innenschleife+0x6c>)
 8004e06:	4287      	cmp	r7, r0
 8004e08:	d20f      	bcs.n	8004e2a <Code_1233+0x4e>
 8004e0a:	f7fe f82f 	bl	8002e6c <dotgaensefuesschen>
 8004e0e:	335b1b18 	cmpcc	fp, #24, 22	; 0x6000
 8004e12:	74536d31 	ldrbvc	r6, [r3], #-3377	; 0xfffff2cf
 8004e16:	206b6361 	rsbcs	r6, fp, r1, ror #6
 8004e1a:	7265766f 	rsbvc	r7, r5, #116391936	; 0x6f00000
 8004e1e:	776f6c66 	strbvc	r6, [pc, -r6, ror #24]!
 8004e22:	6d305b1b 	fldmdbxvs	r0!, {d5-d17}	;@ Deprecated
 8004e26:	e079000a 	rsbs	r0, r9, sl
 8004e2a:	f7ff fec9 	bl	8004bc0 <konstantenfaltungszeiger_setzen>
 8004e2e:	f7ff fce7 	bl	8004800 <Code_1133>
 8004e32:	2e00      	cmp	r6, #0
 8004e34:	d102      	bne.n	8004e3c <Code_1233+0x60>
 8004e36:	3704      	adds	r7, #4
 8004e38:	cf40      	ldmia	r7!, {r6}
 8004e3a:	bd00      	pop	{pc}
 8004e3c:	6838      	ldr	r0, [r7, #0]
 8004e3e:	f847 6d04 	str.w	r6, [r7, #-4]!
 8004e42:	3f04      	subs	r7, #4
 8004e44:	6038      	str	r0, [r7, #0]
 8004e46:	f7ff f8ae 	bl	8003fa6 <Code_965>
 8004e4a:	0031      	movs	r1, r6
 8004e4c:	cf40      	ldmia	r7!, {r6}
 8004e4e:	0032      	movs	r2, r6
 8004e50:	cf40      	ldmia	r7!, {r6}
 8004e52:	2a00      	cmp	r2, #0
 8004e54:	d11f      	bne.n	8004e96 <.interpret_token_found>
 8004e56:	6838      	ldr	r0, [r7, #0]
 8004e58:	0031      	movs	r1, r6
 8004e5a:	f7fc fc5d 	bl	8001718 <sprungschreiber_flaggenerator>
 8004e5e:	f7ff fd2b 	bl	80048b8 <Code_1138>
 8004e62:	0032      	movs	r2, r6
 8004e64:	cf40      	ldmia	r7!, {r6}
 8004e66:	2a00      	cmp	r2, #0
 8004e68:	d1b9      	bne.n	8004dde <Code_1233+0x2>

08004e6a <not_found_addr_r0_len_r1>:
 8004e6a:	f847 6d04 	str.w	r6, [r7, #-4]!
 8004e6e:	0006      	movs	r6, r0
 8004e70:	f847 6d04 	str.w	r6, [r7, #-4]!
 8004e74:	000e      	movs	r6, r1
 8004e76:	f7fe f84d 	bl	8002f14 <Code_705>
 8004e7a:	f7fd fff7 	bl	8002e6c <dotgaensefuesschen>
 8004e7e:	335b1b15 	cmpcc	fp, #21504	; 0x5400
 8004e82:	6e206d31 	mcrvs	13, 1, r6, cr0, cr1, {1}
 8004e86:	6620746f 	strtvs	r7, [r0], -pc, ror #8
 8004e8a:	646e756f 	strbtvs	r7, [lr], #-1391	; 0xfffffa91
 8004e8e:	305b1b2e 	subscc	r1, fp, lr, lsr #22
 8004e92:	e0430a6d 	sub	r0, r3, sp, ror #20

08004e96 <.interpret_token_found>:
 8004e96:	4b4a      	ldr	r3, [pc, #296]	; (8004fc0 <quit_innenschleife+0x70>)
 8004e98:	681b      	ldr	r3, [r3, #0]
 8004e9a:	2b00      	cmp	r3, #0
 8004e9c:	d120      	bne.n	8004ee0 <.ausfuehren+0x10>
 8004e9e:	f7ff fe9e 	bl	8004bde <konstantenfaltungszeiger_loeschen>
 8004ea2:	2330      	movs	r3, #48	; 0x30
 8004ea4:	400b      	ands	r3, r1
 8004ea6:	2b30      	cmp	r3, #48	; 0x30
 8004ea8:	d112      	bne.n	8004ed0 <.ausfuehren>
 8004eaa:	f7fe f833 	bl	8002f14 <Code_705>
 8004eae:	f7fd ffdd 	bl	8002e6c <dotgaensefuesschen>
 8004eb2:	335b1b1b 	cmpcc	fp, #27648	; 0x6c00
 8004eb6:	69206d31 	stmdbvs	r0!, {r0, r4, r5, r8, sl, fp, sp, lr}
 8004eba:	6f632073 	svcvs	0x00632073
 8004ebe:	6c69706d 	stclvs	0, cr7, [r9], #-436	; 0xfffffe4c
 8004ec2:	6e6f2d65 	cdpvs	13, 6, cr2, cr15, cr5, {3}
 8004ec6:	1b2e796c 	blne	8ba347e <FlashDictionaryEnde+0xaa347e>
 8004eca:	0a6d305b 	beq	9b5103e <FlashDictionaryEnde+0x1a5103e>
 8004ece:	e026      	b.n	8004f1e <Code_1262>

08004ed0 <.ausfuehren>:
 8004ed0:	3704      	adds	r7, #4
 8004ed2:	cf40      	ldmia	r7!, {r6}
 8004ed4:	f847 6d04 	str.w	r6, [r7, #-4]!
 8004ed8:	0016      	movs	r6, r2
 8004eda:	f7fe fbe6 	bl	80036aa <Code_822>
 8004ede:	e77e      	b.n	8004dde <Code_1233+0x2>
 8004ee0:	3704      	adds	r7, #4
 8004ee2:	cf40      	ldmia	r7!, {r6}
 8004ee4:	f847 6d04 	str.w	r6, [r7, #-4]!
 8004ee8:	0016      	movs	r6, r2
 8004eea:	f847 6d04 	str.w	r6, [r7, #-4]!
 8004eee:	000e      	movs	r6, r1
 8004ef0:	f7ff fe81 	bl	8004bf6 <kompilator>
 8004ef4:	e773      	b.n	8004dde <Code_1233+0x2>

08004ef6 <Dictionary_1259>:
 8004ef6:	08004f12 	stmdaeq	r0, {r1, r4, r8, r9, sl, fp, lr}
 8004efa:	68090081 	stmdavs	r9, {r0, r7}
 8004efe:	2d6b6f6f 	stclcs	15, cr6, [fp, #-444]!	; 0xfffffe44
 8004f02:	74697571 	strbtvc	r7, [r9], #-1393	; 0xfffffa8f

08004f06 <Code_1259>:
 8004f06:	f847 6d04 	str.w	r6, [r7, #-4]!
 8004f0a:	4e2e      	ldr	r6, [pc, #184]	; (8004fc4 <quit_innenschleife+0x74>)
 8004f0c:	4770      	bx	lr
 8004f0e:	08004f50 	stmdaeq	r0, {r4, r6, r8, r9, sl, fp, lr}

08004f12 <Dictionary_1262>:
 8004f12:	08004fdc 	stmdaeq	r0, {r2, r3, r4, r6, r7, r8, r9, sl, fp, lr}
 8004f16:	71040000 	mrsvc	r0, (UNDEF: 4)
 8004f1a:	00746975 	rsbseq	r6, r4, r5, ror r9

08004f1e <Code_1262>:
 8004f1e:	f8df d0a8 	ldr.w	sp, [pc, #168]	; 8004fc8 <quit_innenschleife+0x78>
 8004f22:	4f25      	ldr	r7, [pc, #148]	; (8004fb8 <quit_innenschleife+0x68>)
 8004f24:	f7fd f974 	bl	8002210 <Code_482>
 8004f28:	4828      	ldr	r0, [pc, #160]	; (8004fcc <quit_innenschleife+0x7c>)
 8004f2a:	210a      	movs	r1, #10
 8004f2c:	6001      	str	r1, [r0, #0]
 8004f2e:	4824      	ldr	r0, [pc, #144]	; (8004fc0 <quit_innenschleife+0x70>)
 8004f30:	2100      	movs	r1, #0
 8004f32:	6001      	str	r1, [r0, #0]
 8004f34:	f04f 5010 	mov.w	r0, #603979776	; 0x24000000
 8004f38:	6001      	str	r1, [r0, #0]
 8004f3a:	f7fb fa42 	bl	80003c2 <init_register_allocator>
 8004f3e:	481d      	ldr	r0, [pc, #116]	; (8004fb4 <quit_innenschleife+0x64>)
 8004f40:	6001      	str	r1, [r0, #0]
 8004f42:	4823      	ldr	r0, [pc, #140]	; (8004fd0 <quit_innenschleife+0x80>)
 8004f44:	6001      	str	r1, [r0, #0]
 8004f46:	4923      	ldr	r1, [pc, #140]	; (8004fd4 <quit_innenschleife+0x84>)
 8004f48:	6041      	str	r1, [r0, #4]

08004f4a <quit_intern>:
 8004f4a:	481e      	ldr	r0, [pc, #120]	; (8004fc4 <quit_innenschleife+0x74>)
 8004f4c:	6800      	ldr	r0, [r0, #0]
 8004f4e:	4687      	mov	pc, r0

08004f50 <quit_innenschleife>:
 8004f50:	f7fd fee7 	bl	8002d22 <Code_659>
 8004f54:	f7ff ff42 	bl	8004ddc <Code_1233>
 8004f58:	4819      	ldr	r0, [pc, #100]	; (8004fc0 <quit_innenschleife+0x70>)
 8004f5a:	6800      	ldr	r0, [r0, #0]
 8004f5c:	2800      	cmp	r0, #0
 8004f5e:	d006      	beq.n	8004f6e <quit_innenschleife+0x1e>
 8004f60:	f7fd ff84 	bl	8002e6c <dotgaensefuesschen>
 8004f64:	5b1b2006 	blpl	86ccf84 <FlashDictionaryEnde+0x5ccf84>
 8004f68:	006d3433 	rsbeq	r3, sp, r3, lsr r4
 8004f6c:	e005      	b.n	8004f7a <quit_innenschleife+0x2a>
 8004f6e:	f7fd ff7d 	bl	8002e6c <dotgaensefuesschen>
 8004f72:	5b1b2006 	blpl	86ccf92 <FlashDictionaryEnde+0x5ccf92>
 8004f76:	006d3633 	rsbeq	r3, sp, r3, lsr r6
 8004f7a:	4817      	ldr	r0, [pc, #92]	; (8004fd8 <quit_innenschleife+0x88>)
 8004f7c:	6800      	ldr	r0, [r0, #0]
 8004f7e:	f04f 5110 	mov.w	r1, #603979776	; 0x24000000
 8004f82:	4288      	cmp	r0, r1
 8004f84:	d207      	bcs.n	8004f96 <quit_innenschleife+0x46>
 8004f86:	f7fd ff71 	bl	8002e6c <dotgaensefuesschen>
 8004f8a:	276b6f08 	strbcs	r6, [fp, -r8, lsl #30]!
 8004f8e:	6d305b1b 	fldmdbxvs	r0!, {d5-d17}	;@ Deprecated
 8004f92:	e7dc000a 	ldrb	r0, [ip, sl]
 8004f96:	f7fd ff69 	bl	8002e6c <dotgaensefuesschen>
 8004f9a:	2e6b6f08 	cdpcs	15, 6, cr6, cr11, cr8, {0}
 8004f9e:	6d305b1b 	fldmdbxvs	r0!, {d5-d17}	;@ Deprecated
 8004fa2:	e7d4000a 	ldrb	r0, [r4, sl]
 8004fa6:	00200000 	eoreq	r0, r0, r0
 8004faa:	00542400 	subseq	r2, r4, r0, lsl #8
 8004fae:	00582400 	subseq	r2, r8, r0, lsl #8
 8004fb2:	ffe42400 			; <UNDEFINED> instruction: 0xffe42400
 8004fb6:	02882407 	addeq	r2, r8, #117440512	; 0x7000000
 8004fba:	01882400 	orreq	r2, r8, r0, lsl #8
 8004fbe:	ffd82400 			; <UNDEFINED> instruction: 0xffd82400
 8004fc2:	ffc82407 			; <UNDEFINED> instruction: 0xffc82407
 8004fc6:	03882407 	orreq	r2, r8, #117440512	; 0x7000000
 8004fca:	fffc2400 			; <UNDEFINED> instruction: 0xfffc2400
 8004fce:	ffdc2407 			; <UNDEFINED> instruction: 0xffdc2407
 8004fd2:	00c02407 	sbceq	r2, r0, r7, lsl #8
 8004fd6:	ffd02400 			; <UNDEFINED> instruction: 0xffd02400
 8004fda:	 	svcmi	0x00f62407

08004fdc <Dictionary_1267>:
 8004fdc:	08004ff6 	stmdaeq	r0, {r1, r2, r4, r5, r6, r7, r8, r9, sl, fp, lr}
 8004fe0:	65050000 	strvs	r0, [r5, #-0]
 8004fe4:	3f746e69 	svccc	0x00746e69

08004fe8 <Code_1267>:
 8004fe8:	f847 6d04 	str.w	r6, [r7, #-4]!
 8004fec:	f3ef 8610 	mrs	r6, PRIMASK
 8004ff0:	3e01      	subs	r6, #1
 8004ff2:	41b6      	sbcs	r6, r6
 8004ff4:	4770      	bx	lr

08004ff6 <Dictionary_1269>:
 8004ff6:	08005006 	stmdaeq	r0, {r1, r2, ip, lr}
 8004ffa:	65040020 	strvs	r0, [r4, #-32]	; 0xffffffe0
 8004ffe:	00746e69 	rsbseq	r6, r4, r9, ror #28

08005002 <Code_1269>:
 8005002:	b662      	cpsie	i
 8005004:	4770      	bx	lr

08005006 <Dictionary_1270>:
 8005006:	08005016 	stmdaeq	r0, {r1, r2, r4, ip, lr}
 800500a:	64040020 	strvs	r0, [r4], #-32	; 0xffffffe0
 800500e:	00746e69 	rsbseq	r6, r4, r9, ror #28

08005012 <Code_1270>:
 8005012:	b672      	cpsid	i
 8005014:	4770      	bx	lr

08005016 <Dictionary_1271>:
 8005016:	0800502c 	stmdaeq	r0, {r2, r3, r5, ip, lr}
 800501a:	69040020 	stmdbvs	r4, {r5}
 800501e:	00727370 	rsbseq	r7, r2, r0, ror r3

08005022 <Code_1271>:
 8005022:	f847 6d04 	str.w	r6, [r7, #-4]!
 8005026:	f3ef 8605 	mrs	r6, IPSR
 800502a:	4770      	bx	lr

0800502c <Dictionary_1273>:
 800502c:	08005038 	stmdaeq	r0, {r3, r4, r5, ip, lr}
 8005030:	6e030000 	cdpvs	0, 0, cr0, cr3, cr0, {0}
 8005034:	 	ldrbmi	r7, [r0, -pc, rrx]!

08005036 <Code_1273>:
 8005036:	4770      	bx	lr

08005038 <Dictionary_1274>:
 8005038:	0800507a 	stmdaeq	r0, {r1, r3, r4, r5, r6, ip, lr}
 800503c:	75090000 	strvc	r0, [r9, #-0]
 8005040:	6e61686e 	cdpvs	8, 6, cr6, cr1, cr14, {3}
 8005044:	64656c64 	strbtvs	r6, [r5], #-3172	; 0xfffff39c

08005048 <Code_1274>:
 8005048:	b500      	push	{lr}
 800504a:	f7fd ff0f 	bl	8002e6c <dotgaensefuesschen>
 800504e:	686e5514 	stmdavs	lr!, {r2, r4, r8, sl, ip, lr}^
 8005052:	6c646e61 	stclvs	14, cr6, [r4], #-388	; 0xfffffe7c
 8005056:	49206465 	stmdbmi	r0!, {r0, r2, r5, r6, sl, sp, lr}
 800505a:	7265746e 	rsbvc	r7, r5, #1845493760	; 0x6e000000
 800505e:	74707572 	ldrbtvc	r7, [r0], #-1394	; 0xfffffa8e
 8005062:	f8470020 			; <UNDEFINED> instruction: 0xf8470020
 8005066:	6d04      	ldr	r4, [r0, #80]	; 0x50
 8005068:	f3ef 8605 	mrs	r6, IPSR
 800506c:	f7fd ff66 	bl	8002f3c <Code_708>
 8005070:	f7fd fefc 	bl	8002e6c <dotgaensefuesschen>
 8005074:	000a2102 	andeq	r2, sl, r2, lsl #2
 8005078:	bd00      	pop	{pc}

0800507a <Dictionary_1278>:
 800507a:	0800508c 	stmdaeq	r0, {r2, r3, r7, ip, lr}
 800507e:	72050000 	andvc	r0, r5, #0
 8005082:	74657365 	strbtvc	r7, [r5], #-869	; 0xfffffc9b

08005086 <Code_1278>:
 8005086:	48c8      	ldr	r0, [pc, #800]	; (80053a8 <init_name+0x6>)
 8005088:	49c8      	ldr	r1, [pc, #800]	; (80053ac <init_name+0xa>)
 800508a:	6001      	str	r1, [r0, #0]

0800508c <Dictionary_1280>:
 800508c:	080050b6 	stmdaeq	r0, {r1, r2, r4, r5, r7, ip, lr}
 8005090:	690b0081 	stmdbvs	fp, {r0, r7}
 8005094:	732d7172 			; <UNDEFINED> instruction: 0x732d7172
 8005098:	69747379 	ldmdbvs	r4!, {r0, r3, r4, r5, r6, r8, r9, ip, sp, lr}^
 800509c:	 			; <UNDEFINED> instruction: 0xf8476b63

0800509e <Code_1280>:
 800509e:	f847 6d04 	str.w	r6, [r7, #-4]!
 80050a2:	4ec3      	ldr	r6, [pc, #780]	; (80053b0 <init_name+0xe>)
 80050a4:	4770      	bx	lr
 80050a6:	08005048 	stmdaeq	r0, {r3, r6, ip, lr}

080050aa <irq_vektor_systick>:
 80050aa:	f64f 70c4 	movw	r0, #65476	; 0xffc4
 80050ae:	f2c2 4007 	movt	r0, #9223	; 0x2407
 80050b2:	6800      	ldr	r0, [r0, #0]
 80050b4:	4687      	mov	pc, r0

080050b6 <Dictionary_1284>:
 80050b6:	080050de 	stmdaeq	r0, {r1, r2, r3, r4, r6, r7, ip, lr}
 80050ba:	69090081 	stmdbvs	r9, {r0, r7}
 80050be:	662d7172 			; <UNDEFINED> instruction: 0x662d7172
 80050c2:	746c7561 	strbtvc	r7, [ip], #-1377	; 0xfffffa9f

080050c6 <Code_1284>:
 80050c6:	f847 6d04 	str.w	r6, [r7, #-4]!
 80050ca:	4eba      	ldr	r6, [pc, #744]	; (80053b4 <init_name+0x12>)
 80050cc:	4770      	bx	lr
 80050ce:	08005048 	stmdaeq	r0, {r3, r6, ip, lr}

080050d2 <faulthandler>:
 80050d2:	f64f 70c0 	movw	r0, #65472	; 0xffc0
 80050d6:	f2c2 4007 	movt	r0, #9223	; 0x2407
 80050da:	6800      	ldr	r0, [r0, #0]
 80050dc:	4687      	mov	pc, r0

080050de <Dictionary_1288>:
 80050de:	0800510c 	stmdaeq	r0, {r2, r3, r8, ip, lr}
 80050e2:	690e0081 	stmdbvs	lr, {r0, r7}
 80050e6:	632d7172 			; <UNDEFINED> instruction: 0x632d7172
 80050ea:	656c6c6f 	strbvs	r6, [ip, #-3183]!	; 0xfffff391
 80050ee:	6f697463 	svcvs	0x00697463
 80050f2:	 			; <UNDEFINED> instruction: 0xf847006e

080050f4 <Code_1288>:
 80050f4:	f847 6d04 	str.w	r6, [r7, #-4]!
 80050f8:	4eaf      	ldr	r6, [pc, #700]	; (80053b8 <init_name+0x16>)
 80050fa:	4770      	bx	lr
 80050fc:	08005048 	stmdaeq	r0, {r3, r6, ip, lr}

08005100 <nullhandler>:
 8005100:	f64f 70bc 	movw	r0, #65468	; 0xffbc
 8005104:	f2c2 4007 	movt	r0, #9223	; 0x2407
 8005108:	6800      	ldr	r0, [r0, #0]
 800510a:	4687      	mov	pc, r0

0800510c <Dictionary_1292>:
 800510c:	08005134 	stmdaeq	r0, {r2, r4, r5, r8, ip, lr}
 8005110:	69090081 	stmdbvs	r9, {r0, r7}
 8005114:	652d7172 	strvs	r7, [sp, #-370]!	; 0xfffffe8e
 8005118:	30697478 	rsbcc	r7, r9, r8, ror r4

0800511c <Code_1292>:
 800511c:	f847 6d04 	str.w	r6, [r7, #-4]!
 8005120:	4ea6      	ldr	r6, [pc, #664]	; (80053bc <init_name+0x1a>)
 8005122:	4770      	bx	lr
 8005124:	08005048 	stmdaeq	r0, {r3, r6, ip, lr}

08005128 <irq_vektor_exti0>:
 8005128:	f64f 70b8 	movw	r0, #65464	; 0xffb8
 800512c:	f2c2 4007 	movt	r0, #9223	; 0x2407
 8005130:	6800      	ldr	r0, [r0, #0]
 8005132:	4687      	mov	pc, r0

08005134 <Dictionary_1296>:
 8005134:	0800515c 	stmdaeq	r0, {r2, r3, r4, r6, r8, ip, lr}
 8005138:	69090081 	stmdbvs	r9, {r0, r7}
 800513c:	652d7172 	strvs	r7, [sp, #-370]!	; 0xfffffe8e
 8005140:	31697478 	smccc	38728	; 0x9748

08005144 <Code_1296>:
 8005144:	f847 6d04 	str.w	r6, [r7, #-4]!
 8005148:	4e9d      	ldr	r6, [pc, #628]	; (80053c0 <init_name+0x1e>)
 800514a:	4770      	bx	lr
 800514c:	08005048 	stmdaeq	r0, {r3, r6, ip, lr}

08005150 <irq_vektor_exti1>:
 8005150:	f64f 70b4 	movw	r0, #65460	; 0xffb4
 8005154:	f2c2 4007 	movt	r0, #9223	; 0x2407
 8005158:	6800      	ldr	r0, [r0, #0]
 800515a:	4687      	mov	pc, r0

0800515c <Dictionary_1300>:
 800515c:	08005184 	stmdaeq	r0, {r2, r7, r8, ip, lr}
 8005160:	69090081 	stmdbvs	r9, {r0, r7}
 8005164:	652d7172 	strvs	r7, [sp, #-370]!	; 0xfffffe8e
 8005168:	32697478 	rsbcc	r7, r9, #120, 8	; 0x78000000

0800516c <Code_1300>:
 800516c:	f847 6d04 	str.w	r6, [r7, #-4]!
 8005170:	4e94      	ldr	r6, [pc, #592]	; (80053c4 <init_name+0x22>)
 8005172:	4770      	bx	lr
 8005174:	08005048 	stmdaeq	r0, {r3, r6, ip, lr}

08005178 <irq_vektor_exti2>:
 8005178:	f64f 70b0 	movw	r0, #65456	; 0xffb0
 800517c:	f2c2 4007 	movt	r0, #9223	; 0x2407
 8005180:	6800      	ldr	r0, [r0, #0]
 8005182:	4687      	mov	pc, r0

08005184 <Dictionary_1304>:
 8005184:	080051ac 	stmdaeq	r0, {r2, r3, r5, r7, r8, ip, lr}
 8005188:	69090081 	stmdbvs	r9, {r0, r7}
 800518c:	652d7172 	strvs	r7, [sp, #-370]!	; 0xfffffe8e
 8005190:	33697478 	cmncc	r9, #120, 8	; 0x78000000

08005194 <Code_1304>:
 8005194:	f847 6d04 	str.w	r6, [r7, #-4]!
 8005198:	4e8b      	ldr	r6, [pc, #556]	; (80053c8 <init_name+0x26>)
 800519a:	4770      	bx	lr
 800519c:	08005048 	stmdaeq	r0, {r3, r6, ip, lr}

080051a0 <irq_vektor_exti3>:
 80051a0:	f64f 70ac 	movw	r0, #65452	; 0xffac
 80051a4:	f2c2 4007 	movt	r0, #9223	; 0x2407
 80051a8:	6800      	ldr	r0, [r0, #0]
 80051aa:	4687      	mov	pc, r0

080051ac <Dictionary_1308>:
 80051ac:	080051d4 	stmdaeq	r0, {r2, r4, r6, r7, r8, ip, lr}
 80051b0:	69090081 	stmdbvs	r9, {r0, r7}
 80051b4:	652d7172 	strvs	r7, [sp, #-370]!	; 0xfffffe8e
 80051b8:	34697478 	strbtcc	r7, [r9], #-1144	; 0xfffffb88

080051bc <Code_1308>:
 80051bc:	f847 6d04 	str.w	r6, [r7, #-4]!
 80051c0:	4e82      	ldr	r6, [pc, #520]	; (80053cc <init_name+0x2a>)
 80051c2:	4770      	bx	lr
 80051c4:	08005048 	stmdaeq	r0, {r3, r6, ip, lr}

080051c8 <irq_vektor_exti4>:
 80051c8:	f64f 70a8 	movw	r0, #65448	; 0xffa8
 80051cc:	f2c2 4007 	movt	r0, #9223	; 0x2407
 80051d0:	6800      	ldr	r0, [r0, #0]
 80051d2:	4687      	mov	pc, r0

080051d4 <Dictionary_1312>:
 80051d4:	080051fa 	stmdaeq	r0, {r1, r3, r4, r5, r6, r7, r8, ip, lr}
 80051d8:	69070081 	stmdbvs	r7, {r0, r7}
 80051dc:	612d7172 			; <UNDEFINED> instruction: 0x612d7172
 80051e0:	 			; <UNDEFINED> instruction: 0xf8476364

080051e2 <Code_1312>:
 80051e2:	f847 6d04 	str.w	r6, [r7, #-4]!
 80051e6:	4e7a      	ldr	r6, [pc, #488]	; (80053d0 <init_name+0x2e>)
 80051e8:	4770      	bx	lr
 80051ea:	08005048 	stmdaeq	r0, {r3, r6, ip, lr}

080051ee <irq_vektor_adc>:
 80051ee:	f64f 70a4 	movw	r0, #65444	; 0xffa4
 80051f2:	f2c2 4007 	movt	r0, #9223	; 0x2407
 80051f6:	6800      	ldr	r0, [r0, #0]
 80051f8:	4687      	mov	pc, r0

080051fa <Dictionary_1316>:
 80051fa:	08005222 	stmdaeq	r0, {r1, r5, r9, ip, lr}
 80051fe:	69080081 	stmdbvs	r8, {r0, r7}
 8005202:	742d7172 	strtvc	r7, [sp], #-370	; 0xfffffe8e
 8005206:	00326d69 	eorseq	r6, r2, r9, ror #26

0800520a <Code_1316>:
 800520a:	f847 6d04 	str.w	r6, [r7, #-4]!
 800520e:	4e71      	ldr	r6, [pc, #452]	; (80053d4 <init_name+0x32>)
 8005210:	4770      	bx	lr
 8005212:	08005048 	stmdaeq	r0, {r3, r6, ip, lr}

08005216 <irq_vektor_tim2>:
 8005216:	f64f 70a0 	movw	r0, #65440	; 0xffa0
 800521a:	f2c2 4007 	movt	r0, #9223	; 0x2407
 800521e:	6800      	ldr	r0, [r0, #0]
 8005220:	4687      	mov	pc, r0

08005222 <Dictionary_1320>:
 8005222:	0800524a 	stmdaeq	r0, {r1, r3, r6, r9, ip, lr}
 8005226:	69080081 	stmdbvs	r8, {r0, r7}
 800522a:	742d7172 	strtvc	r7, [sp], #-370	; 0xfffffe8e
 800522e:	00336d69 	eorseq	r6, r3, r9, ror #26

08005232 <Code_1320>:
 8005232:	f847 6d04 	str.w	r6, [r7, #-4]!
 8005236:	4e68      	ldr	r6, [pc, #416]	; (80053d8 <init_name+0x36>)
 8005238:	4770      	bx	lr
 800523a:	08005048 	stmdaeq	r0, {r3, r6, ip, lr}

0800523e <irq_vektor_tim3>:
 800523e:	f64f 709c 	movw	r0, #65436	; 0xff9c
 8005242:	f2c2 4007 	movt	r0, #9223	; 0x2407
 8005246:	6800      	ldr	r0, [r0, #0]
 8005248:	4687      	mov	pc, r0

0800524a <Dictionary_1324>:
 800524a:	08005272 	stmdaeq	r0, {r1, r4, r5, r6, r9, ip, lr}
 800524e:	69080081 	stmdbvs	r8, {r0, r7}
 8005252:	742d7172 	strtvc	r7, [sp], #-370	; 0xfffffe8e
 8005256:	00346d69 	eorseq	r6, r4, r9, ror #26

0800525a <Code_1324>:
 800525a:	f847 6d04 	str.w	r6, [r7, #-4]!
 800525e:	4e5f      	ldr	r6, [pc, #380]	; (80053dc <init_name+0x3a>)
 8005260:	4770      	bx	lr
 8005262:	08005048 	stmdaeq	r0, {r3, r6, ip, lr}

08005266 <irq_vektor_tim4>:
 8005266:	f64f 7098 	movw	r0, #65432	; 0xff98
 800526a:	f2c2 4007 	movt	r0, #9223	; 0x2407
 800526e:	6800      	ldr	r0, [r0, #0]
 8005270:	4687      	mov	pc, r0

08005272 <Dictionary_1327>:
 8005272:	0802001c 	stmdaeq	r2, {r2, r3, r4}
 8005276:	2d18ffff 	ldccs	15, cr15, [r8, #-1020]	; 0xfffffc04
 800527a:	46202d2d 	strtmi	r2, [r0], -sp, lsr #26
 800527e:	6873616c 	ldmdavs	r3!, {r2, r3, r5, r6, r8, sp, lr}^
 8005282:	63694420 	cmnvs	r9, #32, 8	; 0x20000000
 8005286:	6e6f6974 			; <UNDEFINED> instruction: 0x6e6f6974
 800528a:	20797261 	rsbscs	r7, r9, r1, ror #4
 800528e:	002d2d2d 	eoreq	r2, sp, sp, lsr #26

08005292 <Code_1327>:
 8005292:	f7fd fb5d 	bl	8002950 <uart_init>
 8005296:	4852      	ldr	r0, [pc, #328]	; (80053e0 <init_name+0x3e>)
 8005298:	4685      	mov	sp, r0
 800529a:	4f52      	ldr	r7, [pc, #328]	; (80053e4 <init_name+0x42>)
 800529c:	262a      	movs	r6, #42	; 0x2a
 800529e:	f847 6d04 	str.w	r6, [r7, #-4]!
 80052a2:	4e51      	ldr	r6, [pc, #324]	; (80053e8 <init_name+0x46>)
 80052a4:	4d51      	ldr	r5, [pc, #324]	; (80053ec <init_name+0x4a>)

080052a6 <SucheFlashPointer_Hangelschleife>:
 80052a6:	88b1      	ldrh	r1, [r6, #4]
 80052a8:	f64f 73ff 	movw	r3, #65535	; 0xffff
 80052ac:	4299      	cmp	r1, r3
 80052ae:	d025      	beq.n	80052fc <Sucheflashpointer_Speicherbelegung_fertig>
 80052b0:	f44f 7380 	mov.w	r3, #256	; 0x100
 80052b4:	400b      	ands	r3, r1
 80052b6:	d00a      	beq.n	80052ce <SucheFlashPointer_Hangelschleife+0x28>
 80052b8:	1db0      	adds	r0, r6, #6
 80052ba:	f7fe fe65 	bl	8003f88 <skipstring>
 80052be:	f7fe f952 	bl	8003566 <suchedefinitionsende>
 80052c2:	8803      	ldrh	r3, [r0, #0]
 80052c4:	8840      	ldrh	r0, [r0, #2]
 80052c6:	0400      	lsls	r0, r0, #16
 80052c8:	4303      	orrs	r3, r0
 80052ca:	1aed      	subs	r5, r5, r3
 80052cc:	e016      	b.n	80052fc <Sucheflashpointer_Speicherbelegung_fertig>
 80052ce:	2380      	movs	r3, #128	; 0x80
 80052d0:	400b      	ands	r3, r1
 80052d2:	d013      	beq.n	80052fc <Sucheflashpointer_Speicherbelegung_fertig>
 80052d4:	230f      	movs	r3, #15
 80052d6:	4019      	ands	r1, r3
 80052d8:	0089      	lsls	r1, r1, #2
 80052da:	1a6d      	subs	r5, r5, r1
 80052dc:	1db0      	adds	r0, r6, #6
 80052de:	f7fe fe53 	bl	8003f88 <skipstring>
 80052e2:	f7fe f940 	bl	8003566 <suchedefinitionsende>
 80052e6:	f847 6d04 	str.w	r6, [r7, #-4]!
 80052ea:	0006      	movs	r6, r0
 80052ec:	f847 6d04 	str.w	r6, [r7, #-4]!
 80052f0:	002e      	movs	r6, r5
 80052f2:	f847 6d04 	str.w	r6, [r7, #-4]!
 80052f6:	000e      	movs	r6, r1
 80052f8:	f7fc fad4 	bl	80018a4 <Code_373>

080052fc <Sucheflashpointer_Speicherbelegung_fertig>:
 80052fc:	f7fe fe0e 	bl	8003f1c <Code_960>
 8005300:	0030      	movs	r0, r6
 8005302:	cf40      	ldmia	r7!, {r6}
 8005304:	d0cf      	beq.n	80052a6 <SucheFlashPointer_Hangelschleife>
 8005306:	483a      	ldr	r0, [pc, #232]	; (80053f0 <init_name+0x4e>)
 8005308:	6006      	str	r6, [r0, #0]
 800530a:	cf40      	ldmia	r7!, {r6}
 800530c:	4839      	ldr	r0, [pc, #228]	; (80053f4 <init_name+0x52>)
 800530e:	6005      	str	r5, [r0, #0]
 8005310:	f04f 6001 	mov.w	r0, #135266304	; 0x8100000
 8005314:	4938      	ldr	r1, [pc, #224]	; (80053f8 <init_name+0x56>)
 8005316:	f64f 72ff 	movw	r2, #65535	; 0xffff
 800531a:	4288      	cmp	r0, r1
 800531c:	d004      	beq.n	8005328 <Sucheflashpointer_Speicherbelegung_fertig+0x2c>
 800531e:	3802      	subs	r0, #2
 8005320:	8803      	ldrh	r3, [r0, #0]
 8005322:	4293      	cmp	r3, r2
 8005324:	d0f9      	beq.n	800531a <Sucheflashpointer_Speicherbelegung_fertig+0x1e>
 8005326:	3002      	adds	r0, #2
 8005328:	4934      	ldr	r1, [pc, #208]	; (80053fc <init_name+0x5a>)
 800532a:	6008      	str	r0, [r1, #0]
 800532c:	f7fc ff70 	bl	8002210 <Code_482>
 8005330:	f7fd fd9c 	bl	8002e6c <dotgaensefuesschen>
 8005334:	63654d41 	cmnvs	r5, #4160	; 0x1040
 8005338:	70736972 	rsbsvc	r6, r3, r2, ror r9
 800533c:	6574532d 	ldrbvs	r5, [r4, #-813]!	; 0xfffffcd3
 8005340:	72616c6c 	rsbvc	r6, r1, #108, 24	; 0x6c00
 8005344:	52207369 	eorpl	r7, r0, #-1543503871	; 0xa4000001
 8005348:	2e322041 	cdpcs	0, 3, cr2, cr2, cr1, {2}
 800534c:	20352e36 	eorscs	r2, r5, r6, lsr lr
 8005350:	20726f66 	rsbscs	r6, r2, r6, ror #30
 8005354:	334d5453 	movtcc	r5, #54355	; 0xd453
 8005358:	34374832 	ldrtcc	r4, [r7], #-2098	; 0xfffff7ce
 800535c:	754e2035 	strbvc	r2, [lr, #-53]	; 0xffffffcb
 8005360:	6f656c63 	svcvs	0x00656c63
 8005364:	20796220 	rsbscs	r6, r9, r0, lsr #4
 8005368:	7474614d 	ldrbtvc	r6, [r4], #-333	; 0xfffffeb3
 800536c:	73616968 	cmnvc	r1, #104, 18	; 0x1a0000
 8005370:	636f4b20 	cmnvs	pc, #32, 22	; 0x8000
 8005374:	f04f0a68 			; <UNDEFINED> instruction: 0xf04f0a68
 8005378:	5010      	str	r0, [r2, r0]
 800537a:	2100      	movs	r1, #0
 800537c:	6001      	str	r1, [r0, #0]
 800537e:	f7fb f820 	bl	80003c2 <init_register_allocator>
 8005382:	f847 6d04 	str.w	r6, [r7, #-4]!
 8005386:	4e1e      	ldr	r6, [pc, #120]	; (8005400 <init_name+0x5e>)
 8005388:	f847 6d04 	str.w	r6, [r7, #-4]!
 800538c:	2604      	movs	r6, #4
 800538e:	f7fe fe0a 	bl	8003fa6 <Code_965>
 8005392:	cf40      	ldmia	r7!, {r6}
 8005394:	2e00      	cmp	r6, #0
 8005396:	d002      	beq.n	800539e <Sucheflashpointer_Speicherbelegung_fertig+0xa2>
 8005398:	f7fe f987 	bl	80036aa <Code_822>
 800539c:	e5d5      	b.n	8004f4a <quit_intern>
 800539e:	cf40      	ldmia	r7!, {r6}
 80053a0:	e5bd      	b.n	8004f1e <Code_1262>

080053a2 <init_name>:
 80053a2:	74696e69 	strbtvc	r6, [r9], #-3689	; 0xfffff197
 80053a6:	ed0c0000 	stc	0, cr0, [ip, #-0]
 80053aa:	0004e000 	andeq	lr, r4, r0
 80053ae:	ffc405fa 			; <UNDEFINED> instruction: 0xffc405fa
 80053b2:	ffc02407 			; <UNDEFINED> instruction: 0xffc02407
 80053b6:	ffbc2407 			; <UNDEFINED> instruction: 0xffbc2407
 80053ba:	ffb82407 			; <UNDEFINED> instruction: 0xffb82407
 80053be:	ffb42407 			; <UNDEFINED> instruction: 0xffb42407
 80053c2:	ffb02407 			; <UNDEFINED> instruction: 0xffb02407
 80053c6:	ffac2407 			; <UNDEFINED> instruction: 0xffac2407
 80053ca:	ffa82407 			; <UNDEFINED> instruction: 0xffa82407
 80053ce:	ffa42407 			; <UNDEFINED> instruction: 0xffa42407
 80053d2:	ffa02407 			; <UNDEFINED> instruction: 0xffa02407
 80053d6:	ff9c2407 			; <UNDEFINED> instruction: 0xff9c2407
 80053da:	ff982407 			; <UNDEFINED> instruction: 0xff982407
 80053de:	03882407 	orreq	r2, r8, #117440512	; 0x7000000
 80053e2:	02882400 	addeq	r2, r8, #0, 8
 80053e6:	01e42400 	mvneq	r2, r0, lsl #8
 80053ea:	00000800 	andeq	r0, r0, r0, lsl #16
 80053ee:	00142408 	andseq	r2, r4, r8, lsl #8
 80053f2:	001c2400 	andseq	r2, ip, r0, lsl #8
 80053f6:	00002400 	andeq	r2, r0, r0, lsl #8
 80053fa:	00100802 	andseq	r0, r0, r2, lsl #16
 80053fe:	53a22400 			; <UNDEFINED> instruction: 0x53a22400
 8005402:	Address 0x0000000008005402 is out of bounds.


Disassembly of section .ARM.attributes:

00000000 <.ARM.attributes>:
   0:	00002041 	andeq	r2, r0, r1, asr #32
   4:	61656100 	cmnvs	r5, r0, lsl #2
   8:	01006962 	tsteq	r0, r2, ror #18
   c:	00000016 	andeq	r0, r0, r6, lsl r0
  10:	726f4305 	rsbvc	r4, pc, #335544320	; 0x14000000
  14:	2d786574 	cfldr64cs	mvdx6, [r8, #-464]!	; 0xfffffe30
  18:	0600374d 	streq	r3, [r0], -sp, asr #14
  1c:	094d070d 	stmdbeq	sp, {r0, r2, r3, r8, r9, sl}^
  20:	Address 0x0000000000000020 is out of bounds.


Disassembly of section .debug_line:

00000000 <.debug_line>:
       0:	000019dc 	ldrdeq	r1, [r0], -ip
       4:	02480003 	subeq	r0, r8, #3
       8:	01020000 	mrseq	r0, (UNDEF: 2)
       c:	000d0efb 	strdeq	r0, [sp], -fp
      10:	01010101 	tsteq	r1, r1, lsl #2
      14:	01000000 	mrseq	r0, (UNDEF: 0)
      18:	2e010000 	cdpcs	0, 0, cr0, cr1, cr0, {0}
      1c:	6f632f2e 	svcvs	0x00632f2e
      20:	6e6f6d6d 	cdpvs	13, 6, cr6, cr15, cr13, {3}
      24:	0061722f 	rsbeq	r7, r1, pc, lsr #4
      28:	632f2e2e 			; <UNDEFINED> instruction: 0x632f2e2e
      2c:	6f6d6d6f 	svcvs	0x006d6d6f
      30:	7200006e 	andvc	r0, r0, #110	; 0x6e
      34:	6e692d61 	cdpvs	13, 6, cr2, cr9, cr1, {3}
      38:	73617266 	cmnvc	r1, #1610612742	; 0x60000006
      3c:	63757274 	cmnvs	r5, #116, 4	; 0x40000007
      40:	65727574 	ldrbvs	r7, [r2, #-1396]!	; 0xfffffa8c
      44:	0100732e 	tsteq	r0, lr, lsr #6
      48:	61720000 	cmnvs	r2, r0
      4c:	6f6f742d 	svcvs	0x006f742d
      50:	732e736c 			; <UNDEFINED> instruction: 0x732e736c
      54:	00000100 	andeq	r0, r0, r0, lsl #2
      58:	62756f64 	rsbsvs	r6, r5, #100, 30	; 0x190
      5c:	732e656c 			; <UNDEFINED> instruction: 0x732e656c
      60:	00000100 	andeq	r0, r0, r0, lsl #2
      64:	63617473 	cmnvs	r1, #1929379840	; 0x73000000
      68:	67756a6b 	ldrbvs	r6, [r5, -fp, ror #20]!
      6c:	72656c67 	rsbvc	r6, r5, #26368	; 0x6700
      70:	00732e73 	rsbseq	r2, r3, r3, ror lr
      74:	6c000001 	stcvs	0, cr0, [r0], {1}
      78:	6369676f 	cmnvs	r9, #29097984	; 0x1bc0000
      7c:	0100732e 	tsteq	r0, lr, lsr #6
      80:	61720000 	cmnvs	r2, r0
      84:	676f6c2d 	strbvs	r6, [pc, -sp, lsr #24]!
      88:	732e6369 			; <UNDEFINED> instruction: 0x732e6369
      8c:	00000100 	andeq	r0, r0, r0, lsl #2
      90:	706d6f63 	rsbvc	r6, sp, r3, ror #30
      94:	73697261 	cmnvc	r9, #268435462	; 0x10000006
      98:	736e6f69 	cmnvc	lr, #420	; 0x1a4
      9c:	0100732e 	tsteq	r0, lr, lsr #6
      a0:	656d0000 	strbvs	r0, [sp, #-0]!
      a4:	79726f6d 	ldmdbvc	r2!, {r0, r2, r3, r5, r6, r8, r9, sl, fp, sp, lr}^
      a8:	0100732e 	tsteq	r0, lr, lsr #6
      ac:	6c660000 	stclvs	0, cr0, [r6], #-0
      b0:	2e687361 	cdpcs	3, 6, cr7, cr8, cr1, {3}
      b4:	00000073 	andeq	r0, r0, r3, ror r0
      b8:	616c6600 	cmnvs	ip, r0, lsl #12
      bc:	32336873 	eorscc	r6, r3, #7536640	; 0x730000
      c0:	65747962 	ldrbvs	r7, [r4, #-2402]!	; 0xfffff69e
      c4:	6f6c6273 	svcvs	0x006c6273
      c8:	72776b63 	rsbsvc	r6, r7, #101376	; 0x18c00
      cc:	2e657469 	cdpcs	4, 6, cr7, cr5, cr9, {3}
      d0:	00020073 	andeq	r0, r2, r3, ror r0
      d4:	6c616300 	stclvs	3, cr6, [r1], #-0
      d8:	616c7563 	cmnvs	ip, r3, ror #10
      dc:	6e6f6974 			; <UNDEFINED> instruction: 0x6e6f6974
      e0:	00732e73 	rsbseq	r2, r3, r3, ror lr
      e4:	74000001 	strvc	r0, [r0], #-1
      e8:	696d7265 	stmdbvs	sp!, {r0, r2, r5, r6, r9, ip, sp, lr}^
      ec:	2e6c616e 	powcsez	f6, f4, #0.5
      f0:	00000073 	andeq	r0, r0, r3, ror r0
      f4:	72657400 	rsbvc	r7, r5, #0, 8
      f8:	616e696d 	cmnvs	lr, sp, ror #18
      fc:	6f6f686c 	svcvs	0x006f686c
     100:	732e736b 			; <UNDEFINED> instruction: 0x732e736b
     104:	00000200 	andeq	r0, r0, r0, lsl #4
     108:	72657571 	rsbvc	r7, r5, #473956352	; 0x1c400000
     10c:	00732e79 	rsbseq	r2, r3, r9, ror lr
     110:	73000002 	movwvc	r0, #2
     114:	6e697274 	mcrvs	2, 3, r7, cr9, cr4, {3}
     118:	732e7367 			; <UNDEFINED> instruction: 0x732e7367
     11c:	00000200 	andeq	r0, r0, r0, lsl #4
     120:	70656564 	rsbvc	r6, r5, r4, ror #10
     124:	69736e69 	ldmdbvs	r3!, {r0, r3, r5, r6, r9, sl, fp, sp, lr}^
     128:	2e746867 	cdpcs	8, 7, cr6, cr4, cr7, {3}
     12c:	00020073 	andeq	r0, r2, r3, ror r0
     130:	646f6300 	strbtvs	r6, [pc], #-768	; 138 <BIT8+0x38>
     134:	6e656765 	cdpvs	7, 6, cr6, cr5, cr5, {3}
     138:	74617265 	strbtvc	r7, [r1], #-613	; 0xfffffd9b
     13c:	6d2d726f 	sfmvs	f7, 4, [sp, #-444]!	; 0xfffffe44
     140:	00732e33 	rsbseq	r2, r3, r3, lsr lr
     144:	63000002 	movwvs	r0, #2
     148:	69706d6f 	ldmdbvs	r0!, {r0, r1, r2, r3, r5, r6, r8, sl, fp, sp, lr}^
     14c:	2e72656c 	cdpcs	5, 7, cr6, cr2, cr12, {3}
     150:	00020073 	andeq	r0, r2, r3, ror r0
     154:	6d6f6300 	stclvs	3, cr6, [pc, #-0]	; 15c <Flag_buffer_foldable+0x1c>
     158:	656c6970 	strbvs	r6, [ip, #-2416]!	; 0xfffff690
     15c:	6c662d72 	stclvs	13, cr2, [r6], #-456	; 0xfffffe38
     160:	2e687361 	cdpcs	3, 6, cr7, cr8, cr1, {3}
     164:	00020073 	andeq	r0, r2, r3, ror r0
     168:	6e6f6300 	cdpvs	3, 6, cr6, cr15, cr0, {0}
     16c:	6c6f7274 	sfmvs	f7, 2, [pc], #-464	; ffffffa4 <erasedword+0xffffffa5>
     170:	75727473 	ldrbvc	r7, [r2, #-1139]!	; 0xfffffb8d
     174:	72757463 	rsbsvc	r7, r5, #1660944384	; 0x63000000
     178:	732e7365 			; <UNDEFINED> instruction: 0x732e7365
     17c:	00000100 	andeq	r0, r0, r0, lsl #2
     180:	6f6c6f64 	svcvs	0x006c6f64
     184:	732e706f 			; <UNDEFINED> instruction: 0x732e706f
     188:	00000100 	andeq	r0, r0, r0, lsl #2
     18c:	65736163 	ldrbvs	r6, [r3, #-355]!	; 0xfffffe9d
     190:	0100732e 	tsteq	r0, lr, lsr #6
     194:	6f740000 	svcvs	0x00740000
     198:	2e6e656b 	cdpcs	5, 6, cr6, cr14, cr11, {3}
     19c:	00020073 	andeq	r0, r2, r3, ror r0
     1a0:	6d756e00 	ldclvs	14, cr6, [r5, #-0]
     1a4:	73726562 	cmnvc	r2, #411041792	; 0x18800000
     1a8:	6e697274 	mcrvs	2, 3, r7, cr9, cr4, {3}
     1ac:	732e7367 			; <UNDEFINED> instruction: 0x732e7367
     1b0:	00000200 	andeq	r0, r0, r0, lsl #4
     1b4:	6b2d6172 	blvs	b58784 <BIT23+0x358784>
     1b8:	69706d6f 	ldmdbvs	r0!, {r0, r1, r2, r3, r5, r6, r8, sl, fp, sp, lr}^
     1bc:	6f74616c 	svcvs	0x0074616c
     1c0:	00732e72 	rsbseq	r2, r3, r2, ror lr
     1c4:	72000001 	andvc	r0, r0, #1
     1c8:	6e692d61 	cdpvs	13, 6, cr2, cr9, cr1, {3}
     1cc:	656e696c 	strbvs	r6, [lr, #-2412]!	; 0xfffff694
     1d0:	0100732e 	tsteq	r0, lr, lsr #6
     1d4:	6e690000 	cdpvs	0, 6, cr0, cr9, cr0, {0}
     1d8:	70726574 	rsbsvc	r6, r2, r4, ror r5
     1dc:	65746572 	ldrbvs	r6, [r4, #-1394]!	; 0xfffffa8e
     1e0:	00732e72 	rsbseq	r2, r3, r2, ror lr
     1e4:	69000001 	stmdbvs	r0, {r0}
     1e8:	7265746e 	rsbvc	r7, r5, #1845493760	; 0x6e000000
     1ec:	74707572 	ldrbtvc	r7, [r0], #-1394	; 0xfffffa8e
     1f0:	6f632d73 	svcvs	0x00632d73
     1f4:	6e6f6d6d 	cdpvs	13, 6, cr6, cr15, cr13, {3}
     1f8:	0200732e 	andeq	r7, r0, #-1207959552	; 0xb8000000
     1fc:	6e690000 	cdpvs	0, 6, cr0, cr9, cr0, {0}
     200:	72726574 	rsbsvc	r6, r2, #116, 10	; 0x1d000000
     204:	73747075 	cmnvc	r4, #117	; 0x75
     208:	0000732e 	andeq	r7, r0, lr, lsr #6
     20c:	656d0000 	strbvs	r0, [sp, #-0]!
     210:	73697263 	cmnvc	r9, #805306374	; 0x30000006
     214:	74732d70 	ldrbtvc	r2, [r3], #-3440	; 0xfffff290
     218:	616c6c65 	cmnvs	ip, r5, ror #24
     21c:	2d736972 			; <UNDEFINED> instruction: 0x2d736972
     220:	336d7473 	cmncc	sp, #1929379840	; 0x73000000
     224:	34376832 	ldrtcc	r6, [r7], #-2098	; 0xfffff7ce
     228:	00732e35 	rsbseq	r2, r3, r5, lsr lr
     22c:	63000000 	movwvs	r0, #0
     230:	68637461 	stmdavs	r3!, {r0, r5, r6, sl, ip, sp, lr}^
     234:	73616c66 	cmnvc	r1, #26112	; 0x6600
     238:	696f7068 	stmdbvs	pc!, {r3, r5, r6, ip, sp, lr}^	; <UNPREDICTABLE>
     23c:	7265746e 	rsbvc	r7, r5, #1845493760	; 0x6e000000
     240:	00732e73 	rsbseq	r2, r3, r3, ror lr
     244:	62000002 	andvs	r0, r0, #2
     248:	2e746f6f 	cdpcs	15, 7, cr6, cr4, cr15, {3}
     24c:	00020073 	andeq	r0, r2, r3, ror r0
     250:	05000000 	streq	r0, [r0, #-0]
     254:	00020e02 	andeq	r0, r2, r2, lsl #28
     258:	012b0308 			; <UNDEFINED> instruction: 0x012b0308
     25c:	25212321 	strcs	r2, [r1, #-801]!	; 0xfffffcdf
     260:	21302f2f 	teqcs	r0, pc, lsr #30
     264:	28232121 	stmdacs	r3!, {r0, r5, r8, sp}
     268:	21222121 			; <UNDEFINED> instruction: 0x21222121
     26c:	2f212321 	svccs	0x00212321
     270:	2228232f 	eorcs	r2, r8, #-1140850688	; 0xbc000000
     274:	2f213d3d 	svccs	0x00213d3d
     278:	222f2421 	eorcs	r2, pc, #553648128	; 0x21000000
     27c:	28302f2f 	ldmdacs	r0!, {r0, r1, r2, r3, r5, r8, r9, sl, fp, sp}
     280:	213d2122 	teqcs	sp, r2, lsr #2
     284:	2f23222f 	svccs	0x0023222f
     288:	2125302f 			; <UNDEFINED> instruction: 0x2125302f
     28c:	21212122 			; <UNDEFINED> instruction: 0x21212122
     290:	200c0330 	andcs	r0, ip, r0, lsr r3
     294:	21212121 			; <UNDEFINED> instruction: 0x21212121
     298:	23212121 			; <UNDEFINED> instruction: 0x23212121
     29c:	21212121 			; <UNDEFINED> instruction: 0x21212121
     2a0:	22212121 	eorcs	r2, r1, #1073741832	; 0x40000008
     2a4:	23252221 			; <UNDEFINED> instruction: 0x23252221
     2a8:	23212121 			; <UNDEFINED> instruction: 0x23212121
     2ac:	2225312f 	eorcs	r3, r5, #-1073741813	; 0xc000000b
     2b0:	21212121 			; <UNDEFINED> instruction: 0x21212121
     2b4:	21212225 			; <UNDEFINED> instruction: 0x21212225
     2b8:	21212221 			; <UNDEFINED> instruction: 0x21212221
     2bc:	21212221 			; <UNDEFINED> instruction: 0x21212221
     2c0:	22212221 	eorcs	r2, r1, #268435458	; 0x10000002
     2c4:	21232225 			; <UNDEFINED> instruction: 0x21232225
     2c8:	21222123 			; <UNDEFINED> instruction: 0x21222123
     2cc:	21232123 			; <UNDEFINED> instruction: 0x21232123
     2d0:	2f2e1003 	svccs	0x002e1003
     2d4:	27322f21 	ldrcs	r2, [r2, -r1, lsr #30]!
     2d8:	2f2f2f21 	svccs	0x002f2f21
     2dc:	21252f2f 			; <UNDEFINED> instruction: 0x21252f2f
     2e0:	21252f21 			; <UNDEFINED> instruction: 0x21252f21
     2e4:	21252f21 			; <UNDEFINED> instruction: 0x21252f21
     2e8:	21252f21 			; <UNDEFINED> instruction: 0x21252f21
     2ec:	26262f21 	strtcs	r2, [r6], -r1, lsr #30
     2f0:	28212221 	stmdacs	r1!, {r0, r5, r9, sp}
     2f4:	2f4b2221 	svccs	0x004b2221
     2f8:	23242123 			; <UNDEFINED> instruction: 0x23242123
     2fc:	242f3d3d 	strtcs	r3, [pc], #-3389	; 304 <BIT9+0x104>
     300:	214b2221 	cmpcs	fp, r1, lsr #4
     304:	282f3421 	stmdacs	pc!, {r0, r5, sl, ip, sp}	; <UNPREDICTABLE>
     308:	21212122 			; <UNDEFINED> instruction: 0x21212122
     30c:	21222221 			; <UNDEFINED> instruction: 0x21222221
     310:	04222122 	strteq	r2, [r2], #-290	; 0xfffffede
     314:	7cfb0302 	ldclvc	3, cr0, [fp], #8
     318:	2f3d2120 	svccs	0x003d2120
     31c:	23262f3d 			; <UNDEFINED> instruction: 0x23262f3d
     320:	21212121 			; <UNDEFINED> instruction: 0x21212121
     324:	25212121 	strcs	r2, [r1, #-289]!	; 0xfffffedf
     328:	21222121 			; <UNDEFINED> instruction: 0x21222121
     32c:	21212221 			; <UNDEFINED> instruction: 0x21212221
     330:	22212122 	eorcs	r2, r1, #-2147483640	; 0x80000008
     334:	21242121 			; <UNDEFINED> instruction: 0x21242121
     338:	212f3d3d 			; <UNDEFINED> instruction: 0x212f3d3d
     33c:	3d232121 	stfccs	f2, [r3, #-132]!	; 0xffffff7c
     340:	042f3d2f 	strteq	r3, [pc], #-3375	; 348 <BIT9+0x148>
     344:	2e550301 	cdpcs	3, 5, cr0, cr5, cr1, {0}
     348:	032e3e03 			; <UNDEFINED> instruction: 0x032e3e03
     34c:	8a032e23 	bhi	cbbe0 <BIT19+0x4bbe0>
     350:	21032e01 	tstcs	r3, r1, lsl #28
     354:	0436362e 	ldrteq	r3, [r6], #-1582	; 0xfffff9d2
     358:	7e960302 	cdpvc	3, 9, cr0, cr6, cr2, {0}
     35c:	2121222e 			; <UNDEFINED> instruction: 0x2121222e
     360:	22212121 	eorcs	r2, r1, #1073741832	; 0x40000008
     364:	30213021 	eorcc	r3, r1, r1, lsr #32
     368:	30213021 	eorcc	r3, r1, r1, lsr #32
     36c:	22212122 	eorcs	r2, r1, #-2147483640	; 0x80000008
     370:	21212123 			; <UNDEFINED> instruction: 0x21212123
     374:	21212121 			; <UNDEFINED> instruction: 0x21212121
     378:	21212121 			; <UNDEFINED> instruction: 0x21212121
     37c:	214c2421 	cmpcs	ip, r1, lsr #8
     380:	2f232121 	svccs	0x00232121
     384:	22212122 	eorcs	r2, r1, #-2147483640	; 0x80000008
     388:	21212525 			; <UNDEFINED> instruction: 0x21212525
     38c:	2f302122 	svccs	0x00302122
     390:	21212425 			; <UNDEFINED> instruction: 0x21212425
     394:	21302122 	teqcs	r0, r2, lsr #2
     398:	24252f30 	strtcs	r2, [r5], #-3888	; 0xfffff0d0
     39c:	21222121 			; <UNDEFINED> instruction: 0x21222121
     3a0:	21302130 	teqcs	r0, r0, lsr r1
     3a4:	24252f30 	strtcs	r2, [r5], #-3888	; 0xfffff0d0
     3a8:	21222121 			; <UNDEFINED> instruction: 0x21222121
     3ac:	21302130 	teqcs	r0, r0, lsr r1
     3b0:	2f302130 	svccs	0x00302130
     3b4:	207eee03 	rsbscs	lr, lr, r3, lsl #28
     3b8:	2e019a03 	vmlacs.f32	s18, s2, s6
     3bc:	21212124 			; <UNDEFINED> instruction: 0x21212124
     3c0:	23212f21 			; <UNDEFINED> instruction: 0x23212f21
     3c4:	21212427 			; <UNDEFINED> instruction: 0x21212427
     3c8:	212f2121 			; <UNDEFINED> instruction: 0x212f2121
     3cc:	21242623 			; <UNDEFINED> instruction: 0x21242623
     3d0:	2f212121 	svccs	0x00212121
     3d4:	0b032321 	bleq	c9060 <BIT19+0x49060>
     3d8:	21212220 			; <UNDEFINED> instruction: 0x21212220
     3dc:	21212221 			; <UNDEFINED> instruction: 0x21212221
     3e0:	23212121 			; <UNDEFINED> instruction: 0x23212121
     3e4:	212f2321 			; <UNDEFINED> instruction: 0x212f2321
     3e8:	3021212f 	eorcc	r2, r1, pc, lsr #2
     3ec:	21212226 			; <UNDEFINED> instruction: 0x21212226
     3f0:	21222121 			; <UNDEFINED> instruction: 0x21222121
     3f4:	21212121 			; <UNDEFINED> instruction: 0x21212121
     3f8:	24212121 	strtcs	r2, [r1], #-289	; 0xfffffedf
     3fc:	212f212f 			; <UNDEFINED> instruction: 0x212f212f
     400:	22253021 	eorcs	r3, r5, #33	; 0x21
     404:	212f2f2f 			; <UNDEFINED> instruction: 0x212f2f2f
     408:	21212125 			; <UNDEFINED> instruction: 0x21212125
     40c:	21212221 			; <UNDEFINED> instruction: 0x21212221
     410:	03304b23 	teqeq	r0, #35840	; 0x8c00
     414:	03042073 	movweq	r2, #16499	; 0x4073
     418:	827d9603 	rsbshi	r9, sp, #3145728	; 0x300000
     41c:	21212f21 			; <UNDEFINED> instruction: 0x21212f21
     420:	2f2f2121 	svccs	0x002f2121
     424:	2121217a 			; <UNDEFINED> instruction: 0x2121217a
     428:	7a2f2f21 	bvc	bcc0b4 <BIT23+0x3cc0b4>
     42c:	2f212121 	svccs	0x00212121
     430:	23212121 			; <UNDEFINED> instruction: 0x23212121
     434:	21213022 			; <UNDEFINED> instruction: 0x21213022
     438:	21212221 			; <UNDEFINED> instruction: 0x21212221
     43c:	21212221 			; <UNDEFINED> instruction: 0x21212221
     440:	21212221 			; <UNDEFINED> instruction: 0x21212221
     444:	217a2221 	cmncs	sl, r1, lsr #4
     448:	21222121 			; <UNDEFINED> instruction: 0x21222121
     44c:	2f2f2f2f 	svccs	0x002f2f2f
     450:	212f2179 			; <UNDEFINED> instruction: 0x212f2179
     454:	21792121 	cmncs	r9, r1, lsr #2
     458:	212f2121 			; <UNDEFINED> instruction: 0x212f2121
     45c:	21212121 			; <UNDEFINED> instruction: 0x21212121
     460:	21217a21 			; <UNDEFINED> instruction: 0x21217a21
     464:	22212122 	eorcs	r2, r1, #-2147483640	; 0x80000008
     468:	22212121 	eorcs	r2, r1, #1073741832	; 0x40000008
     46c:	2221217a 	eorcs	r2, r1, #-2147483618	; 0x8000001e
     470:	21222121 			; <UNDEFINED> instruction: 0x21222121
     474:	03222121 			; <UNDEFINED> instruction: 0x03222121
     478:	2121660f 			; <UNDEFINED> instruction: 0x2121660f
     47c:	21212121 			; <UNDEFINED> instruction: 0x21212121
     480:	2f2f2f2f 	svccs	0x002f2f2f
     484:	21212f6c 			; <UNDEFINED> instruction: 0x21212f6c
     488:	21212121 			; <UNDEFINED> instruction: 0x21212121
     48c:	2f2f2f2f 	svccs	0x002f2f2f
     490:	2f212f6b 	svccs	0x00212f6b
     494:	2f212121 	svccs	0x00212121
     498:	872f2f4b 	strhi	r2, [pc, -fp, asr #30]!
     49c:	2f212121 	svccs	0x00212121
     4a0:	0b032f4b 	bleq	cc1d4 <BIT19+0x4c1d4>
     4a4:	21212166 			; <UNDEFINED> instruction: 0x21212166
     4a8:	6b212121 	blvs	848934 <BIT23+0x48934>
     4ac:	21212121 			; <UNDEFINED> instruction: 0x21212121
     4b0:	21217921 			; <UNDEFINED> instruction: 0x21217921
     4b4:	21212121 			; <UNDEFINED> instruction: 0x21212121
     4b8:	21212179 			; <UNDEFINED> instruction: 0x21212179
     4bc:	30212221 	eorcc	r2, r1, r1, lsr #4
     4c0:	2f2f302f 	svccs	0x002f302f
     4c4:	2f303d30 	svccs	0x00303d30
     4c8:	217a2f4b 	cmncs	sl, fp, asr #30
     4cc:	820e0321 	andhi	r0, lr, #-2080374784	; 0x84000000
     4d0:	21212121 			; <UNDEFINED> instruction: 0x21212121
     4d4:	6b212121 	blvs	848960 <BIT23+0x48960>
     4d8:	22212121 	eorcs	r2, r1, #1073741832	; 0x40000008
     4dc:	21222121 			; <UNDEFINED> instruction: 0x21222121
     4e0:	2f2f2f2f 	svccs	0x002f2f2f
     4e4:	2f2f2f2f 	svccs	0x002f2f2f
     4e8:	2f4b2f2f 	svccs	0x004b2f2f
     4ec:	2121216b 			; <UNDEFINED> instruction: 0x2121216b
     4f0:	21222121 			; <UNDEFINED> instruction: 0x21222121
     4f4:	2f2f2f2f 	svccs	0x002f2f2f
     4f8:	2f2f2f2f 	svccs	0x002f2f2f
     4fc:	2f4b2f2f 	svccs	0x004b2f2f
     500:	21212f6b 			; <UNDEFINED> instruction: 0x21212f6b
     504:	4b2f2f21 	blmi	bcc190 <BIT23+0x3cc190>
     508:	6620032f 	strtvs	r0, [r0], -pc, lsr #6
     50c:	22212f21 	eorcs	r2, r1, #33, 30	; 0x84
     510:	2f21322f 	svccs	0x0021322f
     514:	2221322f 	eorcs	r3, r1, #-268435454	; 0xf0000002
     518:	302f3121 	eorcc	r3, pc, r1, lsr #2
     51c:	30222f2f 	eorcc	r2, r2, pc, lsr #30
     520:	30222f2f 	eorcc	r2, r2, pc, lsr #30
     524:	661e032f 	ldrvs	r0, [lr], -pc, lsr #6
     528:	22212f21 	eorcs	r2, r1, #33, 30	; 0x84
     52c:	10032f2f 	andne	r2, r3, pc, lsr #30
     530:	21212466 			; <UNDEFINED> instruction: 0x21212466
     534:	21212124 			; <UNDEFINED> instruction: 0x21212124
     538:	21212122 			; <UNDEFINED> instruction: 0x21212122
     53c:	21222121 			; <UNDEFINED> instruction: 0x21222121
     540:	22212121 	eorcs	r2, r1, #1073741832	; 0x40000008
     544:	22212121 	eorcs	r2, r1, #1073741832	; 0x40000008
     548:	0c032221 	sfmeq	f2, 4, [r3], {33}	; 0x21
     54c:	2f232174 	svccs	0x00232174
     550:	30212f21 	eorcc	r2, r1, r1, lsr #30
     554:	212f322f 			; <UNDEFINED> instruction: 0x212f322f
     558:	2f21212f 	svccs	0x0021212f
     55c:	2f322f22 	svccs	0x00322f22
     560:	21222f21 			; <UNDEFINED> instruction: 0x21222f21
     564:	2121232f 			; <UNDEFINED> instruction: 0x2121232f
     568:	21212122 			; <UNDEFINED> instruction: 0x21212122
     56c:	2f212f24 	svccs	0x00212f24
     570:	232f2122 			; <UNDEFINED> instruction: 0x232f2122
     574:	21222121 			; <UNDEFINED> instruction: 0x21222121
     578:	21232121 			; <UNDEFINED> instruction: 0x21232121
     57c:	6d222121 	stfvss	f2, [r2, #-132]!	; 0xffffff7c
     580:	3d2f2f21 	stccc	15, cr2, [pc, #-132]!	; 504 <BIT10+0x104>
     584:	217a212f 	cmncs	sl, pc, lsr #2
     588:	2f3d2f2f 	svccs	0x003d2f2f
     58c:	2f2f216d 	svccs	0x002f216d
     590:	88212f3d 	stmdahi	r1!, {r0, r2, r3, r4, r5, r8, r9, sl, fp, sp}
     594:	3d2f2f21 	stccc	15, cr2, [pc, #-132]!	; 518 <BIT10+0x118>
     598:	3d21892f 			; <UNDEFINED> instruction: 0x3d21892f
     59c:	7b21212f 	blvc	848a60 <BIT23+0x48a60>
     5a0:	2f212f21 	svccs	0x00212f21
     5a4:	25032121 	strcs	r2, [r3, #-289]	; 0xfffffedf
     5a8:	20090382 	andcs	r0, r9, r2, lsl #7
     5ac:	26212121 	strtcs	r2, [r1], -r1, lsr #2
     5b0:	bb222321 	bllt	88923c <BIT23+0x8923c>
     5b4:	21212321 			; <UNDEFINED> instruction: 0x21212321
     5b8:	28212221 	stmdacs	r1!, {r0, r5, r9, sp}
     5bc:	21212122 			; <UNDEFINED> instruction: 0x21212122
     5c0:	74090322 	strvc	r0, [r9], #-802	; 0xfffffcde
     5c4:	2f222121 	svccs	0x00222121
     5c8:	2f22212f 	svccs	0x0022212f
     5cc:	2f2f302f 	svccs	0x002f302f
     5d0:	2f2f232f 	svccs	0x002f232f
     5d4:	212f232f 			; <UNDEFINED> instruction: 0x212f232f
     5d8:	30302f22 	eorscc	r2, r0, r2, lsr #30
     5dc:	2f2f2f2f 	svccs	0x002f2f2f
     5e0:	6b2f2f23 	blvs	bcc274 <BIT23+0x3cc274>
     5e4:	032f2f21 			; <UNDEFINED> instruction: 0x032f2f21
     5e8:	2121660d 			; <UNDEFINED> instruction: 0x2121660d
     5ec:	212f2f22 			; <UNDEFINED> instruction: 0x212f2f22
     5f0:	21303123 	teqcs	r0, r3, lsr #2
     5f4:	2f232221 	svccs	0x00232221
     5f8:	30312221 	eorscc	r2, r1, r1, lsr #4
     5fc:	2f222121 	svccs	0x00222121
     600:	2221216d 	eorcs	r2, r1, #1073741851	; 0x4000001b
     604:	23212f2f 			; <UNDEFINED> instruction: 0x23212f2f
     608:	2f2f2f2f 	svccs	0x002f2f2f
     60c:	23212f23 			; <UNDEFINED> instruction: 0x23212f23
     610:	2f2f2f2f 	svccs	0x002f2f2f
     614:	660a032f 	strvs	r0, [sl], -pc, lsr #6
     618:	21212121 			; <UNDEFINED> instruction: 0x21212121
     61c:	21302122 	teqcs	r0, r2, lsr #2
     620:	2f312221 	svccs	0x00312221
     624:	22212221 	eorcs	r2, r1, #268435458	; 0x10000002
     628:	21232f4b 			; <UNDEFINED> instruction: 0x21232f4b
     62c:	216b2f21 	cmncs	fp, r1, lsr #30
     630:	22212121 	eorcs	r2, r1, #1073741832	; 0x40000008
     634:	21213021 			; <UNDEFINED> instruction: 0x21213021
     638:	2f304b23 	svccs	0x00304b23
     63c:	2121232f 			; <UNDEFINED> instruction: 0x2121232f
     640:	2f2f3021 	svccs	0x002f3021
     644:	21660c03 	cmncs	r6, r3, lsl #24
     648:	6c212221 	sfmvs	f2, 4, [r1], #-132	; 0xffffff7c
     64c:	21222121 			; <UNDEFINED> instruction: 0x21222121
     650:	2221216d 	eorcs	r2, r1, #1073741851	; 0x4000001b
     654:	216c2121 	cmncs	ip, r1, lsr #2
     658:	21212221 			; <UNDEFINED> instruction: 0x21212221
     65c:	6b212122 	blvs	848aec <BIT23+0x48aec>
     660:	21222121 			; <UNDEFINED> instruction: 0x21222121
     664:	216b2f2f 	cmncs	fp, pc, lsr #30
     668:	22212121 	eorcs	r2, r1, #1073741832	; 0x40000008
     66c:	2f2f4b21 	svccs	0x002f4b21
     670:	2121226b 			; <UNDEFINED> instruction: 0x2121226b
     674:	22212122 	eorcs	r2, r1, #-2147483640	; 0x80000008
     678:	2f2f2122 	svccs	0x002f2122
     67c:	2121226b 			; <UNDEFINED> instruction: 0x2121226b
     680:	22222122 	eorcs	r2, r2, #-2147483640	; 0x80000008
     684:	232f2f21 			; <UNDEFINED> instruction: 0x232f2f21
     688:	2f2f2f21 	svccs	0x002f2f21
     68c:	032f2f2f 			; <UNDEFINED> instruction: 0x032f2f2f
     690:	03207ab0 			; <UNDEFINED> instruction: 0x03207ab0
     694:	042e00c6 	strteq	r0, [lr], #-198	; 0xffffff3a
     698:	7ca50304 	stcvc	3, cr0, [r5], #16
     69c:	6b212f74 	blvs	84c474 <BIT23+0x4c474>
     6a0:	2f6b2121 	svccs	0x006b2121
     6a4:	21216b21 			; <UNDEFINED> instruction: 0x21216b21
     6a8:	21232f6d 			; <UNDEFINED> instruction: 0x21232f6d
     6ac:	30222130 	eorcc	r2, r2, r0, lsr r1
     6b0:	217a2221 	cmncs	sl, r1, lsr #4
     6b4:	21212523 			; <UNDEFINED> instruction: 0x21212523
     6b8:	232f4b22 			; <UNDEFINED> instruction: 0x232f4b22
     6bc:	2121792f 			; <UNDEFINED> instruction: 0x2121792f
     6c0:	2121792f 			; <UNDEFINED> instruction: 0x2121792f
     6c4:	31222321 			; <UNDEFINED> instruction: 0x31222321
     6c8:	22212121 	eorcs	r2, r1, #1073741832	; 0x40000008
     6cc:	22212121 	eorcs	r2, r1, #1073741832	; 0x40000008
     6d0:	0323216b 			; <UNDEFINED> instruction: 0x0323216b
     6d4:	2130200a 	teqcs	r0, sl
     6d8:	242f2221 	strtcs	r2, [pc], #-545	; 6e0 <BIT10+0x2e0>
     6dc:	2f792f4b 	svccs	0x00792f4b
     6e0:	30222321 	eorcc	r2, r2, r1, lsr #6
     6e4:	21302221 	teqcs	r0, r1, lsr #4
     6e8:	21217b22 			; <UNDEFINED> instruction: 0x21217b22
     6ec:	21222121 			; <UNDEFINED> instruction: 0x21222121
     6f0:	6c2f2f2f 	stcvs	15, cr2, [pc], #-188	; 63c <BIT10+0x23c>
     6f4:	21212121 			; <UNDEFINED> instruction: 0x21212121
     6f8:	35212321 	strcc	r2, [r1, #-801]!	; 0xfffffcdf
     6fc:	21222121 			; <UNDEFINED> instruction: 0x21222121
     700:	21212221 			; <UNDEFINED> instruction: 0x21212221
     704:	21212122 			; <UNDEFINED> instruction: 0x21212122
     708:	2121217a 			; <UNDEFINED> instruction: 0x2121217a
     70c:	21232121 			; <UNDEFINED> instruction: 0x21232121
     710:	0a032f2f 	beq	cc3d4 <BIT19+0x4c3d4>
     714:	217c2f74 	cmncs	ip, r4, ror pc
     718:	87212f21 	strhi	r2, [r1, -r1, lsr #30]!
     71c:	2121212f 			; <UNDEFINED> instruction: 0x2121212f
     720:	21216d21 			; <UNDEFINED> instruction: 0x21216d21
     724:	2f2f2123 	svccs	0x002f2123
     728:	21214c30 			; <UNDEFINED> instruction: 0x21214c30
     72c:	6b2f2f22 	blvs	bcc3bc <BIT23+0x3cc3bc>
     730:	2123212f 			; <UNDEFINED> instruction: 0x2123212f
     734:	222f2f2f 	eorcs	r2, pc, #47, 30	; 0xbc
     738:	2221214c 	eorcs	r2, r1, #76, 2
     73c:	212f6b2f 			; <UNDEFINED> instruction: 0x212f6b2f
     740:	2f2f2121 	svccs	0x002f2121
     744:	21212179 			; <UNDEFINED> instruction: 0x21212179
     748:	792f4b2f 	stmdbvc	pc!, {r0, r1, r2, r3, r5, r8, r9, fp, lr}	; <UNPREDICTABLE>
     74c:	03212121 			; <UNDEFINED> instruction: 0x03212121
     750:	21217409 			; <UNDEFINED> instruction: 0x21217409
     754:	03212221 			; <UNDEFINED> instruction: 0x03212221
     758:	21222015 			; <UNDEFINED> instruction: 0x21222015
     75c:	21222121 			; <UNDEFINED> instruction: 0x21222121
     760:	03212322 			; <UNDEFINED> instruction: 0x03212322
     764:	21217409 			; <UNDEFINED> instruction: 0x21217409
     768:	23272521 			; <UNDEFINED> instruction: 0x23272521
     76c:	21212121 			; <UNDEFINED> instruction: 0x21212121
     770:	03212323 			; <UNDEFINED> instruction: 0x03212323
     774:	03207ecc 			; <UNDEFINED> instruction: 0x03207ecc
     778:	05042e0b 	streq	r2, [r4, #-3595]	; 0xfffff1f5
     77c:	747dfc03 	ldrbtvc	pc, [sp], #-3075	; 0xfffff3fd	; <UNPREDICTABLE>
     780:	4b222121 	blmi	888c0c <BIT23+0x88c0c>
     784:	2121216b 			; <UNDEFINED> instruction: 0x2121216b
     788:	216c4b22 	cmncs	ip, r2, lsr #22
     78c:	6c4b2321 	mcrrvs	3, 2, r2, fp, cr1
     790:	4b232121 	blmi	8c8c1c <BIT23+0xc8c1c>
     794:	2221215d 	eorcs	r2, r1, #1073741847	; 0x40000017
     798:	661d034b 	ldrvs	r0, [sp], -fp, asr #6
     79c:	2f21222f 	svccs	0x0021222f
     7a0:	212f212f 			; <UNDEFINED> instruction: 0x212f212f
     7a4:	302f3030 	eorcc	r3, pc, r0, lsr r0	; <UNPREDICTABLE>
     7a8:	21662603 	cmncs	r6, r3, lsl #12
     7ac:	c80e0321 	stmdagt	lr, {r0, r5, r8, r9}
     7b0:	0e032121 	adfeqsp	f2, f3, f1
     7b4:	212121e4 			; <UNDEFINED> instruction: 0x212121e4
     7b8:	21884b22 	orrcs	r4, r8, r2, lsr #22
     7bc:	21232121 			; <UNDEFINED> instruction: 0x21232121
     7c0:	21304c4b 	teqcs	r0, fp, asr #24
     7c4:	21212121 			; <UNDEFINED> instruction: 0x21212121
     7c8:	21212188 	smlawbcs	r1, r8, r1, r2
     7cc:	4b4b2123 	blmi	12c8c60 <BIT24+0x2c8c60>
     7d0:	21212188 	smlawbcs	r1, r8, r1, r2
     7d4:	3e4b2123 	dvfccep	f2, f3, f3
     7d8:	22212130 	eorcs	r2, r1, #48, 2
     7dc:	23232f21 			; <UNDEFINED> instruction: 0x23232f21
     7e0:	21213021 			; <UNDEFINED> instruction: 0x21213021
     7e4:	22212321 	eorcs	r2, r1, #-2080374784	; 0x84000000
     7e8:	21212221 			; <UNDEFINED> instruction: 0x21212221
     7ec:	2f222f23 	svccs	0x00222f23
     7f0:	4b302123 	blmi	c08c84 <BIT23+0x408c84>
     7f4:	042f2121 	strteq	r2, [pc], #-289	; 7fc <RCC_D2CFGR_D2PPRE2_Msk+0xfc>
     7f8:	7def0306 	stclvc	3, cr0, [pc, #24]!	; 818 <BIT11+0x18>
     7fc:	252f2220 	strcs	r2, [pc, #-544]!	; 5e4 <BIT10+0x1e4>
     800:	2e090323 	cdpcs	3, 0, cr0, cr9, cr3, {1}
     804:	34212121 	strtcc	r2, [r1], #-289	; 0xfffffedf
     808:	34212121 	strtcc	r2, [r1], #-289	; 0xfffffedf
     80c:	22212131 	eorcs	r2, r1, #1073741836	; 0x4000000c
     810:	222f212f 	eorcs	r2, pc, #-1073741813	; 0xc000000b
     814:	2f252121 	svccs	0x00252121
     818:	2f232121 	svccs	0x00232121
     81c:	24212121 	strtcs	r2, [r1], #-289	; 0xfffffedf
     820:	2321212f 			; <UNDEFINED> instruction: 0x2321212f
     824:	2122212f 			; <UNDEFINED> instruction: 0x2122212f
     828:	21303026 	teqcs	r0, r6, lsr #32
     82c:	30222124 	eorcc	r2, r2, r4, lsr #2
     830:	2225252f 	eorcs	r2, r5, #197132288	; 0xbc00000
     834:	30313122 	eorscc	r3, r1, r2, lsr #2
     838:	30222f2f 	eorcc	r2, r2, pc, lsr #30
     83c:	0305042f 	movweq	r0, #21551	; 0x542f
     840:	06042051 			; <UNDEFINED> instruction: 0x06042051
     844:	352e6603 	strcc	r6, [lr, #-1539]!	; 0xfffff9fd
     848:	07043635 	smladxeq	r4, r5, r6, r3
     84c:	747fb103 	ldrbtvc	fp, [pc], #-259	; 854 <BIT11+0x54>
     850:	21232121 			; <UNDEFINED> instruction: 0x21232121
     854:	2f302f2f 	svccs	0x00302f2f
     858:	21216b21 			; <UNDEFINED> instruction: 0x21216b21
     85c:	2f212321 	svccs	0x00212321
     860:	212f302f 			; <UNDEFINED> instruction: 0x212f302f
     864:	2123216b 			; <UNDEFINED> instruction: 0x2123216b
     868:	2f304b30 	svccs	0x00304b30
     86c:	21307c21 	teqcs	r0, r1, lsr #24
     870:	212f7921 			; <UNDEFINED> instruction: 0x212f7921
     874:	2121216b 			; <UNDEFINED> instruction: 0x2121216b
     878:	4b4b2221 	blmi	12c9104 <BIT24+0x2c9104>
     87c:	2121216b 			; <UNDEFINED> instruction: 0x2121216b
     880:	4b4b2221 	blmi	12c910c <BIT24+0x2c910c>
     884:	2121215e 			; <UNDEFINED> instruction: 0x2121215e
     888:	4b4b2221 	blmi	12c9114 <BIT24+0x2c9114>
     88c:	2121215e 			; <UNDEFINED> instruction: 0x2121215e
     890:	4b4b2221 	blmi	12c911c <BIT24+0x2c911c>
     894:	2121216b 			; <UNDEFINED> instruction: 0x2121216b
     898:	4b4b2221 	blmi	12c9124 <BIT24+0x2c9124>
     89c:	2121216b 			; <UNDEFINED> instruction: 0x2121216b
     8a0:	4b4b2221 	blmi	12c912c <BIT24+0x2c912c>
     8a4:	2121216b 			; <UNDEFINED> instruction: 0x2121216b
     8a8:	6b4b4b22 	blvs	12d3538 <BIT24+0x2d3538>
     8ac:	22212121 	eorcs	r2, r1, #1073741832	; 0x40000008
     8b0:	216c4b4b 	cmncs	ip, fp, asr #22
     8b4:	21212122 			; <UNDEFINED> instruction: 0x21212122
     8b8:	5e2f4b22 	vmulpl.f64	d4, d15, d18
     8bc:	21212221 			; <UNDEFINED> instruction: 0x21212221
     8c0:	272f4b22 	strcs	r4, [pc, -r2, lsr #22]!
     8c4:	2f2f3321 	svccs	0x002f3321
     8c8:	2126302f 			; <UNDEFINED> instruction: 0x2126302f
     8cc:	2f2e0b03 	svccs	0x002e0b03
     8d0:	2121312f 			; <UNDEFINED> instruction: 0x2121312f
     8d4:	233d2f21 	teqcs	sp, #33, 30	; 0x84
     8d8:	21212124 			; <UNDEFINED> instruction: 0x21212124
     8dc:	4b222121 	blmi	888d68 <BIT23+0x88d68>
     8e0:	27212121 	strcs	r2, [r1, -r1, lsr #2]!
     8e4:	222f212f 	eorcs	r2, pc, #-1073741813	; 0xc000000b
     8e8:	2f242121 	svccs	0x00242121
     8ec:	2f212121 	svccs	0x00212121
     8f0:	4d31272f 	ldcmi	7, cr2, [r1, #-188]!	; 0xffffff44
     8f4:	32222124 	eorcc	r2, r2, #36, 2
     8f8:	2121322f 			; <UNDEFINED> instruction: 0x2121322f
     8fc:	21212225 			; <UNDEFINED> instruction: 0x21212225
     900:	212f2221 			; <UNDEFINED> instruction: 0x212f2221
     904:	21242821 			; <UNDEFINED> instruction: 0x21242821
     908:	2f242122 	svccs	0x00242122
     90c:	2121222f 			; <UNDEFINED> instruction: 0x2121222f
     910:	21232f2f 			; <UNDEFINED> instruction: 0x21232f2f
     914:	2f2f2f21 	svccs	0x002f2f21
     918:	4b302225 	blmi	c091b4 <BIT23+0x4091b4>
     91c:	2f4b302f 	svccs	0x004b302f
     920:	2123304b 			; <UNDEFINED> instruction: 0x2123304b
     924:	21212f2f 			; <UNDEFINED> instruction: 0x21212f2f
     928:	22232f21 	eorcs	r2, r3, #33, 30	; 0x84
     92c:	21212121 			; <UNDEFINED> instruction: 0x21212121
     930:	21216c2f 			; <UNDEFINED> instruction: 0x21216c2f
     934:	4b222121 	blmi	888dc0 <BIT23+0x88dc0>
     938:	2121216c 			; <UNDEFINED> instruction: 0x2121216c
     93c:	794b2221 	stmdbvc	fp, {r0, r5, r9, sp}^
     940:	21212121 			; <UNDEFINED> instruction: 0x21212121
     944:	21794b22 	cmncs	r9, r2, lsr #22
     948:	22212121 	eorcs	r2, r1, #1073741832	; 0x40000008
     94c:	2130214d 	teqcs	r0, sp, asr #2
     950:	21212121 			; <UNDEFINED> instruction: 0x21212121
     954:	2121242f 			; <UNDEFINED> instruction: 0x2121242f
     958:	21212133 			; <UNDEFINED> instruction: 0x21212133
     95c:	23322f31 	teqcs	r2, #49, 30	; 0xc4
     960:	21214b22 			; <UNDEFINED> instruction: 0x21214b22
     964:	214b2f2f 	cmpcs	fp, pc, lsr #30
     968:	032f3021 			; <UNDEFINED> instruction: 0x032f3021
     96c:	032e7ea0 			; <UNDEFINED> instruction: 0x032e7ea0
     970:	08042e2b 	stmdaeq	r4, {r0, r1, r3, r5, r9, sl, fp, sp}
     974:	827db803 	rsbshi	fp, sp, #196608	; 0x30000
     978:	21322f22 	teqcs	r2, r2, lsr #30
     97c:	22212123 	eorcs	r2, r1, #-1073741816	; 0xc0000008
     980:	21212321 			; <UNDEFINED> instruction: 0x21212321
     984:	21232121 			; <UNDEFINED> instruction: 0x21232121
     988:	21212121 			; <UNDEFINED> instruction: 0x21212121
     98c:	2f7c2122 	svccs	0x007c2122
     990:	21222131 			; <UNDEFINED> instruction: 0x21222131
     994:	5e212221 	cdppl	2, 2, cr2, cr1, cr1, {1}
     998:	214d2321 	cmpcs	sp, r1, lsr #6
     99c:	21212131 			; <UNDEFINED> instruction: 0x21212131
     9a0:	21212123 			; <UNDEFINED> instruction: 0x21212123
     9a4:	31222122 			; <UNDEFINED> instruction: 0x31222122
     9a8:	21302321 	teqcs	r0, r1, lsr #6
     9ac:	21215e2f 			; <UNDEFINED> instruction: 0x21215e2f
     9b0:	214d2321 	cmpcs	sp, r1, lsr #6
     9b4:	21212131 			; <UNDEFINED> instruction: 0x21212131
     9b8:	21212123 			; <UNDEFINED> instruction: 0x21212123
     9bc:	2f222122 	svccs	0x00222122
     9c0:	21242123 			; <UNDEFINED> instruction: 0x21242123
     9c4:	30212121 	eorcc	r2, r1, r1, lsr #2
     9c8:	2f2f3021 	svccs	0x002f3021
     9cc:	2121216c 			; <UNDEFINED> instruction: 0x2121216c
     9d0:	21222121 			; <UNDEFINED> instruction: 0x21222121
     9d4:	2f2f2f2f 	svccs	0x002f2f2f
     9d8:	032f2f2f 			; <UNDEFINED> instruction: 0x032f2f2f
     9dc:	23216611 			; <UNDEFINED> instruction: 0x23216611
     9e0:	214d2f21 	cmpcs	sp, r1, lsr #30
     9e4:	21232121 			; <UNDEFINED> instruction: 0x21232121
     9e8:	21222121 			; <UNDEFINED> instruction: 0x21222121
     9ec:	23213122 			; <UNDEFINED> instruction: 0x23213122
     9f0:	6c2f2130 	stfvss	f2, [pc], #-192	; 938 <BIT11+0x138>
     9f4:	23212121 			; <UNDEFINED> instruction: 0x23212121
     9f8:	214d2f21 	cmpcs	sp, r1, lsr #30
     9fc:	21232121 			; <UNDEFINED> instruction: 0x21232121
     a00:	21222121 			; <UNDEFINED> instruction: 0x21222121
     a04:	21232f22 			; <UNDEFINED> instruction: 0x21232f22
     a08:	21212124 			; <UNDEFINED> instruction: 0x21212124
     a0c:	30213021 	eorcc	r3, r1, r1, lsr #32
     a10:	216d2f2f 	cmncs	sp, pc, lsr #30
     a14:	21212121 			; <UNDEFINED> instruction: 0x21212121
     a18:	2f2f2122 	svccs	0x002f2122
     a1c:	2f2f2f2f 	svccs	0x002f2f2f
     a20:	23216d2f 			; <UNDEFINED> instruction: 0x23216d2f
     a24:	214d2f21 	cmpcs	sp, r1, lsr #30
     a28:	21232121 			; <UNDEFINED> instruction: 0x21232121
     a2c:	21222121 			; <UNDEFINED> instruction: 0x21222121
     a30:	23213122 			; <UNDEFINED> instruction: 0x23213122
     a34:	6c2f2130 	stfvss	f2, [pc], #-192	; 97c <BIT11+0x17c>
     a38:	23212121 			; <UNDEFINED> instruction: 0x23212121
     a3c:	214d2f21 	cmpcs	sp, r1, lsr #30
     a40:	21232121 			; <UNDEFINED> instruction: 0x21232121
     a44:	21222121 			; <UNDEFINED> instruction: 0x21222121
     a48:	21232f22 			; <UNDEFINED> instruction: 0x21232f22
     a4c:	21212124 			; <UNDEFINED> instruction: 0x21212124
     a50:	30213021 	eorcc	r3, r1, r1, lsr #32
     a54:	216c2f2f 	cmncs	ip, pc, lsr #30
     a58:	21212121 			; <UNDEFINED> instruction: 0x21212121
     a5c:	2f2f2122 	svccs	0x002f2122
     a60:	2f2f2f2f 	svccs	0x002f2f2f
     a64:	21217c2f 			; <UNDEFINED> instruction: 0x21217c2f
     a68:	22212121 	eorcs	r2, r1, #1073741832	; 0x40000008
     a6c:	217a4b21 	cmncs	sl, r1, lsr #22
     a70:	21212121 			; <UNDEFINED> instruction: 0x21212121
     a74:	2f2f2122 	svccs	0x002f2122
     a78:	2f4b2f2f 	svccs	0x004b2f2f
     a7c:	217a2f2f 	cmncs	sl, pc, lsr #30
     a80:	21212121 			; <UNDEFINED> instruction: 0x21212121
     a84:	2f4c2122 	svccs	0x004c2122
     a88:	2f302f2f 	svccs	0x00302f2f
     a8c:	217a2f2f 	cmncs	sl, pc, lsr #30
     a90:	2f212821 	svccs	0x00212821
     a94:	302f2123 	eorcc	r2, pc, r3, lsr #2
     a98:	7a2f2f4b 	bvc	bcc7cc <BIT23+0x3cc7cc>
     a9c:	21212121 			; <UNDEFINED> instruction: 0x21212121
     aa0:	4b212221 	blmi	84932c <BIT23+0x4932c>
     aa4:	2121217a 			; <UNDEFINED> instruction: 0x2121217a
     aa8:	21222121 			; <UNDEFINED> instruction: 0x21222121
     aac:	2f2f2f2f 	svccs	0x002f2f2f
     ab0:	2f2f2f4b 	svccs	0x002f2f4b
     ab4:	2121217a 			; <UNDEFINED> instruction: 0x2121217a
     ab8:	21222121 			; <UNDEFINED> instruction: 0x21222121
     abc:	2f2f2f4c 	svccs	0x002f2f4c
     ac0:	2f2f2f30 	svccs	0x002f2f30
     ac4:	2821217a 	stmdacs	r1!, {r1, r3, r4, r5, r6, r8, sp}
     ac8:	21232f21 			; <UNDEFINED> instruction: 0x21232f21
     acc:	217a2f2f 	cmncs	sl, pc, lsr #30
     ad0:	21212121 			; <UNDEFINED> instruction: 0x21212121
     ad4:	7a4b2122 	bvc	12c8f64 <BIT24+0x2c8f64>
     ad8:	21212121 			; <UNDEFINED> instruction: 0x21212121
     adc:	2f212221 	svccs	0x00212221
     ae0:	4b2f2f2f 	blmi	bcc7a4 <BIT23+0x3cc7a4>
     ae4:	7a2f2f2f 	bvc	bcc7a8 <BIT23+0x3cc7a8>
     ae8:	21212121 			; <UNDEFINED> instruction: 0x21212121
     aec:	4c212221 	sfmmi	f2, 4, [r1], #-132	; 0xffffff7c
     af0:	302f2f2f 	eorcc	r2, pc, pc, lsr #30
     af4:	7a2f2f2f 	bvc	bcc7b8 <BIT23+0x3cc7b8>
     af8:	21282121 			; <UNDEFINED> instruction: 0x21282121
     afc:	2f21232f 	svccs	0x0021232f
     b00:	0309042f 	movweq	r0, #37935	; 0x942f
     b04:	21207af8 	strdcs	r7, [r0, -r8]!
     b08:	21212121 			; <UNDEFINED> instruction: 0x21212121
     b0c:	21212122 			; <UNDEFINED> instruction: 0x21212122
     b10:	21222321 			; <UNDEFINED> instruction: 0x21222321
     b14:	2f212f21 	svccs	0x00212f21
     b18:	21212221 			; <UNDEFINED> instruction: 0x21212221
     b1c:	2121222f 			; <UNDEFINED> instruction: 0x2121222f
     b20:	2621212f 	strtcs	r2, [r1], -pc, lsr #2
     b24:	21212123 			; <UNDEFINED> instruction: 0x21212123
     b28:	21212221 			; <UNDEFINED> instruction: 0x21212221
     b2c:	212f232f 			; <UNDEFINED> instruction: 0x212f232f
     b30:	21212321 			; <UNDEFINED> instruction: 0x21212321
     b34:	312f222f 			; <UNDEFINED> instruction: 0x312f222f
     b38:	2f2f2f21 	svccs	0x002f2f21
     b3c:	302f2221 	eorcc	r2, pc, r1, lsr #4
     b40:	200a032f 	andcs	r0, sl, pc, lsr #6
     b44:	232f2121 			; <UNDEFINED> instruction: 0x232f2121
     b48:	232f2121 			; <UNDEFINED> instruction: 0x232f2121
     b4c:	08222121 	stmdaeq	r2!, {r0, r5, r8, sp}
     b50:	2f212f4c 	svccs	0x00212f4c
     b54:	ea084d08 	b	213f7c <BIT21+0x13f7c>
     b58:	21212121 			; <UNDEFINED> instruction: 0x21212121
     b5c:	21219308 			; <UNDEFINED> instruction: 0x21219308
     b60:	22212122 	eorcs	r2, r1, #-2147483640	; 0x80000008
     b64:	212f2121 			; <UNDEFINED> instruction: 0x212f2121
     b68:	21212121 			; <UNDEFINED> instruction: 0x21212121
     b6c:	21212121 			; <UNDEFINED> instruction: 0x21212121
     b70:	21212121 			; <UNDEFINED> instruction: 0x21212121
     b74:	2f212121 	svccs	0x00212121
     b78:	2f2122ce 	svccs	0x002122ce
     b7c:	21213021 			; <UNDEFINED> instruction: 0x21213021
     b80:	91222121 			; <UNDEFINED> instruction: 0x91222121
     b84:	212f312f 			; <UNDEFINED> instruction: 0x212f312f
     b88:	2f212f21 	svccs	0x00212f21
     b8c:	21217808 			; <UNDEFINED> instruction: 0x21217808
     b90:	21212f2f 			; <UNDEFINED> instruction: 0x21212f2f
     b94:	21232f22 			; <UNDEFINED> instruction: 0x21232f22
     b98:	212f2f21 			; <UNDEFINED> instruction: 0x212f2f21
     b9c:	2121232f 			; <UNDEFINED> instruction: 0x2121232f
     ba0:	082f212f 	stmdaeq	pc!, {r0, r1, r2, r3, r5, r8, sp}	; <UNPREDICTABLE>
     ba4:	03219130 			; <UNDEFINED> instruction: 0x03219130
     ba8:	25229e1b 	strcs	r9, [r2, #-3611]!	; 0xfffff1e5
     bac:	e5e5e5e5 	strb	lr, [r5, #1509]!	; 0x5e5
     bb0:	bce7e5e5 	cfstr64lt	mvdx14, [r7], #916	; 0x394
     bb4:	7df50330 	ldclvc	3, cr0, [r5, #192]!	; 0xc0
     bb8:	0333303c 	teqeq	r3, #60	; 0x3c
     bbc:	302f2e24 	eorcc	r2, pc, r4, lsr #28
     bc0:	01cd0331 	biceq	r0, sp, r1, lsr r3
     bc4:	4b4b4b2e 	blmi	12d3884 <BIT24+0x2d3884>
     bc8:	044b4b4b 	strbeq	r4, [fp], #-2891	; 0xfffff4b5
     bcc:	7dec030a 	stclvc	3, cr0, [ip, #40]!	; 0x28
     bd0:	222f21ba 	eorcs	r2, pc, #-2147483602	; 0x8000002e
     bd4:	22212121 	eorcs	r2, r1, #1073741832	; 0x40000008
     bd8:	2221228a 	eorcs	r2, r1, #-1610612728	; 0xa0000008
     bdc:	2f224b21 	svccs	0x00224b21
     be0:	21752121 	cmncs	r5, r1, lsr #2
     be4:	22752130 	rsbscs	r2, r5, #48, 2
     be8:	2f30212f 	svccs	0x0030212f
     bec:	212f3021 			; <UNDEFINED> instruction: 0x212f3021
     bf0:	30212f30 	eorcc	r2, r1, r0, lsr pc
     bf4:	2f30212f 	svccs	0x0030212f
     bf8:	212f3021 			; <UNDEFINED> instruction: 0x212f3021
     bfc:	30212f30 	eorcc	r2, r1, r0, lsr pc
     c00:	21224b21 			; <UNDEFINED> instruction: 0x21224b21
     c04:	10032221 	andne	r2, r3, r1, lsr #4
     c08:	21322482 	teqcs	r2, r2, lsl #9
     c0c:	21780821 	cmncs	r8, r1, lsr #16
     c10:	5e082221 	cdppl	2, 0, cr2, cr8, cr1, {1}
     c14:	21222122 			; <UNDEFINED> instruction: 0x21222122
     c18:	21242122 			; <UNDEFINED> instruction: 0x21242122
     c1c:	22212521 	eorcs	r2, r1, #138412032	; 0x8400000
     c20:	21242221 			; <UNDEFINED> instruction: 0x21242221
     c24:	98082221 	stmdals	r8, {r0, r5, r9, sp}
     c28:	21212221 			; <UNDEFINED> instruction: 0x21212221
     c2c:	21212121 			; <UNDEFINED> instruction: 0x21212121
     c30:	0a032121 	beq	c90bc <BIT19+0x490bc>
     c34:	21212120 			; <UNDEFINED> instruction: 0x21212120
     c38:	21212321 			; <UNDEFINED> instruction: 0x21212321
     c3c:	21252123 			; <UNDEFINED> instruction: 0x21252123
     c40:	a5312f23 	ldrge	r2, [r1, #-3875]!	; 0xfffff0dd
     c44:	21222122 			; <UNDEFINED> instruction: 0x21222122
     c48:	302f2121 	eorcc	r2, pc, r1, lsr #2
     c4c:	25222121 	strcs	r2, [r2, #-289]!	; 0xfffffedf
     c50:	212f212f 			; <UNDEFINED> instruction: 0x212f212f
     c54:	212f212f 			; <UNDEFINED> instruction: 0x212f212f
     c58:	212f212f 			; <UNDEFINED> instruction: 0x212f212f
     c5c:	222f212f 	eorcs	r2, pc, #-1073741813	; 0xc000000b
     c60:	2121212f 			; <UNDEFINED> instruction: 0x2121212f
     c64:	03212122 			; <UNDEFINED> instruction: 0x03212122
     c68:	032e7dfe 			; <UNDEFINED> instruction: 0x032e7dfe
     c6c:	042e00eb 	strteq	r0, [lr], #-235	; 0xffffff15
     c70:	7f9a030b 	svcvc	0x009a030b
     c74:	24212166 	strtcs	r2, [r1], #-358	; 0xfffffe9a
     c78:	2f4c3021 	svccs	0x004c3021
     c7c:	21214d22 			; <UNDEFINED> instruction: 0x21214d22
     c80:	215e2f21 	cmpcs	lr, r1, lsr #30
     c84:	30212421 	eorcc	r2, r1, r1, lsr #8
     c88:	4e222f4c 	cdpmi	15, 2, cr2, cr2, cr12, {2}
     c8c:	21212136 			; <UNDEFINED> instruction: 0x21212136
     c90:	23212121 			; <UNDEFINED> instruction: 0x23212121
     c94:	21213024 			; <UNDEFINED> instruction: 0x21213024
     c98:	2f302121 	svccs	0x00302121
     c9c:	222f3d26 	eorcs	r3, pc, #2432	; 0x980
     ca0:	21232121 			; <UNDEFINED> instruction: 0x21232121
     ca4:	31222222 			; <UNDEFINED> instruction: 0x31222222
     ca8:	2f302f30 	svccs	0x00302f30
     cac:	32262325 	eorcc	r2, r6, #-1811939328	; 0x94000000
     cb0:	21242122 			; <UNDEFINED> instruction: 0x21242122
     cb4:	21303124 	teqcs	r0, r4, lsr #2
     cb8:	23216d30 			; <UNDEFINED> instruction: 0x23216d30
     cbc:	22216c4b 	eorcs	r6, r1, #19200	; 0x4b00
     cc0:	22216c4b 	eorcs	r6, r1, #19200	; 0x4b00
     cc4:	22216c4b 	eorcs	r6, r1, #19200	; 0x4b00
     cc8:	2221794b 	eorcs	r7, r1, #1228800	; 0x12c000
     ccc:	2321874b 			; <UNDEFINED> instruction: 0x2321874b
     cd0:	212f214d 			; <UNDEFINED> instruction: 0x212f214d
     cd4:	212f2121 			; <UNDEFINED> instruction: 0x212f2121
     cd8:	23216b2f 			; <UNDEFINED> instruction: 0x23216b2f
     cdc:	22216b4b 	eorcs	r6, r1, #76800	; 0x12c00
     ce0:	22216b4b 	eorcs	r6, r1, #76800	; 0x12c00
     ce4:	3d22216b 	stfccs	f2, [r2, #-428]!	; 0xfffffe54
     ce8:	3d222179 	stfccs	f2, [r2, #-484]!	; 0xfffffe1c
     cec:	4b22216c 	blmi	8892a4 <BIT23+0x892a4>
     cf0:	2121216c 			; <UNDEFINED> instruction: 0x2121216c
     cf4:	3d302122 	ldfccs	f2, [r0, #-136]!	; 0xffffff78
     cf8:	2f212121 	svccs	0x00212121
     cfc:	304b3021 	subcc	r3, fp, r1, lsr #32
     d00:	742c032f 	strtvc	r0, [ip], #-815	; 0xfffffcd1
     d04:	212f2121 			; <UNDEFINED> instruction: 0x212f2121
     d08:	03212121 			; <UNDEFINED> instruction: 0x03212121
     d0c:	2121743b 			; <UNDEFINED> instruction: 0x2121743b
     d10:	2121212f 			; <UNDEFINED> instruction: 0x2121212f
     d14:	2f216d21 	svccs	0x00216d21
     d18:	58100321 	ldmdapl	r0, {r0, r5, r8, r9}
     d1c:	21222f21 			; <UNDEFINED> instruction: 0x21222f21
     d20:	2f312f2f 	svccs	0x00312f2f
     d24:	21222122 			; <UNDEFINED> instruction: 0x21222122
     d28:	2f303030 	svccs	0x00303030
     d2c:	21217b2f 			; <UNDEFINED> instruction: 0x21217b2f
     d30:	74110321 	ldrvc	r0, [r1], #-801	; 0xfffffcdf
     d34:	21a4212f 			; <UNDEFINED> instruction: 0x21a4212f
     d38:	21872121 	orrcs	r2, r7, r1, lsr #2
     d3c:	216b2121 	cmncs	fp, r1, lsr #2
     d40:	86032121 	strhi	r2, [r3], -r1, lsr #2
     d44:	1b03207c 	blne	c8f3c <BIT19+0x48f3c>
     d48:	039b032e 	orrseq	r0, fp, #-1207959552	; 0xb8000000
     d4c:	2e2a032e 	cdpcs	3, 2, cr0, cr10, cr14, {1}
     d50:	ad030c04 	stcge	12, cr0, [r3, #-16]
     d54:	2f2f2e7d 	svccs	0x002f2e7d
     d58:	2f212f21 	svccs	0x00212f21
     d5c:	2f21212f 	svccs	0x0021212f
     d60:	242f2f21 	strtcs	r2, [pc], #-3873	; d68 <BIT11+0x568>
     d64:	2f2f3030 	svccs	0x002f3030
     d68:	2f217523 	svccs	0x00217523
     d6c:	0c032121 	stfeqs	f2, [r3], {33}	; 0x21
     d70:	76237520 	strtvc	r7, [r3], -r0, lsr #10
     d74:	23212f21 			; <UNDEFINED> instruction: 0x23212f21
     d78:	2f215959 	svccs	0x00215959
     d7c:	59752321 	ldmdbpl	r5!, {r0, r5, r8, r9, sp}^
     d80:	75757559 	ldrbvc	r7, [r5, #-1369]!	; 0xfffffaa7
     d84:	7575752f 	ldrbvc	r7, [r5, #-1327]!	; 0xfffffad1
     d88:	21592375 	cmpcs	r9, r5, ror r3
     d8c:	7523212f 	strvc	r2, [r3, #-303]!	; 0xfffffed1
     d90:	75757575 	ldrbvc	r7, [r5, #-1397]!	; 0xfffffa8b
     d94:	25267575 	strcs	r7, [r6, #-1397]!	; 0xfffffa8b
     d98:	2f2f2f2f 	svccs	0x002f2f2f
     d9c:	21332f2f 	teqcs	r3, pc, lsr #30
     da0:	2121232f 			; <UNDEFINED> instruction: 0x2121232f
     da4:	21232f2f 			; <UNDEFINED> instruction: 0x21232f2f
     da8:	232f2f21 			; <UNDEFINED> instruction: 0x232f2f21
     dac:	2f2f2121 	svccs	0x002f2121
     db0:	2f212123 	svccs	0x00212123
     db4:	2121232f 			; <UNDEFINED> instruction: 0x2121232f
     db8:	21232f2f 			; <UNDEFINED> instruction: 0x21232f2f
     dbc:	21232f21 			; <UNDEFINED> instruction: 0x21232f21
     dc0:	2f21232f 	svccs	0x0021232f
     dc4:	222f2123 	eorcs	r2, pc, #-1073741816	; 0xc0000008
     dc8:	7ed30330 	mrcvc	3, 6, r0, cr3, cr0, {1}
     dcc:	13033320 	movwne	r3, #13088	; 0x3320
     dd0:	2e11032e 	cdpcs	3, 1, cr0, cr1, cr14, {1}
     dd4:	2f363632 	svccs	0x00363632
     dd8:	2e0e0334 	mcrcs	3, 0, r0, cr14, cr4, {1}
     ddc:	0330312f 	teqeq	r0, #-1073741813	; 0xc000000b
     de0:	35332e17 	ldrcc	r2, [r3, #-3607]!	; 0xfffff1e9
     de4:	032e0e03 			; <UNDEFINED> instruction: 0x032e0e03
     de8:	33342e0e 	teqcc	r4, #14, 28	; 0xe0
     dec:	030d0433 	movweq	r0, #54323	; 0xd433
     df0:	2f9e7db3 	svccs	0x009e7db3
     df4:	212fb321 			; <UNDEFINED> instruction: 0x212fb321
     df8:	b3212fc1 			; <UNDEFINED> instruction: 0xb3212fc1
     dfc:	2fc1212f 	svccs	0x00c1212f
     e00:	21219721 			; <UNDEFINED> instruction: 0x21219721
     e04:	21216c2f 			; <UNDEFINED> instruction: 0x21216c2f
     e08:	2121792f 			; <UNDEFINED> instruction: 0x2121792f
     e0c:	7a212179 	bvc	8493f8 <BIT23+0x493f8>
     e10:	21242121 			; <UNDEFINED> instruction: 0x21242121
     e14:	8a030c04 	bhi	c3e2c <BIT19+0x43e2c>
     e18:	2f229e02 	svccs	0x00229e02
     e1c:	21222121 			; <UNDEFINED> instruction: 0x21222121
     e20:	22a42221 	adccs	r2, r4, #268435458	; 0x10000002
     e24:	2221212f 	eorcs	r2, r1, #-1073741813	; 0xc000000b
     e28:	b222212f 	eorlt	r2, r2, #-1073741813	; 0xc000000b
     e2c:	213d3021 	teqcs	sp, r1, lsr #32
     e30:	21212121 			; <UNDEFINED> instruction: 0x21212121
     e34:	3021a421 	eorcc	sl, r1, r1, lsr #8
     e38:	2121213d 			; <UNDEFINED> instruction: 0x2121213d
     e3c:	04212121 	strteq	r2, [r1], #-289	; 0xfffffedf
     e40:	7ce7030d 	stclvc	3, cr0, [r7], #52	; 0x34
     e44:	2e090320 	cdpcs	3, 0, cr0, cr9, cr0, {1}
     e48:	032e0903 			; <UNDEFINED> instruction: 0x032e0903
     e4c:	09032e09 	stmdbeq	r3, {r0, r3, r9, sl, fp, sp}
     e50:	030c042e 	movweq	r0, #50222	; 0xc42e
     e54:	032e02c0 			; <UNDEFINED> instruction: 0x032e02c0
     e58:	0d032e12 	stceq	14, cr2, [r3, #-72]	; 0xffffffb8
     e5c:	030e042e 	movweq	r0, #58414	; 0xe42e
     e60:	21907cfb 			; <UNDEFINED> instruction: 0x21907cfb
     e64:	21212121 			; <UNDEFINED> instruction: 0x21212121
     e68:	2121212f 			; <UNDEFINED> instruction: 0x2121212f
     e6c:	20090388 	andcs	r0, r9, r8, lsl #7
     e70:	2f232121 	svccs	0x00232121
     e74:	21222130 			; <UNDEFINED> instruction: 0x21222130
     e78:	21222124 			; <UNDEFINED> instruction: 0x21222124
     e7c:	21222121 			; <UNDEFINED> instruction: 0x21222121
     e80:	03222122 			; <UNDEFINED> instruction: 0x03222122
     e84:	24214a1a 	strtcs	r4, [r1], #-2586	; 0xfffff5e6
     e88:	21212521 			; <UNDEFINED> instruction: 0x21212521
     e8c:	21212128 			; <UNDEFINED> instruction: 0x21212128
     e90:	22212424 	eorcs	r2, r1, #36, 8	; 0x24000000
     e94:	21212f3d 			; <UNDEFINED> instruction: 0x21212f3d
     e98:	6c2f2123 	stfvss	f2, [pc], #-140	; e14 <BIT11+0x614>
     e9c:	2f6c212f 	svccs	0x006c212f
     ea0:	212fdd21 			; <UNDEFINED> instruction: 0x212fdd21
     ea4:	21c80903 	biccs	r0, r8, r3, lsl #18
     ea8:	21212121 			; <UNDEFINED> instruction: 0x21212121
     eac:	21222f88 	smlawbcs	r2, r8, pc, r2	; <UNPREDICTABLE>
     eb0:	7a212121 	bvc	84933c <BIT23+0x4933c>
     eb4:	22212122 	eorcs	r2, r1, #-2147483640	; 0x80000008
     eb8:	2f3d2f2f 	svccs	0x003d2f2f
     ebc:	2e410330 	mcrcs	3, 2, r0, cr1, cr0, {1}
     ec0:	2e090336 	mcrcs	3, 0, r0, cr9, cr6, {1}
     ec4:	8d030f04 	stchi	15, cr0, [r3, #-16]
     ec8:	2f22907f 	svccs	0x0022907f
     ecc:	24232221 	strtcs	r2, [r3], #-545	; 0xfffffddf
     ed0:	21212221 			; <UNDEFINED> instruction: 0x21212221
     ed4:	215a5923 	cmpcs	sl, r3, lsr #18
     ed8:	21232123 			; <UNDEFINED> instruction: 0x21232123
     edc:	3d216b21 	fstmdbxcc	r1!, {d6-d21}	;@ Deprecated
     ee0:	3d7a3d6b 	ldclcc	13, cr3, [sl, #-428]!	; 0xfffffe54
     ee4:	22212187 	eorcs	r2, r1, #-1073741791	; 0xc0000021
     ee8:	2122212f 			; <UNDEFINED> instruction: 0x2122212f
     eec:	2f217a88 	svccs	0x00217a88
     ef0:	3d5d2121 	ldfcce	f2, [sp, #-132]	; 0xffffff7c
     ef4:	2f213e5d 	svccs	0x00213e5d
     ef8:	21226b2f 			; <UNDEFINED> instruction: 0x21226b2f
     efc:	2f3d303d 	svccs	0x003d303d
     f00:	2f22262f 	svccs	0x0022262f
     f04:	21242121 			; <UNDEFINED> instruction: 0x21242121
     f08:	31272121 			; <UNDEFINED> instruction: 0x31272121
     f0c:	26216b21 	strtcs	r6, [r1], -r1, lsr #22
     f10:	2421212f 	strtcs	r2, [r1], #-303	; 0xfffffed1
     f14:	27212121 	strcs	r2, [r1, -r1, lsr #2]!
     f18:	26216b31 			; <UNDEFINED> instruction: 0x26216b31
     f1c:	212f212f 			; <UNDEFINED> instruction: 0x212f212f
     f20:	21212124 			; <UNDEFINED> instruction: 0x21212124
     f24:	217b3127 	cmncs	fp, r7, lsr #2
     f28:	7a21212f 	bvc	8493ec <BIT23+0x493ec>
     f2c:	7a2f2f21 	bvc	bccbb8 <BIT23+0x3ccbb8>
     f30:	24212221 	strtcs	r2, [r1], #-545	; 0xfffffddf
     f34:	212f212f 			; <UNDEFINED> instruction: 0x212f212f
     f38:	04212221 	strteq	r2, [r1], #-545	; 0xfffffddf
     f3c:	7de80310 	stclvc	3, cr0, [r8, #64]!	; 0x40
     f40:	212f2174 			; <UNDEFINED> instruction: 0x212f2174
     f44:	21302122 	teqcs	r0, r2, lsr #2
     f48:	21212122 			; <UNDEFINED> instruction: 0x21212122
     f4c:	2f232121 	svccs	0x00232121
     f50:	6c2f2221 	sfmvs	f2, 4, [pc], #-132	; ed4 <BIT11+0x6d4>
     f54:	216c2121 	cmncs	ip, r1, lsr #2
     f58:	23216c21 			; <UNDEFINED> instruction: 0x23216c21
     f5c:	21212221 			; <UNDEFINED> instruction: 0x21212221
     f60:	21212223 			; <UNDEFINED> instruction: 0x21212223
     f64:	21222321 			; <UNDEFINED> instruction: 0x21222321
     f68:	21232121 			; <UNDEFINED> instruction: 0x21232121
     f6c:	21222321 			; <UNDEFINED> instruction: 0x21222321
     f70:	22212123 	eorcs	r2, r1, #-1073741816	; 0xc0000008
     f74:	3d752221 	lfmcc	f2, 2, [r5, #-132]!	; 0xffffff7c
     f78:	21214d2f 			; <UNDEFINED> instruction: 0x21214d2f
     f7c:	22212321 	eorcs	r2, r1, #-2080374784	; 0x84000000
     f80:	3d212223 	sfmcc	f2, 4, [r1, #-140]!	; 0xffffff74
     f84:	21212221 			; <UNDEFINED> instruction: 0x21212221
     f88:	223d6723 	eorscs	r6, sp, #9175040	; 0x8c0000
     f8c:	00f00359 	rscseq	r0, r0, r9, asr r3
     f90:	313e2174 	teqcc	lr, r4, ror r1
     f94:	67312f75 			; <UNDEFINED> instruction: 0x67312f75
     f98:	6731212f 	ldrvs	r2, [r1, -pc, lsr #2]!
     f9c:	6731212f 	ldrvs	r2, [r1, -pc, lsr #2]!
     fa0:	303d2f21 	eorscc	r2, sp, r1, lsr #30
     fa4:	30212f67 	eorcc	r2, r1, r7, ror #30
     fa8:	222f2f3e 	eorcs	r2, pc, #62, 30	; 0xf8
     fac:	30218821 	eorcc	r8, r1, r1, lsr #16
     fb0:	242f2221 	strtcs	r2, [pc], #-545	; fb8 <BIT11+0x7b8>
     fb4:	04213123 	strteq	r3, [r1], #-291	; 0xfffffedd
     fb8:	7ed7030f 	cdpvc	3, 13, cr0, cr7, cr15, {0}
     fbc:	2e2b032e 	cdpcs	3, 2, cr0, cr11, cr14, {1}
     fc0:	042e2003 	strteq	r2, [lr], #-3
     fc4:	7ecd0310 	mcrvc	3, 6, r0, cr13, cr0, {0}
     fc8:	3136362e 	teqcc	r6, lr, lsr #12
     fcc:	032e2303 			; <UNDEFINED> instruction: 0x032e2303
     fd0:	b6032e16 			; <UNDEFINED> instruction: 0xb6032e16
     fd4:	11042e01 	tstne	r4, r1, lsl #28
     fd8:	ba7e8003 	blt	1fa0fec <BIT24+0xfa0fec>
     fdc:	2f222123 	svccs	0x00222123
     fe0:	212f272f 			; <UNDEFINED> instruction: 0x212f272f
     fe4:	21212f22 			; <UNDEFINED> instruction: 0x21212f22
     fe8:	2f2f2221 	svccs	0x002f2221
     fec:	2f262f2f 	svccs	0x00262f2f
     ff0:	212f2221 			; <UNDEFINED> instruction: 0x212f2221
     ff4:	21222121 			; <UNDEFINED> instruction: 0x21222121
     ff8:	2f2f2f2f 	svccs	0x002f2f2f
     ffc:	22212126 	eorcs	r2, r1, #-2147483639	; 0x80000009
    1000:	22212121 	eorcs	r2, r1, #1073741832	; 0x40000008
    1004:	22212121 	eorcs	r2, r1, #1073741832	; 0x40000008
    1008:	22212121 	eorcs	r2, r1, #1073741832	; 0x40000008
    100c:	2f2f2f2f 	svccs	0x002f2f2f
    1010:	21200a03 			; <UNDEFINED> instruction: 0x21200a03
    1014:	31212324 			; <UNDEFINED> instruction: 0x31212324
    1018:	2321212f 			; <UNDEFINED> instruction: 0x2321212f
    101c:	212f2421 			; <UNDEFINED> instruction: 0x212f2421
    1020:	21200f03 			; <UNDEFINED> instruction: 0x21200f03
    1024:	2f352128 	svccs	0x00352128
    1028:	212f2221 			; <UNDEFINED> instruction: 0x212f2221
    102c:	22212f22 	eorcs	r2, r1, #34, 30	; 0x88
    1030:	2f262f2f 	svccs	0x00262f2f
    1034:	212f2f30 			; <UNDEFINED> instruction: 0x212f2f30
    1038:	212f2f22 			; <UNDEFINED> instruction: 0x212f2f22
    103c:	212f2f22 			; <UNDEFINED> instruction: 0x212f2f22
    1040:	23302122 	teqcs	r0, #-2147483640	; 0x80000008
    1044:	302f2622 	eorcc	r2, pc, r2, lsr #12
    1048:	22212f2f 	eorcs	r2, r1, #47, 30	; 0xbc
    104c:	22212f2f 	eorcs	r2, r1, #47, 30	; 0xbc
    1050:	22212f2f 	eorcs	r2, r1, #47, 30	; 0xbc
    1054:	23212f2f 			; <UNDEFINED> instruction: 0x23212f2f
    1058:	2f22cf22 	svccs	0x0022cf22
    105c:	2f222125 	svccs	0x00222125
    1060:	30232f21 	eorcc	r2, r3, r1, lsr #30
    1064:	2f212121 	svccs	0x00212121
    1068:	242f2121 	strtcs	r2, [pc], #-289	; 1070 <BIT12+0x70>
    106c:	21213021 			; <UNDEFINED> instruction: 0x21213021
    1070:	21212f21 			; <UNDEFINED> instruction: 0x21212f21
    1074:	9722222f 	strls	r2, [r2, -pc, lsr #4]!
    1078:	32232f22 	eorcc	r2, r3, #34, 30	; 0x88
    107c:	222f2f34 	eorcs	r2, pc, #52, 30	; 0xd0
    1080:	20110330 	andscs	r0, r1, r0, lsr r3
    1084:	212f2221 			; <UNDEFINED> instruction: 0x212f2221
    1088:	0b03302f 	bleq	cd14c <BIT19+0x4d14c>
    108c:	3d222120 	stfccs	f2, [r2, #-128]!	; 0xffffff80
    1090:	032f4b31 			; <UNDEFINED> instruction: 0x032f4b31
    1094:	2321740c 			; <UNDEFINED> instruction: 0x2321740c
    1098:	2821302f 	stmdacs	r1!, {r0, r1, r2, r3, r5, ip, sp}
    109c:	2221212f 	eorcs	r2, r1, #-1073741813	; 0xc000000b
    10a0:	2f21212f 	svccs	0x0021212f
    10a4:	30212726 	eorcc	r2, r1, r6, lsr #14
    10a8:	2222212f 	eorcs	r2, r2, #-1073741813	; 0xc000000b
    10ac:	2221212f 	eorcs	r2, r1, #-1073741813	; 0xc000000b
    10b0:	23212f22 			; <UNDEFINED> instruction: 0x23212f22
    10b4:	2296303d 	addscs	r3, r6, #61	; 0x3d
    10b8:	304b2f4b 	subcc	r2, fp, fp, asr #30
    10bc:	2187303d 	orrcs	r3, r7, sp, lsr r0
    10c0:	26303034 			; <UNDEFINED> instruction: 0x26303034
    10c4:	242f332f 	strtcs	r3, [pc], #-815	; 10cc <BIT12+0xcc>
    10c8:	0e032323 	cdpeq	3, 0, cr2, cr3, cr3, {1}
    10cc:	26303074 			; <UNDEFINED> instruction: 0x26303074
    10d0:	1503322f 	strne	r3, [r3, #-559]	; 0xfffffdd1
    10d4:	21362f20 	teqcs	r6, r0, lsr #30
    10d8:	30032122 	andcc	r2, r3, r2, lsr #2
    10dc:	23242f20 			; <UNDEFINED> instruction: 0x23242f20
    10e0:	21212121 			; <UNDEFINED> instruction: 0x21212121
    10e4:	21212621 			; <UNDEFINED> instruction: 0x21212621
    10e8:	21252321 			; <UNDEFINED> instruction: 0x21252321
    10ec:	032f222f 			; <UNDEFINED> instruction: 0x032f222f
    10f0:	03218209 			; <UNDEFINED> instruction: 0x03218209
    10f4:	212e00c2 	smlawtcs	lr, r2, r0, r0
    10f8:	26242f22 	strtcs	r2, [r4], -r2, lsr #30
    10fc:	2121212f 			; <UNDEFINED> instruction: 0x2121212f
    1100:	262f2121 	strtcs	r2, [pc], -r1, lsr #2
    1104:	2121212f 			; <UNDEFINED> instruction: 0x2121212f
    1108:	304b3121 	subcc	r3, fp, r1, lsr #2
    110c:	12042f3d 	andne	r2, r4, #61, 30	; 0xf4
    1110:	6679ff03 	ldrbtvs	pc, [r9], -r3, lsl #30	; <UNPREDICTABLE>
    1114:	2f2f215e 	svccs	0x002f215e
    1118:	3422962f 	strtcc	r9, [r2], #-1583	; 0xfffff9d1
    111c:	2f2f3d3d 	svccs	0x002f3d3d
    1120:	032f212f 			; <UNDEFINED> instruction: 0x032f212f
    1124:	1003821d 	andne	r8, r3, sp, lsl r2
    1128:	312f2f20 			; <UNDEFINED> instruction: 0x312f2f20
    112c:	21212121 			; <UNDEFINED> instruction: 0x21212121
    1130:	3d222121 	stfccs	f2, [r2, #-132]!	; 0xffffff7c
    1134:	21222130 			; <UNDEFINED> instruction: 0x21222130
    1138:	322f2628 	eorcc	r2, pc, #40, 12	; 0x2800000
    113c:	21212221 			; <UNDEFINED> instruction: 0x21212221
    1140:	7c212221 	sfmvc	f2, 4, [r1], #-132	; 0xffffff7c
    1144:	09037a4b 	stmdbeq	r3, {r0, r1, r3, r6, r9, fp, ip, sp, lr}
    1148:	21212f82 	smlawbcs	r1, r2, pc, r2	; <UNPREDICTABLE>
    114c:	7b212f7a 	blvc	84cf3c <BIT23+0x4cf3c>
    1150:	21212121 			; <UNDEFINED> instruction: 0x21212121
    1154:	2121215e 			; <UNDEFINED> instruction: 0x2121215e
    1158:	2221225d 	eorcs	r2, r1, #-805306363	; 0xd0000005
    115c:	23212133 			; <UNDEFINED> instruction: 0x23212133
    1160:	0b032121 	bleq	c95ec <BIT19+0x495ec>
    1164:	58090320 	stmdapl	r9, {r5, r8, r9}
    1168:	21212122 			; <UNDEFINED> instruction: 0x21212122
    116c:	22212122 	eorcs	r2, r1, #-2147483640	; 0x80000008
    1170:	44082f21 	strmi	r2, [r8], #-3873	; 0xfffff0df
    1174:	21212121 			; <UNDEFINED> instruction: 0x21212121
    1178:	2f4b2121 	svccs	0x004b2121
    117c:	242f344b 	strtcs	r3, [pc], #-1099	; 1184 <BIT12+0x184>
    1180:	3030304b 	eorscc	r3, r0, fp, asr #32
    1184:	3d952f88 	ldccc	15, cr2, [r5, #544]	; 0x220
    1188:	3da33d88 	stccc	13, cr3, [r3, #544]!	; 0x220
    118c:	3da33da4 	stccc	13, cr3, [r3, #656]!	; 0x290
    1190:	3da33da3 	stccc	13, cr3, [r3, #652]!	; 0x28c
    1194:	3da33da3 	stccc	13, cr3, [r3, #652]!	; 0x28c
    1198:	3da33da3 	stccc	13, cr3, [r3, #652]!	; 0x28c
    119c:	2f2f2195 	svccs	0x002f2195
    11a0:	2f2f2f4b 	svccs	0x002f2f4b
    11a4:	3d2f2195 	stfccs	f2, [pc, #-596]!	; f58 <BIT11+0x758>
    11a8:	0311042f 	tsteq	r1, #788529152	; 0x2f000000
    11ac:	032e7ed7 			; <UNDEFINED> instruction: 0x032e7ed7
    11b0:	36032e20 	strcc	r2, [r3], -r0, lsr #28
    11b4:	2e0e032e 	cdpcs	3, 0, cr0, cr14, cr14, {1}
    11b8:	2e00ee03 	cdpcs	14, 0, cr14, cr0, cr3, {0}
    11bc:	2e120333 	mrccs	3, 0, r0, cr2, cr3, {1}
    11c0:	2e018903 	vmlacs.f16	s16, s2, s6	; <UNPREDICTABLE>
    11c4:	03120431 	tsteq	r2, #822083584	; 0x31000000
    11c8:	032e7be4 			; <UNDEFINED> instruction: 0x032e7be4
    11cc:	032e0181 			; <UNDEFINED> instruction: 0x032e0181
    11d0:	0d032e1c 	stceq	14, cr2, [r3, #-112]	; 0xffffff90
    11d4:	2e1d032e 	cdpcs	3, 1, cr0, cr13, cr14, {1}
    11d8:	03130432 	tsteq	r3, #838860800	; 0x32000000
    11dc:	22907e95 	addscs	r7, r0, #2384	; 0x950
    11e0:	242f2221 	strtcs	r2, [pc], #-545	; 11e8 <BIT12+0x1e8>
    11e4:	21200f03 			; <UNDEFINED> instruction: 0x21200f03
    11e8:	22212f21 	eorcs	r2, r1, #33, 30	; 0x84
    11ec:	03312f2f 	teqeq	r1, #47, 30	; 0xbc
    11f0:	21322e0b 	teqcs	r2, fp, lsl #28
    11f4:	21213e21 			; <UNDEFINED> instruction: 0x21213e21
    11f8:	21222124 			; <UNDEFINED> instruction: 0x21222124
    11fc:	2531242f 	ldrcs	r2, [r1, #-1071]!	; 0xfffffbd1
    1200:	97302f30 			; <UNDEFINED> instruction: 0x97302f30
    1204:	2f222123 	svccs	0x00222123
    1208:	21212524 			; <UNDEFINED> instruction: 0x21212524
    120c:	27212121 	strcs	r2, [r1, -r1, lsr #2]!
    1210:	22212130 	eorcs	r2, r1, #48, 2
    1214:	21222f21 			; <UNDEFINED> instruction: 0x21222f21
    1218:	21232121 			; <UNDEFINED> instruction: 0x21232121
    121c:	21212187 	smlawbcs	r1, r7, r1, r2
    1220:	26741d03 	ldrbtcs	r1, [r4], -r3, lsl #26
    1224:	22212221 	eorcs	r2, r1, #268435458	; 0x10000002
    1228:	312f2f22 			; <UNDEFINED> instruction: 0x312f2f22
    122c:	22903403 	addscs	r3, r0, #50331648	; 0x3000000
    1230:	21212221 			; <UNDEFINED> instruction: 0x21212221
    1234:	2f2f2f22 	svccs	0x002f2f22
    1238:	20250322 	eorcs	r0, r5, r2, lsr #6
    123c:	6c4b233d 	mcrrvs	3, 3, r2, fp, cr13
    1240:	21212721 			; <UNDEFINED> instruction: 0x21212721
    1244:	21212121 			; <UNDEFINED> instruction: 0x21212121
    1248:	2f252124 	svccs	0x00252124
    124c:	303d2424 	eorscc	r2, sp, r4, lsr #8
    1250:	3d232f23 	stccc	15, cr2, [r3, #-140]!	; 0xffffff74
    1254:	5f2e0903 	svcpl	0x002e0903
    1258:	21302f21 	teqcs	r0, r1, lsr #30
    125c:	21216c2f 			; <UNDEFINED> instruction: 0x21216c2f
    1260:	21288821 			; <UNDEFINED> instruction: 0x21288821
    1264:	21302121 	teqcs	r0, r1, lsr #2
    1268:	232f3d22 			; <UNDEFINED> instruction: 0x232f3d22
    126c:	2121212f 			; <UNDEFINED> instruction: 0x2121212f
    1270:	2122212f 			; <UNDEFINED> instruction: 0x2122212f
    1274:	21212f22 			; <UNDEFINED> instruction: 0x21212f22
    1278:	212f2121 			; <UNDEFINED> instruction: 0x212f2121
    127c:	21212321 			; <UNDEFINED> instruction: 0x21212321
    1280:	2f212f23 	svccs	0x00212f23
    1284:	2f22217b 	svccs	0x0022217b
    1288:	222f2424 	eorcs	r2, pc, #36, 8	; 0x24000000
    128c:	e8212130 	stmda	r1!, {r4, r5, r8, sp}
    1290:	2221232f 	eorcs	r2, r1, #-1140850688	; 0xbc000000
    1294:	21d92121 	bicscs	r2, r9, r1, lsr #2
    1298:	97212f96 			; <UNDEFINED> instruction: 0x97212f96
    129c:	0a03212f 	beq	c9760 <BIT19+0x49760>
    12a0:	213121ac 	teqcs	r1, ip, lsr #3
    12a4:	21212421 			; <UNDEFINED> instruction: 0x21212421
    12a8:	2131b121 	teqcs	r1, r1, lsr #2
    12ac:	23222f22 			; <UNDEFINED> instruction: 0x23222f22
    12b0:	2221b323 	eorcs	fp, r1, #-1946157056	; 0x8c000000
    12b4:	c122242f 			; <UNDEFINED> instruction: 0xc122242f
    12b8:	242f2221 	strtcs	r2, [pc], #-545	; 12c0 <BIT12+0x2c0>
    12bc:	21212422 			; <UNDEFINED> instruction: 0x21212422
    12c0:	22212121 	eorcs	r2, r1, #1073741832	; 0x40000008
    12c4:	21212121 			; <UNDEFINED> instruction: 0x21212121
    12c8:	21212821 			; <UNDEFINED> instruction: 0x21212821
    12cc:	08212721 	stmdaeq	r1!, {r0, r5, r8, r9, sl, sp}
    12d0:	21b1223d 			; <UNDEFINED> instruction: 0x21b1223d
    12d4:	222fa32f 	eorcs	sl, pc, #-1140850688	; 0xbc000000
    12d8:	21212121 			; <UNDEFINED> instruction: 0x21212121
    12dc:	88032122 	stmdahi	r3, {r1, r5, r8, sp}
    12e0:	3103207b 	tstcc	r3, fp, ror r0
    12e4:	8203322e 	andhi	r3, r3, #-536870910	; 0xe0000002
    12e8:	9e032e02 	cdpls	14, 0, cr2, cr3, cr2, {0}
    12ec:	10032e01 	andne	r2, r3, r1, lsl #28
    12f0:	2e09032e 	cdpcs	3, 0, cr0, cr9, cr14, {1}
    12f4:	342e1003 	strtcc	r1, [lr], #-3
    12f8:	352e3d03 	strcc	r3, [lr, #-3331]!	; 0xfffff2fd
    12fc:	032e2703 			; <UNDEFINED> instruction: 0x032e2703
    1300:	31219e15 			; <UNDEFINED> instruction: 0x31219e15
    1304:	40082221 	andmi	r2, r8, r1, lsr #4
    1308:	2124305a 	qsubcs	r3, sl, r4
    130c:	9f5c2122 	svcls	0x005c2122
    1310:	660d032f 	strvs	r0, [sp], -pc, lsr #6
    1314:	2f222131 	svccs	0x00222131
    1318:	2f212724 	svccs	0x00212724
    131c:	2f200f03 	svccs	0x00200f03
    1320:	3d2f313d 	stfccs	f3, [pc, #-244]!	; 1234 <BIT12+0x234>
    1324:	21352f30 	teqcs	r5, r0, lsr pc
    1328:	212f2222 			; <UNDEFINED> instruction: 0x212f2222
    132c:	21212126 			; <UNDEFINED> instruction: 0x21212126
    1330:	21242f2f 			; <UNDEFINED> instruction: 0x21242f2f
    1334:	21312622 	teqcs	r1, r2, lsr #12
    1338:	2f31212f 	svccs	0x0031212f
    133c:	2f21312f 	svccs	0x0021312f
    1340:	21213223 			; <UNDEFINED> instruction: 0x21213223
    1344:	3d962321 	ldccc	3, cr2, [r6, #132]	; 0x84
    1348:	21973d95 			; <UNDEFINED> instruction: 0x21973d95
    134c:	2f222130 	svccs	0x00222130
    1350:	20140324 	andscs	r0, r4, r4, lsr #6
    1354:	34212421 	strtcc	r2, [r1], #-1057	; 0xfffffbdf
    1358:	2221212f 	eorcs	r2, r1, #-1073741813	; 0xc000000b
    135c:	212f2121 			; <UNDEFINED> instruction: 0x212f2121
    1360:	2f213d24 	svccs	0x00213d24
    1364:	2f32262f 	svccs	0x0032262f
    1368:	212f2221 			; <UNDEFINED> instruction: 0x212f2221
    136c:	8a2f2f24 	bhi	bcd004 <BIT23+0x3cd004>
    1370:	21213121 			; <UNDEFINED> instruction: 0x21213121
    1374:	22212122 	eorcs	r2, r1, #-2147483640	; 0x80000008
    1378:	242f2221 	strtcs	r2, [pc], #-545	; 1380 <BIT12+0x380>
    137c:	31312128 	teqcc	r1, r8, lsr #2
    1380:	262f2f4b 	strtcs	r2, [pc], -fp, asr #30
    1384:	22243030 	eorcs	r3, r4, #48	; 0x30
    1388:	21212121 			; <UNDEFINED> instruction: 0x21212121
    138c:	13082121 	movwne	r2, #33057	; 0x8121
    1390:	242f3d23 	strtcs	r3, [pc], #-3363	; 1398 <BIT12+0x398>
    1394:	21212f23 			; <UNDEFINED> instruction: 0x21212f23
    1398:	2f312121 	svccs	0x00312121
    139c:	212f2f21 			; <UNDEFINED> instruction: 0x212f2f21
    13a0:	03304b30 	teqeq	r0, #48, 22	; 0xc000
    13a4:	2221ba0c 	eorcs	fp, r1, #12, 20	; 0xc000
    13a8:	22242f2f 	eorcs	r2, r4, #47, 30	; 0xbc
    13ac:	21212221 			; <UNDEFINED> instruction: 0x21212221
    13b0:	21ba2003 			; <UNDEFINED> instruction: 0x21ba2003
    13b4:	21212f21 			; <UNDEFINED> instruction: 0x21212f21
    13b8:	21212121 			; <UNDEFINED> instruction: 0x21212121
    13bc:	212f223d 			; <UNDEFINED> instruction: 0x212f223d
    13c0:	7cff0321 	ldclvc	3, cr0, [pc], #132	; 144c <BIT12+0x44c>
    13c4:	2e0f032e 	cdpcs	3, 0, cr0, cr15, cr14, {1}
    13c8:	032e2203 			; <UNDEFINED> instruction: 0x032e2203
    13cc:	a8032e38 	stmdage	r3, {r3, r4, r5, r9, sl, fp, sp}
    13d0:	03312e01 	teqeq	r1, #1, 28
    13d4:	03312e19 	teqeq	r1, #400	; 0x190
    13d8:	c1032e1d 	tstgt	r3, sp, lsl lr
    13dc:	2221ac00 	eorcs	sl, r1, #0, 24
    13e0:	21212221 			; <UNDEFINED> instruction: 0x21212221
    13e4:	22212225 	eorcs	r2, r1, #1342177282	; 0x50000002
    13e8:	21212221 			; <UNDEFINED> instruction: 0x21212221
    13ec:	74090321 	strvc	r0, [r9], #-801	; 0xfffffcdf
    13f0:	2f962121 	svccs	0x00962121
    13f4:	9e110321 	cdpls	3, 1, cr0, cr1, cr1, {1}
    13f8:	22212127 	eorcs	r2, r1, #-1073741815	; 0xc0000009
    13fc:	2f31302f 	svccs	0x0031302f
    1400:	21242121 			; <UNDEFINED> instruction: 0x21242121
    1404:	21242521 			; <UNDEFINED> instruction: 0x21242521
    1408:	5a592321 	bpl	164a094 <BIT24+0x64a094>
    140c:	24212321 	strtcs	r2, [r1], #-801	; 0xfffffcdf
    1410:	212f2121 			; <UNDEFINED> instruction: 0x212f2121
    1414:	28242f23 	stmdacs	r4!, {r0, r1, r5, r8, r9, sl, fp, sp}
    1418:	21212f21 			; <UNDEFINED> instruction: 0x21212f21
    141c:	21252121 			; <UNDEFINED> instruction: 0x21252121
    1420:	22253e21 	eorcs	r3, r5, #528	; 0x210
    1424:	2f212221 	svccs	0x00212221
    1428:	21212122 			; <UNDEFINED> instruction: 0x21212122
    142c:	7efc032f 	cdpvc	3, 15, cr0, cr12, cr15, {1}
    1430:	2e090320 	cdpcs	3, 0, cr0, cr9, cr0, {1}
    1434:	94031404 	strls	r1, [r3], #-1028	; 0xfffffbfc
    1438:	322f9077 	eorcc	r9, pc, #119	; 0x77
    143c:	212f2821 			; <UNDEFINED> instruction: 0x212f2821
    1440:	212f2221 			; <UNDEFINED> instruction: 0x212f2221
    1444:	2121f623 	msrcs	R9_usr, r3
    1448:	23212122 			; <UNDEFINED> instruction: 0x23212122
    144c:	21222124 			; <UNDEFINED> instruction: 0x21222124
    1450:	2f7b212f 	svccs	0x007b212f
    1454:	21282130 			; <UNDEFINED> instruction: 0x21282130
    1458:	21222121 			; <UNDEFINED> instruction: 0x21222121
    145c:	2f212421 	svccs	0x00212421
    1460:	7a3d3026 	bvc	f4d500 <BIT23+0x74d500>
    1464:	b221212f 	eorlt	r2, r1, #-1073741813	; 0xc000000b
    1468:	2821212f 	stmdacs	r1!, {r0, r1, r2, r3, r5, r8, sp}
    146c:	2f2f4b21 	svccs	0x002f4b21
    1470:	2f212323 	svccs	0x00212323
    1474:	232f4b3d 			; <UNDEFINED> instruction: 0x232f4b3d
    1478:	4b3d2f21 	blmi	f4d104 <BIT23+0x74d104>
    147c:	2f21232f 	svccs	0x0021232f
    1480:	2f4b3d2f 	svccs	0x004b3d2f
    1484:	3d2f2123 	stfccs	f2, [pc, #-140]!	; 1400 <BIT12+0x400>
    1488:	2f21242f 	svccs	0x0021242f
    148c:	232f3d2f 			; <UNDEFINED> instruction: 0x232f3d2f
    1490:	2f3d2f21 	svccs	0x003d2f21
    1494:	2f2f2124 	svccs	0x002f2124
    1498:	4b2f2123 	blmi	bc992c <BIT23+0x3c992c>
    149c:	2f21232f 	svccs	0x0021232f
    14a0:	27262f4b 	strcs	r2, [r6, -fp, asr #30]!
    14a4:	302f2f30 	eorcc	r2, pc, r0, lsr pc	; <UNPREDICTABLE>
    14a8:	2f212121 	svccs	0x00212121
    14ac:	21214b32 			; <UNDEFINED> instruction: 0x21214b32
    14b0:	7c303030 	ldcvc	0, cr3, [r0], #-192	; 0xffffff40
    14b4:	22212121 	eorcs	r2, r1, #1073741832	; 0x40000008
    14b8:	21222121 			; <UNDEFINED> instruction: 0x21222121
    14bc:	792f3d2f 	stmdbvc	pc!, {r0, r1, r2, r3, r5, r8, sl, fp, ip, sp}	; <UNPREDICTABLE>
    14c0:	2f2f2f21 	svccs	0x002f2f21
    14c4:	4b2f216d 	blmi	bc9a80 <BIT23+0x3c9a80>
    14c8:	30302223 	eorscc	r2, r0, r3, lsr #4
    14cc:	21222121 			; <UNDEFINED> instruction: 0x21222121
    14d0:	222f3031 	eorcs	r3, pc, #49	; 0x31
    14d4:	303d2f2f 	eorscc	r2, sp, pc, lsr #30
    14d8:	2f217a4b 	svccs	0x00217a4b
    14dc:	2f21873d 	svccs	0x0021873d
    14e0:	2f21792f 	svccs	0x0021792f
    14e4:	2f21222f 	svccs	0x0021222f
    14e8:	a408242f 	strge	r2, [r8], #-1071	; 0xfffffbd1
    14ec:	21212121 			; <UNDEFINED> instruction: 0x21212121
    14f0:	22212122 	eorcs	r2, r1, #-2147483640	; 0x80000008
    14f4:	21213021 			; <UNDEFINED> instruction: 0x21213021
    14f8:	30312222 	eorscc	r2, r1, r2, lsr #4
    14fc:	2f222f3e 	svccs	0x00222f3e
    1500:	3d2f2f22 	stccc	15, cr2, [pc, #-136]!	; 1480 <BIT12+0x480>
    1504:	217a2f4b 	cmncs	sl, fp, asr #30
    1508:	217a2121 	cmncs	sl, r1, lsr #2
    150c:	a4033d2f 	strge	r3, [r3], #-3375	; 0xfffff2d1
    1510:	1903207d 	stmdbne	r3, {r0, r2, r3, r4, r5, r6, sp}
    1514:	2103332e 	tstcs	r3, lr, lsr #6
    1518:	0315042e 	tsteq	r5, #771751936	; 0x2e000000
    151c:	2f667f9a 	svccs	0x00667f9a
    1520:	5e4b2221 	cdppl	2, 4, cr2, cr11, cr1, {1}
    1524:	4c24212f 	stfmis	f2, [r4], #-188	; 0xffffff44
    1528:	212f2f21 			; <UNDEFINED> instruction: 0x212f2f21
    152c:	5e2f2121 	sufplep	f2, f7, f1
    1530:	4b21223d 	blmi	849e2c <BIT23+0x49e2c>
    1534:	21212f2f 			; <UNDEFINED> instruction: 0x21212f2f
    1538:	7428032f 	strtvc	r0, [r8], #-815	; 0xfffffcd1
    153c:	21200a03 			; <UNDEFINED> instruction: 0x21200a03
    1540:	21232122 			; <UNDEFINED> instruction: 0x21232122
    1544:	21212321 			; <UNDEFINED> instruction: 0x21212321
    1548:	222f2126 	eorcs	r2, pc, #-2147483639	; 0x80000009
    154c:	23232131 			; <UNDEFINED> instruction: 0x23232131
    1550:	22212221 	eorcs	r2, r1, #268435458	; 0x10000002
    1554:	0d032189 	stfeqs	f2, [r3, #-548]	; 0xfffffddc
    1558:	21212174 			; <UNDEFINED> instruction: 0x21212174
    155c:	212f2122 			; <UNDEFINED> instruction: 0x212f2122
    1560:	1103312f 	tstne	r3, pc, lsr #2
    1564:	22222f20 	eorcs	r2, r2, #32, 30	; 0x80
    1568:	032f2122 			; <UNDEFINED> instruction: 0x032f2122
    156c:	2121740b 			; <UNDEFINED> instruction: 0x2121740b
    1570:	2f212221 	svccs	0x00212221
    1574:	30312f21 	eorscc	r2, r1, r1, lsr #30
    1578:	2f222f21 	svccs	0x00222f21
    157c:	21232f21 			; <UNDEFINED> instruction: 0x21232f21
    1580:	660a0321 	strvs	r0, [sl], -r1, lsr #6
    1584:	31212f22 			; <UNDEFINED> instruction: 0x31212f22
    1588:	3d3d2121 	ldfccs	f2, [sp, #-132]!	; 0xffffff7c
    158c:	243f2f22 	ldrtcs	r2, [pc], #-3874	; 1594 <BIT12+0x594>
    1590:	21232f21 			; <UNDEFINED> instruction: 0x21232f21
    1594:	0d032f2f 	stceq	15, cr2, [r3, #-188]	; 0xffffff44
    1598:	212f2166 			; <UNDEFINED> instruction: 0x212f2166
    159c:	21304b31 	teqcs	r0, r1, lsr fp
    15a0:	232f4021 			; <UNDEFINED> instruction: 0x232f4021
    15a4:	2f22213d 	svccs	0x0022213d
    15a8:	2f21243d 	svccs	0x0021243d
    15ac:	302f2126 	eorcc	r2, pc, r6, lsr #2
    15b0:	4b302f2f 	blmi	c0d274 <BIT23+0x40d274>
    15b4:	22212130 	eorcs	r2, r1, #48, 2
    15b8:	2f21214b 	svccs	0x0021214b
    15bc:	3d212f22 	stccc	15, cr2, [r1, #-136]!	; 0xffffff78
    15c0:	22212133 	eorcs	r2, r1, #-1073741812	; 0xc000000c
    15c4:	2f21214b 	svccs	0x0021214b
    15c8:	3d212f22 	stccc	15, cr2, [r1, #-136]!	; 0xffffff78
    15cc:	32302f31 	eorscc	r2, r0, #49, 30	; 0xc4
    15d0:	2e7deb03 	vaddcs.f64	d30, d13, d3
    15d4:	2e00c403 	cdpcs	4, 0, cr12, cr0, cr3, {0}
    15d8:	032e3103 			; <UNDEFINED> instruction: 0x032e3103
    15dc:	14032e0c 	strne	r2, [r3], #-3596	; 0xfffff1f4
    15e0:	0316042e 	tsteq	r6, #771751936	; 0x2e000000
    15e4:	21827e8d 	orrcs	r7, r2, sp, lsl #29
    15e8:	033d3d2f 	teqeq	sp, #3008	; 0xbc0
    15ec:	2321660c 			; <UNDEFINED> instruction: 0x2321660c
    15f0:	6c222121 	stfvss	f2, [r2], #-132	; 0xffffff7c
    15f4:	21212123 			; <UNDEFINED> instruction: 0x21212123
    15f8:	333d2222 	teqcc	sp, #536870914	; 0x20000002
    15fc:	3e223d2f 	cdpcc	13, 2, cr3, cr2, cr15, {1}
    1600:	21212430 			; <UNDEFINED> instruction: 0x21212430
    1604:	30232221 	eorcc	r2, r3, r1, lsr #4
    1608:	4b332f2f 	blmi	ccd2cc <BIT23+0x4cd2cc>
    160c:	2121232f 			; <UNDEFINED> instruction: 0x2121232f
    1610:	22212123 	eorcs	r2, r1, #-1073741816	; 0xc0000008
    1614:	21214b21 			; <UNDEFINED> instruction: 0x21214b21
    1618:	212f2821 			; <UNDEFINED> instruction: 0x212f2821
    161c:	2121222f 			; <UNDEFINED> instruction: 0x2121222f
    1620:	2f222126 	svccs	0x00222126
    1624:	232f262f 			; <UNDEFINED> instruction: 0x232f262f
    1628:	2f302221 	svccs	0x00302221
    162c:	212f2430 			; <UNDEFINED> instruction: 0x212f2430
    1630:	21741503 	cmncs	r4, r3, lsl #10
    1634:	21222121 			; <UNDEFINED> instruction: 0x21222121
    1638:	303d2f30 	eorscc	r2, sp, r0, lsr pc
    163c:	21893d3d 	orrcs	r3, r9, sp, lsr sp
    1640:	21222121 			; <UNDEFINED> instruction: 0x21222121
    1644:	23262f30 			; <UNDEFINED> instruction: 0x23262f30
    1648:	21222130 			; <UNDEFINED> instruction: 0x21222130
    164c:	21212221 			; <UNDEFINED> instruction: 0x21212221
    1650:	30222f21 	eorcc	r2, r2, r1, lsr #30
    1654:	04222122 	strteq	r2, [r2], #-290	; 0xfffffede
    1658:	7e9d0317 	mrcvc	3, 4, r0, cr13, cr7, {0}
    165c:	7a212f74 	bvc	84d434 <BIT23+0x4d434>
    1660:	22212123 	eorcs	r2, r1, #-1073741816	; 0xc0000008
    1664:	21232221 			; <UNDEFINED> instruction: 0x21232221
    1668:	21212122 			; <UNDEFINED> instruction: 0x21212122
    166c:	21212121 			; <UNDEFINED> instruction: 0x21212121
    1670:	21212123 			; <UNDEFINED> instruction: 0x21212123
    1674:	21222121 			; <UNDEFINED> instruction: 0x21222121
    1678:	21232121 			; <UNDEFINED> instruction: 0x21232121
    167c:	21232123 			; <UNDEFINED> instruction: 0x21232123
    1680:	03160422 	tsteq	r6, #570425344	; 0x22000000
    1684:	0e032057 	mcreq	0, 0, r2, cr3, cr7, {2}
    1688:	00d5032e 	sbcseq	r0, r5, lr, lsr #6
    168c:	0317042e 	tsteq	r7, #771751936	; 0x2e000000
    1690:	322e7f97 	eorcc	r7, lr, #604	; 0x25c
    1694:	77031804 	strvc	r1, [r3, -r4, lsl #16]
    1698:	21232182 	smlawbcs	r3, r2, r1, r2
    169c:	21262122 			; <UNDEFINED> instruction: 0x21262122
    16a0:	25212321 	strcs	r2, [r1, #-801]!	; 0xfffffcdf
    16a4:	21232121 			; <UNDEFINED> instruction: 0x21232121
    16a8:	21200903 			; <UNDEFINED> instruction: 0x21200903
    16ac:	2f222126 	svccs	0x00222126
    16b0:	1c032121 	stfnes	f2, [r3], {33}	; 0x21
    16b4:	222f2282 	eorcs	r2, pc, #536870920	; 0x20000008
    16b8:	21222122 			; <UNDEFINED> instruction: 0x21222122
    16bc:	21262122 			; <UNDEFINED> instruction: 0x21262122
    16c0:	23212123 			; <UNDEFINED> instruction: 0x23212123
    16c4:	21212121 			; <UNDEFINED> instruction: 0x21212121
    16c8:	21222121 			; <UNDEFINED> instruction: 0x21222121
    16cc:	21222121 			; <UNDEFINED> instruction: 0x21222121
    16d0:	21222121 			; <UNDEFINED> instruction: 0x21222121
    16d4:	21222121 			; <UNDEFINED> instruction: 0x21222121
    16d8:	21222121 			; <UNDEFINED> instruction: 0x21222121
    16dc:	212f3d24 			; <UNDEFINED> instruction: 0x212f3d24
    16e0:	3d3d2521 	cfldr32cc	mvfx2, [sp, #-132]!	; 0xffffff7c
    16e4:	2f213e3d 	svccs	0x00213e3d
    16e8:	21302f22 	teqcs	r0, r2, lsr #30
    16ec:	25222121 	strcs	r2, [r2, #-289]!	; 0xfffffedf
    16f0:	21232121 			; <UNDEFINED> instruction: 0x21232121
    16f4:	22212121 	eorcs	r2, r1, #1073741832	; 0x40000008
    16f8:	21212121 			; <UNDEFINED> instruction: 0x21212121
    16fc:	21243e3d 			; <UNDEFINED> instruction: 0x21243e3d
    1700:	21212521 			; <UNDEFINED> instruction: 0x21212521
    1704:	21232123 			; <UNDEFINED> instruction: 0x21232123
    1708:	3d242122 	stfccs	f2, [r4, #-136]!	; 0xffffff78
    170c:	2421212f 	strtcs	r2, [r1], #-303	; 0xfffffed1
    1710:	213f2121 	teqcs	pc, r1, lsr #2
    1714:	222f212f 	eorcs	r2, pc, #-1073741813	; 0xc000000b
    1718:	21820f03 	orrcs	r0, r2, r3, lsl #30
    171c:	21222121 			; <UNDEFINED> instruction: 0x21222121
    1720:	21222121 			; <UNDEFINED> instruction: 0x21222121
    1724:	30741303 	rsbscc	r1, r4, r3, lsl #6
    1728:	23212221 			; <UNDEFINED> instruction: 0x23212221
    172c:	21232321 			; <UNDEFINED> instruction: 0x21232321
    1730:	21212123 			; <UNDEFINED> instruction: 0x21212123
    1734:	21212221 			; <UNDEFINED> instruction: 0x21212221
    1738:	307a2223 	rsbscc	r2, sl, r3, lsr #4
    173c:	22212221 	eorcs	r2, r1, #268435458	; 0x10000002
    1740:	03212121 			; <UNDEFINED> instruction: 0x03212121
    1744:	21217409 			; <UNDEFINED> instruction: 0x21217409
    1748:	6e212221 	cdpvs	2, 2, cr2, cr1, cr1, {1}
    174c:	21212121 			; <UNDEFINED> instruction: 0x21212121
    1750:	2f22216d 	svccs	0x0022216d
    1754:	09032221 	stmdbeq	r3, {r0, r5, r9, sp}
    1758:	212f2166 			; <UNDEFINED> instruction: 0x212f2166
    175c:	2f2f2f21 	svccs	0x002f2f21
    1760:	21660903 	cmncs	r6, r3, lsl #18
    1764:	2122212f 			; <UNDEFINED> instruction: 0x2122212f
    1768:	0c032121 	stfeqs	f2, [r3], {33}	; 0x21
    176c:	212f2158 			; <UNDEFINED> instruction: 0x212f2158
    1770:	30303e21 	eorscc	r3, r0, r1, lsr #28
    1774:	6e303022 	cdpvs	0, 3, cr3, cr0, cr2, {1}
    1778:	6d212121 	stfvss	f2, [r1, #-132]!	; 0xffffff7c
    177c:	21216e3d 			; <UNDEFINED> instruction: 0x21216e3d
    1780:	3d302f31 	ldccc	15, cr2, [r0, #-196]!	; 0xffffff3c
    1784:	21222f30 			; <UNDEFINED> instruction: 0x21222f30
    1788:	2f222130 	svccs	0x00222130
    178c:	21212221 			; <UNDEFINED> instruction: 0x21212221
    1790:	6d2f2f30 	stcvs	15, cr2, [pc, #-192]!	; 16d8 <BIT12+0x6d8>
    1794:	6c2f2f21 	stcvs	15, cr2, [pc], #-132	; 1718 <BIT12+0x718>
    1798:	2f302f21 	svccs	0x00302f21
    179c:	2f312f2f 	svccs	0x00312f2f
    17a0:	0a032f2f 	beq	cd464 <BIT19+0x4d464>
    17a4:	2f603d66 	svccs	0x00603d66
    17a8:	7be10321 	blvc	ff842434 <erasedword+0xff842435>
    17ac:	029e032e 	addseq	r0, lr, #-1207959552	; 0xb8000000
    17b0:	0319042e 	tsteq	r9, #771751936	; 0x2e000000
    17b4:	242e7dd8 	strtcs	r7, [lr], #-3544	; 0xfffff228
    17b8:	2321212f 			; <UNDEFINED> instruction: 0x2321212f
    17bc:	21252221 			; <UNDEFINED> instruction: 0x21252221
    17c0:	2521212f 	strcs	r2, [r1, #-303]!	; 0xfffffed1
    17c4:	21212f21 			; <UNDEFINED> instruction: 0x21212f21
    17c8:	21212f25 			; <UNDEFINED> instruction: 0x21212f25
    17cc:	30212521 	eorcc	r2, r1, r1, lsr #10
    17d0:	2f21212f 	svccs	0x0021212f
    17d4:	21212f23 			; <UNDEFINED> instruction: 0x21212f23
    17d8:	2f312f32 	svccs	0x00312f32
    17dc:	233d2121 	teqcs	sp, #1073741832	; 0x40000008
    17e0:	212e0c03 			; <UNDEFINED> instruction: 0x212e0c03
    17e4:	21212521 			; <UNDEFINED> instruction: 0x21212521
    17e8:	21222125 			; <UNDEFINED> instruction: 0x21222125
    17ec:	032f3d25 			; <UNDEFINED> instruction: 0x032f3d25
    17f0:	212f200f 			; <UNDEFINED> instruction: 0x212f200f
    17f4:	3d3d3322 	ldccc	3, cr3, [sp, #-136]!	; 0xffffff78
    17f8:	222f2131 	eorcs	r2, pc, #1073741836	; 0x4000000c
    17fc:	2f302421 	svccs	0x00302421
    1800:	3d3d3027 	ldccc	0, cr3, [sp, #-156]!	; 0xffffff64
    1804:	2f332f30 	svccs	0x00332f30
    1808:	3e332121 	rsfccsp	f2, f3, f1
    180c:	2f222121 	svccs	0x00222121
    1810:	22212122 	eorcs	r2, r1, #-2147483640	; 0x80000008
    1814:	042f222f 	strteq	r2, [pc], #-559	; 181c <BIT12+0x81c>
    1818:	7ebf031a 	mrcvc	3, 5, r0, cr15, cr10, {0}
    181c:	302f2220 	eorcc	r2, pc, r0, lsr #4
    1820:	23212221 			; <UNDEFINED> instruction: 0x23212221
    1824:	23212221 			; <UNDEFINED> instruction: 0x23212221
    1828:	24222121 	strtcs	r2, [r2], #-289	; 0xfffffedf
    182c:	22212121 	eorcs	r2, r1, #1073741832	; 0x40000008
    1830:	22212225 	eorcs	r2, r1, #1342177282	; 0x50000002
    1834:	21212421 			; <UNDEFINED> instruction: 0x21212421
    1838:	2f313d22 	svccs	0x00313d22
    183c:	212f3021 			; <UNDEFINED> instruction: 0x212f3021
    1840:	30212f30 	eorcc	r2, r1, r0, lsr pc
    1844:	4b232121 	blmi	8c9cd0 <BIT23+0xc9cd0>
    1848:	2f3d2331 	svccs	0x003d2331
    184c:	2f2f2225 	svccs	0x002f2225
    1850:	212f2421 			; <UNDEFINED> instruction: 0x212f2421
    1854:	2f222121 	svccs	0x00222121
    1858:	212f2122 			; <UNDEFINED> instruction: 0x212f2122
    185c:	04222121 	strteq	r2, [r2], #-289	; 0xfffffedf
    1860:	7f92031b 	svcvc	0x0092031b
    1864:	21312190 	teqcs	r1, r0	; <illegal shifter operand>
    1868:	21222121 			; <UNDEFINED> instruction: 0x21222121
    186c:	22212121 	eorcs	r2, r1, #1073741832	; 0x40000008
    1870:	2121302f 			; <UNDEFINED> instruction: 0x2121302f
    1874:	21212f23 			; <UNDEFINED> instruction: 0x21212f23
    1878:	96302221 	ldrtls	r2, [r0], -r1, lsr #4
    187c:	21212128 			; <UNDEFINED> instruction: 0x21212128
    1880:	212121f4 	strdcs	r2, [r1, -r4]!
    1884:	213231f7 	teqcs	r2, r7	; <illegal shifter operand>
    1888:	0b032f21 	bleq	cd514 <BIT19+0x4d514>
    188c:	2f315920 	svccs	0x00315920
    1890:	21242136 			; <UNDEFINED> instruction: 0x21242136
    1894:	2f353022 	svccs	0x00353022
    1898:	3d3d2421 	cfldrscc	mvf2, [sp, #-132]!	; 0xffffff7c
    189c:	d60c032f 	strle	r0, [ip], -pc, lsr #6
    18a0:	22212121 	eorcs	r2, r1, #1073741832	; 0x40000008
    18a4:	21212130 			; <UNDEFINED> instruction: 0x21212130
    18a8:	15082f21 	strne	r2, [r8, #-3873]	; 0xfffff0df
    18ac:	282f3d2f 	stmdacs	pc!, {r0, r1, r2, r3, r5, r8, sl, fp, ip, sp}	; <UNPREDICTABLE>
    18b0:	2f3e3d30 	svccs	0x003e3d30
    18b4:	03212f97 			; <UNDEFINED> instruction: 0x03212f97
    18b8:	2331900e 	teqcs	r1, #14
    18bc:	22212133 	eorcs	r2, r1, #-1073741812	; 0xc000000c
    18c0:	30222121 	eorcc	r2, r2, r1, lsr #2
    18c4:	22223022 	eorcs	r3, r2, #34	; 0x22
    18c8:	23212122 			; <UNDEFINED> instruction: 0x23212122
    18cc:	2f232121 	svccs	0x00232121
    18d0:	21212133 			; <UNDEFINED> instruction: 0x21212133
    18d4:	6a216721 	bvs	85b560 <BIT23+0x5b560>
    18d8:	242f2221 	strtcs	r2, [pc], #-545	; 18e0 <BIT12+0x8e0>
    18dc:	75217523 	strvc	r7, [r1, #-1315]!	; 0xfffffadd
    18e0:	8c031904 			; <UNDEFINED> instruction: 0x8c031904
    18e4:	1a042e7f 	bne	10d2e8 <BIT20+0xd2e8>
    18e8:	2e7ef803 	cdpcs	8, 7, cr15, cr14, cr3, {0}
    18ec:	042e0a03 	strteq	r0, [lr], #-2563	; 0xfffff5fd
    18f0:	2403291b 	strcs	r2, [r3], #-2331	; 0xfffff6e5
    18f4:	d003332e 	andle	r3, r3, lr, lsr #6
    18f8:	28032e00 	stmdacs	r3, {r9, sl, fp, sp}
    18fc:	2e0f032e 	cdpcs	3, 0, cr0, cr15, cr14, {1}
    1900:	032e0b03 			; <UNDEFINED> instruction: 0x032e0b03
    1904:	03312e12 	teqeq	r1, #288	; 0x120
    1908:	1c042e19 	stcne	14, cr2, [r4], {25}
    190c:	827e8d03 	rsbshi	r8, lr, #3, 26	; 0xc0
    1910:	21212f2f 			; <UNDEFINED> instruction: 0x21212f2f
    1914:	21792179 	cmncs	r9, r9, ror r1
    1918:	6c2f2f79 	stcvs	15, cr2, [pc], #-484	; 173c <BIT12+0x73c>
    191c:	2fc92296 	svccs	0x00c92296
    1920:	7a4b2f2f 	bvc	12cd5e4 <BIT24+0x2cd5e4>
    1924:	c5032121 	strgt	r2, [r3, #-289]	; 0xfffffedf
    1928:	3d089e00 	stccc	14, cr9, [r8, #-0]
    192c:	1d046708 	stcne	7, cr6, [r4, #-32]	; 0xffffffe0
    1930:	087f8a03 	ldmdaeq	pc!, {r0, r1, r9, fp, pc}^	; <UNPREDICTABLE>
    1934:	083d083c 	ldmdaeq	sp!, {r2, r3, r4, r5, fp}
    1938:	083d083d 	ldmdaeq	sp!, {r0, r2, r3, r4, r5, fp}
    193c:	082f083d 	stmdaeq	pc!, {r0, r2, r3, r4, r5, fp}	; <UNPREDICTABLE>
    1940:	083d083d 	ldmdaeq	sp!, {r0, r2, r3, r4, r5, fp}
    1944:	031e043d 	tsteq	lr, #1023410176	; 0x3d000000
    1948:	04ac0829 	strteq	r0, [ip], #2089	; 0x829
    194c:	2e50031f 	mrccs	3, 2, r0, cr0, cr15, {0}
    1950:	03252421 			; <UNDEFINED> instruction: 0x03252421
    1954:	212f200d 			; <UNDEFINED> instruction: 0x212f200d
    1958:	21302223 	teqcs	r0, r3, lsr #4
    195c:	23212f24 			; <UNDEFINED> instruction: 0x23212f24
    1960:	21323021 	teqcs	r2, r1, lsr #32
    1964:	21232121 			; <UNDEFINED> instruction: 0x21232121
    1968:	25222122 	strcs	r2, [r2, #-290]!	; 0xfffffede
    196c:	03212421 			; <UNDEFINED> instruction: 0x03212421
    1970:	3021200b 	eorcc	r2, r1, fp
    1974:	3d3d3d31 	ldccc	13, cr3, [sp, #-196]!	; 0xffffff3c
    1978:	232f2f35 			; <UNDEFINED> instruction: 0x232f2f35
    197c:	21222121 			; <UNDEFINED> instruction: 0x21222121
    1980:	32212f26 	eorcc	r2, r1, #38, 30	; 0x98
    1984:	21212221 			; <UNDEFINED> instruction: 0x21212221
    1988:	21232321 			; <UNDEFINED> instruction: 0x21232321
    198c:	031e0423 	tsteq	lr, #587202560	; 0x23000000
    1990:	042e7fac 	strteq	r7, [lr], #-4012	; 0xfffff054
    1994:	02470320 	subeq	r0, r7, #32, 6	; 0x80000000
    1998:	212f0123 			; <UNDEFINED> instruction: 0x212f0123
    199c:	212f3323 			; <UNDEFINED> instruction: 0x212f3323
    19a0:	21212f3d 			; <UNDEFINED> instruction: 0x21212f3d
    19a4:	21222f22 			; <UNDEFINED> instruction: 0x21222f22
    19a8:	1a031c04 	bne	c89c0 <BIT19+0x489c0>
    19ac:	c6032f4a 	strgt	r2, [r3], -sl, asr #30
    19b0:	2f2f2e00 	svccs	0x002f2e00
    19b4:	8a031d04 	bhi	c8dcc <BIT19+0x48dcc>
    19b8:	2f2f2e7f 	svccs	0x002f2e7f
    19bc:	2f2f2f2f 	svccs	0x002f2f2f
    19c0:	1f042f2f 	svcne	0x00042f2f
    19c4:	332e7903 			; <UNDEFINED> instruction: 0x332e7903
    19c8:	2f2e1303 	svccs	0x002e1303
    19cc:	2e00cf03 	cdpcs	15, 0, cr12, cr0, cr3, {0}
    19d0:	11033632 	tstne	r3, r2, lsr r6
    19d4:	0320042e 			; <UNDEFINED> instruction: 0x0320042e
    19d8:	022e7f82 	eoreq	r7, lr, #520	; 0x208
    19dc:	01010002 	tsteq	r1, r2

Disassembly of section .debug_info:

00000000 <.debug_info>:
   0:	00000022 	andeq	r0, r0, r2, lsr #32
   4:	00000002 	andeq	r0, r0, r2
   8:	01040000 	mrseq	r0, (UNDEF: 4)
   c:	00000000 	andeq	r0, r0, r0
  10:	08000000 	stmdaeq	r0, {}	; <UNPREDICTABLE>
  14:	08005404 	stmdaeq	r0, {r2, sl, ip, lr}
  18:	00000000 	andeq	r0, r0, r0
  1c:	00000021 	andeq	r0, r0, r1, lsr #32
  20:	00000078 	andeq	r0, r0, r8, ror r0
  24:	Address 0x0000000000000024 is out of bounds.


Disassembly of section .debug_abbrev:

00000000 <.debug_abbrev>:
   0:	10001101 	andne	r1, r0, r1, lsl #2
   4:	12011106 	andne	r1, r1, #-2147483647	; 0x80000001
   8:	1b0e0301 	blne	380c14 <BIT21+0x180c14>
   c:	130e250e 	movwne	r2, #58638	; 0xe50e
  10:	00000005 	andeq	r0, r0, r5

Disassembly of section .debug_aranges:

00000000 <.debug_aranges>:
   0:	0000001c 	andeq	r0, r0, ip, lsl r0
   4:	00000002 	andeq	r0, r0, r2
   8:	00040000 	andeq	r0, r4, r0
   c:	00000000 	andeq	r0, r0, r0
  10:	08000000 	stmdaeq	r0, {}	; <UNPREDICTABLE>
  14:	00005404 	andeq	r5, r0, r4, lsl #8
	...

Disassembly of section .debug_str:

00000000 <.debug_str>:
   0:	632f2e2e 			; <UNDEFINED> instruction: 0x632f2e2e
   4:	6f6d6d6f 	svcvs	0x006d6d6f
   8:	61722f6e 	cmnvs	r2, lr, ror #30
   c:	2d61722f 	sfmcs	f7, 2, [r1, #-188]!	; 0xffffff44
  10:	72666e69 	rsbvc	r6, r6, #1680	; 0x690
  14:	72747361 	rsbsvc	r7, r4, #-2080374783	; 0x84000001
  18:	75746375 	ldrbvc	r6, [r4, #-885]!	; 0xfffffc8b
  1c:	732e6572 			; <UNDEFINED> instruction: 0x732e6572
  20:	6f682f00 	svcvs	0x00682f00
  24:	6d2f656d 	cfstr32vs	mvfx6, [pc, #-436]!	; fffffe78 <erasedword+0xfffffe79>
  28:	6972726f 	ldmdbvs	r2!, {r0, r1, r2, r3, r5, r6, r9, ip, sp, lr}^
  2c:	74532f73 	ldrbvc	r2, [r3], #-3955	; 0xfffff08d
  30:	2f666675 	svccs	0x00666675
  34:	74726f66 	ldrbtvc	r6, [r2], #-3942	; 0xfffff09a
  38:	656d2f68 	strbvs	r2, [sp, #-3944]!	; 0xfffff098
  3c:	73697263 	cmnvc	r9, #805306374	; 0x30000006
  40:	74732d70 	ldrbtvc	r2, [r3], #-3440	; 0xfffff290
  44:	616c6c65 	cmnvs	ip, r5, ror #24
  48:	2d736972 			; <UNDEFINED> instruction: 0x2d736972
  4c:	2e362e32 	mrccs	14, 1, r2, cr6, cr2, {1}
  50:	656d2f35 	strbvs	r2, [sp, #-3893]!	; 0xfffff0cb
  54:	73697263 	cmnvc	r9, #805306374	; 0x30000006
  58:	74732d70 	ldrbtvc	r2, [r3], #-3440	; 0xfffff290
  5c:	616c6c65 	cmnvs	ip, r5, ror #24
  60:	2d736972 			; <UNDEFINED> instruction: 0x2d736972
  64:	72756f73 	rsbsvc	r6, r5, #460	; 0x1cc
  68:	732f6563 			; <UNDEFINED> instruction: 0x732f6563
  6c:	32336d74 	eorscc	r6, r3, #116, 26	; 0x1d00
  70:	35343768 	ldrcc	r3, [r4, #-1896]!	; 0xfffff898
  74:	0061722d 	rsbeq	r7, r1, sp, lsr #4
  78:	20554e47 	subscs	r4, r5, r7, asr #28
  7c:	32205341 	eorcc	r5, r0, #67108865	; 0x4000001
  80:	0038332e 	eorseq	r3, r8, lr, lsr #6
